GAS LISTING C:\Users\NJLLMR~1\AppData\Local\Temp\ccqq7oi7.s 			page 1


   1              		.file	"Employee.cpp"
   2              		.text
   3              	Ltext0:
   4              		.cfi_sections	.debug_frame
   5              		.section	.text$_ZStanSt13_Ios_FmtflagsS_,"x"
   6              		.linkonce discard
   7              		.globl	__ZStanSt13_Ios_FmtflagsS_
   9              	__ZStanSt13_Ios_FmtflagsS_:
  10              	LFB629:
  11              		.file 1 "C:/Program Files (x86)/CodeBlocks/MinGW/lib/gcc/mingw32/4.9.2/include/c++/bits/ios_base.h
   1:C:/Program Files (x86)/CodeBlocks/MinGW/lib/gcc/mingw32/4.9.2/include/c++/bits\ios_base.h **** // Iostreams base classes -*- C++ -*-
   2:C:/Program Files (x86)/CodeBlocks/MinGW/lib/gcc/mingw32/4.9.2/include/c++/bits\ios_base.h **** 
   3:C:/Program Files (x86)/CodeBlocks/MinGW/lib/gcc/mingw32/4.9.2/include/c++/bits\ios_base.h **** // Copyright (C) 1997-2014 Free Software Foundation, Inc.
   4:C:/Program Files (x86)/CodeBlocks/MinGW/lib/gcc/mingw32/4.9.2/include/c++/bits\ios_base.h **** //
   5:C:/Program Files (x86)/CodeBlocks/MinGW/lib/gcc/mingw32/4.9.2/include/c++/bits\ios_base.h **** // This file is part of the GNU ISO C++ Library.  This library is free
   6:C:/Program Files (x86)/CodeBlocks/MinGW/lib/gcc/mingw32/4.9.2/include/c++/bits\ios_base.h **** // software; you can redistribute it and/or modify it under the
   7:C:/Program Files (x86)/CodeBlocks/MinGW/lib/gcc/mingw32/4.9.2/include/c++/bits\ios_base.h **** // terms of the GNU General Public License as published by the
   8:C:/Program Files (x86)/CodeBlocks/MinGW/lib/gcc/mingw32/4.9.2/include/c++/bits\ios_base.h **** // Free Software Foundation; either version 3, or (at your option)
   9:C:/Program Files (x86)/CodeBlocks/MinGW/lib/gcc/mingw32/4.9.2/include/c++/bits\ios_base.h **** // any later version.
  10:C:/Program Files (x86)/CodeBlocks/MinGW/lib/gcc/mingw32/4.9.2/include/c++/bits\ios_base.h **** 
  11:C:/Program Files (x86)/CodeBlocks/MinGW/lib/gcc/mingw32/4.9.2/include/c++/bits\ios_base.h **** // This library is distributed in the hope that it will be useful,
  12:C:/Program Files (x86)/CodeBlocks/MinGW/lib/gcc/mingw32/4.9.2/include/c++/bits\ios_base.h **** // but WITHOUT ANY WARRANTY; without even the implied warranty of
  13:C:/Program Files (x86)/CodeBlocks/MinGW/lib/gcc/mingw32/4.9.2/include/c++/bits\ios_base.h **** // MERCHANTABILITY or FITNESS FOR A PARTICULAR PURPOSE.  See the
  14:C:/Program Files (x86)/CodeBlocks/MinGW/lib/gcc/mingw32/4.9.2/include/c++/bits\ios_base.h **** // GNU General Public License for more details.
  15:C:/Program Files (x86)/CodeBlocks/MinGW/lib/gcc/mingw32/4.9.2/include/c++/bits\ios_base.h **** 
  16:C:/Program Files (x86)/CodeBlocks/MinGW/lib/gcc/mingw32/4.9.2/include/c++/bits\ios_base.h **** // Under Section 7 of GPL version 3, you are granted additional
  17:C:/Program Files (x86)/CodeBlocks/MinGW/lib/gcc/mingw32/4.9.2/include/c++/bits\ios_base.h **** // permissions described in the GCC Runtime Library Exception, version
  18:C:/Program Files (x86)/CodeBlocks/MinGW/lib/gcc/mingw32/4.9.2/include/c++/bits\ios_base.h **** // 3.1, as published by the Free Software Foundation.
  19:C:/Program Files (x86)/CodeBlocks/MinGW/lib/gcc/mingw32/4.9.2/include/c++/bits\ios_base.h **** 
  20:C:/Program Files (x86)/CodeBlocks/MinGW/lib/gcc/mingw32/4.9.2/include/c++/bits\ios_base.h **** // You should have received a copy of the GNU General Public License and
  21:C:/Program Files (x86)/CodeBlocks/MinGW/lib/gcc/mingw32/4.9.2/include/c++/bits\ios_base.h **** // a copy of the GCC Runtime Library Exception along with this program;
  22:C:/Program Files (x86)/CodeBlocks/MinGW/lib/gcc/mingw32/4.9.2/include/c++/bits\ios_base.h **** // see the files COPYING3 and COPYING.RUNTIME respectively.  If not, see
  23:C:/Program Files (x86)/CodeBlocks/MinGW/lib/gcc/mingw32/4.9.2/include/c++/bits\ios_base.h **** // <http://www.gnu.org/licenses/>.
  24:C:/Program Files (x86)/CodeBlocks/MinGW/lib/gcc/mingw32/4.9.2/include/c++/bits\ios_base.h **** 
  25:C:/Program Files (x86)/CodeBlocks/MinGW/lib/gcc/mingw32/4.9.2/include/c++/bits\ios_base.h **** /** @file bits/ios_base.h
  26:C:/Program Files (x86)/CodeBlocks/MinGW/lib/gcc/mingw32/4.9.2/include/c++/bits\ios_base.h ****  *  This is an internal header file, included by other library headers.
  27:C:/Program Files (x86)/CodeBlocks/MinGW/lib/gcc/mingw32/4.9.2/include/c++/bits\ios_base.h ****  *  Do not attempt to use it directly. @headername{ios}
  28:C:/Program Files (x86)/CodeBlocks/MinGW/lib/gcc/mingw32/4.9.2/include/c++/bits\ios_base.h ****  */
  29:C:/Program Files (x86)/CodeBlocks/MinGW/lib/gcc/mingw32/4.9.2/include/c++/bits\ios_base.h **** 
  30:C:/Program Files (x86)/CodeBlocks/MinGW/lib/gcc/mingw32/4.9.2/include/c++/bits\ios_base.h **** //
  31:C:/Program Files (x86)/CodeBlocks/MinGW/lib/gcc/mingw32/4.9.2/include/c++/bits\ios_base.h **** // ISO C++ 14882: 27.4  Iostreams base classes
  32:C:/Program Files (x86)/CodeBlocks/MinGW/lib/gcc/mingw32/4.9.2/include/c++/bits\ios_base.h **** //
  33:C:/Program Files (x86)/CodeBlocks/MinGW/lib/gcc/mingw32/4.9.2/include/c++/bits\ios_base.h **** 
  34:C:/Program Files (x86)/CodeBlocks/MinGW/lib/gcc/mingw32/4.9.2/include/c++/bits\ios_base.h **** #ifndef _IOS_BASE_H
  35:C:/Program Files (x86)/CodeBlocks/MinGW/lib/gcc/mingw32/4.9.2/include/c++/bits\ios_base.h **** #define _IOS_BASE_H 1
  36:C:/Program Files (x86)/CodeBlocks/MinGW/lib/gcc/mingw32/4.9.2/include/c++/bits\ios_base.h **** 
  37:C:/Program Files (x86)/CodeBlocks/MinGW/lib/gcc/mingw32/4.9.2/include/c++/bits\ios_base.h **** #pragma GCC system_header
  38:C:/Program Files (x86)/CodeBlocks/MinGW/lib/gcc/mingw32/4.9.2/include/c++/bits\ios_base.h **** 
  39:C:/Program Files (x86)/CodeBlocks/MinGW/lib/gcc/mingw32/4.9.2/include/c++/bits\ios_base.h **** #include <ext/atomicity.h>
  40:C:/Program Files (x86)/CodeBlocks/MinGW/lib/gcc/mingw32/4.9.2/include/c++/bits\ios_base.h **** #include <bits/localefwd.h>
  41:C:/Program Files (x86)/CodeBlocks/MinGW/lib/gcc/mingw32/4.9.2/include/c++/bits\ios_base.h **** #include <bits/locale_classes.h>
  42:C:/Program Files (x86)/CodeBlocks/MinGW/lib/gcc/mingw32/4.9.2/include/c++/bits\ios_base.h **** 
  43:C:/Program Files (x86)/CodeBlocks/MinGW/lib/gcc/mingw32/4.9.2/include/c++/bits\ios_base.h **** namespace std _GLIBCXX_VISIBILITY(default)
  44:C:/Program Files (x86)/CodeBlocks/MinGW/lib/gcc/mingw32/4.9.2/include/c++/bits\ios_base.h **** {
  45:C:/Program Files (x86)/CodeBlocks/MinGW/lib/gcc/mingw32/4.9.2/include/c++/bits\ios_base.h **** _GLIBCXX_BEGIN_NAMESPACE_VERSION
  46:C:/Program Files (x86)/CodeBlocks/MinGW/lib/gcc/mingw32/4.9.2/include/c++/bits\ios_base.h **** 
  47:C:/Program Files (x86)/CodeBlocks/MinGW/lib/gcc/mingw32/4.9.2/include/c++/bits\ios_base.h ****   // The following definitions of bitmask types are enums, not ints,
GAS LISTING C:\Users\NJLLMR~1\AppData\Local\Temp\ccqq7oi7.s 			page 2


  48:C:/Program Files (x86)/CodeBlocks/MinGW/lib/gcc/mingw32/4.9.2/include/c++/bits\ios_base.h ****   // as permitted (but not required) in the standard, in order to provide
  49:C:/Program Files (x86)/CodeBlocks/MinGW/lib/gcc/mingw32/4.9.2/include/c++/bits\ios_base.h ****   // better type safety in iostream calls.  A side effect is that
  50:C:/Program Files (x86)/CodeBlocks/MinGW/lib/gcc/mingw32/4.9.2/include/c++/bits\ios_base.h ****   // expressions involving them are no longer compile-time constants.
  51:C:/Program Files (x86)/CodeBlocks/MinGW/lib/gcc/mingw32/4.9.2/include/c++/bits\ios_base.h ****   enum _Ios_Fmtflags 
  52:C:/Program Files (x86)/CodeBlocks/MinGW/lib/gcc/mingw32/4.9.2/include/c++/bits\ios_base.h ****     { 
  53:C:/Program Files (x86)/CodeBlocks/MinGW/lib/gcc/mingw32/4.9.2/include/c++/bits\ios_base.h ****       _S_boolalpha 	= 1L << 0,
  54:C:/Program Files (x86)/CodeBlocks/MinGW/lib/gcc/mingw32/4.9.2/include/c++/bits\ios_base.h ****       _S_dec 		= 1L << 1,
  55:C:/Program Files (x86)/CodeBlocks/MinGW/lib/gcc/mingw32/4.9.2/include/c++/bits\ios_base.h ****       _S_fixed 		= 1L << 2,
  56:C:/Program Files (x86)/CodeBlocks/MinGW/lib/gcc/mingw32/4.9.2/include/c++/bits\ios_base.h ****       _S_hex 		= 1L << 3,
  57:C:/Program Files (x86)/CodeBlocks/MinGW/lib/gcc/mingw32/4.9.2/include/c++/bits\ios_base.h ****       _S_internal 	= 1L << 4,
  58:C:/Program Files (x86)/CodeBlocks/MinGW/lib/gcc/mingw32/4.9.2/include/c++/bits\ios_base.h ****       _S_left 		= 1L << 5,
  59:C:/Program Files (x86)/CodeBlocks/MinGW/lib/gcc/mingw32/4.9.2/include/c++/bits\ios_base.h ****       _S_oct 		= 1L << 6,
  60:C:/Program Files (x86)/CodeBlocks/MinGW/lib/gcc/mingw32/4.9.2/include/c++/bits\ios_base.h ****       _S_right 		= 1L << 7,
  61:C:/Program Files (x86)/CodeBlocks/MinGW/lib/gcc/mingw32/4.9.2/include/c++/bits\ios_base.h ****       _S_scientific 	= 1L << 8,
  62:C:/Program Files (x86)/CodeBlocks/MinGW/lib/gcc/mingw32/4.9.2/include/c++/bits\ios_base.h ****       _S_showbase 	= 1L << 9,
  63:C:/Program Files (x86)/CodeBlocks/MinGW/lib/gcc/mingw32/4.9.2/include/c++/bits\ios_base.h ****       _S_showpoint 	= 1L << 10,
  64:C:/Program Files (x86)/CodeBlocks/MinGW/lib/gcc/mingw32/4.9.2/include/c++/bits\ios_base.h ****       _S_showpos 	= 1L << 11,
  65:C:/Program Files (x86)/CodeBlocks/MinGW/lib/gcc/mingw32/4.9.2/include/c++/bits\ios_base.h ****       _S_skipws 	= 1L << 12,
  66:C:/Program Files (x86)/CodeBlocks/MinGW/lib/gcc/mingw32/4.9.2/include/c++/bits\ios_base.h ****       _S_unitbuf 	= 1L << 13,
  67:C:/Program Files (x86)/CodeBlocks/MinGW/lib/gcc/mingw32/4.9.2/include/c++/bits\ios_base.h ****       _S_uppercase 	= 1L << 14,
  68:C:/Program Files (x86)/CodeBlocks/MinGW/lib/gcc/mingw32/4.9.2/include/c++/bits\ios_base.h ****       _S_adjustfield 	= _S_left | _S_right | _S_internal,
  69:C:/Program Files (x86)/CodeBlocks/MinGW/lib/gcc/mingw32/4.9.2/include/c++/bits\ios_base.h ****       _S_basefield 	= _S_dec | _S_oct | _S_hex,
  70:C:/Program Files (x86)/CodeBlocks/MinGW/lib/gcc/mingw32/4.9.2/include/c++/bits\ios_base.h ****       _S_floatfield 	= _S_scientific | _S_fixed,
  71:C:/Program Files (x86)/CodeBlocks/MinGW/lib/gcc/mingw32/4.9.2/include/c++/bits\ios_base.h ****       _S_ios_fmtflags_end = 1L << 16 
  72:C:/Program Files (x86)/CodeBlocks/MinGW/lib/gcc/mingw32/4.9.2/include/c++/bits\ios_base.h ****     };
  73:C:/Program Files (x86)/CodeBlocks/MinGW/lib/gcc/mingw32/4.9.2/include/c++/bits\ios_base.h **** 
  74:C:/Program Files (x86)/CodeBlocks/MinGW/lib/gcc/mingw32/4.9.2/include/c++/bits\ios_base.h ****   inline _GLIBCXX_CONSTEXPR _Ios_Fmtflags
  75:C:/Program Files (x86)/CodeBlocks/MinGW/lib/gcc/mingw32/4.9.2/include/c++/bits\ios_base.h ****   operator&(_Ios_Fmtflags __a, _Ios_Fmtflags __b)
  76:C:/Program Files (x86)/CodeBlocks/MinGW/lib/gcc/mingw32/4.9.2/include/c++/bits\ios_base.h ****   { return _Ios_Fmtflags(static_cast<int>(__a) & static_cast<int>(__b)); }
  12              		.loc 1 76 0
  13              		.cfi_startproc
  14 0000 55       		pushl	%ebp
  15              		.cfi_def_cfa_offset 8
  16              		.cfi_offset 5, -8
  17 0001 89E5     		movl	%esp, %ebp
  18              		.cfi_def_cfa_register 5
  19              		.loc 1 76 0
  20 0003 8B5508   		movl	8(%ebp), %edx
  21 0006 8B450C   		movl	12(%ebp), %eax
  22 0009 21D0     		andl	%edx, %eax
  23 000b 5D       		popl	%ebp
  24              		.cfi_restore 5
  25              		.cfi_def_cfa 4, 4
  26 000c C3       		ret
  27              		.cfi_endproc
  28              	LFE629:
  29              		.section	.text$_ZStorSt13_Ios_FmtflagsS_,"x"
  30              		.linkonce discard
  31              		.globl	__ZStorSt13_Ios_FmtflagsS_
  33              	__ZStorSt13_Ios_FmtflagsS_:
  34              	LFB630:
  77:C:/Program Files (x86)/CodeBlocks/MinGW/lib/gcc/mingw32/4.9.2/include/c++/bits\ios_base.h **** 
  78:C:/Program Files (x86)/CodeBlocks/MinGW/lib/gcc/mingw32/4.9.2/include/c++/bits\ios_base.h ****   inline _GLIBCXX_CONSTEXPR _Ios_Fmtflags
  79:C:/Program Files (x86)/CodeBlocks/MinGW/lib/gcc/mingw32/4.9.2/include/c++/bits\ios_base.h ****   operator|(_Ios_Fmtflags __a, _Ios_Fmtflags __b)
  80:C:/Program Files (x86)/CodeBlocks/MinGW/lib/gcc/mingw32/4.9.2/include/c++/bits\ios_base.h ****   { return _Ios_Fmtflags(static_cast<int>(__a) | static_cast<int>(__b)); }
  35              		.loc 1 80 0
  36              		.cfi_startproc
GAS LISTING C:\Users\NJLLMR~1\AppData\Local\Temp\ccqq7oi7.s 			page 3


  37 0000 55       		pushl	%ebp
  38              		.cfi_def_cfa_offset 8
  39              		.cfi_offset 5, -8
  40 0001 89E5     		movl	%esp, %ebp
  41              		.cfi_def_cfa_register 5
  42              		.loc 1 80 0
  43 0003 8B5508   		movl	8(%ebp), %edx
  44 0006 8B450C   		movl	12(%ebp), %eax
  45 0009 09D0     		orl	%edx, %eax
  46 000b 5D       		popl	%ebp
  47              		.cfi_restore 5
  48              		.cfi_def_cfa 4, 4
  49 000c C3       		ret
  50              		.cfi_endproc
  51              	LFE630:
  52 000d 909090   		.section	.text$_ZStcoSt13_Ios_Fmtflags,"x"
  53              		.linkonce discard
  54              		.globl	__ZStcoSt13_Ios_Fmtflags
  56              	__ZStcoSt13_Ios_Fmtflags:
  57              	LFB632:
  81:C:/Program Files (x86)/CodeBlocks/MinGW/lib/gcc/mingw32/4.9.2/include/c++/bits\ios_base.h **** 
  82:C:/Program Files (x86)/CodeBlocks/MinGW/lib/gcc/mingw32/4.9.2/include/c++/bits\ios_base.h ****   inline _GLIBCXX_CONSTEXPR _Ios_Fmtflags
  83:C:/Program Files (x86)/CodeBlocks/MinGW/lib/gcc/mingw32/4.9.2/include/c++/bits\ios_base.h ****   operator^(_Ios_Fmtflags __a, _Ios_Fmtflags __b)
  84:C:/Program Files (x86)/CodeBlocks/MinGW/lib/gcc/mingw32/4.9.2/include/c++/bits\ios_base.h ****   { return _Ios_Fmtflags(static_cast<int>(__a) ^ static_cast<int>(__b)); }
  85:C:/Program Files (x86)/CodeBlocks/MinGW/lib/gcc/mingw32/4.9.2/include/c++/bits\ios_base.h **** 
  86:C:/Program Files (x86)/CodeBlocks/MinGW/lib/gcc/mingw32/4.9.2/include/c++/bits\ios_base.h ****   inline _GLIBCXX_CONSTEXPR _Ios_Fmtflags
  87:C:/Program Files (x86)/CodeBlocks/MinGW/lib/gcc/mingw32/4.9.2/include/c++/bits\ios_base.h ****   operator~(_Ios_Fmtflags __a)
  88:C:/Program Files (x86)/CodeBlocks/MinGW/lib/gcc/mingw32/4.9.2/include/c++/bits\ios_base.h ****   { return _Ios_Fmtflags(~static_cast<int>(__a)); }
  58              		.loc 1 88 0
  59              		.cfi_startproc
  60 0000 55       		pushl	%ebp
  61              		.cfi_def_cfa_offset 8
  62              		.cfi_offset 5, -8
  63 0001 89E5     		movl	%esp, %ebp
  64              		.cfi_def_cfa_register 5
  65              		.loc 1 88 0
  66 0003 8B4508   		movl	8(%ebp), %eax
  67 0006 F7D0     		notl	%eax
  68 0008 5D       		popl	%ebp
  69              		.cfi_restore 5
  70              		.cfi_def_cfa 4, 4
  71 0009 C3       		ret
  72              		.cfi_endproc
  73              	LFE632:
  74 000a 9090     		.section	.text$_ZStoRRSt13_Ios_FmtflagsS_,"x"
  75              		.linkonce discard
  76              		.globl	__ZStoRRSt13_Ios_FmtflagsS_
  78              	__ZStoRRSt13_Ios_FmtflagsS_:
  79              	LFB633:
  89:C:/Program Files (x86)/CodeBlocks/MinGW/lib/gcc/mingw32/4.9.2/include/c++/bits\ios_base.h **** 
  90:C:/Program Files (x86)/CodeBlocks/MinGW/lib/gcc/mingw32/4.9.2/include/c++/bits\ios_base.h ****   inline const _Ios_Fmtflags&
  91:C:/Program Files (x86)/CodeBlocks/MinGW/lib/gcc/mingw32/4.9.2/include/c++/bits\ios_base.h ****   operator|=(_Ios_Fmtflags& __a, _Ios_Fmtflags __b)
  92:C:/Program Files (x86)/CodeBlocks/MinGW/lib/gcc/mingw32/4.9.2/include/c++/bits\ios_base.h ****   { return __a = __a | __b; }
  80              		.loc 1 92 0
  81              		.cfi_startproc
  82 0000 55       		pushl	%ebp
  83              		.cfi_def_cfa_offset 8
GAS LISTING C:\Users\NJLLMR~1\AppData\Local\Temp\ccqq7oi7.s 			page 4


  84              		.cfi_offset 5, -8
  85 0001 89E5     		movl	%esp, %ebp
  86              		.cfi_def_cfa_register 5
  87 0003 83EC08   		subl	$8, %esp
  88              		.loc 1 92 0
  89 0006 8B4508   		movl	8(%ebp), %eax
  90 0009 8B00     		movl	(%eax), %eax
  91 000b 8B550C   		movl	12(%ebp), %edx
  92 000e 89542404 		movl	%edx, 4(%esp)
  93 0012 890424   		movl	%eax, (%esp)
  94 0015 E8000000 		call	__ZStorSt13_Ios_FmtflagsS_
  94      00
  95 001a 89C2     		movl	%eax, %edx
  96 001c 8B4508   		movl	8(%ebp), %eax
  97 001f 8910     		movl	%edx, (%eax)
  98 0021 8B4508   		movl	8(%ebp), %eax
  99 0024 C9       		leave
 100              		.cfi_restore 5
 101              		.cfi_def_cfa 4, 4
 102 0025 C3       		ret
 103              		.cfi_endproc
 104              	LFE633:
 105 0026 9090     		.section	.text$_ZStaNRSt13_Ios_FmtflagsS_,"x"
 106              		.linkonce discard
 107              		.globl	__ZStaNRSt13_Ios_FmtflagsS_
 109              	__ZStaNRSt13_Ios_FmtflagsS_:
 110              	LFB634:
  93:C:/Program Files (x86)/CodeBlocks/MinGW/lib/gcc/mingw32/4.9.2/include/c++/bits\ios_base.h **** 
  94:C:/Program Files (x86)/CodeBlocks/MinGW/lib/gcc/mingw32/4.9.2/include/c++/bits\ios_base.h ****   inline const _Ios_Fmtflags&
  95:C:/Program Files (x86)/CodeBlocks/MinGW/lib/gcc/mingw32/4.9.2/include/c++/bits\ios_base.h ****   operator&=(_Ios_Fmtflags& __a, _Ios_Fmtflags __b)
  96:C:/Program Files (x86)/CodeBlocks/MinGW/lib/gcc/mingw32/4.9.2/include/c++/bits\ios_base.h ****   { return __a = __a & __b; }
 111              		.loc 1 96 0
 112              		.cfi_startproc
 113 0000 55       		pushl	%ebp
 114              		.cfi_def_cfa_offset 8
 115              		.cfi_offset 5, -8
 116 0001 89E5     		movl	%esp, %ebp
 117              		.cfi_def_cfa_register 5
 118 0003 83EC08   		subl	$8, %esp
 119              		.loc 1 96 0
 120 0006 8B4508   		movl	8(%ebp), %eax
 121 0009 8B00     		movl	(%eax), %eax
 122 000b 8B550C   		movl	12(%ebp), %edx
 123 000e 89542404 		movl	%edx, 4(%esp)
 124 0012 890424   		movl	%eax, (%esp)
 125 0015 E8000000 		call	__ZStanSt13_Ios_FmtflagsS_
 125      00
 126 001a 89C2     		movl	%eax, %edx
 127 001c 8B4508   		movl	8(%ebp), %eax
 128 001f 8910     		movl	%edx, (%eax)
 129 0021 8B4508   		movl	8(%ebp), %eax
 130 0024 C9       		leave
 131              		.cfi_restore 5
 132              		.cfi_def_cfa 4, 4
 133 0025 C3       		ret
 134              		.cfi_endproc
 135              	LFE634:
GAS LISTING C:\Users\NJLLMR~1\AppData\Local\Temp\ccqq7oi7.s 			page 5


 136 0026 9090     		.section	.text$_ZNSt8ios_base4setfESt13_Ios_FmtflagsS0_,"x"
 137              		.linkonce discard
 138              		.align 2
 139              		.globl	__ZNSt8ios_base4setfESt13_Ios_FmtflagsS0_
 141              	__ZNSt8ios_base4setfESt13_Ios_FmtflagsS0_:
 142              	LFB661:
  97:C:/Program Files (x86)/CodeBlocks/MinGW/lib/gcc/mingw32/4.9.2/include/c++/bits\ios_base.h **** 
  98:C:/Program Files (x86)/CodeBlocks/MinGW/lib/gcc/mingw32/4.9.2/include/c++/bits\ios_base.h ****   inline const _Ios_Fmtflags&
  99:C:/Program Files (x86)/CodeBlocks/MinGW/lib/gcc/mingw32/4.9.2/include/c++/bits\ios_base.h ****   operator^=(_Ios_Fmtflags& __a, _Ios_Fmtflags __b)
 100:C:/Program Files (x86)/CodeBlocks/MinGW/lib/gcc/mingw32/4.9.2/include/c++/bits\ios_base.h ****   { return __a = __a ^ __b; }
 101:C:/Program Files (x86)/CodeBlocks/MinGW/lib/gcc/mingw32/4.9.2/include/c++/bits\ios_base.h **** 
 102:C:/Program Files (x86)/CodeBlocks/MinGW/lib/gcc/mingw32/4.9.2/include/c++/bits\ios_base.h **** 
 103:C:/Program Files (x86)/CodeBlocks/MinGW/lib/gcc/mingw32/4.9.2/include/c++/bits\ios_base.h ****   enum _Ios_Openmode 
 104:C:/Program Files (x86)/CodeBlocks/MinGW/lib/gcc/mingw32/4.9.2/include/c++/bits\ios_base.h ****     { 
 105:C:/Program Files (x86)/CodeBlocks/MinGW/lib/gcc/mingw32/4.9.2/include/c++/bits\ios_base.h ****       _S_app 		= 1L << 0,
 106:C:/Program Files (x86)/CodeBlocks/MinGW/lib/gcc/mingw32/4.9.2/include/c++/bits\ios_base.h ****       _S_ate 		= 1L << 1,
 107:C:/Program Files (x86)/CodeBlocks/MinGW/lib/gcc/mingw32/4.9.2/include/c++/bits\ios_base.h ****       _S_bin 		= 1L << 2,
 108:C:/Program Files (x86)/CodeBlocks/MinGW/lib/gcc/mingw32/4.9.2/include/c++/bits\ios_base.h ****       _S_in 		= 1L << 3,
 109:C:/Program Files (x86)/CodeBlocks/MinGW/lib/gcc/mingw32/4.9.2/include/c++/bits\ios_base.h ****       _S_out 		= 1L << 4,
 110:C:/Program Files (x86)/CodeBlocks/MinGW/lib/gcc/mingw32/4.9.2/include/c++/bits\ios_base.h ****       _S_trunc 		= 1L << 5,
 111:C:/Program Files (x86)/CodeBlocks/MinGW/lib/gcc/mingw32/4.9.2/include/c++/bits\ios_base.h ****       _S_ios_openmode_end = 1L << 16 
 112:C:/Program Files (x86)/CodeBlocks/MinGW/lib/gcc/mingw32/4.9.2/include/c++/bits\ios_base.h ****     };
 113:C:/Program Files (x86)/CodeBlocks/MinGW/lib/gcc/mingw32/4.9.2/include/c++/bits\ios_base.h **** 
 114:C:/Program Files (x86)/CodeBlocks/MinGW/lib/gcc/mingw32/4.9.2/include/c++/bits\ios_base.h ****   inline _GLIBCXX_CONSTEXPR _Ios_Openmode
 115:C:/Program Files (x86)/CodeBlocks/MinGW/lib/gcc/mingw32/4.9.2/include/c++/bits\ios_base.h ****   operator&(_Ios_Openmode __a, _Ios_Openmode __b)
 116:C:/Program Files (x86)/CodeBlocks/MinGW/lib/gcc/mingw32/4.9.2/include/c++/bits\ios_base.h ****   { return _Ios_Openmode(static_cast<int>(__a) & static_cast<int>(__b)); }
 117:C:/Program Files (x86)/CodeBlocks/MinGW/lib/gcc/mingw32/4.9.2/include/c++/bits\ios_base.h **** 
 118:C:/Program Files (x86)/CodeBlocks/MinGW/lib/gcc/mingw32/4.9.2/include/c++/bits\ios_base.h ****   inline _GLIBCXX_CONSTEXPR _Ios_Openmode
 119:C:/Program Files (x86)/CodeBlocks/MinGW/lib/gcc/mingw32/4.9.2/include/c++/bits\ios_base.h ****   operator|(_Ios_Openmode __a, _Ios_Openmode __b)
 120:C:/Program Files (x86)/CodeBlocks/MinGW/lib/gcc/mingw32/4.9.2/include/c++/bits\ios_base.h ****   { return _Ios_Openmode(static_cast<int>(__a) | static_cast<int>(__b)); }
 121:C:/Program Files (x86)/CodeBlocks/MinGW/lib/gcc/mingw32/4.9.2/include/c++/bits\ios_base.h **** 
 122:C:/Program Files (x86)/CodeBlocks/MinGW/lib/gcc/mingw32/4.9.2/include/c++/bits\ios_base.h ****   inline _GLIBCXX_CONSTEXPR _Ios_Openmode
 123:C:/Program Files (x86)/CodeBlocks/MinGW/lib/gcc/mingw32/4.9.2/include/c++/bits\ios_base.h ****   operator^(_Ios_Openmode __a, _Ios_Openmode __b)
 124:C:/Program Files (x86)/CodeBlocks/MinGW/lib/gcc/mingw32/4.9.2/include/c++/bits\ios_base.h ****   { return _Ios_Openmode(static_cast<int>(__a) ^ static_cast<int>(__b)); }
 125:C:/Program Files (x86)/CodeBlocks/MinGW/lib/gcc/mingw32/4.9.2/include/c++/bits\ios_base.h **** 
 126:C:/Program Files (x86)/CodeBlocks/MinGW/lib/gcc/mingw32/4.9.2/include/c++/bits\ios_base.h ****   inline _GLIBCXX_CONSTEXPR _Ios_Openmode
 127:C:/Program Files (x86)/CodeBlocks/MinGW/lib/gcc/mingw32/4.9.2/include/c++/bits\ios_base.h ****   operator~(_Ios_Openmode __a)
 128:C:/Program Files (x86)/CodeBlocks/MinGW/lib/gcc/mingw32/4.9.2/include/c++/bits\ios_base.h ****   { return _Ios_Openmode(~static_cast<int>(__a)); }
 129:C:/Program Files (x86)/CodeBlocks/MinGW/lib/gcc/mingw32/4.9.2/include/c++/bits\ios_base.h **** 
 130:C:/Program Files (x86)/CodeBlocks/MinGW/lib/gcc/mingw32/4.9.2/include/c++/bits\ios_base.h ****   inline const _Ios_Openmode&
 131:C:/Program Files (x86)/CodeBlocks/MinGW/lib/gcc/mingw32/4.9.2/include/c++/bits\ios_base.h ****   operator|=(_Ios_Openmode& __a, _Ios_Openmode __b)
 132:C:/Program Files (x86)/CodeBlocks/MinGW/lib/gcc/mingw32/4.9.2/include/c++/bits\ios_base.h ****   { return __a = __a | __b; }
 133:C:/Program Files (x86)/CodeBlocks/MinGW/lib/gcc/mingw32/4.9.2/include/c++/bits\ios_base.h **** 
 134:C:/Program Files (x86)/CodeBlocks/MinGW/lib/gcc/mingw32/4.9.2/include/c++/bits\ios_base.h ****   inline const _Ios_Openmode&
 135:C:/Program Files (x86)/CodeBlocks/MinGW/lib/gcc/mingw32/4.9.2/include/c++/bits\ios_base.h ****   operator&=(_Ios_Openmode& __a, _Ios_Openmode __b)
 136:C:/Program Files (x86)/CodeBlocks/MinGW/lib/gcc/mingw32/4.9.2/include/c++/bits\ios_base.h ****   { return __a = __a & __b; }
 137:C:/Program Files (x86)/CodeBlocks/MinGW/lib/gcc/mingw32/4.9.2/include/c++/bits\ios_base.h **** 
 138:C:/Program Files (x86)/CodeBlocks/MinGW/lib/gcc/mingw32/4.9.2/include/c++/bits\ios_base.h ****   inline const _Ios_Openmode&
 139:C:/Program Files (x86)/CodeBlocks/MinGW/lib/gcc/mingw32/4.9.2/include/c++/bits\ios_base.h ****   operator^=(_Ios_Openmode& __a, _Ios_Openmode __b)
 140:C:/Program Files (x86)/CodeBlocks/MinGW/lib/gcc/mingw32/4.9.2/include/c++/bits\ios_base.h ****   { return __a = __a ^ __b; }
 141:C:/Program Files (x86)/CodeBlocks/MinGW/lib/gcc/mingw32/4.9.2/include/c++/bits\ios_base.h **** 
 142:C:/Program Files (x86)/CodeBlocks/MinGW/lib/gcc/mingw32/4.9.2/include/c++/bits\ios_base.h **** 
 143:C:/Program Files (x86)/CodeBlocks/MinGW/lib/gcc/mingw32/4.9.2/include/c++/bits\ios_base.h ****   enum _Ios_Iostate
 144:C:/Program Files (x86)/CodeBlocks/MinGW/lib/gcc/mingw32/4.9.2/include/c++/bits\ios_base.h ****     { 
 145:C:/Program Files (x86)/CodeBlocks/MinGW/lib/gcc/mingw32/4.9.2/include/c++/bits\ios_base.h ****       _S_goodbit 		= 0,
 146:C:/Program Files (x86)/CodeBlocks/MinGW/lib/gcc/mingw32/4.9.2/include/c++/bits\ios_base.h ****       _S_badbit 		= 1L << 0,
 147:C:/Program Files (x86)/CodeBlocks/MinGW/lib/gcc/mingw32/4.9.2/include/c++/bits\ios_base.h ****       _S_eofbit 		= 1L << 1,
GAS LISTING C:\Users\NJLLMR~1\AppData\Local\Temp\ccqq7oi7.s 			page 6


 148:C:/Program Files (x86)/CodeBlocks/MinGW/lib/gcc/mingw32/4.9.2/include/c++/bits\ios_base.h ****       _S_failbit		= 1L << 2,
 149:C:/Program Files (x86)/CodeBlocks/MinGW/lib/gcc/mingw32/4.9.2/include/c++/bits\ios_base.h ****       _S_ios_iostate_end = 1L << 16 
 150:C:/Program Files (x86)/CodeBlocks/MinGW/lib/gcc/mingw32/4.9.2/include/c++/bits\ios_base.h ****     };
 151:C:/Program Files (x86)/CodeBlocks/MinGW/lib/gcc/mingw32/4.9.2/include/c++/bits\ios_base.h **** 
 152:C:/Program Files (x86)/CodeBlocks/MinGW/lib/gcc/mingw32/4.9.2/include/c++/bits\ios_base.h ****   inline _GLIBCXX_CONSTEXPR _Ios_Iostate
 153:C:/Program Files (x86)/CodeBlocks/MinGW/lib/gcc/mingw32/4.9.2/include/c++/bits\ios_base.h ****   operator&(_Ios_Iostate __a, _Ios_Iostate __b)
 154:C:/Program Files (x86)/CodeBlocks/MinGW/lib/gcc/mingw32/4.9.2/include/c++/bits\ios_base.h ****   { return _Ios_Iostate(static_cast<int>(__a) & static_cast<int>(__b)); }
 155:C:/Program Files (x86)/CodeBlocks/MinGW/lib/gcc/mingw32/4.9.2/include/c++/bits\ios_base.h **** 
 156:C:/Program Files (x86)/CodeBlocks/MinGW/lib/gcc/mingw32/4.9.2/include/c++/bits\ios_base.h ****   inline _GLIBCXX_CONSTEXPR _Ios_Iostate
 157:C:/Program Files (x86)/CodeBlocks/MinGW/lib/gcc/mingw32/4.9.2/include/c++/bits\ios_base.h ****   operator|(_Ios_Iostate __a, _Ios_Iostate __b)
 158:C:/Program Files (x86)/CodeBlocks/MinGW/lib/gcc/mingw32/4.9.2/include/c++/bits\ios_base.h ****   { return _Ios_Iostate(static_cast<int>(__a) | static_cast<int>(__b)); }
 159:C:/Program Files (x86)/CodeBlocks/MinGW/lib/gcc/mingw32/4.9.2/include/c++/bits\ios_base.h **** 
 160:C:/Program Files (x86)/CodeBlocks/MinGW/lib/gcc/mingw32/4.9.2/include/c++/bits\ios_base.h ****   inline _GLIBCXX_CONSTEXPR _Ios_Iostate
 161:C:/Program Files (x86)/CodeBlocks/MinGW/lib/gcc/mingw32/4.9.2/include/c++/bits\ios_base.h ****   operator^(_Ios_Iostate __a, _Ios_Iostate __b)
 162:C:/Program Files (x86)/CodeBlocks/MinGW/lib/gcc/mingw32/4.9.2/include/c++/bits\ios_base.h ****   { return _Ios_Iostate(static_cast<int>(__a) ^ static_cast<int>(__b)); }
 163:C:/Program Files (x86)/CodeBlocks/MinGW/lib/gcc/mingw32/4.9.2/include/c++/bits\ios_base.h **** 
 164:C:/Program Files (x86)/CodeBlocks/MinGW/lib/gcc/mingw32/4.9.2/include/c++/bits\ios_base.h ****   inline _GLIBCXX_CONSTEXPR _Ios_Iostate
 165:C:/Program Files (x86)/CodeBlocks/MinGW/lib/gcc/mingw32/4.9.2/include/c++/bits\ios_base.h ****   operator~(_Ios_Iostate __a)
 166:C:/Program Files (x86)/CodeBlocks/MinGW/lib/gcc/mingw32/4.9.2/include/c++/bits\ios_base.h ****   { return _Ios_Iostate(~static_cast<int>(__a)); }
 167:C:/Program Files (x86)/CodeBlocks/MinGW/lib/gcc/mingw32/4.9.2/include/c++/bits\ios_base.h **** 
 168:C:/Program Files (x86)/CodeBlocks/MinGW/lib/gcc/mingw32/4.9.2/include/c++/bits\ios_base.h ****   inline const _Ios_Iostate&
 169:C:/Program Files (x86)/CodeBlocks/MinGW/lib/gcc/mingw32/4.9.2/include/c++/bits\ios_base.h ****   operator|=(_Ios_Iostate& __a, _Ios_Iostate __b)
 170:C:/Program Files (x86)/CodeBlocks/MinGW/lib/gcc/mingw32/4.9.2/include/c++/bits\ios_base.h ****   { return __a = __a | __b; }
 171:C:/Program Files (x86)/CodeBlocks/MinGW/lib/gcc/mingw32/4.9.2/include/c++/bits\ios_base.h **** 
 172:C:/Program Files (x86)/CodeBlocks/MinGW/lib/gcc/mingw32/4.9.2/include/c++/bits\ios_base.h ****   inline const _Ios_Iostate&
 173:C:/Program Files (x86)/CodeBlocks/MinGW/lib/gcc/mingw32/4.9.2/include/c++/bits\ios_base.h ****   operator&=(_Ios_Iostate& __a, _Ios_Iostate __b)
 174:C:/Program Files (x86)/CodeBlocks/MinGW/lib/gcc/mingw32/4.9.2/include/c++/bits\ios_base.h ****   { return __a = __a & __b; }
 175:C:/Program Files (x86)/CodeBlocks/MinGW/lib/gcc/mingw32/4.9.2/include/c++/bits\ios_base.h **** 
 176:C:/Program Files (x86)/CodeBlocks/MinGW/lib/gcc/mingw32/4.9.2/include/c++/bits\ios_base.h ****   inline const  _Ios_Iostate&
 177:C:/Program Files (x86)/CodeBlocks/MinGW/lib/gcc/mingw32/4.9.2/include/c++/bits\ios_base.h ****   operator^=(_Ios_Iostate& __a, _Ios_Iostate __b)
 178:C:/Program Files (x86)/CodeBlocks/MinGW/lib/gcc/mingw32/4.9.2/include/c++/bits\ios_base.h ****   { return __a = __a ^ __b; }
 179:C:/Program Files (x86)/CodeBlocks/MinGW/lib/gcc/mingw32/4.9.2/include/c++/bits\ios_base.h **** 
 180:C:/Program Files (x86)/CodeBlocks/MinGW/lib/gcc/mingw32/4.9.2/include/c++/bits\ios_base.h **** 
 181:C:/Program Files (x86)/CodeBlocks/MinGW/lib/gcc/mingw32/4.9.2/include/c++/bits\ios_base.h ****   enum _Ios_Seekdir 
 182:C:/Program Files (x86)/CodeBlocks/MinGW/lib/gcc/mingw32/4.9.2/include/c++/bits\ios_base.h ****     { 
 183:C:/Program Files (x86)/CodeBlocks/MinGW/lib/gcc/mingw32/4.9.2/include/c++/bits\ios_base.h ****       _S_beg = 0,
 184:C:/Program Files (x86)/CodeBlocks/MinGW/lib/gcc/mingw32/4.9.2/include/c++/bits\ios_base.h ****       _S_cur = _GLIBCXX_STDIO_SEEK_CUR,
 185:C:/Program Files (x86)/CodeBlocks/MinGW/lib/gcc/mingw32/4.9.2/include/c++/bits\ios_base.h ****       _S_end = _GLIBCXX_STDIO_SEEK_END,
 186:C:/Program Files (x86)/CodeBlocks/MinGW/lib/gcc/mingw32/4.9.2/include/c++/bits\ios_base.h ****       _S_ios_seekdir_end = 1L << 16 
 187:C:/Program Files (x86)/CodeBlocks/MinGW/lib/gcc/mingw32/4.9.2/include/c++/bits\ios_base.h ****     };
 188:C:/Program Files (x86)/CodeBlocks/MinGW/lib/gcc/mingw32/4.9.2/include/c++/bits\ios_base.h **** 
 189:C:/Program Files (x86)/CodeBlocks/MinGW/lib/gcc/mingw32/4.9.2/include/c++/bits\ios_base.h ****   // 27.4.2  Class ios_base
 190:C:/Program Files (x86)/CodeBlocks/MinGW/lib/gcc/mingw32/4.9.2/include/c++/bits\ios_base.h ****   /**
 191:C:/Program Files (x86)/CodeBlocks/MinGW/lib/gcc/mingw32/4.9.2/include/c++/bits\ios_base.h ****    *  @brief  The base of the I/O class hierarchy.
 192:C:/Program Files (x86)/CodeBlocks/MinGW/lib/gcc/mingw32/4.9.2/include/c++/bits\ios_base.h ****    *  @ingroup io
 193:C:/Program Files (x86)/CodeBlocks/MinGW/lib/gcc/mingw32/4.9.2/include/c++/bits\ios_base.h ****    *
 194:C:/Program Files (x86)/CodeBlocks/MinGW/lib/gcc/mingw32/4.9.2/include/c++/bits\ios_base.h ****    *  This class defines everything that can be defined about I/O that does
 195:C:/Program Files (x86)/CodeBlocks/MinGW/lib/gcc/mingw32/4.9.2/include/c++/bits\ios_base.h ****    *  not depend on the type of characters being input or output.  Most
 196:C:/Program Files (x86)/CodeBlocks/MinGW/lib/gcc/mingw32/4.9.2/include/c++/bits\ios_base.h ****    *  people will only see @c ios_base when they need to specify the full
 197:C:/Program Files (x86)/CodeBlocks/MinGW/lib/gcc/mingw32/4.9.2/include/c++/bits\ios_base.h ****    *  name of the various I/O flags (e.g., the openmodes).
 198:C:/Program Files (x86)/CodeBlocks/MinGW/lib/gcc/mingw32/4.9.2/include/c++/bits\ios_base.h ****   */
 199:C:/Program Files (x86)/CodeBlocks/MinGW/lib/gcc/mingw32/4.9.2/include/c++/bits\ios_base.h ****   class ios_base
 200:C:/Program Files (x86)/CodeBlocks/MinGW/lib/gcc/mingw32/4.9.2/include/c++/bits\ios_base.h ****   {
 201:C:/Program Files (x86)/CodeBlocks/MinGW/lib/gcc/mingw32/4.9.2/include/c++/bits\ios_base.h ****   public:
 202:C:/Program Files (x86)/CodeBlocks/MinGW/lib/gcc/mingw32/4.9.2/include/c++/bits\ios_base.h **** 
 203:C:/Program Files (x86)/CodeBlocks/MinGW/lib/gcc/mingw32/4.9.2/include/c++/bits\ios_base.h ****     /** 
 204:C:/Program Files (x86)/CodeBlocks/MinGW/lib/gcc/mingw32/4.9.2/include/c++/bits\ios_base.h ****      *  @brief These are thrown to indicate problems with io.
GAS LISTING C:\Users\NJLLMR~1\AppData\Local\Temp\ccqq7oi7.s 			page 7


 205:C:/Program Files (x86)/CodeBlocks/MinGW/lib/gcc/mingw32/4.9.2/include/c++/bits\ios_base.h ****      *  @ingroup exceptions
 206:C:/Program Files (x86)/CodeBlocks/MinGW/lib/gcc/mingw32/4.9.2/include/c++/bits\ios_base.h ****      *
 207:C:/Program Files (x86)/CodeBlocks/MinGW/lib/gcc/mingw32/4.9.2/include/c++/bits\ios_base.h ****      *  27.4.2.1.1  Class ios_base::failure
 208:C:/Program Files (x86)/CodeBlocks/MinGW/lib/gcc/mingw32/4.9.2/include/c++/bits\ios_base.h ****      */
 209:C:/Program Files (x86)/CodeBlocks/MinGW/lib/gcc/mingw32/4.9.2/include/c++/bits\ios_base.h ****     class failure : public exception
 210:C:/Program Files (x86)/CodeBlocks/MinGW/lib/gcc/mingw32/4.9.2/include/c++/bits\ios_base.h ****     {
 211:C:/Program Files (x86)/CodeBlocks/MinGW/lib/gcc/mingw32/4.9.2/include/c++/bits\ios_base.h ****     public:
 212:C:/Program Files (x86)/CodeBlocks/MinGW/lib/gcc/mingw32/4.9.2/include/c++/bits\ios_base.h ****       // _GLIBCXX_RESOLVE_LIB_DEFECTS
 213:C:/Program Files (x86)/CodeBlocks/MinGW/lib/gcc/mingw32/4.9.2/include/c++/bits\ios_base.h ****       // 48.  Use of non-existent exception constructor
 214:C:/Program Files (x86)/CodeBlocks/MinGW/lib/gcc/mingw32/4.9.2/include/c++/bits\ios_base.h ****       explicit
 215:C:/Program Files (x86)/CodeBlocks/MinGW/lib/gcc/mingw32/4.9.2/include/c++/bits\ios_base.h ****       failure(const string& __str) throw();
 216:C:/Program Files (x86)/CodeBlocks/MinGW/lib/gcc/mingw32/4.9.2/include/c++/bits\ios_base.h **** 
 217:C:/Program Files (x86)/CodeBlocks/MinGW/lib/gcc/mingw32/4.9.2/include/c++/bits\ios_base.h ****       // This declaration is not useless:
 218:C:/Program Files (x86)/CodeBlocks/MinGW/lib/gcc/mingw32/4.9.2/include/c++/bits\ios_base.h ****       // http://gcc.gnu.org/onlinedocs/gcc-4.3.2/gcc/Vague-Linkage.html
 219:C:/Program Files (x86)/CodeBlocks/MinGW/lib/gcc/mingw32/4.9.2/include/c++/bits\ios_base.h ****       virtual
 220:C:/Program Files (x86)/CodeBlocks/MinGW/lib/gcc/mingw32/4.9.2/include/c++/bits\ios_base.h ****       ~failure() throw();
 221:C:/Program Files (x86)/CodeBlocks/MinGW/lib/gcc/mingw32/4.9.2/include/c++/bits\ios_base.h **** 
 222:C:/Program Files (x86)/CodeBlocks/MinGW/lib/gcc/mingw32/4.9.2/include/c++/bits\ios_base.h ****       virtual const char*
 223:C:/Program Files (x86)/CodeBlocks/MinGW/lib/gcc/mingw32/4.9.2/include/c++/bits\ios_base.h ****       what() const throw();
 224:C:/Program Files (x86)/CodeBlocks/MinGW/lib/gcc/mingw32/4.9.2/include/c++/bits\ios_base.h **** 
 225:C:/Program Files (x86)/CodeBlocks/MinGW/lib/gcc/mingw32/4.9.2/include/c++/bits\ios_base.h ****     private:
 226:C:/Program Files (x86)/CodeBlocks/MinGW/lib/gcc/mingw32/4.9.2/include/c++/bits\ios_base.h ****       string _M_msg;
 227:C:/Program Files (x86)/CodeBlocks/MinGW/lib/gcc/mingw32/4.9.2/include/c++/bits\ios_base.h ****     };
 228:C:/Program Files (x86)/CodeBlocks/MinGW/lib/gcc/mingw32/4.9.2/include/c++/bits\ios_base.h **** 
 229:C:/Program Files (x86)/CodeBlocks/MinGW/lib/gcc/mingw32/4.9.2/include/c++/bits\ios_base.h ****     // 27.4.2.1.2  Type ios_base::fmtflags
 230:C:/Program Files (x86)/CodeBlocks/MinGW/lib/gcc/mingw32/4.9.2/include/c++/bits\ios_base.h ****     /**
 231:C:/Program Files (x86)/CodeBlocks/MinGW/lib/gcc/mingw32/4.9.2/include/c++/bits\ios_base.h ****      *  @brief This is a bitmask type.
 232:C:/Program Files (x86)/CodeBlocks/MinGW/lib/gcc/mingw32/4.9.2/include/c++/bits\ios_base.h ****      *
 233:C:/Program Files (x86)/CodeBlocks/MinGW/lib/gcc/mingw32/4.9.2/include/c++/bits\ios_base.h ****      *  @c @a _Ios_Fmtflags is implementation-defined, but it is valid to
 234:C:/Program Files (x86)/CodeBlocks/MinGW/lib/gcc/mingw32/4.9.2/include/c++/bits\ios_base.h ****      *  perform bitwise operations on these values and expect the Right
 235:C:/Program Files (x86)/CodeBlocks/MinGW/lib/gcc/mingw32/4.9.2/include/c++/bits\ios_base.h ****      *  Thing to happen.  Defined objects of type fmtflags are:
 236:C:/Program Files (x86)/CodeBlocks/MinGW/lib/gcc/mingw32/4.9.2/include/c++/bits\ios_base.h ****      *  - boolalpha
 237:C:/Program Files (x86)/CodeBlocks/MinGW/lib/gcc/mingw32/4.9.2/include/c++/bits\ios_base.h ****      *  - dec
 238:C:/Program Files (x86)/CodeBlocks/MinGW/lib/gcc/mingw32/4.9.2/include/c++/bits\ios_base.h ****      *  - fixed
 239:C:/Program Files (x86)/CodeBlocks/MinGW/lib/gcc/mingw32/4.9.2/include/c++/bits\ios_base.h ****      *  - hex
 240:C:/Program Files (x86)/CodeBlocks/MinGW/lib/gcc/mingw32/4.9.2/include/c++/bits\ios_base.h ****      *  - internal
 241:C:/Program Files (x86)/CodeBlocks/MinGW/lib/gcc/mingw32/4.9.2/include/c++/bits\ios_base.h ****      *  - left
 242:C:/Program Files (x86)/CodeBlocks/MinGW/lib/gcc/mingw32/4.9.2/include/c++/bits\ios_base.h ****      *  - oct
 243:C:/Program Files (x86)/CodeBlocks/MinGW/lib/gcc/mingw32/4.9.2/include/c++/bits\ios_base.h ****      *  - right
 244:C:/Program Files (x86)/CodeBlocks/MinGW/lib/gcc/mingw32/4.9.2/include/c++/bits\ios_base.h ****      *  - scientific
 245:C:/Program Files (x86)/CodeBlocks/MinGW/lib/gcc/mingw32/4.9.2/include/c++/bits\ios_base.h ****      *  - showbase
 246:C:/Program Files (x86)/CodeBlocks/MinGW/lib/gcc/mingw32/4.9.2/include/c++/bits\ios_base.h ****      *  - showpoint
 247:C:/Program Files (x86)/CodeBlocks/MinGW/lib/gcc/mingw32/4.9.2/include/c++/bits\ios_base.h ****      *  - showpos
 248:C:/Program Files (x86)/CodeBlocks/MinGW/lib/gcc/mingw32/4.9.2/include/c++/bits\ios_base.h ****      *  - skipws
 249:C:/Program Files (x86)/CodeBlocks/MinGW/lib/gcc/mingw32/4.9.2/include/c++/bits\ios_base.h ****      *  - unitbuf
 250:C:/Program Files (x86)/CodeBlocks/MinGW/lib/gcc/mingw32/4.9.2/include/c++/bits\ios_base.h ****      *  - uppercase
 251:C:/Program Files (x86)/CodeBlocks/MinGW/lib/gcc/mingw32/4.9.2/include/c++/bits\ios_base.h ****      *  - adjustfield
 252:C:/Program Files (x86)/CodeBlocks/MinGW/lib/gcc/mingw32/4.9.2/include/c++/bits\ios_base.h ****      *  - basefield
 253:C:/Program Files (x86)/CodeBlocks/MinGW/lib/gcc/mingw32/4.9.2/include/c++/bits\ios_base.h ****      *  - floatfield
 254:C:/Program Files (x86)/CodeBlocks/MinGW/lib/gcc/mingw32/4.9.2/include/c++/bits\ios_base.h ****     */
 255:C:/Program Files (x86)/CodeBlocks/MinGW/lib/gcc/mingw32/4.9.2/include/c++/bits\ios_base.h ****     typedef _Ios_Fmtflags fmtflags;
 256:C:/Program Files (x86)/CodeBlocks/MinGW/lib/gcc/mingw32/4.9.2/include/c++/bits\ios_base.h **** 
 257:C:/Program Files (x86)/CodeBlocks/MinGW/lib/gcc/mingw32/4.9.2/include/c++/bits\ios_base.h ****     /// Insert/extract @c bool in alphabetic rather than numeric format.
 258:C:/Program Files (x86)/CodeBlocks/MinGW/lib/gcc/mingw32/4.9.2/include/c++/bits\ios_base.h ****     static const fmtflags boolalpha =   _S_boolalpha;
 259:C:/Program Files (x86)/CodeBlocks/MinGW/lib/gcc/mingw32/4.9.2/include/c++/bits\ios_base.h **** 
 260:C:/Program Files (x86)/CodeBlocks/MinGW/lib/gcc/mingw32/4.9.2/include/c++/bits\ios_base.h ****     /// Converts integer input or generates integer output in decimal base.
 261:C:/Program Files (x86)/CodeBlocks/MinGW/lib/gcc/mingw32/4.9.2/include/c++/bits\ios_base.h ****     static const fmtflags dec =         _S_dec;
GAS LISTING C:\Users\NJLLMR~1\AppData\Local\Temp\ccqq7oi7.s 			page 8


 262:C:/Program Files (x86)/CodeBlocks/MinGW/lib/gcc/mingw32/4.9.2/include/c++/bits\ios_base.h **** 
 263:C:/Program Files (x86)/CodeBlocks/MinGW/lib/gcc/mingw32/4.9.2/include/c++/bits\ios_base.h ****     /// Generate floating-point output in fixed-point notation.
 264:C:/Program Files (x86)/CodeBlocks/MinGW/lib/gcc/mingw32/4.9.2/include/c++/bits\ios_base.h ****     static const fmtflags fixed =       _S_fixed;
 265:C:/Program Files (x86)/CodeBlocks/MinGW/lib/gcc/mingw32/4.9.2/include/c++/bits\ios_base.h **** 
 266:C:/Program Files (x86)/CodeBlocks/MinGW/lib/gcc/mingw32/4.9.2/include/c++/bits\ios_base.h ****     /// Converts integer input or generates integer output in hexadecimal base.
 267:C:/Program Files (x86)/CodeBlocks/MinGW/lib/gcc/mingw32/4.9.2/include/c++/bits\ios_base.h ****     static const fmtflags hex =         _S_hex;
 268:C:/Program Files (x86)/CodeBlocks/MinGW/lib/gcc/mingw32/4.9.2/include/c++/bits\ios_base.h **** 
 269:C:/Program Files (x86)/CodeBlocks/MinGW/lib/gcc/mingw32/4.9.2/include/c++/bits\ios_base.h ****     /// Adds fill characters at a designated internal point in certain
 270:C:/Program Files (x86)/CodeBlocks/MinGW/lib/gcc/mingw32/4.9.2/include/c++/bits\ios_base.h ****     /// generated output, or identical to @c right if no such point is
 271:C:/Program Files (x86)/CodeBlocks/MinGW/lib/gcc/mingw32/4.9.2/include/c++/bits\ios_base.h ****     /// designated.
 272:C:/Program Files (x86)/CodeBlocks/MinGW/lib/gcc/mingw32/4.9.2/include/c++/bits\ios_base.h ****     static const fmtflags internal =    _S_internal;
 273:C:/Program Files (x86)/CodeBlocks/MinGW/lib/gcc/mingw32/4.9.2/include/c++/bits\ios_base.h **** 
 274:C:/Program Files (x86)/CodeBlocks/MinGW/lib/gcc/mingw32/4.9.2/include/c++/bits\ios_base.h ****     /// Adds fill characters on the right (final positions) of certain
 275:C:/Program Files (x86)/CodeBlocks/MinGW/lib/gcc/mingw32/4.9.2/include/c++/bits\ios_base.h ****     /// generated output.  (I.e., the thing you print is flush left.)
 276:C:/Program Files (x86)/CodeBlocks/MinGW/lib/gcc/mingw32/4.9.2/include/c++/bits\ios_base.h ****     static const fmtflags left =        _S_left;
 277:C:/Program Files (x86)/CodeBlocks/MinGW/lib/gcc/mingw32/4.9.2/include/c++/bits\ios_base.h **** 
 278:C:/Program Files (x86)/CodeBlocks/MinGW/lib/gcc/mingw32/4.9.2/include/c++/bits\ios_base.h ****     /// Converts integer input or generates integer output in octal base.
 279:C:/Program Files (x86)/CodeBlocks/MinGW/lib/gcc/mingw32/4.9.2/include/c++/bits\ios_base.h ****     static const fmtflags oct =         _S_oct;
 280:C:/Program Files (x86)/CodeBlocks/MinGW/lib/gcc/mingw32/4.9.2/include/c++/bits\ios_base.h **** 
 281:C:/Program Files (x86)/CodeBlocks/MinGW/lib/gcc/mingw32/4.9.2/include/c++/bits\ios_base.h ****     /// Adds fill characters on the left (initial positions) of certain
 282:C:/Program Files (x86)/CodeBlocks/MinGW/lib/gcc/mingw32/4.9.2/include/c++/bits\ios_base.h ****     /// generated output.  (I.e., the thing you print is flush right.)
 283:C:/Program Files (x86)/CodeBlocks/MinGW/lib/gcc/mingw32/4.9.2/include/c++/bits\ios_base.h ****     static const fmtflags right =       _S_right;
 284:C:/Program Files (x86)/CodeBlocks/MinGW/lib/gcc/mingw32/4.9.2/include/c++/bits\ios_base.h **** 
 285:C:/Program Files (x86)/CodeBlocks/MinGW/lib/gcc/mingw32/4.9.2/include/c++/bits\ios_base.h ****     /// Generates floating-point output in scientific notation.
 286:C:/Program Files (x86)/CodeBlocks/MinGW/lib/gcc/mingw32/4.9.2/include/c++/bits\ios_base.h ****     static const fmtflags scientific =  _S_scientific;
 287:C:/Program Files (x86)/CodeBlocks/MinGW/lib/gcc/mingw32/4.9.2/include/c++/bits\ios_base.h **** 
 288:C:/Program Files (x86)/CodeBlocks/MinGW/lib/gcc/mingw32/4.9.2/include/c++/bits\ios_base.h ****     /// Generates a prefix indicating the numeric base of generated integer
 289:C:/Program Files (x86)/CodeBlocks/MinGW/lib/gcc/mingw32/4.9.2/include/c++/bits\ios_base.h ****     /// output.
 290:C:/Program Files (x86)/CodeBlocks/MinGW/lib/gcc/mingw32/4.9.2/include/c++/bits\ios_base.h ****     static const fmtflags showbase =    _S_showbase;
 291:C:/Program Files (x86)/CodeBlocks/MinGW/lib/gcc/mingw32/4.9.2/include/c++/bits\ios_base.h **** 
 292:C:/Program Files (x86)/CodeBlocks/MinGW/lib/gcc/mingw32/4.9.2/include/c++/bits\ios_base.h ****     /// Generates a decimal-point character unconditionally in generated
 293:C:/Program Files (x86)/CodeBlocks/MinGW/lib/gcc/mingw32/4.9.2/include/c++/bits\ios_base.h ****     /// floating-point output.
 294:C:/Program Files (x86)/CodeBlocks/MinGW/lib/gcc/mingw32/4.9.2/include/c++/bits\ios_base.h ****     static const fmtflags showpoint =   _S_showpoint;
 295:C:/Program Files (x86)/CodeBlocks/MinGW/lib/gcc/mingw32/4.9.2/include/c++/bits\ios_base.h **** 
 296:C:/Program Files (x86)/CodeBlocks/MinGW/lib/gcc/mingw32/4.9.2/include/c++/bits\ios_base.h ****     /// Generates a + sign in non-negative generated numeric output.
 297:C:/Program Files (x86)/CodeBlocks/MinGW/lib/gcc/mingw32/4.9.2/include/c++/bits\ios_base.h ****     static const fmtflags showpos =     _S_showpos;
 298:C:/Program Files (x86)/CodeBlocks/MinGW/lib/gcc/mingw32/4.9.2/include/c++/bits\ios_base.h **** 
 299:C:/Program Files (x86)/CodeBlocks/MinGW/lib/gcc/mingw32/4.9.2/include/c++/bits\ios_base.h ****     /// Skips leading white space before certain input operations.
 300:C:/Program Files (x86)/CodeBlocks/MinGW/lib/gcc/mingw32/4.9.2/include/c++/bits\ios_base.h ****     static const fmtflags skipws =      _S_skipws;
 301:C:/Program Files (x86)/CodeBlocks/MinGW/lib/gcc/mingw32/4.9.2/include/c++/bits\ios_base.h **** 
 302:C:/Program Files (x86)/CodeBlocks/MinGW/lib/gcc/mingw32/4.9.2/include/c++/bits\ios_base.h ****     /// Flushes output after each output operation.
 303:C:/Program Files (x86)/CodeBlocks/MinGW/lib/gcc/mingw32/4.9.2/include/c++/bits\ios_base.h ****     static const fmtflags unitbuf =     _S_unitbuf;
 304:C:/Program Files (x86)/CodeBlocks/MinGW/lib/gcc/mingw32/4.9.2/include/c++/bits\ios_base.h **** 
 305:C:/Program Files (x86)/CodeBlocks/MinGW/lib/gcc/mingw32/4.9.2/include/c++/bits\ios_base.h ****     /// Replaces certain lowercase letters with their uppercase equivalents
 306:C:/Program Files (x86)/CodeBlocks/MinGW/lib/gcc/mingw32/4.9.2/include/c++/bits\ios_base.h ****     /// in generated output.
 307:C:/Program Files (x86)/CodeBlocks/MinGW/lib/gcc/mingw32/4.9.2/include/c++/bits\ios_base.h ****     static const fmtflags uppercase =   _S_uppercase;
 308:C:/Program Files (x86)/CodeBlocks/MinGW/lib/gcc/mingw32/4.9.2/include/c++/bits\ios_base.h **** 
 309:C:/Program Files (x86)/CodeBlocks/MinGW/lib/gcc/mingw32/4.9.2/include/c++/bits\ios_base.h ****     /// A mask of left|right|internal.  Useful for the 2-arg form of @c setf.
 310:C:/Program Files (x86)/CodeBlocks/MinGW/lib/gcc/mingw32/4.9.2/include/c++/bits\ios_base.h ****     static const fmtflags adjustfield = _S_adjustfield;
 311:C:/Program Files (x86)/CodeBlocks/MinGW/lib/gcc/mingw32/4.9.2/include/c++/bits\ios_base.h **** 
 312:C:/Program Files (x86)/CodeBlocks/MinGW/lib/gcc/mingw32/4.9.2/include/c++/bits\ios_base.h ****     /// A mask of dec|oct|hex.  Useful for the 2-arg form of @c setf.
 313:C:/Program Files (x86)/CodeBlocks/MinGW/lib/gcc/mingw32/4.9.2/include/c++/bits\ios_base.h ****     static const fmtflags basefield =   _S_basefield;
 314:C:/Program Files (x86)/CodeBlocks/MinGW/lib/gcc/mingw32/4.9.2/include/c++/bits\ios_base.h **** 
 315:C:/Program Files (x86)/CodeBlocks/MinGW/lib/gcc/mingw32/4.9.2/include/c++/bits\ios_base.h ****     /// A mask of scientific|fixed.  Useful for the 2-arg form of @c setf.
 316:C:/Program Files (x86)/CodeBlocks/MinGW/lib/gcc/mingw32/4.9.2/include/c++/bits\ios_base.h ****     static const fmtflags floatfield =  _S_floatfield;
 317:C:/Program Files (x86)/CodeBlocks/MinGW/lib/gcc/mingw32/4.9.2/include/c++/bits\ios_base.h **** 
 318:C:/Program Files (x86)/CodeBlocks/MinGW/lib/gcc/mingw32/4.9.2/include/c++/bits\ios_base.h ****     // 27.4.2.1.3  Type ios_base::iostate
GAS LISTING C:\Users\NJLLMR~1\AppData\Local\Temp\ccqq7oi7.s 			page 9


 319:C:/Program Files (x86)/CodeBlocks/MinGW/lib/gcc/mingw32/4.9.2/include/c++/bits\ios_base.h ****     /**
 320:C:/Program Files (x86)/CodeBlocks/MinGW/lib/gcc/mingw32/4.9.2/include/c++/bits\ios_base.h ****      *  @brief This is a bitmask type.
 321:C:/Program Files (x86)/CodeBlocks/MinGW/lib/gcc/mingw32/4.9.2/include/c++/bits\ios_base.h ****      *
 322:C:/Program Files (x86)/CodeBlocks/MinGW/lib/gcc/mingw32/4.9.2/include/c++/bits\ios_base.h ****      *  @c @a _Ios_Iostate is implementation-defined, but it is valid to
 323:C:/Program Files (x86)/CodeBlocks/MinGW/lib/gcc/mingw32/4.9.2/include/c++/bits\ios_base.h ****      *  perform bitwise operations on these values and expect the Right
 324:C:/Program Files (x86)/CodeBlocks/MinGW/lib/gcc/mingw32/4.9.2/include/c++/bits\ios_base.h ****      *  Thing to happen.  Defined objects of type iostate are:
 325:C:/Program Files (x86)/CodeBlocks/MinGW/lib/gcc/mingw32/4.9.2/include/c++/bits\ios_base.h ****      *  - badbit
 326:C:/Program Files (x86)/CodeBlocks/MinGW/lib/gcc/mingw32/4.9.2/include/c++/bits\ios_base.h ****      *  - eofbit
 327:C:/Program Files (x86)/CodeBlocks/MinGW/lib/gcc/mingw32/4.9.2/include/c++/bits\ios_base.h ****      *  - failbit
 328:C:/Program Files (x86)/CodeBlocks/MinGW/lib/gcc/mingw32/4.9.2/include/c++/bits\ios_base.h ****      *  - goodbit
 329:C:/Program Files (x86)/CodeBlocks/MinGW/lib/gcc/mingw32/4.9.2/include/c++/bits\ios_base.h ****     */
 330:C:/Program Files (x86)/CodeBlocks/MinGW/lib/gcc/mingw32/4.9.2/include/c++/bits\ios_base.h ****     typedef _Ios_Iostate iostate;
 331:C:/Program Files (x86)/CodeBlocks/MinGW/lib/gcc/mingw32/4.9.2/include/c++/bits\ios_base.h **** 
 332:C:/Program Files (x86)/CodeBlocks/MinGW/lib/gcc/mingw32/4.9.2/include/c++/bits\ios_base.h ****     /// Indicates a loss of integrity in an input or output sequence (such
 333:C:/Program Files (x86)/CodeBlocks/MinGW/lib/gcc/mingw32/4.9.2/include/c++/bits\ios_base.h ****     /// as an irrecoverable read error from a file).
 334:C:/Program Files (x86)/CodeBlocks/MinGW/lib/gcc/mingw32/4.9.2/include/c++/bits\ios_base.h ****     static const iostate badbit =	_S_badbit;
 335:C:/Program Files (x86)/CodeBlocks/MinGW/lib/gcc/mingw32/4.9.2/include/c++/bits\ios_base.h **** 
 336:C:/Program Files (x86)/CodeBlocks/MinGW/lib/gcc/mingw32/4.9.2/include/c++/bits\ios_base.h ****     /// Indicates that an input operation reached the end of an input sequence.
 337:C:/Program Files (x86)/CodeBlocks/MinGW/lib/gcc/mingw32/4.9.2/include/c++/bits\ios_base.h ****     static const iostate eofbit =	_S_eofbit;
 338:C:/Program Files (x86)/CodeBlocks/MinGW/lib/gcc/mingw32/4.9.2/include/c++/bits\ios_base.h **** 
 339:C:/Program Files (x86)/CodeBlocks/MinGW/lib/gcc/mingw32/4.9.2/include/c++/bits\ios_base.h ****     /// Indicates that an input operation failed to read the expected
 340:C:/Program Files (x86)/CodeBlocks/MinGW/lib/gcc/mingw32/4.9.2/include/c++/bits\ios_base.h ****     /// characters, or that an output operation failed to generate the
 341:C:/Program Files (x86)/CodeBlocks/MinGW/lib/gcc/mingw32/4.9.2/include/c++/bits\ios_base.h ****     /// desired characters.
 342:C:/Program Files (x86)/CodeBlocks/MinGW/lib/gcc/mingw32/4.9.2/include/c++/bits\ios_base.h ****     static const iostate failbit =	_S_failbit;
 343:C:/Program Files (x86)/CodeBlocks/MinGW/lib/gcc/mingw32/4.9.2/include/c++/bits\ios_base.h **** 
 344:C:/Program Files (x86)/CodeBlocks/MinGW/lib/gcc/mingw32/4.9.2/include/c++/bits\ios_base.h ****     /// Indicates all is well.
 345:C:/Program Files (x86)/CodeBlocks/MinGW/lib/gcc/mingw32/4.9.2/include/c++/bits\ios_base.h ****     static const iostate goodbit =	_S_goodbit;
 346:C:/Program Files (x86)/CodeBlocks/MinGW/lib/gcc/mingw32/4.9.2/include/c++/bits\ios_base.h **** 
 347:C:/Program Files (x86)/CodeBlocks/MinGW/lib/gcc/mingw32/4.9.2/include/c++/bits\ios_base.h ****     // 27.4.2.1.4  Type ios_base::openmode
 348:C:/Program Files (x86)/CodeBlocks/MinGW/lib/gcc/mingw32/4.9.2/include/c++/bits\ios_base.h ****     /**
 349:C:/Program Files (x86)/CodeBlocks/MinGW/lib/gcc/mingw32/4.9.2/include/c++/bits\ios_base.h ****      *  @brief This is a bitmask type.
 350:C:/Program Files (x86)/CodeBlocks/MinGW/lib/gcc/mingw32/4.9.2/include/c++/bits\ios_base.h ****      *
 351:C:/Program Files (x86)/CodeBlocks/MinGW/lib/gcc/mingw32/4.9.2/include/c++/bits\ios_base.h ****      *  @c @a _Ios_Openmode is implementation-defined, but it is valid to
 352:C:/Program Files (x86)/CodeBlocks/MinGW/lib/gcc/mingw32/4.9.2/include/c++/bits\ios_base.h ****      *  perform bitwise operations on these values and expect the Right
 353:C:/Program Files (x86)/CodeBlocks/MinGW/lib/gcc/mingw32/4.9.2/include/c++/bits\ios_base.h ****      *  Thing to happen.  Defined objects of type openmode are:
 354:C:/Program Files (x86)/CodeBlocks/MinGW/lib/gcc/mingw32/4.9.2/include/c++/bits\ios_base.h ****      *  - app
 355:C:/Program Files (x86)/CodeBlocks/MinGW/lib/gcc/mingw32/4.9.2/include/c++/bits\ios_base.h ****      *  - ate
 356:C:/Program Files (x86)/CodeBlocks/MinGW/lib/gcc/mingw32/4.9.2/include/c++/bits\ios_base.h ****      *  - binary
 357:C:/Program Files (x86)/CodeBlocks/MinGW/lib/gcc/mingw32/4.9.2/include/c++/bits\ios_base.h ****      *  - in
 358:C:/Program Files (x86)/CodeBlocks/MinGW/lib/gcc/mingw32/4.9.2/include/c++/bits\ios_base.h ****      *  - out
 359:C:/Program Files (x86)/CodeBlocks/MinGW/lib/gcc/mingw32/4.9.2/include/c++/bits\ios_base.h ****      *  - trunc
 360:C:/Program Files (x86)/CodeBlocks/MinGW/lib/gcc/mingw32/4.9.2/include/c++/bits\ios_base.h ****     */
 361:C:/Program Files (x86)/CodeBlocks/MinGW/lib/gcc/mingw32/4.9.2/include/c++/bits\ios_base.h ****     typedef _Ios_Openmode openmode;
 362:C:/Program Files (x86)/CodeBlocks/MinGW/lib/gcc/mingw32/4.9.2/include/c++/bits\ios_base.h **** 
 363:C:/Program Files (x86)/CodeBlocks/MinGW/lib/gcc/mingw32/4.9.2/include/c++/bits\ios_base.h ****     /// Seek to end before each write.
 364:C:/Program Files (x86)/CodeBlocks/MinGW/lib/gcc/mingw32/4.9.2/include/c++/bits\ios_base.h ****     static const openmode app =		_S_app;
 365:C:/Program Files (x86)/CodeBlocks/MinGW/lib/gcc/mingw32/4.9.2/include/c++/bits\ios_base.h **** 
 366:C:/Program Files (x86)/CodeBlocks/MinGW/lib/gcc/mingw32/4.9.2/include/c++/bits\ios_base.h ****     /// Open and seek to end immediately after opening.
 367:C:/Program Files (x86)/CodeBlocks/MinGW/lib/gcc/mingw32/4.9.2/include/c++/bits\ios_base.h ****     static const openmode ate =		_S_ate;
 368:C:/Program Files (x86)/CodeBlocks/MinGW/lib/gcc/mingw32/4.9.2/include/c++/bits\ios_base.h **** 
 369:C:/Program Files (x86)/CodeBlocks/MinGW/lib/gcc/mingw32/4.9.2/include/c++/bits\ios_base.h ****     /// Perform input and output in binary mode (as opposed to text mode).
 370:C:/Program Files (x86)/CodeBlocks/MinGW/lib/gcc/mingw32/4.9.2/include/c++/bits\ios_base.h ****     /// This is probably not what you think it is; see
 371:C:/Program Files (x86)/CodeBlocks/MinGW/lib/gcc/mingw32/4.9.2/include/c++/bits\ios_base.h ****     /// http://gcc.gnu.org/onlinedocs/libstdc++/manual/bk01pt11ch27s02.html
 372:C:/Program Files (x86)/CodeBlocks/MinGW/lib/gcc/mingw32/4.9.2/include/c++/bits\ios_base.h ****     static const openmode binary =	_S_bin;
 373:C:/Program Files (x86)/CodeBlocks/MinGW/lib/gcc/mingw32/4.9.2/include/c++/bits\ios_base.h **** 
 374:C:/Program Files (x86)/CodeBlocks/MinGW/lib/gcc/mingw32/4.9.2/include/c++/bits\ios_base.h ****     /// Open for input.  Default for @c ifstream and fstream.
 375:C:/Program Files (x86)/CodeBlocks/MinGW/lib/gcc/mingw32/4.9.2/include/c++/bits\ios_base.h ****     static const openmode in =		_S_in;
GAS LISTING C:\Users\NJLLMR~1\AppData\Local\Temp\ccqq7oi7.s 			page 10


 376:C:/Program Files (x86)/CodeBlocks/MinGW/lib/gcc/mingw32/4.9.2/include/c++/bits\ios_base.h **** 
 377:C:/Program Files (x86)/CodeBlocks/MinGW/lib/gcc/mingw32/4.9.2/include/c++/bits\ios_base.h ****     /// Open for output.  Default for @c ofstream and fstream.
 378:C:/Program Files (x86)/CodeBlocks/MinGW/lib/gcc/mingw32/4.9.2/include/c++/bits\ios_base.h ****     static const openmode out =		_S_out;
 379:C:/Program Files (x86)/CodeBlocks/MinGW/lib/gcc/mingw32/4.9.2/include/c++/bits\ios_base.h **** 
 380:C:/Program Files (x86)/CodeBlocks/MinGW/lib/gcc/mingw32/4.9.2/include/c++/bits\ios_base.h ****     /// Open for input.  Default for @c ofstream.
 381:C:/Program Files (x86)/CodeBlocks/MinGW/lib/gcc/mingw32/4.9.2/include/c++/bits\ios_base.h ****     static const openmode trunc =	_S_trunc;
 382:C:/Program Files (x86)/CodeBlocks/MinGW/lib/gcc/mingw32/4.9.2/include/c++/bits\ios_base.h **** 
 383:C:/Program Files (x86)/CodeBlocks/MinGW/lib/gcc/mingw32/4.9.2/include/c++/bits\ios_base.h ****     // 27.4.2.1.5  Type ios_base::seekdir
 384:C:/Program Files (x86)/CodeBlocks/MinGW/lib/gcc/mingw32/4.9.2/include/c++/bits\ios_base.h ****     /**
 385:C:/Program Files (x86)/CodeBlocks/MinGW/lib/gcc/mingw32/4.9.2/include/c++/bits\ios_base.h ****      *  @brief This is an enumerated type.
 386:C:/Program Files (x86)/CodeBlocks/MinGW/lib/gcc/mingw32/4.9.2/include/c++/bits\ios_base.h ****      *
 387:C:/Program Files (x86)/CodeBlocks/MinGW/lib/gcc/mingw32/4.9.2/include/c++/bits\ios_base.h ****      *  @c @a _Ios_Seekdir is implementation-defined.  Defined values
 388:C:/Program Files (x86)/CodeBlocks/MinGW/lib/gcc/mingw32/4.9.2/include/c++/bits\ios_base.h ****      *  of type seekdir are:
 389:C:/Program Files (x86)/CodeBlocks/MinGW/lib/gcc/mingw32/4.9.2/include/c++/bits\ios_base.h ****      *  - beg
 390:C:/Program Files (x86)/CodeBlocks/MinGW/lib/gcc/mingw32/4.9.2/include/c++/bits\ios_base.h ****      *  - cur, equivalent to @c SEEK_CUR in the C standard library.
 391:C:/Program Files (x86)/CodeBlocks/MinGW/lib/gcc/mingw32/4.9.2/include/c++/bits\ios_base.h ****      *  - end, equivalent to @c SEEK_END in the C standard library.
 392:C:/Program Files (x86)/CodeBlocks/MinGW/lib/gcc/mingw32/4.9.2/include/c++/bits\ios_base.h ****     */
 393:C:/Program Files (x86)/CodeBlocks/MinGW/lib/gcc/mingw32/4.9.2/include/c++/bits\ios_base.h ****     typedef _Ios_Seekdir seekdir;
 394:C:/Program Files (x86)/CodeBlocks/MinGW/lib/gcc/mingw32/4.9.2/include/c++/bits\ios_base.h **** 
 395:C:/Program Files (x86)/CodeBlocks/MinGW/lib/gcc/mingw32/4.9.2/include/c++/bits\ios_base.h ****     /// Request a seek relative to the beginning of the stream.
 396:C:/Program Files (x86)/CodeBlocks/MinGW/lib/gcc/mingw32/4.9.2/include/c++/bits\ios_base.h ****     static const seekdir beg =		_S_beg;
 397:C:/Program Files (x86)/CodeBlocks/MinGW/lib/gcc/mingw32/4.9.2/include/c++/bits\ios_base.h **** 
 398:C:/Program Files (x86)/CodeBlocks/MinGW/lib/gcc/mingw32/4.9.2/include/c++/bits\ios_base.h ****     /// Request a seek relative to the current position within the sequence.
 399:C:/Program Files (x86)/CodeBlocks/MinGW/lib/gcc/mingw32/4.9.2/include/c++/bits\ios_base.h ****     static const seekdir cur =		_S_cur;
 400:C:/Program Files (x86)/CodeBlocks/MinGW/lib/gcc/mingw32/4.9.2/include/c++/bits\ios_base.h **** 
 401:C:/Program Files (x86)/CodeBlocks/MinGW/lib/gcc/mingw32/4.9.2/include/c++/bits\ios_base.h ****     /// Request a seek relative to the current end of the sequence.
 402:C:/Program Files (x86)/CodeBlocks/MinGW/lib/gcc/mingw32/4.9.2/include/c++/bits\ios_base.h ****     static const seekdir end =		_S_end;
 403:C:/Program Files (x86)/CodeBlocks/MinGW/lib/gcc/mingw32/4.9.2/include/c++/bits\ios_base.h **** 
 404:C:/Program Files (x86)/CodeBlocks/MinGW/lib/gcc/mingw32/4.9.2/include/c++/bits\ios_base.h ****     // Annex D.6
 405:C:/Program Files (x86)/CodeBlocks/MinGW/lib/gcc/mingw32/4.9.2/include/c++/bits\ios_base.h ****     typedef int io_state;
 406:C:/Program Files (x86)/CodeBlocks/MinGW/lib/gcc/mingw32/4.9.2/include/c++/bits\ios_base.h ****     typedef int open_mode;
 407:C:/Program Files (x86)/CodeBlocks/MinGW/lib/gcc/mingw32/4.9.2/include/c++/bits\ios_base.h ****     typedef int seek_dir;
 408:C:/Program Files (x86)/CodeBlocks/MinGW/lib/gcc/mingw32/4.9.2/include/c++/bits\ios_base.h **** 
 409:C:/Program Files (x86)/CodeBlocks/MinGW/lib/gcc/mingw32/4.9.2/include/c++/bits\ios_base.h ****     typedef std::streampos streampos;
 410:C:/Program Files (x86)/CodeBlocks/MinGW/lib/gcc/mingw32/4.9.2/include/c++/bits\ios_base.h ****     typedef std::streamoff streamoff;
 411:C:/Program Files (x86)/CodeBlocks/MinGW/lib/gcc/mingw32/4.9.2/include/c++/bits\ios_base.h **** 
 412:C:/Program Files (x86)/CodeBlocks/MinGW/lib/gcc/mingw32/4.9.2/include/c++/bits\ios_base.h ****     // Callbacks;
 413:C:/Program Files (x86)/CodeBlocks/MinGW/lib/gcc/mingw32/4.9.2/include/c++/bits\ios_base.h ****     /**
 414:C:/Program Files (x86)/CodeBlocks/MinGW/lib/gcc/mingw32/4.9.2/include/c++/bits\ios_base.h ****      *  @brief  The set of events that may be passed to an event callback.
 415:C:/Program Files (x86)/CodeBlocks/MinGW/lib/gcc/mingw32/4.9.2/include/c++/bits\ios_base.h ****      *
 416:C:/Program Files (x86)/CodeBlocks/MinGW/lib/gcc/mingw32/4.9.2/include/c++/bits\ios_base.h ****      *  erase_event is used during ~ios() and copyfmt().  imbue_event is used
 417:C:/Program Files (x86)/CodeBlocks/MinGW/lib/gcc/mingw32/4.9.2/include/c++/bits\ios_base.h ****      *  during imbue().  copyfmt_event is used during copyfmt().
 418:C:/Program Files (x86)/CodeBlocks/MinGW/lib/gcc/mingw32/4.9.2/include/c++/bits\ios_base.h ****     */
 419:C:/Program Files (x86)/CodeBlocks/MinGW/lib/gcc/mingw32/4.9.2/include/c++/bits\ios_base.h ****     enum event
 420:C:/Program Files (x86)/CodeBlocks/MinGW/lib/gcc/mingw32/4.9.2/include/c++/bits\ios_base.h ****     {
 421:C:/Program Files (x86)/CodeBlocks/MinGW/lib/gcc/mingw32/4.9.2/include/c++/bits\ios_base.h ****       erase_event,
 422:C:/Program Files (x86)/CodeBlocks/MinGW/lib/gcc/mingw32/4.9.2/include/c++/bits\ios_base.h ****       imbue_event,
 423:C:/Program Files (x86)/CodeBlocks/MinGW/lib/gcc/mingw32/4.9.2/include/c++/bits\ios_base.h ****       copyfmt_event
 424:C:/Program Files (x86)/CodeBlocks/MinGW/lib/gcc/mingw32/4.9.2/include/c++/bits\ios_base.h ****     };
 425:C:/Program Files (x86)/CodeBlocks/MinGW/lib/gcc/mingw32/4.9.2/include/c++/bits\ios_base.h **** 
 426:C:/Program Files (x86)/CodeBlocks/MinGW/lib/gcc/mingw32/4.9.2/include/c++/bits\ios_base.h ****     /**
 427:C:/Program Files (x86)/CodeBlocks/MinGW/lib/gcc/mingw32/4.9.2/include/c++/bits\ios_base.h ****      *  @brief  The type of an event callback function.
 428:C:/Program Files (x86)/CodeBlocks/MinGW/lib/gcc/mingw32/4.9.2/include/c++/bits\ios_base.h ****      *  @param  __e  One of the members of the event enum.
 429:C:/Program Files (x86)/CodeBlocks/MinGW/lib/gcc/mingw32/4.9.2/include/c++/bits\ios_base.h ****      *  @param  __b  Reference to the ios_base object.
 430:C:/Program Files (x86)/CodeBlocks/MinGW/lib/gcc/mingw32/4.9.2/include/c++/bits\ios_base.h ****      *  @param  __i  The integer provided when the callback was registered.
 431:C:/Program Files (x86)/CodeBlocks/MinGW/lib/gcc/mingw32/4.9.2/include/c++/bits\ios_base.h ****      *
 432:C:/Program Files (x86)/CodeBlocks/MinGW/lib/gcc/mingw32/4.9.2/include/c++/bits\ios_base.h ****      *  Event callbacks are user defined functions that get called during
GAS LISTING C:\Users\NJLLMR~1\AppData\Local\Temp\ccqq7oi7.s 			page 11


 433:C:/Program Files (x86)/CodeBlocks/MinGW/lib/gcc/mingw32/4.9.2/include/c++/bits\ios_base.h ****      *  several ios_base and basic_ios functions, specifically imbue(),
 434:C:/Program Files (x86)/CodeBlocks/MinGW/lib/gcc/mingw32/4.9.2/include/c++/bits\ios_base.h ****      *  copyfmt(), and ~ios().
 435:C:/Program Files (x86)/CodeBlocks/MinGW/lib/gcc/mingw32/4.9.2/include/c++/bits\ios_base.h ****     */
 436:C:/Program Files (x86)/CodeBlocks/MinGW/lib/gcc/mingw32/4.9.2/include/c++/bits\ios_base.h ****     typedef void (*event_callback) (event __e, ios_base& __b, int __i);
 437:C:/Program Files (x86)/CodeBlocks/MinGW/lib/gcc/mingw32/4.9.2/include/c++/bits\ios_base.h **** 
 438:C:/Program Files (x86)/CodeBlocks/MinGW/lib/gcc/mingw32/4.9.2/include/c++/bits\ios_base.h ****     /**
 439:C:/Program Files (x86)/CodeBlocks/MinGW/lib/gcc/mingw32/4.9.2/include/c++/bits\ios_base.h ****      *  @brief  Add the callback __fn with parameter __index.
 440:C:/Program Files (x86)/CodeBlocks/MinGW/lib/gcc/mingw32/4.9.2/include/c++/bits\ios_base.h ****      *  @param  __fn  The function to add.
 441:C:/Program Files (x86)/CodeBlocks/MinGW/lib/gcc/mingw32/4.9.2/include/c++/bits\ios_base.h ****      *  @param  __index  The integer to pass to the function when invoked.
 442:C:/Program Files (x86)/CodeBlocks/MinGW/lib/gcc/mingw32/4.9.2/include/c++/bits\ios_base.h ****      *
 443:C:/Program Files (x86)/CodeBlocks/MinGW/lib/gcc/mingw32/4.9.2/include/c++/bits\ios_base.h ****      *  Registers a function as an event callback with an integer parameter to
 444:C:/Program Files (x86)/CodeBlocks/MinGW/lib/gcc/mingw32/4.9.2/include/c++/bits\ios_base.h ****      *  be passed to the function when invoked.  Multiple copies of the
 445:C:/Program Files (x86)/CodeBlocks/MinGW/lib/gcc/mingw32/4.9.2/include/c++/bits\ios_base.h ****      *  function are allowed.  If there are multiple callbacks, they are
 446:C:/Program Files (x86)/CodeBlocks/MinGW/lib/gcc/mingw32/4.9.2/include/c++/bits\ios_base.h ****      *  invoked in the order they were registered.
 447:C:/Program Files (x86)/CodeBlocks/MinGW/lib/gcc/mingw32/4.9.2/include/c++/bits\ios_base.h ****     */
 448:C:/Program Files (x86)/CodeBlocks/MinGW/lib/gcc/mingw32/4.9.2/include/c++/bits\ios_base.h ****     void
 449:C:/Program Files (x86)/CodeBlocks/MinGW/lib/gcc/mingw32/4.9.2/include/c++/bits\ios_base.h ****     register_callback(event_callback __fn, int __index);
 450:C:/Program Files (x86)/CodeBlocks/MinGW/lib/gcc/mingw32/4.9.2/include/c++/bits\ios_base.h **** 
 451:C:/Program Files (x86)/CodeBlocks/MinGW/lib/gcc/mingw32/4.9.2/include/c++/bits\ios_base.h ****   protected:
 452:C:/Program Files (x86)/CodeBlocks/MinGW/lib/gcc/mingw32/4.9.2/include/c++/bits\ios_base.h ****     streamsize		_M_precision;
 453:C:/Program Files (x86)/CodeBlocks/MinGW/lib/gcc/mingw32/4.9.2/include/c++/bits\ios_base.h ****     streamsize		_M_width;
 454:C:/Program Files (x86)/CodeBlocks/MinGW/lib/gcc/mingw32/4.9.2/include/c++/bits\ios_base.h ****     fmtflags		_M_flags;
 455:C:/Program Files (x86)/CodeBlocks/MinGW/lib/gcc/mingw32/4.9.2/include/c++/bits\ios_base.h ****     iostate		_M_exception;
 456:C:/Program Files (x86)/CodeBlocks/MinGW/lib/gcc/mingw32/4.9.2/include/c++/bits\ios_base.h ****     iostate		_M_streambuf_state;
 457:C:/Program Files (x86)/CodeBlocks/MinGW/lib/gcc/mingw32/4.9.2/include/c++/bits\ios_base.h **** 
 458:C:/Program Files (x86)/CodeBlocks/MinGW/lib/gcc/mingw32/4.9.2/include/c++/bits\ios_base.h ****     // 27.4.2.6  Members for callbacks
 459:C:/Program Files (x86)/CodeBlocks/MinGW/lib/gcc/mingw32/4.9.2/include/c++/bits\ios_base.h ****     // 27.4.2.6  ios_base callbacks
 460:C:/Program Files (x86)/CodeBlocks/MinGW/lib/gcc/mingw32/4.9.2/include/c++/bits\ios_base.h ****     struct _Callback_list
 461:C:/Program Files (x86)/CodeBlocks/MinGW/lib/gcc/mingw32/4.9.2/include/c++/bits\ios_base.h ****     {
 462:C:/Program Files (x86)/CodeBlocks/MinGW/lib/gcc/mingw32/4.9.2/include/c++/bits\ios_base.h ****       // Data Members
 463:C:/Program Files (x86)/CodeBlocks/MinGW/lib/gcc/mingw32/4.9.2/include/c++/bits\ios_base.h ****       _Callback_list*		_M_next;
 464:C:/Program Files (x86)/CodeBlocks/MinGW/lib/gcc/mingw32/4.9.2/include/c++/bits\ios_base.h ****       ios_base::event_callback	_M_fn;
 465:C:/Program Files (x86)/CodeBlocks/MinGW/lib/gcc/mingw32/4.9.2/include/c++/bits\ios_base.h ****       int			_M_index;
 466:C:/Program Files (x86)/CodeBlocks/MinGW/lib/gcc/mingw32/4.9.2/include/c++/bits\ios_base.h ****       _Atomic_word		_M_refcount;  // 0 means one reference.
 467:C:/Program Files (x86)/CodeBlocks/MinGW/lib/gcc/mingw32/4.9.2/include/c++/bits\ios_base.h **** 
 468:C:/Program Files (x86)/CodeBlocks/MinGW/lib/gcc/mingw32/4.9.2/include/c++/bits\ios_base.h ****       _Callback_list(ios_base::event_callback __fn, int __index,
 469:C:/Program Files (x86)/CodeBlocks/MinGW/lib/gcc/mingw32/4.9.2/include/c++/bits\ios_base.h **** 		     _Callback_list* __cb)
 470:C:/Program Files (x86)/CodeBlocks/MinGW/lib/gcc/mingw32/4.9.2/include/c++/bits\ios_base.h ****       : _M_next(__cb), _M_fn(__fn), _M_index(__index), _M_refcount(0) { }
 471:C:/Program Files (x86)/CodeBlocks/MinGW/lib/gcc/mingw32/4.9.2/include/c++/bits\ios_base.h **** 
 472:C:/Program Files (x86)/CodeBlocks/MinGW/lib/gcc/mingw32/4.9.2/include/c++/bits\ios_base.h ****       void
 473:C:/Program Files (x86)/CodeBlocks/MinGW/lib/gcc/mingw32/4.9.2/include/c++/bits\ios_base.h ****       _M_add_reference() { __gnu_cxx::__atomic_add_dispatch(&_M_refcount, 1); }
 474:C:/Program Files (x86)/CodeBlocks/MinGW/lib/gcc/mingw32/4.9.2/include/c++/bits\ios_base.h **** 
 475:C:/Program Files (x86)/CodeBlocks/MinGW/lib/gcc/mingw32/4.9.2/include/c++/bits\ios_base.h ****       // 0 => OK to delete.
 476:C:/Program Files (x86)/CodeBlocks/MinGW/lib/gcc/mingw32/4.9.2/include/c++/bits\ios_base.h ****       int
 477:C:/Program Files (x86)/CodeBlocks/MinGW/lib/gcc/mingw32/4.9.2/include/c++/bits\ios_base.h ****       _M_remove_reference() 
 478:C:/Program Files (x86)/CodeBlocks/MinGW/lib/gcc/mingw32/4.9.2/include/c++/bits\ios_base.h ****       {
 479:C:/Program Files (x86)/CodeBlocks/MinGW/lib/gcc/mingw32/4.9.2/include/c++/bits\ios_base.h ****         // Be race-detector-friendly.  For more info see bits/c++config.
 480:C:/Program Files (x86)/CodeBlocks/MinGW/lib/gcc/mingw32/4.9.2/include/c++/bits\ios_base.h ****         _GLIBCXX_SYNCHRONIZATION_HAPPENS_BEFORE(&_M_refcount);
 481:C:/Program Files (x86)/CodeBlocks/MinGW/lib/gcc/mingw32/4.9.2/include/c++/bits\ios_base.h ****         int __res = __gnu_cxx::__exchange_and_add_dispatch(&_M_refcount, -1);
 482:C:/Program Files (x86)/CodeBlocks/MinGW/lib/gcc/mingw32/4.9.2/include/c++/bits\ios_base.h ****         if (__res == 0)
 483:C:/Program Files (x86)/CodeBlocks/MinGW/lib/gcc/mingw32/4.9.2/include/c++/bits\ios_base.h ****           {
 484:C:/Program Files (x86)/CodeBlocks/MinGW/lib/gcc/mingw32/4.9.2/include/c++/bits\ios_base.h ****             _GLIBCXX_SYNCHRONIZATION_HAPPENS_AFTER(&_M_refcount);
 485:C:/Program Files (x86)/CodeBlocks/MinGW/lib/gcc/mingw32/4.9.2/include/c++/bits\ios_base.h ****           }
 486:C:/Program Files (x86)/CodeBlocks/MinGW/lib/gcc/mingw32/4.9.2/include/c++/bits\ios_base.h ****         return __res;
 487:C:/Program Files (x86)/CodeBlocks/MinGW/lib/gcc/mingw32/4.9.2/include/c++/bits\ios_base.h ****       }
 488:C:/Program Files (x86)/CodeBlocks/MinGW/lib/gcc/mingw32/4.9.2/include/c++/bits\ios_base.h ****     };
 489:C:/Program Files (x86)/CodeBlocks/MinGW/lib/gcc/mingw32/4.9.2/include/c++/bits\ios_base.h **** 
GAS LISTING C:\Users\NJLLMR~1\AppData\Local\Temp\ccqq7oi7.s 			page 12


 490:C:/Program Files (x86)/CodeBlocks/MinGW/lib/gcc/mingw32/4.9.2/include/c++/bits\ios_base.h ****      _Callback_list*	_M_callbacks;
 491:C:/Program Files (x86)/CodeBlocks/MinGW/lib/gcc/mingw32/4.9.2/include/c++/bits\ios_base.h **** 
 492:C:/Program Files (x86)/CodeBlocks/MinGW/lib/gcc/mingw32/4.9.2/include/c++/bits\ios_base.h ****     void
 493:C:/Program Files (x86)/CodeBlocks/MinGW/lib/gcc/mingw32/4.9.2/include/c++/bits\ios_base.h ****     _M_call_callbacks(event __ev) throw();
 494:C:/Program Files (x86)/CodeBlocks/MinGW/lib/gcc/mingw32/4.9.2/include/c++/bits\ios_base.h **** 
 495:C:/Program Files (x86)/CodeBlocks/MinGW/lib/gcc/mingw32/4.9.2/include/c++/bits\ios_base.h ****     void
 496:C:/Program Files (x86)/CodeBlocks/MinGW/lib/gcc/mingw32/4.9.2/include/c++/bits\ios_base.h ****     _M_dispose_callbacks(void) throw();
 497:C:/Program Files (x86)/CodeBlocks/MinGW/lib/gcc/mingw32/4.9.2/include/c++/bits\ios_base.h **** 
 498:C:/Program Files (x86)/CodeBlocks/MinGW/lib/gcc/mingw32/4.9.2/include/c++/bits\ios_base.h ****     // 27.4.2.5  Members for iword/pword storage
 499:C:/Program Files (x86)/CodeBlocks/MinGW/lib/gcc/mingw32/4.9.2/include/c++/bits\ios_base.h ****     struct _Words
 500:C:/Program Files (x86)/CodeBlocks/MinGW/lib/gcc/mingw32/4.9.2/include/c++/bits\ios_base.h ****     {
 501:C:/Program Files (x86)/CodeBlocks/MinGW/lib/gcc/mingw32/4.9.2/include/c++/bits\ios_base.h ****       void*	_M_pword;
 502:C:/Program Files (x86)/CodeBlocks/MinGW/lib/gcc/mingw32/4.9.2/include/c++/bits\ios_base.h ****       long	_M_iword;
 503:C:/Program Files (x86)/CodeBlocks/MinGW/lib/gcc/mingw32/4.9.2/include/c++/bits\ios_base.h ****       _Words() : _M_pword(0), _M_iword(0) { }
 504:C:/Program Files (x86)/CodeBlocks/MinGW/lib/gcc/mingw32/4.9.2/include/c++/bits\ios_base.h ****     };
 505:C:/Program Files (x86)/CodeBlocks/MinGW/lib/gcc/mingw32/4.9.2/include/c++/bits\ios_base.h **** 
 506:C:/Program Files (x86)/CodeBlocks/MinGW/lib/gcc/mingw32/4.9.2/include/c++/bits\ios_base.h ****     // Only for failed iword/pword calls.
 507:C:/Program Files (x86)/CodeBlocks/MinGW/lib/gcc/mingw32/4.9.2/include/c++/bits\ios_base.h ****     _Words		_M_word_zero;
 508:C:/Program Files (x86)/CodeBlocks/MinGW/lib/gcc/mingw32/4.9.2/include/c++/bits\ios_base.h **** 
 509:C:/Program Files (x86)/CodeBlocks/MinGW/lib/gcc/mingw32/4.9.2/include/c++/bits\ios_base.h ****     // Guaranteed storage.
 510:C:/Program Files (x86)/CodeBlocks/MinGW/lib/gcc/mingw32/4.9.2/include/c++/bits\ios_base.h ****     // The first 5 iword and pword slots are reserved for internal use.
 511:C:/Program Files (x86)/CodeBlocks/MinGW/lib/gcc/mingw32/4.9.2/include/c++/bits\ios_base.h ****     enum { _S_local_word_size = 8 };
 512:C:/Program Files (x86)/CodeBlocks/MinGW/lib/gcc/mingw32/4.9.2/include/c++/bits\ios_base.h ****     _Words		_M_local_word[_S_local_word_size];
 513:C:/Program Files (x86)/CodeBlocks/MinGW/lib/gcc/mingw32/4.9.2/include/c++/bits\ios_base.h **** 
 514:C:/Program Files (x86)/CodeBlocks/MinGW/lib/gcc/mingw32/4.9.2/include/c++/bits\ios_base.h ****     // Allocated storage.
 515:C:/Program Files (x86)/CodeBlocks/MinGW/lib/gcc/mingw32/4.9.2/include/c++/bits\ios_base.h ****     int			_M_word_size;
 516:C:/Program Files (x86)/CodeBlocks/MinGW/lib/gcc/mingw32/4.9.2/include/c++/bits\ios_base.h ****     _Words*		_M_word;
 517:C:/Program Files (x86)/CodeBlocks/MinGW/lib/gcc/mingw32/4.9.2/include/c++/bits\ios_base.h **** 
 518:C:/Program Files (x86)/CodeBlocks/MinGW/lib/gcc/mingw32/4.9.2/include/c++/bits\ios_base.h ****     _Words&
 519:C:/Program Files (x86)/CodeBlocks/MinGW/lib/gcc/mingw32/4.9.2/include/c++/bits\ios_base.h ****     _M_grow_words(int __index, bool __iword);
 520:C:/Program Files (x86)/CodeBlocks/MinGW/lib/gcc/mingw32/4.9.2/include/c++/bits\ios_base.h **** 
 521:C:/Program Files (x86)/CodeBlocks/MinGW/lib/gcc/mingw32/4.9.2/include/c++/bits\ios_base.h ****     // Members for locale and locale caching.
 522:C:/Program Files (x86)/CodeBlocks/MinGW/lib/gcc/mingw32/4.9.2/include/c++/bits\ios_base.h ****     locale		_M_ios_locale;
 523:C:/Program Files (x86)/CodeBlocks/MinGW/lib/gcc/mingw32/4.9.2/include/c++/bits\ios_base.h **** 
 524:C:/Program Files (x86)/CodeBlocks/MinGW/lib/gcc/mingw32/4.9.2/include/c++/bits\ios_base.h ****     void
 525:C:/Program Files (x86)/CodeBlocks/MinGW/lib/gcc/mingw32/4.9.2/include/c++/bits\ios_base.h ****     _M_init() throw();
 526:C:/Program Files (x86)/CodeBlocks/MinGW/lib/gcc/mingw32/4.9.2/include/c++/bits\ios_base.h **** 
 527:C:/Program Files (x86)/CodeBlocks/MinGW/lib/gcc/mingw32/4.9.2/include/c++/bits\ios_base.h ****   public:
 528:C:/Program Files (x86)/CodeBlocks/MinGW/lib/gcc/mingw32/4.9.2/include/c++/bits\ios_base.h **** 
 529:C:/Program Files (x86)/CodeBlocks/MinGW/lib/gcc/mingw32/4.9.2/include/c++/bits\ios_base.h ****     // 27.4.2.1.6  Class ios_base::Init
 530:C:/Program Files (x86)/CodeBlocks/MinGW/lib/gcc/mingw32/4.9.2/include/c++/bits\ios_base.h ****     // Used to initialize standard streams. In theory, g++ could use
 531:C:/Program Files (x86)/CodeBlocks/MinGW/lib/gcc/mingw32/4.9.2/include/c++/bits\ios_base.h ****     // -finit-priority to order this stuff correctly without going
 532:C:/Program Files (x86)/CodeBlocks/MinGW/lib/gcc/mingw32/4.9.2/include/c++/bits\ios_base.h ****     // through these machinations.
 533:C:/Program Files (x86)/CodeBlocks/MinGW/lib/gcc/mingw32/4.9.2/include/c++/bits\ios_base.h ****     class Init
 534:C:/Program Files (x86)/CodeBlocks/MinGW/lib/gcc/mingw32/4.9.2/include/c++/bits\ios_base.h ****     {
 535:C:/Program Files (x86)/CodeBlocks/MinGW/lib/gcc/mingw32/4.9.2/include/c++/bits\ios_base.h ****       friend class ios_base;
 536:C:/Program Files (x86)/CodeBlocks/MinGW/lib/gcc/mingw32/4.9.2/include/c++/bits\ios_base.h ****     public:
 537:C:/Program Files (x86)/CodeBlocks/MinGW/lib/gcc/mingw32/4.9.2/include/c++/bits\ios_base.h ****       Init();
 538:C:/Program Files (x86)/CodeBlocks/MinGW/lib/gcc/mingw32/4.9.2/include/c++/bits\ios_base.h ****       ~Init();
 539:C:/Program Files (x86)/CodeBlocks/MinGW/lib/gcc/mingw32/4.9.2/include/c++/bits\ios_base.h **** 
 540:C:/Program Files (x86)/CodeBlocks/MinGW/lib/gcc/mingw32/4.9.2/include/c++/bits\ios_base.h ****     private:
 541:C:/Program Files (x86)/CodeBlocks/MinGW/lib/gcc/mingw32/4.9.2/include/c++/bits\ios_base.h ****       static _Atomic_word	_S_refcount;
 542:C:/Program Files (x86)/CodeBlocks/MinGW/lib/gcc/mingw32/4.9.2/include/c++/bits\ios_base.h ****       static bool		_S_synced_with_stdio;
 543:C:/Program Files (x86)/CodeBlocks/MinGW/lib/gcc/mingw32/4.9.2/include/c++/bits\ios_base.h ****     };
 544:C:/Program Files (x86)/CodeBlocks/MinGW/lib/gcc/mingw32/4.9.2/include/c++/bits\ios_base.h **** 
 545:C:/Program Files (x86)/CodeBlocks/MinGW/lib/gcc/mingw32/4.9.2/include/c++/bits\ios_base.h ****     // [27.4.2.2] fmtflags state functions
 546:C:/Program Files (x86)/CodeBlocks/MinGW/lib/gcc/mingw32/4.9.2/include/c++/bits\ios_base.h ****     /**
GAS LISTING C:\Users\NJLLMR~1\AppData\Local\Temp\ccqq7oi7.s 			page 13


 547:C:/Program Files (x86)/CodeBlocks/MinGW/lib/gcc/mingw32/4.9.2/include/c++/bits\ios_base.h ****      *  @brief  Access to format flags.
 548:C:/Program Files (x86)/CodeBlocks/MinGW/lib/gcc/mingw32/4.9.2/include/c++/bits\ios_base.h ****      *  @return  The format control flags for both input and output.
 549:C:/Program Files (x86)/CodeBlocks/MinGW/lib/gcc/mingw32/4.9.2/include/c++/bits\ios_base.h ****     */
 550:C:/Program Files (x86)/CodeBlocks/MinGW/lib/gcc/mingw32/4.9.2/include/c++/bits\ios_base.h ****     fmtflags
 551:C:/Program Files (x86)/CodeBlocks/MinGW/lib/gcc/mingw32/4.9.2/include/c++/bits\ios_base.h ****     flags() const
 552:C:/Program Files (x86)/CodeBlocks/MinGW/lib/gcc/mingw32/4.9.2/include/c++/bits\ios_base.h ****     { return _M_flags; }
 553:C:/Program Files (x86)/CodeBlocks/MinGW/lib/gcc/mingw32/4.9.2/include/c++/bits\ios_base.h **** 
 554:C:/Program Files (x86)/CodeBlocks/MinGW/lib/gcc/mingw32/4.9.2/include/c++/bits\ios_base.h ****     /**
 555:C:/Program Files (x86)/CodeBlocks/MinGW/lib/gcc/mingw32/4.9.2/include/c++/bits\ios_base.h ****      *  @brief  Setting new format flags all at once.
 556:C:/Program Files (x86)/CodeBlocks/MinGW/lib/gcc/mingw32/4.9.2/include/c++/bits\ios_base.h ****      *  @param  __fmtfl  The new flags to set.
 557:C:/Program Files (x86)/CodeBlocks/MinGW/lib/gcc/mingw32/4.9.2/include/c++/bits\ios_base.h ****      *  @return  The previous format control flags.
 558:C:/Program Files (x86)/CodeBlocks/MinGW/lib/gcc/mingw32/4.9.2/include/c++/bits\ios_base.h ****      *
 559:C:/Program Files (x86)/CodeBlocks/MinGW/lib/gcc/mingw32/4.9.2/include/c++/bits\ios_base.h ****      *  This function overwrites all the format flags with @a __fmtfl.
 560:C:/Program Files (x86)/CodeBlocks/MinGW/lib/gcc/mingw32/4.9.2/include/c++/bits\ios_base.h ****     */
 561:C:/Program Files (x86)/CodeBlocks/MinGW/lib/gcc/mingw32/4.9.2/include/c++/bits\ios_base.h ****     fmtflags
 562:C:/Program Files (x86)/CodeBlocks/MinGW/lib/gcc/mingw32/4.9.2/include/c++/bits\ios_base.h ****     flags(fmtflags __fmtfl)
 563:C:/Program Files (x86)/CodeBlocks/MinGW/lib/gcc/mingw32/4.9.2/include/c++/bits\ios_base.h ****     {
 564:C:/Program Files (x86)/CodeBlocks/MinGW/lib/gcc/mingw32/4.9.2/include/c++/bits\ios_base.h ****       fmtflags __old = _M_flags;
 565:C:/Program Files (x86)/CodeBlocks/MinGW/lib/gcc/mingw32/4.9.2/include/c++/bits\ios_base.h ****       _M_flags = __fmtfl;
 566:C:/Program Files (x86)/CodeBlocks/MinGW/lib/gcc/mingw32/4.9.2/include/c++/bits\ios_base.h ****       return __old;
 567:C:/Program Files (x86)/CodeBlocks/MinGW/lib/gcc/mingw32/4.9.2/include/c++/bits\ios_base.h ****     }
 568:C:/Program Files (x86)/CodeBlocks/MinGW/lib/gcc/mingw32/4.9.2/include/c++/bits\ios_base.h **** 
 569:C:/Program Files (x86)/CodeBlocks/MinGW/lib/gcc/mingw32/4.9.2/include/c++/bits\ios_base.h ****     /**
 570:C:/Program Files (x86)/CodeBlocks/MinGW/lib/gcc/mingw32/4.9.2/include/c++/bits\ios_base.h ****      *  @brief  Setting new format flags.
 571:C:/Program Files (x86)/CodeBlocks/MinGW/lib/gcc/mingw32/4.9.2/include/c++/bits\ios_base.h ****      *  @param  __fmtfl  Additional flags to set.
 572:C:/Program Files (x86)/CodeBlocks/MinGW/lib/gcc/mingw32/4.9.2/include/c++/bits\ios_base.h ****      *  @return  The previous format control flags.
 573:C:/Program Files (x86)/CodeBlocks/MinGW/lib/gcc/mingw32/4.9.2/include/c++/bits\ios_base.h ****      *
 574:C:/Program Files (x86)/CodeBlocks/MinGW/lib/gcc/mingw32/4.9.2/include/c++/bits\ios_base.h ****      *  This function sets additional flags in format control.  Flags that
 575:C:/Program Files (x86)/CodeBlocks/MinGW/lib/gcc/mingw32/4.9.2/include/c++/bits\ios_base.h ****      *  were previously set remain set.
 576:C:/Program Files (x86)/CodeBlocks/MinGW/lib/gcc/mingw32/4.9.2/include/c++/bits\ios_base.h ****     */
 577:C:/Program Files (x86)/CodeBlocks/MinGW/lib/gcc/mingw32/4.9.2/include/c++/bits\ios_base.h ****     fmtflags
 578:C:/Program Files (x86)/CodeBlocks/MinGW/lib/gcc/mingw32/4.9.2/include/c++/bits\ios_base.h ****     setf(fmtflags __fmtfl)
 579:C:/Program Files (x86)/CodeBlocks/MinGW/lib/gcc/mingw32/4.9.2/include/c++/bits\ios_base.h ****     {
 580:C:/Program Files (x86)/CodeBlocks/MinGW/lib/gcc/mingw32/4.9.2/include/c++/bits\ios_base.h ****       fmtflags __old = _M_flags;
 581:C:/Program Files (x86)/CodeBlocks/MinGW/lib/gcc/mingw32/4.9.2/include/c++/bits\ios_base.h ****       _M_flags |= __fmtfl;
 582:C:/Program Files (x86)/CodeBlocks/MinGW/lib/gcc/mingw32/4.9.2/include/c++/bits\ios_base.h ****       return __old;
 583:C:/Program Files (x86)/CodeBlocks/MinGW/lib/gcc/mingw32/4.9.2/include/c++/bits\ios_base.h ****     }
 584:C:/Program Files (x86)/CodeBlocks/MinGW/lib/gcc/mingw32/4.9.2/include/c++/bits\ios_base.h **** 
 585:C:/Program Files (x86)/CodeBlocks/MinGW/lib/gcc/mingw32/4.9.2/include/c++/bits\ios_base.h ****     /**
 586:C:/Program Files (x86)/CodeBlocks/MinGW/lib/gcc/mingw32/4.9.2/include/c++/bits\ios_base.h ****      *  @brief  Setting new format flags.
 587:C:/Program Files (x86)/CodeBlocks/MinGW/lib/gcc/mingw32/4.9.2/include/c++/bits\ios_base.h ****      *  @param  __fmtfl  Additional flags to set.
 588:C:/Program Files (x86)/CodeBlocks/MinGW/lib/gcc/mingw32/4.9.2/include/c++/bits\ios_base.h ****      *  @param  __mask  The flags mask for @a fmtfl.
 589:C:/Program Files (x86)/CodeBlocks/MinGW/lib/gcc/mingw32/4.9.2/include/c++/bits\ios_base.h ****      *  @return  The previous format control flags.
 590:C:/Program Files (x86)/CodeBlocks/MinGW/lib/gcc/mingw32/4.9.2/include/c++/bits\ios_base.h ****      *
 591:C:/Program Files (x86)/CodeBlocks/MinGW/lib/gcc/mingw32/4.9.2/include/c++/bits\ios_base.h ****      *  This function clears @a mask in the format flags, then sets
 592:C:/Program Files (x86)/CodeBlocks/MinGW/lib/gcc/mingw32/4.9.2/include/c++/bits\ios_base.h ****      *  @a fmtfl @c & @a mask.  An example mask is @c ios_base::adjustfield.
 593:C:/Program Files (x86)/CodeBlocks/MinGW/lib/gcc/mingw32/4.9.2/include/c++/bits\ios_base.h ****     */
 594:C:/Program Files (x86)/CodeBlocks/MinGW/lib/gcc/mingw32/4.9.2/include/c++/bits\ios_base.h ****     fmtflags
 595:C:/Program Files (x86)/CodeBlocks/MinGW/lib/gcc/mingw32/4.9.2/include/c++/bits\ios_base.h ****     setf(fmtflags __fmtfl, fmtflags __mask)
 143              		.loc 1 595 0
 144              		.cfi_startproc
 145 0000 55       		pushl	%ebp
 146              		.cfi_def_cfa_offset 8
 147              		.cfi_offset 5, -8
 148 0001 89E5     		movl	%esp, %ebp
 149              		.cfi_def_cfa_register 5
 150 0003 83EC1C   		subl	$28, %esp
GAS LISTING C:\Users\NJLLMR~1\AppData\Local\Temp\ccqq7oi7.s 			page 14


 151 0006 894DEC   		movl	%ecx, -20(%ebp)
 152              	LBB2:
 596:C:/Program Files (x86)/CodeBlocks/MinGW/lib/gcc/mingw32/4.9.2/include/c++/bits\ios_base.h ****     {
 597:C:/Program Files (x86)/CodeBlocks/MinGW/lib/gcc/mingw32/4.9.2/include/c++/bits\ios_base.h ****       fmtflags __old = _M_flags;
 153              		.loc 1 597 0
 154 0009 8B45EC   		movl	-20(%ebp), %eax
 155 000c 8B400C   		movl	12(%eax), %eax
 156 000f 8945FC   		movl	%eax, -4(%ebp)
 598:C:/Program Files (x86)/CodeBlocks/MinGW/lib/gcc/mingw32/4.9.2/include/c++/bits\ios_base.h ****       _M_flags &= ~__mask;
 157              		.loc 1 598 0
 158 0012 8B450C   		movl	12(%ebp), %eax
 159 0015 890424   		movl	%eax, (%esp)
 160 0018 E8000000 		call	__ZStcoSt13_Ios_Fmtflags
 160      00
 161 001d 89C2     		movl	%eax, %edx
 162 001f 8B45EC   		movl	-20(%ebp), %eax
 163 0022 83C00C   		addl	$12, %eax
 164 0025 89542404 		movl	%edx, 4(%esp)
 165 0029 890424   		movl	%eax, (%esp)
 166 002c E8000000 		call	__ZStaNRSt13_Ios_FmtflagsS_
 166      00
 599:C:/Program Files (x86)/CodeBlocks/MinGW/lib/gcc/mingw32/4.9.2/include/c++/bits\ios_base.h ****       _M_flags |= (__fmtfl & __mask);
 167              		.loc 1 599 0
 168 0031 8B450C   		movl	12(%ebp), %eax
 169 0034 89442404 		movl	%eax, 4(%esp)
 170 0038 8B4508   		movl	8(%ebp), %eax
 171 003b 890424   		movl	%eax, (%esp)
 172 003e E8000000 		call	__ZStanSt13_Ios_FmtflagsS_
 172      00
 173 0043 89C2     		movl	%eax, %edx
 174 0045 8B45EC   		movl	-20(%ebp), %eax
 175 0048 83C00C   		addl	$12, %eax
 176 004b 89542404 		movl	%edx, 4(%esp)
 177 004f 890424   		movl	%eax, (%esp)
 178 0052 E8000000 		call	__ZStoRRSt13_Ios_FmtflagsS_
 178      00
 600:C:/Program Files (x86)/CodeBlocks/MinGW/lib/gcc/mingw32/4.9.2/include/c++/bits\ios_base.h ****       return __old;
 179              		.loc 1 600 0
 180 0057 8B45FC   		movl	-4(%ebp), %eax
 181              	LBE2:
 601:C:/Program Files (x86)/CodeBlocks/MinGW/lib/gcc/mingw32/4.9.2/include/c++/bits\ios_base.h ****     }
 182              		.loc 1 601 0
 183 005a C9       		leave
 184              		.cfi_restore 5
 185              		.cfi_def_cfa 4, 4
 186 005b C20800   		ret	$8
 187              		.cfi_endproc
 188              	LFE661:
 189 005e 9090     		.section	.text$_ZSt5fixedRSt8ios_base,"x"
 190              		.linkonce discard
 191              		.globl	__ZSt5fixedRSt8ios_base
 193              	__ZSt5fixedRSt8ios_base:
 194              	LFB691:
 602:C:/Program Files (x86)/CodeBlocks/MinGW/lib/gcc/mingw32/4.9.2/include/c++/bits\ios_base.h **** 
 603:C:/Program Files (x86)/CodeBlocks/MinGW/lib/gcc/mingw32/4.9.2/include/c++/bits\ios_base.h ****     /**
 604:C:/Program Files (x86)/CodeBlocks/MinGW/lib/gcc/mingw32/4.9.2/include/c++/bits\ios_base.h ****      *  @brief  Clearing format flags.
 605:C:/Program Files (x86)/CodeBlocks/MinGW/lib/gcc/mingw32/4.9.2/include/c++/bits\ios_base.h ****      *  @param  __mask  The flags to unset.
GAS LISTING C:\Users\NJLLMR~1\AppData\Local\Temp\ccqq7oi7.s 			page 15


 606:C:/Program Files (x86)/CodeBlocks/MinGW/lib/gcc/mingw32/4.9.2/include/c++/bits\ios_base.h ****      *
 607:C:/Program Files (x86)/CodeBlocks/MinGW/lib/gcc/mingw32/4.9.2/include/c++/bits\ios_base.h ****      *  This function clears @a __mask in the format flags.
 608:C:/Program Files (x86)/CodeBlocks/MinGW/lib/gcc/mingw32/4.9.2/include/c++/bits\ios_base.h ****     */
 609:C:/Program Files (x86)/CodeBlocks/MinGW/lib/gcc/mingw32/4.9.2/include/c++/bits\ios_base.h ****     void
 610:C:/Program Files (x86)/CodeBlocks/MinGW/lib/gcc/mingw32/4.9.2/include/c++/bits\ios_base.h ****     unsetf(fmtflags __mask)
 611:C:/Program Files (x86)/CodeBlocks/MinGW/lib/gcc/mingw32/4.9.2/include/c++/bits\ios_base.h ****     { _M_flags &= ~__mask; }
 612:C:/Program Files (x86)/CodeBlocks/MinGW/lib/gcc/mingw32/4.9.2/include/c++/bits\ios_base.h **** 
 613:C:/Program Files (x86)/CodeBlocks/MinGW/lib/gcc/mingw32/4.9.2/include/c++/bits\ios_base.h ****     /**
 614:C:/Program Files (x86)/CodeBlocks/MinGW/lib/gcc/mingw32/4.9.2/include/c++/bits\ios_base.h ****      *  @brief  Flags access.
 615:C:/Program Files (x86)/CodeBlocks/MinGW/lib/gcc/mingw32/4.9.2/include/c++/bits\ios_base.h ****      *  @return  The precision to generate on certain output operations.
 616:C:/Program Files (x86)/CodeBlocks/MinGW/lib/gcc/mingw32/4.9.2/include/c++/bits\ios_base.h ****      *
 617:C:/Program Files (x86)/CodeBlocks/MinGW/lib/gcc/mingw32/4.9.2/include/c++/bits\ios_base.h ****      *  Be careful if you try to give a definition of @a precision here; see
 618:C:/Program Files (x86)/CodeBlocks/MinGW/lib/gcc/mingw32/4.9.2/include/c++/bits\ios_base.h ****      *  DR 189.
 619:C:/Program Files (x86)/CodeBlocks/MinGW/lib/gcc/mingw32/4.9.2/include/c++/bits\ios_base.h ****     */
 620:C:/Program Files (x86)/CodeBlocks/MinGW/lib/gcc/mingw32/4.9.2/include/c++/bits\ios_base.h ****     streamsize
 621:C:/Program Files (x86)/CodeBlocks/MinGW/lib/gcc/mingw32/4.9.2/include/c++/bits\ios_base.h ****     precision() const
 622:C:/Program Files (x86)/CodeBlocks/MinGW/lib/gcc/mingw32/4.9.2/include/c++/bits\ios_base.h ****     { return _M_precision; }
 623:C:/Program Files (x86)/CodeBlocks/MinGW/lib/gcc/mingw32/4.9.2/include/c++/bits\ios_base.h **** 
 624:C:/Program Files (x86)/CodeBlocks/MinGW/lib/gcc/mingw32/4.9.2/include/c++/bits\ios_base.h ****     /**
 625:C:/Program Files (x86)/CodeBlocks/MinGW/lib/gcc/mingw32/4.9.2/include/c++/bits\ios_base.h ****      *  @brief  Changing flags.
 626:C:/Program Files (x86)/CodeBlocks/MinGW/lib/gcc/mingw32/4.9.2/include/c++/bits\ios_base.h ****      *  @param  __prec  The new precision value.
 627:C:/Program Files (x86)/CodeBlocks/MinGW/lib/gcc/mingw32/4.9.2/include/c++/bits\ios_base.h ****      *  @return  The previous value of precision().
 628:C:/Program Files (x86)/CodeBlocks/MinGW/lib/gcc/mingw32/4.9.2/include/c++/bits\ios_base.h ****     */
 629:C:/Program Files (x86)/CodeBlocks/MinGW/lib/gcc/mingw32/4.9.2/include/c++/bits\ios_base.h ****     streamsize
 630:C:/Program Files (x86)/CodeBlocks/MinGW/lib/gcc/mingw32/4.9.2/include/c++/bits\ios_base.h ****     precision(streamsize __prec)
 631:C:/Program Files (x86)/CodeBlocks/MinGW/lib/gcc/mingw32/4.9.2/include/c++/bits\ios_base.h ****     {
 632:C:/Program Files (x86)/CodeBlocks/MinGW/lib/gcc/mingw32/4.9.2/include/c++/bits\ios_base.h ****       streamsize __old = _M_precision;
 633:C:/Program Files (x86)/CodeBlocks/MinGW/lib/gcc/mingw32/4.9.2/include/c++/bits\ios_base.h ****       _M_precision = __prec;
 634:C:/Program Files (x86)/CodeBlocks/MinGW/lib/gcc/mingw32/4.9.2/include/c++/bits\ios_base.h ****       return __old;
 635:C:/Program Files (x86)/CodeBlocks/MinGW/lib/gcc/mingw32/4.9.2/include/c++/bits\ios_base.h ****     }
 636:C:/Program Files (x86)/CodeBlocks/MinGW/lib/gcc/mingw32/4.9.2/include/c++/bits\ios_base.h **** 
 637:C:/Program Files (x86)/CodeBlocks/MinGW/lib/gcc/mingw32/4.9.2/include/c++/bits\ios_base.h ****     /**
 638:C:/Program Files (x86)/CodeBlocks/MinGW/lib/gcc/mingw32/4.9.2/include/c++/bits\ios_base.h ****      *  @brief  Flags access.
 639:C:/Program Files (x86)/CodeBlocks/MinGW/lib/gcc/mingw32/4.9.2/include/c++/bits\ios_base.h ****      *  @return  The minimum field width to generate on output operations.
 640:C:/Program Files (x86)/CodeBlocks/MinGW/lib/gcc/mingw32/4.9.2/include/c++/bits\ios_base.h ****      *
 641:C:/Program Files (x86)/CodeBlocks/MinGW/lib/gcc/mingw32/4.9.2/include/c++/bits\ios_base.h ****      *  <em>Minimum field width</em> refers to the number of characters.
 642:C:/Program Files (x86)/CodeBlocks/MinGW/lib/gcc/mingw32/4.9.2/include/c++/bits\ios_base.h ****     */
 643:C:/Program Files (x86)/CodeBlocks/MinGW/lib/gcc/mingw32/4.9.2/include/c++/bits\ios_base.h ****     streamsize
 644:C:/Program Files (x86)/CodeBlocks/MinGW/lib/gcc/mingw32/4.9.2/include/c++/bits\ios_base.h ****     width() const
 645:C:/Program Files (x86)/CodeBlocks/MinGW/lib/gcc/mingw32/4.9.2/include/c++/bits\ios_base.h ****     { return _M_width; }
 646:C:/Program Files (x86)/CodeBlocks/MinGW/lib/gcc/mingw32/4.9.2/include/c++/bits\ios_base.h **** 
 647:C:/Program Files (x86)/CodeBlocks/MinGW/lib/gcc/mingw32/4.9.2/include/c++/bits\ios_base.h ****     /**
 648:C:/Program Files (x86)/CodeBlocks/MinGW/lib/gcc/mingw32/4.9.2/include/c++/bits\ios_base.h ****      *  @brief  Changing flags.
 649:C:/Program Files (x86)/CodeBlocks/MinGW/lib/gcc/mingw32/4.9.2/include/c++/bits\ios_base.h ****      *  @param  __wide  The new width value.
 650:C:/Program Files (x86)/CodeBlocks/MinGW/lib/gcc/mingw32/4.9.2/include/c++/bits\ios_base.h ****      *  @return  The previous value of width().
 651:C:/Program Files (x86)/CodeBlocks/MinGW/lib/gcc/mingw32/4.9.2/include/c++/bits\ios_base.h ****     */
 652:C:/Program Files (x86)/CodeBlocks/MinGW/lib/gcc/mingw32/4.9.2/include/c++/bits\ios_base.h ****     streamsize
 653:C:/Program Files (x86)/CodeBlocks/MinGW/lib/gcc/mingw32/4.9.2/include/c++/bits\ios_base.h ****     width(streamsize __wide)
 654:C:/Program Files (x86)/CodeBlocks/MinGW/lib/gcc/mingw32/4.9.2/include/c++/bits\ios_base.h ****     {
 655:C:/Program Files (x86)/CodeBlocks/MinGW/lib/gcc/mingw32/4.9.2/include/c++/bits\ios_base.h ****       streamsize __old = _M_width;
 656:C:/Program Files (x86)/CodeBlocks/MinGW/lib/gcc/mingw32/4.9.2/include/c++/bits\ios_base.h ****       _M_width = __wide;
 657:C:/Program Files (x86)/CodeBlocks/MinGW/lib/gcc/mingw32/4.9.2/include/c++/bits\ios_base.h ****       return __old;
 658:C:/Program Files (x86)/CodeBlocks/MinGW/lib/gcc/mingw32/4.9.2/include/c++/bits\ios_base.h ****     }
 659:C:/Program Files (x86)/CodeBlocks/MinGW/lib/gcc/mingw32/4.9.2/include/c++/bits\ios_base.h **** 
 660:C:/Program Files (x86)/CodeBlocks/MinGW/lib/gcc/mingw32/4.9.2/include/c++/bits\ios_base.h ****     // [27.4.2.4] ios_base static members
 661:C:/Program Files (x86)/CodeBlocks/MinGW/lib/gcc/mingw32/4.9.2/include/c++/bits\ios_base.h ****     /**
 662:C:/Program Files (x86)/CodeBlocks/MinGW/lib/gcc/mingw32/4.9.2/include/c++/bits\ios_base.h ****      *  @brief  Interaction with the standard C I/O objects.
GAS LISTING C:\Users\NJLLMR~1\AppData\Local\Temp\ccqq7oi7.s 			page 16


 663:C:/Program Files (x86)/CodeBlocks/MinGW/lib/gcc/mingw32/4.9.2/include/c++/bits\ios_base.h ****      *  @param  __sync  Whether to synchronize or not.
 664:C:/Program Files (x86)/CodeBlocks/MinGW/lib/gcc/mingw32/4.9.2/include/c++/bits\ios_base.h ****      *  @return  True if the standard streams were previously synchronized.
 665:C:/Program Files (x86)/CodeBlocks/MinGW/lib/gcc/mingw32/4.9.2/include/c++/bits\ios_base.h ****      *
 666:C:/Program Files (x86)/CodeBlocks/MinGW/lib/gcc/mingw32/4.9.2/include/c++/bits\ios_base.h ****      *  The synchronization referred to is @e only that between the standard
 667:C:/Program Files (x86)/CodeBlocks/MinGW/lib/gcc/mingw32/4.9.2/include/c++/bits\ios_base.h ****      *  C facilities (e.g., stdout) and the standard C++ objects (e.g.,
 668:C:/Program Files (x86)/CodeBlocks/MinGW/lib/gcc/mingw32/4.9.2/include/c++/bits\ios_base.h ****      *  cout).  User-declared streams are unaffected.  See
 669:C:/Program Files (x86)/CodeBlocks/MinGW/lib/gcc/mingw32/4.9.2/include/c++/bits\ios_base.h ****      *  http://gcc.gnu.org/onlinedocs/libstdc++/manual/bk01pt11ch28s02.html
 670:C:/Program Files (x86)/CodeBlocks/MinGW/lib/gcc/mingw32/4.9.2/include/c++/bits\ios_base.h ****     */
 671:C:/Program Files (x86)/CodeBlocks/MinGW/lib/gcc/mingw32/4.9.2/include/c++/bits\ios_base.h ****     static bool
 672:C:/Program Files (x86)/CodeBlocks/MinGW/lib/gcc/mingw32/4.9.2/include/c++/bits\ios_base.h ****     sync_with_stdio(bool __sync = true);
 673:C:/Program Files (x86)/CodeBlocks/MinGW/lib/gcc/mingw32/4.9.2/include/c++/bits\ios_base.h **** 
 674:C:/Program Files (x86)/CodeBlocks/MinGW/lib/gcc/mingw32/4.9.2/include/c++/bits\ios_base.h ****     // [27.4.2.3] ios_base locale functions
 675:C:/Program Files (x86)/CodeBlocks/MinGW/lib/gcc/mingw32/4.9.2/include/c++/bits\ios_base.h ****     /**
 676:C:/Program Files (x86)/CodeBlocks/MinGW/lib/gcc/mingw32/4.9.2/include/c++/bits\ios_base.h ****      *  @brief  Setting a new locale.
 677:C:/Program Files (x86)/CodeBlocks/MinGW/lib/gcc/mingw32/4.9.2/include/c++/bits\ios_base.h ****      *  @param  __loc  The new locale.
 678:C:/Program Files (x86)/CodeBlocks/MinGW/lib/gcc/mingw32/4.9.2/include/c++/bits\ios_base.h ****      *  @return  The previous locale.
 679:C:/Program Files (x86)/CodeBlocks/MinGW/lib/gcc/mingw32/4.9.2/include/c++/bits\ios_base.h ****      *
 680:C:/Program Files (x86)/CodeBlocks/MinGW/lib/gcc/mingw32/4.9.2/include/c++/bits\ios_base.h ****      *  Sets the new locale for this stream, and then invokes each callback
 681:C:/Program Files (x86)/CodeBlocks/MinGW/lib/gcc/mingw32/4.9.2/include/c++/bits\ios_base.h ****      *  with imbue_event.
 682:C:/Program Files (x86)/CodeBlocks/MinGW/lib/gcc/mingw32/4.9.2/include/c++/bits\ios_base.h ****     */
 683:C:/Program Files (x86)/CodeBlocks/MinGW/lib/gcc/mingw32/4.9.2/include/c++/bits\ios_base.h ****     locale
 684:C:/Program Files (x86)/CodeBlocks/MinGW/lib/gcc/mingw32/4.9.2/include/c++/bits\ios_base.h ****     imbue(const locale& __loc) throw();
 685:C:/Program Files (x86)/CodeBlocks/MinGW/lib/gcc/mingw32/4.9.2/include/c++/bits\ios_base.h **** 
 686:C:/Program Files (x86)/CodeBlocks/MinGW/lib/gcc/mingw32/4.9.2/include/c++/bits\ios_base.h ****     /**
 687:C:/Program Files (x86)/CodeBlocks/MinGW/lib/gcc/mingw32/4.9.2/include/c++/bits\ios_base.h ****      *  @brief  Locale access
 688:C:/Program Files (x86)/CodeBlocks/MinGW/lib/gcc/mingw32/4.9.2/include/c++/bits\ios_base.h ****      *  @return  A copy of the current locale.
 689:C:/Program Files (x86)/CodeBlocks/MinGW/lib/gcc/mingw32/4.9.2/include/c++/bits\ios_base.h ****      *
 690:C:/Program Files (x86)/CodeBlocks/MinGW/lib/gcc/mingw32/4.9.2/include/c++/bits\ios_base.h ****      *  If @c imbue(loc) has previously been called, then this function
 691:C:/Program Files (x86)/CodeBlocks/MinGW/lib/gcc/mingw32/4.9.2/include/c++/bits\ios_base.h ****      *  returns @c loc.  Otherwise, it returns a copy of @c std::locale(),
 692:C:/Program Files (x86)/CodeBlocks/MinGW/lib/gcc/mingw32/4.9.2/include/c++/bits\ios_base.h ****      *  the global C++ locale.
 693:C:/Program Files (x86)/CodeBlocks/MinGW/lib/gcc/mingw32/4.9.2/include/c++/bits\ios_base.h ****     */
 694:C:/Program Files (x86)/CodeBlocks/MinGW/lib/gcc/mingw32/4.9.2/include/c++/bits\ios_base.h ****     locale
 695:C:/Program Files (x86)/CodeBlocks/MinGW/lib/gcc/mingw32/4.9.2/include/c++/bits\ios_base.h ****     getloc() const
 696:C:/Program Files (x86)/CodeBlocks/MinGW/lib/gcc/mingw32/4.9.2/include/c++/bits\ios_base.h ****     { return _M_ios_locale; }
 697:C:/Program Files (x86)/CodeBlocks/MinGW/lib/gcc/mingw32/4.9.2/include/c++/bits\ios_base.h **** 
 698:C:/Program Files (x86)/CodeBlocks/MinGW/lib/gcc/mingw32/4.9.2/include/c++/bits\ios_base.h ****     /**
 699:C:/Program Files (x86)/CodeBlocks/MinGW/lib/gcc/mingw32/4.9.2/include/c++/bits\ios_base.h ****      *  @brief  Locale access
 700:C:/Program Files (x86)/CodeBlocks/MinGW/lib/gcc/mingw32/4.9.2/include/c++/bits\ios_base.h ****      *  @return  A reference to the current locale.
 701:C:/Program Files (x86)/CodeBlocks/MinGW/lib/gcc/mingw32/4.9.2/include/c++/bits\ios_base.h ****      *
 702:C:/Program Files (x86)/CodeBlocks/MinGW/lib/gcc/mingw32/4.9.2/include/c++/bits\ios_base.h ****      *  Like getloc above, but returns a reference instead of
 703:C:/Program Files (x86)/CodeBlocks/MinGW/lib/gcc/mingw32/4.9.2/include/c++/bits\ios_base.h ****      *  generating a copy.
 704:C:/Program Files (x86)/CodeBlocks/MinGW/lib/gcc/mingw32/4.9.2/include/c++/bits\ios_base.h ****     */
 705:C:/Program Files (x86)/CodeBlocks/MinGW/lib/gcc/mingw32/4.9.2/include/c++/bits\ios_base.h ****     const locale&
 706:C:/Program Files (x86)/CodeBlocks/MinGW/lib/gcc/mingw32/4.9.2/include/c++/bits\ios_base.h ****     _M_getloc() const
 707:C:/Program Files (x86)/CodeBlocks/MinGW/lib/gcc/mingw32/4.9.2/include/c++/bits\ios_base.h ****     { return _M_ios_locale; }
 708:C:/Program Files (x86)/CodeBlocks/MinGW/lib/gcc/mingw32/4.9.2/include/c++/bits\ios_base.h **** 
 709:C:/Program Files (x86)/CodeBlocks/MinGW/lib/gcc/mingw32/4.9.2/include/c++/bits\ios_base.h ****     // [27.4.2.5] ios_base storage functions
 710:C:/Program Files (x86)/CodeBlocks/MinGW/lib/gcc/mingw32/4.9.2/include/c++/bits\ios_base.h ****     /**
 711:C:/Program Files (x86)/CodeBlocks/MinGW/lib/gcc/mingw32/4.9.2/include/c++/bits\ios_base.h ****      *  @brief  Access to unique indices.
 712:C:/Program Files (x86)/CodeBlocks/MinGW/lib/gcc/mingw32/4.9.2/include/c++/bits\ios_base.h ****      *  @return  An integer different from all previous calls.
 713:C:/Program Files (x86)/CodeBlocks/MinGW/lib/gcc/mingw32/4.9.2/include/c++/bits\ios_base.h ****      *
 714:C:/Program Files (x86)/CodeBlocks/MinGW/lib/gcc/mingw32/4.9.2/include/c++/bits\ios_base.h ****      *  This function returns a unique integer every time it is called.  It
 715:C:/Program Files (x86)/CodeBlocks/MinGW/lib/gcc/mingw32/4.9.2/include/c++/bits\ios_base.h ****      *  can be used for any purpose, but is primarily intended to be a unique
 716:C:/Program Files (x86)/CodeBlocks/MinGW/lib/gcc/mingw32/4.9.2/include/c++/bits\ios_base.h ****      *  index for the iword and pword functions.  The expectation is that an
 717:C:/Program Files (x86)/CodeBlocks/MinGW/lib/gcc/mingw32/4.9.2/include/c++/bits\ios_base.h ****      *  application calls xalloc in order to obtain an index in the iword and
 718:C:/Program Files (x86)/CodeBlocks/MinGW/lib/gcc/mingw32/4.9.2/include/c++/bits\ios_base.h ****      *  pword arrays that can be used without fear of conflict.
 719:C:/Program Files (x86)/CodeBlocks/MinGW/lib/gcc/mingw32/4.9.2/include/c++/bits\ios_base.h ****      *
GAS LISTING C:\Users\NJLLMR~1\AppData\Local\Temp\ccqq7oi7.s 			page 17


 720:C:/Program Files (x86)/CodeBlocks/MinGW/lib/gcc/mingw32/4.9.2/include/c++/bits\ios_base.h ****      *  The implementation maintains a static variable that is incremented and
 721:C:/Program Files (x86)/CodeBlocks/MinGW/lib/gcc/mingw32/4.9.2/include/c++/bits\ios_base.h ****      *  returned on each invocation.  xalloc is guaranteed to return an index
 722:C:/Program Files (x86)/CodeBlocks/MinGW/lib/gcc/mingw32/4.9.2/include/c++/bits\ios_base.h ****      *  that is safe to use in the iword and pword arrays.
 723:C:/Program Files (x86)/CodeBlocks/MinGW/lib/gcc/mingw32/4.9.2/include/c++/bits\ios_base.h ****     */
 724:C:/Program Files (x86)/CodeBlocks/MinGW/lib/gcc/mingw32/4.9.2/include/c++/bits\ios_base.h ****     static int
 725:C:/Program Files (x86)/CodeBlocks/MinGW/lib/gcc/mingw32/4.9.2/include/c++/bits\ios_base.h ****     xalloc() throw();
 726:C:/Program Files (x86)/CodeBlocks/MinGW/lib/gcc/mingw32/4.9.2/include/c++/bits\ios_base.h **** 
 727:C:/Program Files (x86)/CodeBlocks/MinGW/lib/gcc/mingw32/4.9.2/include/c++/bits\ios_base.h ****     /**
 728:C:/Program Files (x86)/CodeBlocks/MinGW/lib/gcc/mingw32/4.9.2/include/c++/bits\ios_base.h ****      *  @brief  Access to integer array.
 729:C:/Program Files (x86)/CodeBlocks/MinGW/lib/gcc/mingw32/4.9.2/include/c++/bits\ios_base.h ****      *  @param  __ix  Index into the array.
 730:C:/Program Files (x86)/CodeBlocks/MinGW/lib/gcc/mingw32/4.9.2/include/c++/bits\ios_base.h ****      *  @return  A reference to an integer associated with the index.
 731:C:/Program Files (x86)/CodeBlocks/MinGW/lib/gcc/mingw32/4.9.2/include/c++/bits\ios_base.h ****      *
 732:C:/Program Files (x86)/CodeBlocks/MinGW/lib/gcc/mingw32/4.9.2/include/c++/bits\ios_base.h ****      *  The iword function provides access to an array of integers that can be
 733:C:/Program Files (x86)/CodeBlocks/MinGW/lib/gcc/mingw32/4.9.2/include/c++/bits\ios_base.h ****      *  used for any purpose.  The array grows as required to hold the
 734:C:/Program Files (x86)/CodeBlocks/MinGW/lib/gcc/mingw32/4.9.2/include/c++/bits\ios_base.h ****      *  supplied index.  All integers in the array are initialized to 0.
 735:C:/Program Files (x86)/CodeBlocks/MinGW/lib/gcc/mingw32/4.9.2/include/c++/bits\ios_base.h ****      *
 736:C:/Program Files (x86)/CodeBlocks/MinGW/lib/gcc/mingw32/4.9.2/include/c++/bits\ios_base.h ****      *  The implementation reserves several indices.  You should use xalloc to
 737:C:/Program Files (x86)/CodeBlocks/MinGW/lib/gcc/mingw32/4.9.2/include/c++/bits\ios_base.h ****      *  obtain an index that is safe to use.  Also note that since the array
 738:C:/Program Files (x86)/CodeBlocks/MinGW/lib/gcc/mingw32/4.9.2/include/c++/bits\ios_base.h ****      *  can grow dynamically, it is not safe to hold onto the reference.
 739:C:/Program Files (x86)/CodeBlocks/MinGW/lib/gcc/mingw32/4.9.2/include/c++/bits\ios_base.h ****     */
 740:C:/Program Files (x86)/CodeBlocks/MinGW/lib/gcc/mingw32/4.9.2/include/c++/bits\ios_base.h ****     long&
 741:C:/Program Files (x86)/CodeBlocks/MinGW/lib/gcc/mingw32/4.9.2/include/c++/bits\ios_base.h ****     iword(int __ix)
 742:C:/Program Files (x86)/CodeBlocks/MinGW/lib/gcc/mingw32/4.9.2/include/c++/bits\ios_base.h ****     {
 743:C:/Program Files (x86)/CodeBlocks/MinGW/lib/gcc/mingw32/4.9.2/include/c++/bits\ios_base.h ****       _Words& __word = (__ix < _M_word_size)
 744:C:/Program Files (x86)/CodeBlocks/MinGW/lib/gcc/mingw32/4.9.2/include/c++/bits\ios_base.h **** 			? _M_word[__ix] : _M_grow_words(__ix, true);
 745:C:/Program Files (x86)/CodeBlocks/MinGW/lib/gcc/mingw32/4.9.2/include/c++/bits\ios_base.h ****       return __word._M_iword;
 746:C:/Program Files (x86)/CodeBlocks/MinGW/lib/gcc/mingw32/4.9.2/include/c++/bits\ios_base.h ****     }
 747:C:/Program Files (x86)/CodeBlocks/MinGW/lib/gcc/mingw32/4.9.2/include/c++/bits\ios_base.h **** 
 748:C:/Program Files (x86)/CodeBlocks/MinGW/lib/gcc/mingw32/4.9.2/include/c++/bits\ios_base.h ****     /**
 749:C:/Program Files (x86)/CodeBlocks/MinGW/lib/gcc/mingw32/4.9.2/include/c++/bits\ios_base.h ****      *  @brief  Access to void pointer array.
 750:C:/Program Files (x86)/CodeBlocks/MinGW/lib/gcc/mingw32/4.9.2/include/c++/bits\ios_base.h ****      *  @param  __ix  Index into the array.
 751:C:/Program Files (x86)/CodeBlocks/MinGW/lib/gcc/mingw32/4.9.2/include/c++/bits\ios_base.h ****      *  @return  A reference to a void* associated with the index.
 752:C:/Program Files (x86)/CodeBlocks/MinGW/lib/gcc/mingw32/4.9.2/include/c++/bits\ios_base.h ****      *
 753:C:/Program Files (x86)/CodeBlocks/MinGW/lib/gcc/mingw32/4.9.2/include/c++/bits\ios_base.h ****      *  The pword function provides access to an array of pointers that can be
 754:C:/Program Files (x86)/CodeBlocks/MinGW/lib/gcc/mingw32/4.9.2/include/c++/bits\ios_base.h ****      *  used for any purpose.  The array grows as required to hold the
 755:C:/Program Files (x86)/CodeBlocks/MinGW/lib/gcc/mingw32/4.9.2/include/c++/bits\ios_base.h ****      *  supplied index.  All pointers in the array are initialized to 0.
 756:C:/Program Files (x86)/CodeBlocks/MinGW/lib/gcc/mingw32/4.9.2/include/c++/bits\ios_base.h ****      *
 757:C:/Program Files (x86)/CodeBlocks/MinGW/lib/gcc/mingw32/4.9.2/include/c++/bits\ios_base.h ****      *  The implementation reserves several indices.  You should use xalloc to
 758:C:/Program Files (x86)/CodeBlocks/MinGW/lib/gcc/mingw32/4.9.2/include/c++/bits\ios_base.h ****      *  obtain an index that is safe to use.  Also note that since the array
 759:C:/Program Files (x86)/CodeBlocks/MinGW/lib/gcc/mingw32/4.9.2/include/c++/bits\ios_base.h ****      *  can grow dynamically, it is not safe to hold onto the reference.
 760:C:/Program Files (x86)/CodeBlocks/MinGW/lib/gcc/mingw32/4.9.2/include/c++/bits\ios_base.h ****     */
 761:C:/Program Files (x86)/CodeBlocks/MinGW/lib/gcc/mingw32/4.9.2/include/c++/bits\ios_base.h ****     void*&
 762:C:/Program Files (x86)/CodeBlocks/MinGW/lib/gcc/mingw32/4.9.2/include/c++/bits\ios_base.h ****     pword(int __ix)
 763:C:/Program Files (x86)/CodeBlocks/MinGW/lib/gcc/mingw32/4.9.2/include/c++/bits\ios_base.h ****     {
 764:C:/Program Files (x86)/CodeBlocks/MinGW/lib/gcc/mingw32/4.9.2/include/c++/bits\ios_base.h ****       _Words& __word = (__ix < _M_word_size)
 765:C:/Program Files (x86)/CodeBlocks/MinGW/lib/gcc/mingw32/4.9.2/include/c++/bits\ios_base.h **** 			? _M_word[__ix] : _M_grow_words(__ix, false);
 766:C:/Program Files (x86)/CodeBlocks/MinGW/lib/gcc/mingw32/4.9.2/include/c++/bits\ios_base.h ****       return __word._M_pword;
 767:C:/Program Files (x86)/CodeBlocks/MinGW/lib/gcc/mingw32/4.9.2/include/c++/bits\ios_base.h ****     }
 768:C:/Program Files (x86)/CodeBlocks/MinGW/lib/gcc/mingw32/4.9.2/include/c++/bits\ios_base.h **** 
 769:C:/Program Files (x86)/CodeBlocks/MinGW/lib/gcc/mingw32/4.9.2/include/c++/bits\ios_base.h ****     // Destructor
 770:C:/Program Files (x86)/CodeBlocks/MinGW/lib/gcc/mingw32/4.9.2/include/c++/bits\ios_base.h ****     /**
 771:C:/Program Files (x86)/CodeBlocks/MinGW/lib/gcc/mingw32/4.9.2/include/c++/bits\ios_base.h ****      *  Invokes each callback with erase_event.  Destroys local storage.
 772:C:/Program Files (x86)/CodeBlocks/MinGW/lib/gcc/mingw32/4.9.2/include/c++/bits\ios_base.h ****      *
 773:C:/Program Files (x86)/CodeBlocks/MinGW/lib/gcc/mingw32/4.9.2/include/c++/bits\ios_base.h ****      *  Note that the ios_base object for the standard streams never gets
 774:C:/Program Files (x86)/CodeBlocks/MinGW/lib/gcc/mingw32/4.9.2/include/c++/bits\ios_base.h ****      *  destroyed.  As a result, any callbacks registered with the standard
 775:C:/Program Files (x86)/CodeBlocks/MinGW/lib/gcc/mingw32/4.9.2/include/c++/bits\ios_base.h ****      *  streams will not get invoked with erase_event (unless copyfmt is
 776:C:/Program Files (x86)/CodeBlocks/MinGW/lib/gcc/mingw32/4.9.2/include/c++/bits\ios_base.h ****      *  used).
GAS LISTING C:\Users\NJLLMR~1\AppData\Local\Temp\ccqq7oi7.s 			page 18


 777:C:/Program Files (x86)/CodeBlocks/MinGW/lib/gcc/mingw32/4.9.2/include/c++/bits\ios_base.h ****     */
 778:C:/Program Files (x86)/CodeBlocks/MinGW/lib/gcc/mingw32/4.9.2/include/c++/bits\ios_base.h ****     virtual ~ios_base();
 779:C:/Program Files (x86)/CodeBlocks/MinGW/lib/gcc/mingw32/4.9.2/include/c++/bits\ios_base.h **** 
 780:C:/Program Files (x86)/CodeBlocks/MinGW/lib/gcc/mingw32/4.9.2/include/c++/bits\ios_base.h ****   protected:
 781:C:/Program Files (x86)/CodeBlocks/MinGW/lib/gcc/mingw32/4.9.2/include/c++/bits\ios_base.h ****     ios_base() throw ();
 782:C:/Program Files (x86)/CodeBlocks/MinGW/lib/gcc/mingw32/4.9.2/include/c++/bits\ios_base.h **** 
 783:C:/Program Files (x86)/CodeBlocks/MinGW/lib/gcc/mingw32/4.9.2/include/c++/bits\ios_base.h ****   // _GLIBCXX_RESOLVE_LIB_DEFECTS
 784:C:/Program Files (x86)/CodeBlocks/MinGW/lib/gcc/mingw32/4.9.2/include/c++/bits\ios_base.h ****   // 50.  Copy constructor and assignment operator of ios_base
 785:C:/Program Files (x86)/CodeBlocks/MinGW/lib/gcc/mingw32/4.9.2/include/c++/bits\ios_base.h ****   private:
 786:C:/Program Files (x86)/CodeBlocks/MinGW/lib/gcc/mingw32/4.9.2/include/c++/bits\ios_base.h ****     ios_base(const ios_base&);
 787:C:/Program Files (x86)/CodeBlocks/MinGW/lib/gcc/mingw32/4.9.2/include/c++/bits\ios_base.h **** 
 788:C:/Program Files (x86)/CodeBlocks/MinGW/lib/gcc/mingw32/4.9.2/include/c++/bits\ios_base.h ****     ios_base&
 789:C:/Program Files (x86)/CodeBlocks/MinGW/lib/gcc/mingw32/4.9.2/include/c++/bits\ios_base.h ****     operator=(const ios_base&);
 790:C:/Program Files (x86)/CodeBlocks/MinGW/lib/gcc/mingw32/4.9.2/include/c++/bits\ios_base.h ****   };
 791:C:/Program Files (x86)/CodeBlocks/MinGW/lib/gcc/mingw32/4.9.2/include/c++/bits\ios_base.h **** 
 792:C:/Program Files (x86)/CodeBlocks/MinGW/lib/gcc/mingw32/4.9.2/include/c++/bits\ios_base.h ****   // [27.4.5.1] fmtflags manipulators
 793:C:/Program Files (x86)/CodeBlocks/MinGW/lib/gcc/mingw32/4.9.2/include/c++/bits\ios_base.h ****   /// Calls base.setf(ios_base::boolalpha).
 794:C:/Program Files (x86)/CodeBlocks/MinGW/lib/gcc/mingw32/4.9.2/include/c++/bits\ios_base.h ****   inline ios_base&
 795:C:/Program Files (x86)/CodeBlocks/MinGW/lib/gcc/mingw32/4.9.2/include/c++/bits\ios_base.h ****   boolalpha(ios_base& __base)
 796:C:/Program Files (x86)/CodeBlocks/MinGW/lib/gcc/mingw32/4.9.2/include/c++/bits\ios_base.h ****   {
 797:C:/Program Files (x86)/CodeBlocks/MinGW/lib/gcc/mingw32/4.9.2/include/c++/bits\ios_base.h ****     __base.setf(ios_base::boolalpha);
 798:C:/Program Files (x86)/CodeBlocks/MinGW/lib/gcc/mingw32/4.9.2/include/c++/bits\ios_base.h ****     return __base;
 799:C:/Program Files (x86)/CodeBlocks/MinGW/lib/gcc/mingw32/4.9.2/include/c++/bits\ios_base.h ****   }
 800:C:/Program Files (x86)/CodeBlocks/MinGW/lib/gcc/mingw32/4.9.2/include/c++/bits\ios_base.h **** 
 801:C:/Program Files (x86)/CodeBlocks/MinGW/lib/gcc/mingw32/4.9.2/include/c++/bits\ios_base.h ****   /// Calls base.unsetf(ios_base::boolalpha).
 802:C:/Program Files (x86)/CodeBlocks/MinGW/lib/gcc/mingw32/4.9.2/include/c++/bits\ios_base.h ****   inline ios_base&
 803:C:/Program Files (x86)/CodeBlocks/MinGW/lib/gcc/mingw32/4.9.2/include/c++/bits\ios_base.h ****   noboolalpha(ios_base& __base)
 804:C:/Program Files (x86)/CodeBlocks/MinGW/lib/gcc/mingw32/4.9.2/include/c++/bits\ios_base.h ****   {
 805:C:/Program Files (x86)/CodeBlocks/MinGW/lib/gcc/mingw32/4.9.2/include/c++/bits\ios_base.h ****     __base.unsetf(ios_base::boolalpha);
 806:C:/Program Files (x86)/CodeBlocks/MinGW/lib/gcc/mingw32/4.9.2/include/c++/bits\ios_base.h ****     return __base;
 807:C:/Program Files (x86)/CodeBlocks/MinGW/lib/gcc/mingw32/4.9.2/include/c++/bits\ios_base.h ****   }
 808:C:/Program Files (x86)/CodeBlocks/MinGW/lib/gcc/mingw32/4.9.2/include/c++/bits\ios_base.h **** 
 809:C:/Program Files (x86)/CodeBlocks/MinGW/lib/gcc/mingw32/4.9.2/include/c++/bits\ios_base.h ****   /// Calls base.setf(ios_base::showbase).
 810:C:/Program Files (x86)/CodeBlocks/MinGW/lib/gcc/mingw32/4.9.2/include/c++/bits\ios_base.h ****   inline ios_base&
 811:C:/Program Files (x86)/CodeBlocks/MinGW/lib/gcc/mingw32/4.9.2/include/c++/bits\ios_base.h ****   showbase(ios_base& __base)
 812:C:/Program Files (x86)/CodeBlocks/MinGW/lib/gcc/mingw32/4.9.2/include/c++/bits\ios_base.h ****   {
 813:C:/Program Files (x86)/CodeBlocks/MinGW/lib/gcc/mingw32/4.9.2/include/c++/bits\ios_base.h ****     __base.setf(ios_base::showbase);
 814:C:/Program Files (x86)/CodeBlocks/MinGW/lib/gcc/mingw32/4.9.2/include/c++/bits\ios_base.h ****     return __base;
 815:C:/Program Files (x86)/CodeBlocks/MinGW/lib/gcc/mingw32/4.9.2/include/c++/bits\ios_base.h ****   }
 816:C:/Program Files (x86)/CodeBlocks/MinGW/lib/gcc/mingw32/4.9.2/include/c++/bits\ios_base.h **** 
 817:C:/Program Files (x86)/CodeBlocks/MinGW/lib/gcc/mingw32/4.9.2/include/c++/bits\ios_base.h ****   /// Calls base.unsetf(ios_base::showbase).
 818:C:/Program Files (x86)/CodeBlocks/MinGW/lib/gcc/mingw32/4.9.2/include/c++/bits\ios_base.h ****   inline ios_base&
 819:C:/Program Files (x86)/CodeBlocks/MinGW/lib/gcc/mingw32/4.9.2/include/c++/bits\ios_base.h ****   noshowbase(ios_base& __base)
 820:C:/Program Files (x86)/CodeBlocks/MinGW/lib/gcc/mingw32/4.9.2/include/c++/bits\ios_base.h ****   {
 821:C:/Program Files (x86)/CodeBlocks/MinGW/lib/gcc/mingw32/4.9.2/include/c++/bits\ios_base.h ****     __base.unsetf(ios_base::showbase);
 822:C:/Program Files (x86)/CodeBlocks/MinGW/lib/gcc/mingw32/4.9.2/include/c++/bits\ios_base.h ****     return __base;
 823:C:/Program Files (x86)/CodeBlocks/MinGW/lib/gcc/mingw32/4.9.2/include/c++/bits\ios_base.h ****   }
 824:C:/Program Files (x86)/CodeBlocks/MinGW/lib/gcc/mingw32/4.9.2/include/c++/bits\ios_base.h **** 
 825:C:/Program Files (x86)/CodeBlocks/MinGW/lib/gcc/mingw32/4.9.2/include/c++/bits\ios_base.h ****   /// Calls base.setf(ios_base::showpoint).
 826:C:/Program Files (x86)/CodeBlocks/MinGW/lib/gcc/mingw32/4.9.2/include/c++/bits\ios_base.h ****   inline ios_base&
 827:C:/Program Files (x86)/CodeBlocks/MinGW/lib/gcc/mingw32/4.9.2/include/c++/bits\ios_base.h ****   showpoint(ios_base& __base)
 828:C:/Program Files (x86)/CodeBlocks/MinGW/lib/gcc/mingw32/4.9.2/include/c++/bits\ios_base.h ****   {
 829:C:/Program Files (x86)/CodeBlocks/MinGW/lib/gcc/mingw32/4.9.2/include/c++/bits\ios_base.h ****     __base.setf(ios_base::showpoint);
 830:C:/Program Files (x86)/CodeBlocks/MinGW/lib/gcc/mingw32/4.9.2/include/c++/bits\ios_base.h ****     return __base;
 831:C:/Program Files (x86)/CodeBlocks/MinGW/lib/gcc/mingw32/4.9.2/include/c++/bits\ios_base.h ****   }
 832:C:/Program Files (x86)/CodeBlocks/MinGW/lib/gcc/mingw32/4.9.2/include/c++/bits\ios_base.h **** 
 833:C:/Program Files (x86)/CodeBlocks/MinGW/lib/gcc/mingw32/4.9.2/include/c++/bits\ios_base.h ****   /// Calls base.unsetf(ios_base::showpoint).
GAS LISTING C:\Users\NJLLMR~1\AppData\Local\Temp\ccqq7oi7.s 			page 19


 834:C:/Program Files (x86)/CodeBlocks/MinGW/lib/gcc/mingw32/4.9.2/include/c++/bits\ios_base.h ****   inline ios_base&
 835:C:/Program Files (x86)/CodeBlocks/MinGW/lib/gcc/mingw32/4.9.2/include/c++/bits\ios_base.h ****   noshowpoint(ios_base& __base)
 836:C:/Program Files (x86)/CodeBlocks/MinGW/lib/gcc/mingw32/4.9.2/include/c++/bits\ios_base.h ****   {
 837:C:/Program Files (x86)/CodeBlocks/MinGW/lib/gcc/mingw32/4.9.2/include/c++/bits\ios_base.h ****     __base.unsetf(ios_base::showpoint);
 838:C:/Program Files (x86)/CodeBlocks/MinGW/lib/gcc/mingw32/4.9.2/include/c++/bits\ios_base.h ****     return __base;
 839:C:/Program Files (x86)/CodeBlocks/MinGW/lib/gcc/mingw32/4.9.2/include/c++/bits\ios_base.h ****   }
 840:C:/Program Files (x86)/CodeBlocks/MinGW/lib/gcc/mingw32/4.9.2/include/c++/bits\ios_base.h **** 
 841:C:/Program Files (x86)/CodeBlocks/MinGW/lib/gcc/mingw32/4.9.2/include/c++/bits\ios_base.h ****   /// Calls base.setf(ios_base::showpos).
 842:C:/Program Files (x86)/CodeBlocks/MinGW/lib/gcc/mingw32/4.9.2/include/c++/bits\ios_base.h ****   inline ios_base&
 843:C:/Program Files (x86)/CodeBlocks/MinGW/lib/gcc/mingw32/4.9.2/include/c++/bits\ios_base.h ****   showpos(ios_base& __base)
 844:C:/Program Files (x86)/CodeBlocks/MinGW/lib/gcc/mingw32/4.9.2/include/c++/bits\ios_base.h ****   {
 845:C:/Program Files (x86)/CodeBlocks/MinGW/lib/gcc/mingw32/4.9.2/include/c++/bits\ios_base.h ****     __base.setf(ios_base::showpos);
 846:C:/Program Files (x86)/CodeBlocks/MinGW/lib/gcc/mingw32/4.9.2/include/c++/bits\ios_base.h ****     return __base;
 847:C:/Program Files (x86)/CodeBlocks/MinGW/lib/gcc/mingw32/4.9.2/include/c++/bits\ios_base.h ****   }
 848:C:/Program Files (x86)/CodeBlocks/MinGW/lib/gcc/mingw32/4.9.2/include/c++/bits\ios_base.h **** 
 849:C:/Program Files (x86)/CodeBlocks/MinGW/lib/gcc/mingw32/4.9.2/include/c++/bits\ios_base.h ****   /// Calls base.unsetf(ios_base::showpos).
 850:C:/Program Files (x86)/CodeBlocks/MinGW/lib/gcc/mingw32/4.9.2/include/c++/bits\ios_base.h ****   inline ios_base&
 851:C:/Program Files (x86)/CodeBlocks/MinGW/lib/gcc/mingw32/4.9.2/include/c++/bits\ios_base.h ****   noshowpos(ios_base& __base)
 852:C:/Program Files (x86)/CodeBlocks/MinGW/lib/gcc/mingw32/4.9.2/include/c++/bits\ios_base.h ****   {
 853:C:/Program Files (x86)/CodeBlocks/MinGW/lib/gcc/mingw32/4.9.2/include/c++/bits\ios_base.h ****     __base.unsetf(ios_base::showpos);
 854:C:/Program Files (x86)/CodeBlocks/MinGW/lib/gcc/mingw32/4.9.2/include/c++/bits\ios_base.h ****     return __base;
 855:C:/Program Files (x86)/CodeBlocks/MinGW/lib/gcc/mingw32/4.9.2/include/c++/bits\ios_base.h ****   }
 856:C:/Program Files (x86)/CodeBlocks/MinGW/lib/gcc/mingw32/4.9.2/include/c++/bits\ios_base.h **** 
 857:C:/Program Files (x86)/CodeBlocks/MinGW/lib/gcc/mingw32/4.9.2/include/c++/bits\ios_base.h ****   /// Calls base.setf(ios_base::skipws).
 858:C:/Program Files (x86)/CodeBlocks/MinGW/lib/gcc/mingw32/4.9.2/include/c++/bits\ios_base.h ****   inline ios_base&
 859:C:/Program Files (x86)/CodeBlocks/MinGW/lib/gcc/mingw32/4.9.2/include/c++/bits\ios_base.h ****   skipws(ios_base& __base)
 860:C:/Program Files (x86)/CodeBlocks/MinGW/lib/gcc/mingw32/4.9.2/include/c++/bits\ios_base.h ****   {
 861:C:/Program Files (x86)/CodeBlocks/MinGW/lib/gcc/mingw32/4.9.2/include/c++/bits\ios_base.h ****     __base.setf(ios_base::skipws);
 862:C:/Program Files (x86)/CodeBlocks/MinGW/lib/gcc/mingw32/4.9.2/include/c++/bits\ios_base.h ****     return __base;
 863:C:/Program Files (x86)/CodeBlocks/MinGW/lib/gcc/mingw32/4.9.2/include/c++/bits\ios_base.h ****   }
 864:C:/Program Files (x86)/CodeBlocks/MinGW/lib/gcc/mingw32/4.9.2/include/c++/bits\ios_base.h **** 
 865:C:/Program Files (x86)/CodeBlocks/MinGW/lib/gcc/mingw32/4.9.2/include/c++/bits\ios_base.h ****   /// Calls base.unsetf(ios_base::skipws).
 866:C:/Program Files (x86)/CodeBlocks/MinGW/lib/gcc/mingw32/4.9.2/include/c++/bits\ios_base.h ****   inline ios_base&
 867:C:/Program Files (x86)/CodeBlocks/MinGW/lib/gcc/mingw32/4.9.2/include/c++/bits\ios_base.h ****   noskipws(ios_base& __base)
 868:C:/Program Files (x86)/CodeBlocks/MinGW/lib/gcc/mingw32/4.9.2/include/c++/bits\ios_base.h ****   {
 869:C:/Program Files (x86)/CodeBlocks/MinGW/lib/gcc/mingw32/4.9.2/include/c++/bits\ios_base.h ****     __base.unsetf(ios_base::skipws);
 870:C:/Program Files (x86)/CodeBlocks/MinGW/lib/gcc/mingw32/4.9.2/include/c++/bits\ios_base.h ****     return __base;
 871:C:/Program Files (x86)/CodeBlocks/MinGW/lib/gcc/mingw32/4.9.2/include/c++/bits\ios_base.h ****   }
 872:C:/Program Files (x86)/CodeBlocks/MinGW/lib/gcc/mingw32/4.9.2/include/c++/bits\ios_base.h **** 
 873:C:/Program Files (x86)/CodeBlocks/MinGW/lib/gcc/mingw32/4.9.2/include/c++/bits\ios_base.h ****   /// Calls base.setf(ios_base::uppercase).
 874:C:/Program Files (x86)/CodeBlocks/MinGW/lib/gcc/mingw32/4.9.2/include/c++/bits\ios_base.h ****   inline ios_base&
 875:C:/Program Files (x86)/CodeBlocks/MinGW/lib/gcc/mingw32/4.9.2/include/c++/bits\ios_base.h ****   uppercase(ios_base& __base)
 876:C:/Program Files (x86)/CodeBlocks/MinGW/lib/gcc/mingw32/4.9.2/include/c++/bits\ios_base.h ****   {
 877:C:/Program Files (x86)/CodeBlocks/MinGW/lib/gcc/mingw32/4.9.2/include/c++/bits\ios_base.h ****     __base.setf(ios_base::uppercase);
 878:C:/Program Files (x86)/CodeBlocks/MinGW/lib/gcc/mingw32/4.9.2/include/c++/bits\ios_base.h ****     return __base;
 879:C:/Program Files (x86)/CodeBlocks/MinGW/lib/gcc/mingw32/4.9.2/include/c++/bits\ios_base.h ****   }
 880:C:/Program Files (x86)/CodeBlocks/MinGW/lib/gcc/mingw32/4.9.2/include/c++/bits\ios_base.h **** 
 881:C:/Program Files (x86)/CodeBlocks/MinGW/lib/gcc/mingw32/4.9.2/include/c++/bits\ios_base.h ****   /// Calls base.unsetf(ios_base::uppercase).
 882:C:/Program Files (x86)/CodeBlocks/MinGW/lib/gcc/mingw32/4.9.2/include/c++/bits\ios_base.h ****   inline ios_base&
 883:C:/Program Files (x86)/CodeBlocks/MinGW/lib/gcc/mingw32/4.9.2/include/c++/bits\ios_base.h ****   nouppercase(ios_base& __base)
 884:C:/Program Files (x86)/CodeBlocks/MinGW/lib/gcc/mingw32/4.9.2/include/c++/bits\ios_base.h ****   {
 885:C:/Program Files (x86)/CodeBlocks/MinGW/lib/gcc/mingw32/4.9.2/include/c++/bits\ios_base.h ****     __base.unsetf(ios_base::uppercase);
 886:C:/Program Files (x86)/CodeBlocks/MinGW/lib/gcc/mingw32/4.9.2/include/c++/bits\ios_base.h ****     return __base;
 887:C:/Program Files (x86)/CodeBlocks/MinGW/lib/gcc/mingw32/4.9.2/include/c++/bits\ios_base.h ****   }
 888:C:/Program Files (x86)/CodeBlocks/MinGW/lib/gcc/mingw32/4.9.2/include/c++/bits\ios_base.h **** 
 889:C:/Program Files (x86)/CodeBlocks/MinGW/lib/gcc/mingw32/4.9.2/include/c++/bits\ios_base.h ****   /// Calls base.setf(ios_base::unitbuf).
 890:C:/Program Files (x86)/CodeBlocks/MinGW/lib/gcc/mingw32/4.9.2/include/c++/bits\ios_base.h ****   inline ios_base&
GAS LISTING C:\Users\NJLLMR~1\AppData\Local\Temp\ccqq7oi7.s 			page 20


 891:C:/Program Files (x86)/CodeBlocks/MinGW/lib/gcc/mingw32/4.9.2/include/c++/bits\ios_base.h ****   unitbuf(ios_base& __base)
 892:C:/Program Files (x86)/CodeBlocks/MinGW/lib/gcc/mingw32/4.9.2/include/c++/bits\ios_base.h ****   {
 893:C:/Program Files (x86)/CodeBlocks/MinGW/lib/gcc/mingw32/4.9.2/include/c++/bits\ios_base.h ****      __base.setf(ios_base::unitbuf);
 894:C:/Program Files (x86)/CodeBlocks/MinGW/lib/gcc/mingw32/4.9.2/include/c++/bits\ios_base.h ****      return __base;
 895:C:/Program Files (x86)/CodeBlocks/MinGW/lib/gcc/mingw32/4.9.2/include/c++/bits\ios_base.h ****   }
 896:C:/Program Files (x86)/CodeBlocks/MinGW/lib/gcc/mingw32/4.9.2/include/c++/bits\ios_base.h **** 
 897:C:/Program Files (x86)/CodeBlocks/MinGW/lib/gcc/mingw32/4.9.2/include/c++/bits\ios_base.h ****   /// Calls base.unsetf(ios_base::unitbuf).
 898:C:/Program Files (x86)/CodeBlocks/MinGW/lib/gcc/mingw32/4.9.2/include/c++/bits\ios_base.h ****   inline ios_base&
 899:C:/Program Files (x86)/CodeBlocks/MinGW/lib/gcc/mingw32/4.9.2/include/c++/bits\ios_base.h ****   nounitbuf(ios_base& __base)
 900:C:/Program Files (x86)/CodeBlocks/MinGW/lib/gcc/mingw32/4.9.2/include/c++/bits\ios_base.h ****   {
 901:C:/Program Files (x86)/CodeBlocks/MinGW/lib/gcc/mingw32/4.9.2/include/c++/bits\ios_base.h ****      __base.unsetf(ios_base::unitbuf);
 902:C:/Program Files (x86)/CodeBlocks/MinGW/lib/gcc/mingw32/4.9.2/include/c++/bits\ios_base.h ****      return __base;
 903:C:/Program Files (x86)/CodeBlocks/MinGW/lib/gcc/mingw32/4.9.2/include/c++/bits\ios_base.h ****   }
 904:C:/Program Files (x86)/CodeBlocks/MinGW/lib/gcc/mingw32/4.9.2/include/c++/bits\ios_base.h **** 
 905:C:/Program Files (x86)/CodeBlocks/MinGW/lib/gcc/mingw32/4.9.2/include/c++/bits\ios_base.h ****   // [27.4.5.2] adjustfield manipulators
 906:C:/Program Files (x86)/CodeBlocks/MinGW/lib/gcc/mingw32/4.9.2/include/c++/bits\ios_base.h ****   /// Calls base.setf(ios_base::internal, ios_base::adjustfield).
 907:C:/Program Files (x86)/CodeBlocks/MinGW/lib/gcc/mingw32/4.9.2/include/c++/bits\ios_base.h ****   inline ios_base&
 908:C:/Program Files (x86)/CodeBlocks/MinGW/lib/gcc/mingw32/4.9.2/include/c++/bits\ios_base.h ****   internal(ios_base& __base)
 909:C:/Program Files (x86)/CodeBlocks/MinGW/lib/gcc/mingw32/4.9.2/include/c++/bits\ios_base.h ****   {
 910:C:/Program Files (x86)/CodeBlocks/MinGW/lib/gcc/mingw32/4.9.2/include/c++/bits\ios_base.h ****      __base.setf(ios_base::internal, ios_base::adjustfield);
 911:C:/Program Files (x86)/CodeBlocks/MinGW/lib/gcc/mingw32/4.9.2/include/c++/bits\ios_base.h ****      return __base;
 912:C:/Program Files (x86)/CodeBlocks/MinGW/lib/gcc/mingw32/4.9.2/include/c++/bits\ios_base.h ****   }
 913:C:/Program Files (x86)/CodeBlocks/MinGW/lib/gcc/mingw32/4.9.2/include/c++/bits\ios_base.h **** 
 914:C:/Program Files (x86)/CodeBlocks/MinGW/lib/gcc/mingw32/4.9.2/include/c++/bits\ios_base.h ****   /// Calls base.setf(ios_base::left, ios_base::adjustfield).
 915:C:/Program Files (x86)/CodeBlocks/MinGW/lib/gcc/mingw32/4.9.2/include/c++/bits\ios_base.h ****   inline ios_base&
 916:C:/Program Files (x86)/CodeBlocks/MinGW/lib/gcc/mingw32/4.9.2/include/c++/bits\ios_base.h ****   left(ios_base& __base)
 917:C:/Program Files (x86)/CodeBlocks/MinGW/lib/gcc/mingw32/4.9.2/include/c++/bits\ios_base.h ****   {
 918:C:/Program Files (x86)/CodeBlocks/MinGW/lib/gcc/mingw32/4.9.2/include/c++/bits\ios_base.h ****     __base.setf(ios_base::left, ios_base::adjustfield);
 919:C:/Program Files (x86)/CodeBlocks/MinGW/lib/gcc/mingw32/4.9.2/include/c++/bits\ios_base.h ****     return __base;
 920:C:/Program Files (x86)/CodeBlocks/MinGW/lib/gcc/mingw32/4.9.2/include/c++/bits\ios_base.h ****   }
 921:C:/Program Files (x86)/CodeBlocks/MinGW/lib/gcc/mingw32/4.9.2/include/c++/bits\ios_base.h **** 
 922:C:/Program Files (x86)/CodeBlocks/MinGW/lib/gcc/mingw32/4.9.2/include/c++/bits\ios_base.h ****   /// Calls base.setf(ios_base::right, ios_base::adjustfield).
 923:C:/Program Files (x86)/CodeBlocks/MinGW/lib/gcc/mingw32/4.9.2/include/c++/bits\ios_base.h ****   inline ios_base&
 924:C:/Program Files (x86)/CodeBlocks/MinGW/lib/gcc/mingw32/4.9.2/include/c++/bits\ios_base.h ****   right(ios_base& __base)
 925:C:/Program Files (x86)/CodeBlocks/MinGW/lib/gcc/mingw32/4.9.2/include/c++/bits\ios_base.h ****   {
 926:C:/Program Files (x86)/CodeBlocks/MinGW/lib/gcc/mingw32/4.9.2/include/c++/bits\ios_base.h ****     __base.setf(ios_base::right, ios_base::adjustfield);
 927:C:/Program Files (x86)/CodeBlocks/MinGW/lib/gcc/mingw32/4.9.2/include/c++/bits\ios_base.h ****     return __base;
 928:C:/Program Files (x86)/CodeBlocks/MinGW/lib/gcc/mingw32/4.9.2/include/c++/bits\ios_base.h ****   }
 929:C:/Program Files (x86)/CodeBlocks/MinGW/lib/gcc/mingw32/4.9.2/include/c++/bits\ios_base.h **** 
 930:C:/Program Files (x86)/CodeBlocks/MinGW/lib/gcc/mingw32/4.9.2/include/c++/bits\ios_base.h ****   // [27.4.5.3] basefield manipulators
 931:C:/Program Files (x86)/CodeBlocks/MinGW/lib/gcc/mingw32/4.9.2/include/c++/bits\ios_base.h ****   /// Calls base.setf(ios_base::dec, ios_base::basefield).
 932:C:/Program Files (x86)/CodeBlocks/MinGW/lib/gcc/mingw32/4.9.2/include/c++/bits\ios_base.h ****   inline ios_base&
 933:C:/Program Files (x86)/CodeBlocks/MinGW/lib/gcc/mingw32/4.9.2/include/c++/bits\ios_base.h ****   dec(ios_base& __base)
 934:C:/Program Files (x86)/CodeBlocks/MinGW/lib/gcc/mingw32/4.9.2/include/c++/bits\ios_base.h ****   {
 935:C:/Program Files (x86)/CodeBlocks/MinGW/lib/gcc/mingw32/4.9.2/include/c++/bits\ios_base.h ****     __base.setf(ios_base::dec, ios_base::basefield);
 936:C:/Program Files (x86)/CodeBlocks/MinGW/lib/gcc/mingw32/4.9.2/include/c++/bits\ios_base.h ****     return __base;
 937:C:/Program Files (x86)/CodeBlocks/MinGW/lib/gcc/mingw32/4.9.2/include/c++/bits\ios_base.h ****   }
 938:C:/Program Files (x86)/CodeBlocks/MinGW/lib/gcc/mingw32/4.9.2/include/c++/bits\ios_base.h **** 
 939:C:/Program Files (x86)/CodeBlocks/MinGW/lib/gcc/mingw32/4.9.2/include/c++/bits\ios_base.h ****   /// Calls base.setf(ios_base::hex, ios_base::basefield).
 940:C:/Program Files (x86)/CodeBlocks/MinGW/lib/gcc/mingw32/4.9.2/include/c++/bits\ios_base.h ****   inline ios_base&
 941:C:/Program Files (x86)/CodeBlocks/MinGW/lib/gcc/mingw32/4.9.2/include/c++/bits\ios_base.h ****   hex(ios_base& __base)
 942:C:/Program Files (x86)/CodeBlocks/MinGW/lib/gcc/mingw32/4.9.2/include/c++/bits\ios_base.h ****   {
 943:C:/Program Files (x86)/CodeBlocks/MinGW/lib/gcc/mingw32/4.9.2/include/c++/bits\ios_base.h ****     __base.setf(ios_base::hex, ios_base::basefield);
 944:C:/Program Files (x86)/CodeBlocks/MinGW/lib/gcc/mingw32/4.9.2/include/c++/bits\ios_base.h ****     return __base;
 945:C:/Program Files (x86)/CodeBlocks/MinGW/lib/gcc/mingw32/4.9.2/include/c++/bits\ios_base.h ****   }
 946:C:/Program Files (x86)/CodeBlocks/MinGW/lib/gcc/mingw32/4.9.2/include/c++/bits\ios_base.h **** 
 947:C:/Program Files (x86)/CodeBlocks/MinGW/lib/gcc/mingw32/4.9.2/include/c++/bits\ios_base.h ****   /// Calls base.setf(ios_base::oct, ios_base::basefield).
GAS LISTING C:\Users\NJLLMR~1\AppData\Local\Temp\ccqq7oi7.s 			page 21


 948:C:/Program Files (x86)/CodeBlocks/MinGW/lib/gcc/mingw32/4.9.2/include/c++/bits\ios_base.h ****   inline ios_base&
 949:C:/Program Files (x86)/CodeBlocks/MinGW/lib/gcc/mingw32/4.9.2/include/c++/bits\ios_base.h ****   oct(ios_base& __base)
 950:C:/Program Files (x86)/CodeBlocks/MinGW/lib/gcc/mingw32/4.9.2/include/c++/bits\ios_base.h ****   {
 951:C:/Program Files (x86)/CodeBlocks/MinGW/lib/gcc/mingw32/4.9.2/include/c++/bits\ios_base.h ****     __base.setf(ios_base::oct, ios_base::basefield);
 952:C:/Program Files (x86)/CodeBlocks/MinGW/lib/gcc/mingw32/4.9.2/include/c++/bits\ios_base.h ****     return __base;
 953:C:/Program Files (x86)/CodeBlocks/MinGW/lib/gcc/mingw32/4.9.2/include/c++/bits\ios_base.h ****   }
 954:C:/Program Files (x86)/CodeBlocks/MinGW/lib/gcc/mingw32/4.9.2/include/c++/bits\ios_base.h **** 
 955:C:/Program Files (x86)/CodeBlocks/MinGW/lib/gcc/mingw32/4.9.2/include/c++/bits\ios_base.h ****   // [27.4.5.4] floatfield manipulators
 956:C:/Program Files (x86)/CodeBlocks/MinGW/lib/gcc/mingw32/4.9.2/include/c++/bits\ios_base.h ****   /// Calls base.setf(ios_base::fixed, ios_base::floatfield).
 957:C:/Program Files (x86)/CodeBlocks/MinGW/lib/gcc/mingw32/4.9.2/include/c++/bits\ios_base.h ****   inline ios_base&
 958:C:/Program Files (x86)/CodeBlocks/MinGW/lib/gcc/mingw32/4.9.2/include/c++/bits\ios_base.h ****   fixed(ios_base& __base)
 959:C:/Program Files (x86)/CodeBlocks/MinGW/lib/gcc/mingw32/4.9.2/include/c++/bits\ios_base.h ****   {
 195              		.loc 1 959 0
 196              		.cfi_startproc
 197 0000 55       		pushl	%ebp
 198              		.cfi_def_cfa_offset 8
 199              		.cfi_offset 5, -8
 200 0001 89E5     		movl	%esp, %ebp
 201              		.cfi_def_cfa_register 5
 202 0003 83EC08   		subl	$8, %esp
 960:C:/Program Files (x86)/CodeBlocks/MinGW/lib/gcc/mingw32/4.9.2/include/c++/bits\ios_base.h ****     __base.setf(ios_base::fixed, ios_base::floatfield);
 203              		.loc 1 960 0
 204 0006 C7442404 		movl	$260, 4(%esp)
 204      04010000 
 205 000e C7042404 		movl	$4, (%esp)
 205      000000
 206 0015 8B4D08   		movl	8(%ebp), %ecx
 207 0018 E8000000 		call	__ZNSt8ios_base4setfESt13_Ios_FmtflagsS0_
 207      00
 208 001d 83EC08   		subl	$8, %esp
 961:C:/Program Files (x86)/CodeBlocks/MinGW/lib/gcc/mingw32/4.9.2/include/c++/bits\ios_base.h ****     return __base;
 209              		.loc 1 961 0
 210 0020 8B4508   		movl	8(%ebp), %eax
 962:C:/Program Files (x86)/CodeBlocks/MinGW/lib/gcc/mingw32/4.9.2/include/c++/bits\ios_base.h ****   }
 211              		.loc 1 962 0
 212 0023 C9       		leave
 213              		.cfi_restore 5
 214              		.cfi_def_cfa 4, 4
 215 0024 C3       		ret
 216              		.cfi_endproc
 217              	LFE691:
 218              	.lcomm __ZStL8__ioinit,1,1
 219 0025 909090   		.section	.text$_ZSt12setprecisioni,"x"
 220              		.linkonce discard
 221              		.globl	__ZSt12setprecisioni
 223              	__ZSt12setprecisioni:
 224              	LFB1025:
 225              		.file 2 "C:/Program Files (x86)/CodeBlocks/MinGW/lib/gcc/mingw32/4.9.2/include/c++/iomanip"
   1:C:/Program Files (x86)/CodeBlocks/MinGW/lib/gcc/mingw32/4.9.2/include/c++\iomanip **** // Standard stream manipulators -*- C++ -*-
   2:C:/Program Files (x86)/CodeBlocks/MinGW/lib/gcc/mingw32/4.9.2/include/c++\iomanip **** 
   3:C:/Program Files (x86)/CodeBlocks/MinGW/lib/gcc/mingw32/4.9.2/include/c++\iomanip **** // Copyright (C) 1997-2014 Free Software Foundation, Inc.
   4:C:/Program Files (x86)/CodeBlocks/MinGW/lib/gcc/mingw32/4.9.2/include/c++\iomanip **** //
   5:C:/Program Files (x86)/CodeBlocks/MinGW/lib/gcc/mingw32/4.9.2/include/c++\iomanip **** // This file is part of the GNU ISO C++ Library.  This library is free
   6:C:/Program Files (x86)/CodeBlocks/MinGW/lib/gcc/mingw32/4.9.2/include/c++\iomanip **** // software; you can redistribute it and/or modify it under the
   7:C:/Program Files (x86)/CodeBlocks/MinGW/lib/gcc/mingw32/4.9.2/include/c++\iomanip **** // terms of the GNU General Public License as published by the
   8:C:/Program Files (x86)/CodeBlocks/MinGW/lib/gcc/mingw32/4.9.2/include/c++\iomanip **** // Free Software Foundation; either version 3, or (at your option)
   9:C:/Program Files (x86)/CodeBlocks/MinGW/lib/gcc/mingw32/4.9.2/include/c++\iomanip **** // any later version.
GAS LISTING C:\Users\NJLLMR~1\AppData\Local\Temp\ccqq7oi7.s 			page 22


  10:C:/Program Files (x86)/CodeBlocks/MinGW/lib/gcc/mingw32/4.9.2/include/c++\iomanip **** 
  11:C:/Program Files (x86)/CodeBlocks/MinGW/lib/gcc/mingw32/4.9.2/include/c++\iomanip **** // This library is distributed in the hope that it will be useful,
  12:C:/Program Files (x86)/CodeBlocks/MinGW/lib/gcc/mingw32/4.9.2/include/c++\iomanip **** // but WITHOUT ANY WARRANTY; without even the implied warranty of
  13:C:/Program Files (x86)/CodeBlocks/MinGW/lib/gcc/mingw32/4.9.2/include/c++\iomanip **** // MERCHANTABILITY or FITNESS FOR A PARTICULAR PURPOSE.  See the
  14:C:/Program Files (x86)/CodeBlocks/MinGW/lib/gcc/mingw32/4.9.2/include/c++\iomanip **** // GNU General Public License for more details.
  15:C:/Program Files (x86)/CodeBlocks/MinGW/lib/gcc/mingw32/4.9.2/include/c++\iomanip **** 
  16:C:/Program Files (x86)/CodeBlocks/MinGW/lib/gcc/mingw32/4.9.2/include/c++\iomanip **** // Under Section 7 of GPL version 3, you are granted additional
  17:C:/Program Files (x86)/CodeBlocks/MinGW/lib/gcc/mingw32/4.9.2/include/c++\iomanip **** // permissions described in the GCC Runtime Library Exception, version
  18:C:/Program Files (x86)/CodeBlocks/MinGW/lib/gcc/mingw32/4.9.2/include/c++\iomanip **** // 3.1, as published by the Free Software Foundation.
  19:C:/Program Files (x86)/CodeBlocks/MinGW/lib/gcc/mingw32/4.9.2/include/c++\iomanip **** 
  20:C:/Program Files (x86)/CodeBlocks/MinGW/lib/gcc/mingw32/4.9.2/include/c++\iomanip **** // You should have received a copy of the GNU General Public License and
  21:C:/Program Files (x86)/CodeBlocks/MinGW/lib/gcc/mingw32/4.9.2/include/c++\iomanip **** // a copy of the GCC Runtime Library Exception along with this program;
  22:C:/Program Files (x86)/CodeBlocks/MinGW/lib/gcc/mingw32/4.9.2/include/c++\iomanip **** // see the files COPYING3 and COPYING.RUNTIME respectively.  If not, see
  23:C:/Program Files (x86)/CodeBlocks/MinGW/lib/gcc/mingw32/4.9.2/include/c++\iomanip **** // <http://www.gnu.org/licenses/>.
  24:C:/Program Files (x86)/CodeBlocks/MinGW/lib/gcc/mingw32/4.9.2/include/c++\iomanip **** 
  25:C:/Program Files (x86)/CodeBlocks/MinGW/lib/gcc/mingw32/4.9.2/include/c++\iomanip **** /** @file include/iomanip
  26:C:/Program Files (x86)/CodeBlocks/MinGW/lib/gcc/mingw32/4.9.2/include/c++\iomanip ****  *  This is a Standard C++ Library header.
  27:C:/Program Files (x86)/CodeBlocks/MinGW/lib/gcc/mingw32/4.9.2/include/c++\iomanip ****  */
  28:C:/Program Files (x86)/CodeBlocks/MinGW/lib/gcc/mingw32/4.9.2/include/c++\iomanip **** 
  29:C:/Program Files (x86)/CodeBlocks/MinGW/lib/gcc/mingw32/4.9.2/include/c++\iomanip **** //
  30:C:/Program Files (x86)/CodeBlocks/MinGW/lib/gcc/mingw32/4.9.2/include/c++\iomanip **** // ISO C++ 14882: 27.6.3  Standard manipulators
  31:C:/Program Files (x86)/CodeBlocks/MinGW/lib/gcc/mingw32/4.9.2/include/c++\iomanip **** //
  32:C:/Program Files (x86)/CodeBlocks/MinGW/lib/gcc/mingw32/4.9.2/include/c++\iomanip **** 
  33:C:/Program Files (x86)/CodeBlocks/MinGW/lib/gcc/mingw32/4.9.2/include/c++\iomanip **** #ifndef _GLIBCXX_IOMANIP
  34:C:/Program Files (x86)/CodeBlocks/MinGW/lib/gcc/mingw32/4.9.2/include/c++\iomanip **** #define _GLIBCXX_IOMANIP 1
  35:C:/Program Files (x86)/CodeBlocks/MinGW/lib/gcc/mingw32/4.9.2/include/c++\iomanip **** 
  36:C:/Program Files (x86)/CodeBlocks/MinGW/lib/gcc/mingw32/4.9.2/include/c++\iomanip **** #pragma GCC system_header
  37:C:/Program Files (x86)/CodeBlocks/MinGW/lib/gcc/mingw32/4.9.2/include/c++\iomanip **** 
  38:C:/Program Files (x86)/CodeBlocks/MinGW/lib/gcc/mingw32/4.9.2/include/c++\iomanip **** #include <bits/c++config.h>
  39:C:/Program Files (x86)/CodeBlocks/MinGW/lib/gcc/mingw32/4.9.2/include/c++\iomanip **** #include <iosfwd>
  40:C:/Program Files (x86)/CodeBlocks/MinGW/lib/gcc/mingw32/4.9.2/include/c++\iomanip **** #include <bits/ios_base.h>
  41:C:/Program Files (x86)/CodeBlocks/MinGW/lib/gcc/mingw32/4.9.2/include/c++\iomanip **** 
  42:C:/Program Files (x86)/CodeBlocks/MinGW/lib/gcc/mingw32/4.9.2/include/c++\iomanip **** #if __cplusplus >= 201103L
  43:C:/Program Files (x86)/CodeBlocks/MinGW/lib/gcc/mingw32/4.9.2/include/c++\iomanip **** #include <locale>
  44:C:/Program Files (x86)/CodeBlocks/MinGW/lib/gcc/mingw32/4.9.2/include/c++\iomanip **** #if __cplusplus > 201103L
  45:C:/Program Files (x86)/CodeBlocks/MinGW/lib/gcc/mingw32/4.9.2/include/c++\iomanip **** #include <sstream> // used in quoted.
  46:C:/Program Files (x86)/CodeBlocks/MinGW/lib/gcc/mingw32/4.9.2/include/c++\iomanip **** #endif
  47:C:/Program Files (x86)/CodeBlocks/MinGW/lib/gcc/mingw32/4.9.2/include/c++\iomanip **** #endif
  48:C:/Program Files (x86)/CodeBlocks/MinGW/lib/gcc/mingw32/4.9.2/include/c++\iomanip **** 
  49:C:/Program Files (x86)/CodeBlocks/MinGW/lib/gcc/mingw32/4.9.2/include/c++\iomanip **** namespace std _GLIBCXX_VISIBILITY(default)
  50:C:/Program Files (x86)/CodeBlocks/MinGW/lib/gcc/mingw32/4.9.2/include/c++\iomanip **** {
  51:C:/Program Files (x86)/CodeBlocks/MinGW/lib/gcc/mingw32/4.9.2/include/c++\iomanip **** _GLIBCXX_BEGIN_NAMESPACE_VERSION
  52:C:/Program Files (x86)/CodeBlocks/MinGW/lib/gcc/mingw32/4.9.2/include/c++\iomanip **** 
  53:C:/Program Files (x86)/CodeBlocks/MinGW/lib/gcc/mingw32/4.9.2/include/c++\iomanip ****   // [27.6.3] standard manipulators
  54:C:/Program Files (x86)/CodeBlocks/MinGW/lib/gcc/mingw32/4.9.2/include/c++\iomanip ****   // Also see DR 183.
  55:C:/Program Files (x86)/CodeBlocks/MinGW/lib/gcc/mingw32/4.9.2/include/c++\iomanip **** 
  56:C:/Program Files (x86)/CodeBlocks/MinGW/lib/gcc/mingw32/4.9.2/include/c++\iomanip ****   struct _Resetiosflags { ios_base::fmtflags _M_mask; };
  57:C:/Program Files (x86)/CodeBlocks/MinGW/lib/gcc/mingw32/4.9.2/include/c++\iomanip **** 
  58:C:/Program Files (x86)/CodeBlocks/MinGW/lib/gcc/mingw32/4.9.2/include/c++\iomanip ****   /**
  59:C:/Program Files (x86)/CodeBlocks/MinGW/lib/gcc/mingw32/4.9.2/include/c++\iomanip ****    *  @brief  Manipulator for @c setf.
  60:C:/Program Files (x86)/CodeBlocks/MinGW/lib/gcc/mingw32/4.9.2/include/c++\iomanip ****    *  @param  __mask  A format flags mask.
  61:C:/Program Files (x86)/CodeBlocks/MinGW/lib/gcc/mingw32/4.9.2/include/c++\iomanip ****    *
  62:C:/Program Files (x86)/CodeBlocks/MinGW/lib/gcc/mingw32/4.9.2/include/c++\iomanip ****    *  Sent to a stream object, this manipulator resets the specified flags,
  63:C:/Program Files (x86)/CodeBlocks/MinGW/lib/gcc/mingw32/4.9.2/include/c++\iomanip ****    *  via @e stream.setf(0,__mask).
  64:C:/Program Files (x86)/CodeBlocks/MinGW/lib/gcc/mingw32/4.9.2/include/c++\iomanip ****   */
  65:C:/Program Files (x86)/CodeBlocks/MinGW/lib/gcc/mingw32/4.9.2/include/c++\iomanip ****   inline _Resetiosflags 
  66:C:/Program Files (x86)/CodeBlocks/MinGW/lib/gcc/mingw32/4.9.2/include/c++\iomanip ****   resetiosflags(ios_base::fmtflags __mask)
GAS LISTING C:\Users\NJLLMR~1\AppData\Local\Temp\ccqq7oi7.s 			page 23


  67:C:/Program Files (x86)/CodeBlocks/MinGW/lib/gcc/mingw32/4.9.2/include/c++\iomanip ****   { return { __mask }; }
  68:C:/Program Files (x86)/CodeBlocks/MinGW/lib/gcc/mingw32/4.9.2/include/c++\iomanip **** 
  69:C:/Program Files (x86)/CodeBlocks/MinGW/lib/gcc/mingw32/4.9.2/include/c++\iomanip ****   template<typename _CharT, typename _Traits>
  70:C:/Program Files (x86)/CodeBlocks/MinGW/lib/gcc/mingw32/4.9.2/include/c++\iomanip ****     inline basic_istream<_CharT, _Traits>& 
  71:C:/Program Files (x86)/CodeBlocks/MinGW/lib/gcc/mingw32/4.9.2/include/c++\iomanip ****     operator>>(basic_istream<_CharT, _Traits>& __is, _Resetiosflags __f)
  72:C:/Program Files (x86)/CodeBlocks/MinGW/lib/gcc/mingw32/4.9.2/include/c++\iomanip ****     { 
  73:C:/Program Files (x86)/CodeBlocks/MinGW/lib/gcc/mingw32/4.9.2/include/c++\iomanip ****       __is.setf(ios_base::fmtflags(0), __f._M_mask); 
  74:C:/Program Files (x86)/CodeBlocks/MinGW/lib/gcc/mingw32/4.9.2/include/c++\iomanip ****       return __is; 
  75:C:/Program Files (x86)/CodeBlocks/MinGW/lib/gcc/mingw32/4.9.2/include/c++\iomanip ****     }
  76:C:/Program Files (x86)/CodeBlocks/MinGW/lib/gcc/mingw32/4.9.2/include/c++\iomanip **** 
  77:C:/Program Files (x86)/CodeBlocks/MinGW/lib/gcc/mingw32/4.9.2/include/c++\iomanip ****   template<typename _CharT, typename _Traits>
  78:C:/Program Files (x86)/CodeBlocks/MinGW/lib/gcc/mingw32/4.9.2/include/c++\iomanip ****     inline basic_ostream<_CharT, _Traits>& 
  79:C:/Program Files (x86)/CodeBlocks/MinGW/lib/gcc/mingw32/4.9.2/include/c++\iomanip ****     operator<<(basic_ostream<_CharT, _Traits>& __os, _Resetiosflags __f)
  80:C:/Program Files (x86)/CodeBlocks/MinGW/lib/gcc/mingw32/4.9.2/include/c++\iomanip ****     { 
  81:C:/Program Files (x86)/CodeBlocks/MinGW/lib/gcc/mingw32/4.9.2/include/c++\iomanip ****       __os.setf(ios_base::fmtflags(0), __f._M_mask); 
  82:C:/Program Files (x86)/CodeBlocks/MinGW/lib/gcc/mingw32/4.9.2/include/c++\iomanip ****       return __os; 
  83:C:/Program Files (x86)/CodeBlocks/MinGW/lib/gcc/mingw32/4.9.2/include/c++\iomanip ****     }
  84:C:/Program Files (x86)/CodeBlocks/MinGW/lib/gcc/mingw32/4.9.2/include/c++\iomanip **** 
  85:C:/Program Files (x86)/CodeBlocks/MinGW/lib/gcc/mingw32/4.9.2/include/c++\iomanip **** 
  86:C:/Program Files (x86)/CodeBlocks/MinGW/lib/gcc/mingw32/4.9.2/include/c++\iomanip ****   struct _Setiosflags { ios_base::fmtflags _M_mask; };
  87:C:/Program Files (x86)/CodeBlocks/MinGW/lib/gcc/mingw32/4.9.2/include/c++\iomanip **** 
  88:C:/Program Files (x86)/CodeBlocks/MinGW/lib/gcc/mingw32/4.9.2/include/c++\iomanip ****   /**
  89:C:/Program Files (x86)/CodeBlocks/MinGW/lib/gcc/mingw32/4.9.2/include/c++\iomanip ****    *  @brief  Manipulator for @c setf.
  90:C:/Program Files (x86)/CodeBlocks/MinGW/lib/gcc/mingw32/4.9.2/include/c++\iomanip ****    *  @param  __mask  A format flags mask.
  91:C:/Program Files (x86)/CodeBlocks/MinGW/lib/gcc/mingw32/4.9.2/include/c++\iomanip ****    *
  92:C:/Program Files (x86)/CodeBlocks/MinGW/lib/gcc/mingw32/4.9.2/include/c++\iomanip ****    *  Sent to a stream object, this manipulator sets the format flags
  93:C:/Program Files (x86)/CodeBlocks/MinGW/lib/gcc/mingw32/4.9.2/include/c++\iomanip ****    *  to @a __mask.
  94:C:/Program Files (x86)/CodeBlocks/MinGW/lib/gcc/mingw32/4.9.2/include/c++\iomanip ****   */
  95:C:/Program Files (x86)/CodeBlocks/MinGW/lib/gcc/mingw32/4.9.2/include/c++\iomanip ****   inline _Setiosflags 
  96:C:/Program Files (x86)/CodeBlocks/MinGW/lib/gcc/mingw32/4.9.2/include/c++\iomanip ****   setiosflags(ios_base::fmtflags __mask)
  97:C:/Program Files (x86)/CodeBlocks/MinGW/lib/gcc/mingw32/4.9.2/include/c++\iomanip ****   { return { __mask }; }
  98:C:/Program Files (x86)/CodeBlocks/MinGW/lib/gcc/mingw32/4.9.2/include/c++\iomanip **** 
  99:C:/Program Files (x86)/CodeBlocks/MinGW/lib/gcc/mingw32/4.9.2/include/c++\iomanip ****   template<typename _CharT, typename _Traits>
 100:C:/Program Files (x86)/CodeBlocks/MinGW/lib/gcc/mingw32/4.9.2/include/c++\iomanip ****     inline basic_istream<_CharT, _Traits>& 
 101:C:/Program Files (x86)/CodeBlocks/MinGW/lib/gcc/mingw32/4.9.2/include/c++\iomanip ****     operator>>(basic_istream<_CharT, _Traits>& __is, _Setiosflags __f)
 102:C:/Program Files (x86)/CodeBlocks/MinGW/lib/gcc/mingw32/4.9.2/include/c++\iomanip ****     { 
 103:C:/Program Files (x86)/CodeBlocks/MinGW/lib/gcc/mingw32/4.9.2/include/c++\iomanip ****       __is.setf(__f._M_mask); 
 104:C:/Program Files (x86)/CodeBlocks/MinGW/lib/gcc/mingw32/4.9.2/include/c++\iomanip ****       return __is; 
 105:C:/Program Files (x86)/CodeBlocks/MinGW/lib/gcc/mingw32/4.9.2/include/c++\iomanip ****     }
 106:C:/Program Files (x86)/CodeBlocks/MinGW/lib/gcc/mingw32/4.9.2/include/c++\iomanip **** 
 107:C:/Program Files (x86)/CodeBlocks/MinGW/lib/gcc/mingw32/4.9.2/include/c++\iomanip ****   template<typename _CharT, typename _Traits>
 108:C:/Program Files (x86)/CodeBlocks/MinGW/lib/gcc/mingw32/4.9.2/include/c++\iomanip ****     inline basic_ostream<_CharT, _Traits>& 
 109:C:/Program Files (x86)/CodeBlocks/MinGW/lib/gcc/mingw32/4.9.2/include/c++\iomanip ****     operator<<(basic_ostream<_CharT, _Traits>& __os, _Setiosflags __f)
 110:C:/Program Files (x86)/CodeBlocks/MinGW/lib/gcc/mingw32/4.9.2/include/c++\iomanip ****     { 
 111:C:/Program Files (x86)/CodeBlocks/MinGW/lib/gcc/mingw32/4.9.2/include/c++\iomanip ****       __os.setf(__f._M_mask); 
 112:C:/Program Files (x86)/CodeBlocks/MinGW/lib/gcc/mingw32/4.9.2/include/c++\iomanip ****       return __os; 
 113:C:/Program Files (x86)/CodeBlocks/MinGW/lib/gcc/mingw32/4.9.2/include/c++\iomanip ****     }
 114:C:/Program Files (x86)/CodeBlocks/MinGW/lib/gcc/mingw32/4.9.2/include/c++\iomanip **** 
 115:C:/Program Files (x86)/CodeBlocks/MinGW/lib/gcc/mingw32/4.9.2/include/c++\iomanip **** 
 116:C:/Program Files (x86)/CodeBlocks/MinGW/lib/gcc/mingw32/4.9.2/include/c++\iomanip ****   struct _Setbase { int _M_base; };
 117:C:/Program Files (x86)/CodeBlocks/MinGW/lib/gcc/mingw32/4.9.2/include/c++\iomanip **** 
 118:C:/Program Files (x86)/CodeBlocks/MinGW/lib/gcc/mingw32/4.9.2/include/c++\iomanip ****   /**
 119:C:/Program Files (x86)/CodeBlocks/MinGW/lib/gcc/mingw32/4.9.2/include/c++\iomanip ****    *  @brief  Manipulator for @c setf.
 120:C:/Program Files (x86)/CodeBlocks/MinGW/lib/gcc/mingw32/4.9.2/include/c++\iomanip ****    *  @param  __base  A numeric base.
 121:C:/Program Files (x86)/CodeBlocks/MinGW/lib/gcc/mingw32/4.9.2/include/c++\iomanip ****    *
 122:C:/Program Files (x86)/CodeBlocks/MinGW/lib/gcc/mingw32/4.9.2/include/c++\iomanip ****    *  Sent to a stream object, this manipulator changes the
 123:C:/Program Files (x86)/CodeBlocks/MinGW/lib/gcc/mingw32/4.9.2/include/c++\iomanip ****    *  @c ios_base::basefield flags to @c oct, @c dec, or @c hex when @a base
GAS LISTING C:\Users\NJLLMR~1\AppData\Local\Temp\ccqq7oi7.s 			page 24


 124:C:/Program Files (x86)/CodeBlocks/MinGW/lib/gcc/mingw32/4.9.2/include/c++\iomanip ****    *  is 8, 10, or 16, accordingly, and to 0 if @a __base is any other value.
 125:C:/Program Files (x86)/CodeBlocks/MinGW/lib/gcc/mingw32/4.9.2/include/c++\iomanip ****   */
 126:C:/Program Files (x86)/CodeBlocks/MinGW/lib/gcc/mingw32/4.9.2/include/c++\iomanip ****   inline _Setbase 
 127:C:/Program Files (x86)/CodeBlocks/MinGW/lib/gcc/mingw32/4.9.2/include/c++\iomanip ****   setbase(int __base)
 128:C:/Program Files (x86)/CodeBlocks/MinGW/lib/gcc/mingw32/4.9.2/include/c++\iomanip ****   { return { __base }; }
 129:C:/Program Files (x86)/CodeBlocks/MinGW/lib/gcc/mingw32/4.9.2/include/c++\iomanip **** 
 130:C:/Program Files (x86)/CodeBlocks/MinGW/lib/gcc/mingw32/4.9.2/include/c++\iomanip ****   template<typename _CharT, typename _Traits>
 131:C:/Program Files (x86)/CodeBlocks/MinGW/lib/gcc/mingw32/4.9.2/include/c++\iomanip ****     inline basic_istream<_CharT, _Traits>& 
 132:C:/Program Files (x86)/CodeBlocks/MinGW/lib/gcc/mingw32/4.9.2/include/c++\iomanip ****     operator>>(basic_istream<_CharT, _Traits>& __is, _Setbase __f)
 133:C:/Program Files (x86)/CodeBlocks/MinGW/lib/gcc/mingw32/4.9.2/include/c++\iomanip ****     {
 134:C:/Program Files (x86)/CodeBlocks/MinGW/lib/gcc/mingw32/4.9.2/include/c++\iomanip ****       __is.setf(__f._M_base ==  8 ? ios_base::oct : 
 135:C:/Program Files (x86)/CodeBlocks/MinGW/lib/gcc/mingw32/4.9.2/include/c++\iomanip **** 		__f._M_base == 10 ? ios_base::dec : 
 136:C:/Program Files (x86)/CodeBlocks/MinGW/lib/gcc/mingw32/4.9.2/include/c++\iomanip **** 		__f._M_base == 16 ? ios_base::hex : 
 137:C:/Program Files (x86)/CodeBlocks/MinGW/lib/gcc/mingw32/4.9.2/include/c++\iomanip **** 		ios_base::fmtflags(0), ios_base::basefield);
 138:C:/Program Files (x86)/CodeBlocks/MinGW/lib/gcc/mingw32/4.9.2/include/c++\iomanip ****       return __is; 
 139:C:/Program Files (x86)/CodeBlocks/MinGW/lib/gcc/mingw32/4.9.2/include/c++\iomanip ****     }
 140:C:/Program Files (x86)/CodeBlocks/MinGW/lib/gcc/mingw32/4.9.2/include/c++\iomanip ****   
 141:C:/Program Files (x86)/CodeBlocks/MinGW/lib/gcc/mingw32/4.9.2/include/c++\iomanip ****   template<typename _CharT, typename _Traits>
 142:C:/Program Files (x86)/CodeBlocks/MinGW/lib/gcc/mingw32/4.9.2/include/c++\iomanip ****     inline basic_ostream<_CharT, _Traits>& 
 143:C:/Program Files (x86)/CodeBlocks/MinGW/lib/gcc/mingw32/4.9.2/include/c++\iomanip ****     operator<<(basic_ostream<_CharT, _Traits>& __os, _Setbase __f)
 144:C:/Program Files (x86)/CodeBlocks/MinGW/lib/gcc/mingw32/4.9.2/include/c++\iomanip ****     {
 145:C:/Program Files (x86)/CodeBlocks/MinGW/lib/gcc/mingw32/4.9.2/include/c++\iomanip ****       __os.setf(__f._M_base ==  8 ? ios_base::oct : 
 146:C:/Program Files (x86)/CodeBlocks/MinGW/lib/gcc/mingw32/4.9.2/include/c++\iomanip **** 		__f._M_base == 10 ? ios_base::dec : 
 147:C:/Program Files (x86)/CodeBlocks/MinGW/lib/gcc/mingw32/4.9.2/include/c++\iomanip **** 		__f._M_base == 16 ? ios_base::hex : 
 148:C:/Program Files (x86)/CodeBlocks/MinGW/lib/gcc/mingw32/4.9.2/include/c++\iomanip **** 		ios_base::fmtflags(0), ios_base::basefield);
 149:C:/Program Files (x86)/CodeBlocks/MinGW/lib/gcc/mingw32/4.9.2/include/c++\iomanip ****       return __os; 
 150:C:/Program Files (x86)/CodeBlocks/MinGW/lib/gcc/mingw32/4.9.2/include/c++\iomanip ****     }
 151:C:/Program Files (x86)/CodeBlocks/MinGW/lib/gcc/mingw32/4.9.2/include/c++\iomanip ****   
 152:C:/Program Files (x86)/CodeBlocks/MinGW/lib/gcc/mingw32/4.9.2/include/c++\iomanip **** 
 153:C:/Program Files (x86)/CodeBlocks/MinGW/lib/gcc/mingw32/4.9.2/include/c++\iomanip ****   template<typename _CharT>
 154:C:/Program Files (x86)/CodeBlocks/MinGW/lib/gcc/mingw32/4.9.2/include/c++\iomanip ****     struct _Setfill { _CharT _M_c; };
 155:C:/Program Files (x86)/CodeBlocks/MinGW/lib/gcc/mingw32/4.9.2/include/c++\iomanip **** 
 156:C:/Program Files (x86)/CodeBlocks/MinGW/lib/gcc/mingw32/4.9.2/include/c++\iomanip ****   /**
 157:C:/Program Files (x86)/CodeBlocks/MinGW/lib/gcc/mingw32/4.9.2/include/c++\iomanip ****    *  @brief  Manipulator for @c fill.
 158:C:/Program Files (x86)/CodeBlocks/MinGW/lib/gcc/mingw32/4.9.2/include/c++\iomanip ****    *  @param  __c  The new fill character.
 159:C:/Program Files (x86)/CodeBlocks/MinGW/lib/gcc/mingw32/4.9.2/include/c++\iomanip ****    *
 160:C:/Program Files (x86)/CodeBlocks/MinGW/lib/gcc/mingw32/4.9.2/include/c++\iomanip ****    *  Sent to a stream object, this manipulator calls @c fill(__c) for that
 161:C:/Program Files (x86)/CodeBlocks/MinGW/lib/gcc/mingw32/4.9.2/include/c++\iomanip ****    *  object.
 162:C:/Program Files (x86)/CodeBlocks/MinGW/lib/gcc/mingw32/4.9.2/include/c++\iomanip ****   */
 163:C:/Program Files (x86)/CodeBlocks/MinGW/lib/gcc/mingw32/4.9.2/include/c++\iomanip ****   template<typename _CharT>
 164:C:/Program Files (x86)/CodeBlocks/MinGW/lib/gcc/mingw32/4.9.2/include/c++\iomanip ****     inline _Setfill<_CharT>
 165:C:/Program Files (x86)/CodeBlocks/MinGW/lib/gcc/mingw32/4.9.2/include/c++\iomanip ****     setfill(_CharT __c)
 166:C:/Program Files (x86)/CodeBlocks/MinGW/lib/gcc/mingw32/4.9.2/include/c++\iomanip ****     { return { __c }; }
 167:C:/Program Files (x86)/CodeBlocks/MinGW/lib/gcc/mingw32/4.9.2/include/c++\iomanip **** 
 168:C:/Program Files (x86)/CodeBlocks/MinGW/lib/gcc/mingw32/4.9.2/include/c++\iomanip ****   template<typename _CharT, typename _Traits>
 169:C:/Program Files (x86)/CodeBlocks/MinGW/lib/gcc/mingw32/4.9.2/include/c++\iomanip ****     inline basic_istream<_CharT, _Traits>& 
 170:C:/Program Files (x86)/CodeBlocks/MinGW/lib/gcc/mingw32/4.9.2/include/c++\iomanip ****     operator>>(basic_istream<_CharT, _Traits>& __is, _Setfill<_CharT> __f)
 171:C:/Program Files (x86)/CodeBlocks/MinGW/lib/gcc/mingw32/4.9.2/include/c++\iomanip ****     { 
 172:C:/Program Files (x86)/CodeBlocks/MinGW/lib/gcc/mingw32/4.9.2/include/c++\iomanip ****       __is.fill(__f._M_c); 
 173:C:/Program Files (x86)/CodeBlocks/MinGW/lib/gcc/mingw32/4.9.2/include/c++\iomanip ****       return __is; 
 174:C:/Program Files (x86)/CodeBlocks/MinGW/lib/gcc/mingw32/4.9.2/include/c++\iomanip ****     }
 175:C:/Program Files (x86)/CodeBlocks/MinGW/lib/gcc/mingw32/4.9.2/include/c++\iomanip **** 
 176:C:/Program Files (x86)/CodeBlocks/MinGW/lib/gcc/mingw32/4.9.2/include/c++\iomanip ****   template<typename _CharT, typename _Traits>
 177:C:/Program Files (x86)/CodeBlocks/MinGW/lib/gcc/mingw32/4.9.2/include/c++\iomanip ****     inline basic_ostream<_CharT, _Traits>& 
 178:C:/Program Files (x86)/CodeBlocks/MinGW/lib/gcc/mingw32/4.9.2/include/c++\iomanip ****     operator<<(basic_ostream<_CharT, _Traits>& __os, _Setfill<_CharT> __f)
 179:C:/Program Files (x86)/CodeBlocks/MinGW/lib/gcc/mingw32/4.9.2/include/c++\iomanip ****     { 
 180:C:/Program Files (x86)/CodeBlocks/MinGW/lib/gcc/mingw32/4.9.2/include/c++\iomanip ****       __os.fill(__f._M_c); 
GAS LISTING C:\Users\NJLLMR~1\AppData\Local\Temp\ccqq7oi7.s 			page 25


 181:C:/Program Files (x86)/CodeBlocks/MinGW/lib/gcc/mingw32/4.9.2/include/c++\iomanip ****       return __os; 
 182:C:/Program Files (x86)/CodeBlocks/MinGW/lib/gcc/mingw32/4.9.2/include/c++\iomanip ****     }
 183:C:/Program Files (x86)/CodeBlocks/MinGW/lib/gcc/mingw32/4.9.2/include/c++\iomanip **** 
 184:C:/Program Files (x86)/CodeBlocks/MinGW/lib/gcc/mingw32/4.9.2/include/c++\iomanip **** 
 185:C:/Program Files (x86)/CodeBlocks/MinGW/lib/gcc/mingw32/4.9.2/include/c++\iomanip ****   struct _Setprecision { int _M_n; };
 186:C:/Program Files (x86)/CodeBlocks/MinGW/lib/gcc/mingw32/4.9.2/include/c++\iomanip **** 
 187:C:/Program Files (x86)/CodeBlocks/MinGW/lib/gcc/mingw32/4.9.2/include/c++\iomanip ****   /**
 188:C:/Program Files (x86)/CodeBlocks/MinGW/lib/gcc/mingw32/4.9.2/include/c++\iomanip ****    *  @brief  Manipulator for @c precision.
 189:C:/Program Files (x86)/CodeBlocks/MinGW/lib/gcc/mingw32/4.9.2/include/c++\iomanip ****    *  @param  __n  The new precision.
 190:C:/Program Files (x86)/CodeBlocks/MinGW/lib/gcc/mingw32/4.9.2/include/c++\iomanip ****    *
 191:C:/Program Files (x86)/CodeBlocks/MinGW/lib/gcc/mingw32/4.9.2/include/c++\iomanip ****    *  Sent to a stream object, this manipulator calls @c precision(__n) for
 192:C:/Program Files (x86)/CodeBlocks/MinGW/lib/gcc/mingw32/4.9.2/include/c++\iomanip ****    *  that object.
 193:C:/Program Files (x86)/CodeBlocks/MinGW/lib/gcc/mingw32/4.9.2/include/c++\iomanip ****   */
 194:C:/Program Files (x86)/CodeBlocks/MinGW/lib/gcc/mingw32/4.9.2/include/c++\iomanip ****   inline _Setprecision 
 195:C:/Program Files (x86)/CodeBlocks/MinGW/lib/gcc/mingw32/4.9.2/include/c++\iomanip ****   setprecision(int __n)
 196:C:/Program Files (x86)/CodeBlocks/MinGW/lib/gcc/mingw32/4.9.2/include/c++\iomanip ****   { return { __n }; }
 226              		.loc 2 196 0
 227              		.cfi_startproc
 228 0000 55       		pushl	%ebp
 229              		.cfi_def_cfa_offset 8
 230              		.cfi_offset 5, -8
 231 0001 89E5     		movl	%esp, %ebp
 232              		.cfi_def_cfa_register 5
 233              		.loc 2 196 0
 234 0003 8B4508   		movl	8(%ebp), %eax
 235 0006 5D       		popl	%ebp
 236              		.cfi_restore 5
 237              		.cfi_def_cfa 4, 4
 238 0007 C3       		ret
 239              		.cfi_endproc
 240              	LFE1025:
 241              		.section .rdata,"dr"
 242              	LC0:
 243 0000 00       		.ascii "\0"
 247              		.text
 248              		.align 2
 249              		.globl	__ZN8EmployeeC2Ev
 251              	__ZN8EmployeeC2Ev:
 252              	LFB1032:
 253              		.file 3 "C:/Users/Nj\341ll M\375rdal/3viknanamskeid/LitidVerk1/Verkefni2/Vikuverk2/src/models/Empl
   1:C:/Users/Njll Mrdal/3viknanamskeid/LitidVerk1/Verkefni2/Vikuverk2/src/models\Employee.cpp **** #include "Employee.h"
   2:C:/Users/Njll Mrdal/3viknanamskeid/LitidVerk1/Verkefni2/Vikuverk2/src/models\Employee.cpp **** 
   3:C:/Users/Njll Mrdal/3viknanamskeid/LitidVerk1/Verkefni2/Vikuverk2/src/models\Employee.cpp **** Employee::Employee() {
 254              		.loc 3 3 0
 255              		.cfi_startproc
 256              		.cfi_personality 0,___gxx_personality_sj0
 257              		.cfi_lsda 0,LLSDA1032
 258 0000 55       		pushl	%ebp
 259              		.cfi_def_cfa_offset 8
 260              		.cfi_offset 5, -8
 261 0001 89E5     		movl	%esp, %ebp
 262              		.cfi_def_cfa_register 5
 263 0003 57       		pushl	%edi
 264 0004 56       		pushl	%esi
 265 0005 53       		pushl	%ebx
 266 0006 83EC5C   		subl	$92, %esp
 267              		.cfi_offset 7, -12
GAS LISTING C:\Users\NJLLMR~1\AppData\Local\Temp\ccqq7oi7.s 			page 26


 268              		.cfi_offset 6, -16
 269              		.cfi_offset 3, -20
 270 0009 894DE4   		movl	%ecx, -28(%ebp)
 271 000c C745C800 		movl	$___gxx_personality_sj0, -56(%ebp)
 271      000000
 272 0013 C745CC00 		movl	$LLSDA1032, -52(%ebp)
 272      000000
 273 001a 8D45D0   		leal	-48(%ebp), %eax
 274 001d 8D5DE8   		leal	-24(%ebp), %ebx
 275 0020 8918     		movl	%ebx, (%eax)
 276 0022 BACE0000 		movl	$L20, %edx
 276      00
 277 0027 895004   		movl	%edx, 4(%eax)
 278 002a 896008   		movl	%esp, 8(%eax)
 279 002d 8D45B0   		leal	-80(%ebp), %eax
 280 0030 890424   		movl	%eax, (%esp)
 281 0033 E8000000 		call	__Unwind_SjLj_Register
 281      00
 282              	LBB3:
 283              		.loc 3 3 0
 284 0038 8B45E4   		movl	-28(%ebp), %eax
 285 003b C745B4FF 		movl	$-1, -76(%ebp)
 285      FFFFFF
 286 0042 89C1     		movl	%eax, %ecx
 287 0044 E8000000 		call	__ZNSsC1Ev
 287      00
 288 0049 8B45E4   		movl	-28(%ebp), %eax
 289 004c 83C004   		addl	$4, %eax
 290 004f C745B401 		movl	$1, -76(%ebp)
 290      000000
 291 0056 89C1     		movl	%eax, %ecx
 292 0058 E8000000 		call	__ZNSsC1Ev
 292      00
   4:C:/Users/Njll Mrdal/3viknanamskeid/LitidVerk1/Verkefni2/Vikuverk2/src/models\Employee.cpp ****     _name = "";
 293              		.loc 3 4 0
 294 005d 8B45E4   		movl	-28(%ebp), %eax
 295 0060 C7042400 		movl	$LC0, (%esp)
 295      000000
 296 0067 C745B402 		movl	$2, -76(%ebp)
 296      000000
 297 006e 89C1     		movl	%eax, %ecx
 298 0070 E8000000 		call	__ZNSsaSEPKc
 298      00
 299 0075 83EC04   		subl	$4, %esp
   5:C:/Users/Njll Mrdal/3viknanamskeid/LitidVerk1/Verkefni2/Vikuverk2/src/models\Employee.cpp ****     _ssn = "";
 300              		.loc 3 5 0
 301 0078 8B45E4   		movl	-28(%ebp), %eax
 302 007b 83C004   		addl	$4, %eax
 303 007e C7042400 		movl	$LC0, (%esp)
 303      000000
 304 0085 89C1     		movl	%eax, %ecx
 305 0087 E8000000 		call	__ZNSsaSEPKc
 305      00
 306 008c 83EC04   		subl	$4, %esp
   6:C:/Users/Njll Mrdal/3viknanamskeid/LitidVerk1/Verkefni2/Vikuverk2/src/models\Employee.cpp ****     _salary = 0;
 307              		.loc 3 6 0
 308 008f 8B45E4   		movl	-28(%ebp), %eax
GAS LISTING C:\Users\NJLLMR~1\AppData\Local\Temp\ccqq7oi7.s 			page 27


 309 0092 C7400800 		movl	$0, 8(%eax)
 309      000000
   7:C:/Users/Njll Mrdal/3viknanamskeid/LitidVerk1/Verkefni2/Vikuverk2/src/models\Employee.cpp ****     _month = 0;
 310              		.loc 3 7 0
 311 0099 8B45E4   		movl	-28(%ebp), %eax
 312 009c C7400C00 		movl	$0, 12(%eax)
 312      000000
   8:C:/Users/Njll Mrdal/3viknanamskeid/LitidVerk1/Verkefni2/Vikuverk2/src/models\Employee.cpp ****     _year = 0;
 313              		.loc 3 8 0
 314 00a3 8B45E4   		movl	-28(%ebp), %eax
 315 00a6 C7401000 		movl	$0, 16(%eax)
 315      000000
 316 00ad EB5E     		jmp	L23
 317              	L22:
 318 00af 8955AC   		movl	%edx, -84(%ebp)
   3:C:/Users/Njll Mrdal/3viknanamskeid/LitidVerk1/Verkefni2/Vikuverk2/src/models\Employee.cpp ****     _name = "";
 319              		.loc 3 3 0
 320 00b2 8B45E4   		movl	-28(%ebp), %eax
 321 00b5 83C004   		addl	$4, %eax
 322 00b8 C745B400 		movl	$0, -76(%ebp)
 322      000000
 323 00bf 89C1     		movl	%eax, %ecx
 324 00c1 E8000000 		call	__ZNSsD1Ev
 324      00
 325 00c6 8B45AC   		movl	-84(%ebp), %eax
 326 00c9 8945AC   		movl	%eax, -84(%ebp)
 327 00cc EB1C     		jmp	L19
 328              	L20:
 329 00ce 8D6D18   		leal	24(%ebp), %ebp
 330 00d1 8B55B8   		movl	-72(%ebp), %edx
 331 00d4 8B45B4   		movl	-76(%ebp), %eax
 332 00d7 85C0     		testl	%eax, %eax
 333 00d9 740C     		je	L21
 334 00db 83E801   		subl	$1, %eax
 335 00de 85C0     		testl	%eax, %eax
 336 00e0 74CD     		je	L22
 337 00e2 83E801   		subl	$1, %eax
 338 00e5 0F0B     		ud2
 339              	L21:
 340 00e7 8955AC   		movl	%edx, -84(%ebp)
 341              	L19:
   3:C:/Users/Njll Mrdal/3viknanamskeid/LitidVerk1/Verkefni2/Vikuverk2/src/models\Employee.cpp ****     _name = "";
 342              		.loc 3 3 0 is_stmt 0 discriminator 1
 343 00ea 8B45E4   		movl	-28(%ebp), %eax
 344 00ed C745B400 		movl	$0, -76(%ebp)
 344      000000
 345 00f4 89C1     		movl	%eax, %ecx
 346 00f6 E8000000 		call	__ZNSsD1Ev
 346      00
 347 00fb 8B45AC   		movl	-84(%ebp), %eax
 348 00fe 890424   		movl	%eax, (%esp)
 349 0101 C745B4FF 		movl	$-1, -76(%ebp)
 349      FFFFFF
 350 0108 E8000000 		call	__Unwind_SjLj_Resume
 350      00
 351              	L23:
 352 010d 8D45B0   		leal	-80(%ebp), %eax
GAS LISTING C:\Users\NJLLMR~1\AppData\Local\Temp\ccqq7oi7.s 			page 28


 353 0110 890424   		movl	%eax, (%esp)
 354 0113 E8000000 		call	__Unwind_SjLj_Unregister
 354      00
 355              	LBE3:
   9:C:/Users/Njll Mrdal/3viknanamskeid/LitidVerk1/Verkefni2/Vikuverk2/src/models\Employee.cpp **** }
 356              		.loc 3 9 0 is_stmt 1
 357 0118 8D65F4   		leal	-12(%ebp), %esp
 358 011b 5B       		popl	%ebx
 359              		.cfi_restore 3
 360 011c 5E       		popl	%esi
 361              		.cfi_restore 6
 362 011d 5F       		popl	%edi
 363              		.cfi_restore 7
 364 011e 5D       		popl	%ebp
 365              		.cfi_restore 5
 366              		.cfi_def_cfa 4, 4
 367 011f C3       		ret
 368              		.cfi_endproc
 369              	LFE1032:
 370              		.section	.gcc_except_table,"w"
 371              	LLSDA1032:
 372 0000 FF       		.byte	0xff
 373 0001 FF       		.byte	0xff
 374 0002 01       		.byte	0x1
 375 0003 04       		.uleb128 LLSDACSE1032-LLSDACSB1032
 376              	LLSDACSB1032:
 377 0004 00       		.uleb128 0
 378 0005 00       		.uleb128 0
 379 0006 01       		.uleb128 0x1
 380 0007 00       		.uleb128 0
 381              	LLSDACSE1032:
 382              		.text
 383              		.globl	__ZN8EmployeeC1Ev
 385              		.set	__ZN8EmployeeC1Ev,__ZN8EmployeeC2Ev
 386              		.align 2
 387              		.globl	__ZN8EmployeeC2ESsSsiii
 389              	__ZN8EmployeeC2ESsSsiii:
 390              	LFB1035:
  10:C:/Users/Njll Mrdal/3viknanamskeid/LitidVerk1/Verkefni2/Vikuverk2/src/models\Employee.cpp **** 
  11:C:/Users/Njll Mrdal/3viknanamskeid/LitidVerk1/Verkefni2/Vikuverk2/src/models\Employee.cpp **** Employee::Employee(string name, string ssn, int salary, int month, int year) {
 391              		.loc 3 11 0
 392              		.cfi_startproc
 393              		.cfi_personality 0,___gxx_personality_sj0
 394              		.cfi_lsda 0,LLSDA1035
 395 0120 55       		pushl	%ebp
 396              		.cfi_def_cfa_offset 8
 397              		.cfi_offset 5, -8
 398 0121 89E5     		movl	%esp, %ebp
 399              		.cfi_def_cfa_register 5
 400 0123 57       		pushl	%edi
 401 0124 56       		pushl	%esi
 402 0125 53       		pushl	%ebx
 403 0126 83EC5C   		subl	$92, %esp
 404              		.cfi_offset 7, -12
 405              		.cfi_offset 6, -16
 406              		.cfi_offset 3, -20
 407 0129 894DE4   		movl	%ecx, -28(%ebp)
GAS LISTING C:\Users\NJLLMR~1\AppData\Local\Temp\ccqq7oi7.s 			page 29


 408 012c C745C800 		movl	$___gxx_personality_sj0, -56(%ebp)
 408      000000
 409 0133 C745CC08 		movl	$LLSDA1035, -52(%ebp)
 409      000000
 410 013a 8D45D0   		leal	-48(%ebp), %eax
 411 013d 8D5DE8   		leal	-24(%ebp), %ebx
 412 0140 8918     		movl	%ebx, (%eax)
 413 0142 BAE90100 		movl	$L27, %edx
 413      00
 414 0147 895004   		movl	%edx, 4(%eax)
 415 014a 896008   		movl	%esp, 8(%eax)
 416 014d 8D45B0   		leal	-80(%ebp), %eax
 417 0150 890424   		movl	%eax, (%esp)
 418 0153 E8000000 		call	__Unwind_SjLj_Register
 418      00
 419              	LBB4:
 420              		.loc 3 11 0
 421 0158 8B45E4   		movl	-28(%ebp), %eax
 422 015b C745B4FF 		movl	$-1, -76(%ebp)
 422      FFFFFF
 423 0162 89C1     		movl	%eax, %ecx
 424 0164 E8000000 		call	__ZNSsC1Ev
 424      00
 425 0169 8B45E4   		movl	-28(%ebp), %eax
 426 016c 83C004   		addl	$4, %eax
 427 016f C745B401 		movl	$1, -76(%ebp)
 427      000000
 428 0176 89C1     		movl	%eax, %ecx
 429 0178 E8000000 		call	__ZNSsC1Ev
 429      00
  12:C:/Users/Njll Mrdal/3viknanamskeid/LitidVerk1/Verkefni2/Vikuverk2/src/models\Employee.cpp ****     _name = name;
 430              		.loc 3 12 0
 431 017d 8B45E4   		movl	-28(%ebp), %eax
 432 0180 8B5508   		movl	8(%ebp), %edx
 433 0183 891424   		movl	%edx, (%esp)
 434 0186 C745B402 		movl	$2, -76(%ebp)
 434      000000
 435 018d 89C1     		movl	%eax, %ecx
 436 018f E8000000 		call	__ZNSsaSERKSs
 436      00
 437 0194 83EC04   		subl	$4, %esp
  13:C:/Users/Njll Mrdal/3viknanamskeid/LitidVerk1/Verkefni2/Vikuverk2/src/models\Employee.cpp ****     _ssn = ssn;
 438              		.loc 3 13 0
 439 0197 8B45E4   		movl	-28(%ebp), %eax
 440 019a 8D5004   		leal	4(%eax), %edx
 441 019d 8B450C   		movl	12(%ebp), %eax
 442 01a0 890424   		movl	%eax, (%esp)
 443 01a3 89D1     		movl	%edx, %ecx
 444 01a5 E8000000 		call	__ZNSsaSERKSs
 444      00
 445 01aa 83EC04   		subl	$4, %esp
  14:C:/Users/Njll Mrdal/3viknanamskeid/LitidVerk1/Verkefni2/Vikuverk2/src/models\Employee.cpp ****     _salary = salary;
 446              		.loc 3 14 0
 447 01ad 8B45E4   		movl	-28(%ebp), %eax
 448 01b0 8B5510   		movl	16(%ebp), %edx
 449 01b3 895008   		movl	%edx, 8(%eax)
  15:C:/Users/Njll Mrdal/3viknanamskeid/LitidVerk1/Verkefni2/Vikuverk2/src/models\Employee.cpp ****     _month = month;
GAS LISTING C:\Users\NJLLMR~1\AppData\Local\Temp\ccqq7oi7.s 			page 30


 450              		.loc 3 15 0
 451 01b6 8B45E4   		movl	-28(%ebp), %eax
 452 01b9 8B5514   		movl	20(%ebp), %edx
 453 01bc 89500C   		movl	%edx, 12(%eax)
  16:C:/Users/Njll Mrdal/3viknanamskeid/LitidVerk1/Verkefni2/Vikuverk2/src/models\Employee.cpp ****     _year = year;
 454              		.loc 3 16 0
 455 01bf 8B45E4   		movl	-28(%ebp), %eax
 456 01c2 8B5518   		movl	24(%ebp), %edx
 457 01c5 895010   		movl	%edx, 16(%eax)
 458 01c8 EB5E     		jmp	L30
 459              	L29:
 460 01ca 8955AC   		movl	%edx, -84(%ebp)
  11:C:/Users/Njll Mrdal/3viknanamskeid/LitidVerk1/Verkefni2/Vikuverk2/src/models\Employee.cpp ****     _name = name;
 461              		.loc 3 11 0
 462 01cd 8B45E4   		movl	-28(%ebp), %eax
 463 01d0 83C004   		addl	$4, %eax
 464 01d3 C745B400 		movl	$0, -76(%ebp)
 464      000000
 465 01da 89C1     		movl	%eax, %ecx
 466 01dc E8000000 		call	__ZNSsD1Ev
 466      00
 467 01e1 8B45AC   		movl	-84(%ebp), %eax
 468 01e4 8945AC   		movl	%eax, -84(%ebp)
 469 01e7 EB1C     		jmp	L26
 470              	L27:
 471 01e9 8D6D18   		leal	24(%ebp), %ebp
 472 01ec 8B55B8   		movl	-72(%ebp), %edx
 473 01ef 8B45B4   		movl	-76(%ebp), %eax
 474 01f2 85C0     		testl	%eax, %eax
 475 01f4 740C     		je	L28
 476 01f6 83E801   		subl	$1, %eax
 477 01f9 85C0     		testl	%eax, %eax
 478 01fb 74CD     		je	L29
 479 01fd 83E801   		subl	$1, %eax
 480 0200 0F0B     		ud2
 481              	L28:
 482 0202 8955AC   		movl	%edx, -84(%ebp)
 483              	L26:
  11:C:/Users/Njll Mrdal/3viknanamskeid/LitidVerk1/Verkefni2/Vikuverk2/src/models\Employee.cpp ****     _name = name;
 484              		.loc 3 11 0 is_stmt 0 discriminator 1
 485 0205 8B45E4   		movl	-28(%ebp), %eax
 486 0208 C745B400 		movl	$0, -76(%ebp)
 486      000000
 487 020f 89C1     		movl	%eax, %ecx
 488 0211 E8000000 		call	__ZNSsD1Ev
 488      00
 489 0216 8B45AC   		movl	-84(%ebp), %eax
 490 0219 890424   		movl	%eax, (%esp)
 491 021c C745B4FF 		movl	$-1, -76(%ebp)
 491      FFFFFF
 492 0223 E8000000 		call	__Unwind_SjLj_Resume
 492      00
 493              	L30:
 494 0228 8D45B0   		leal	-80(%ebp), %eax
 495 022b 890424   		movl	%eax, (%esp)
 496 022e E8000000 		call	__Unwind_SjLj_Unregister
 496      00
GAS LISTING C:\Users\NJLLMR~1\AppData\Local\Temp\ccqq7oi7.s 			page 31


 497              	LBE4:
  17:C:/Users/Njll Mrdal/3viknanamskeid/LitidVerk1/Verkefni2/Vikuverk2/src/models\Employee.cpp **** }
 498              		.loc 3 17 0 is_stmt 1
 499 0233 8D65F4   		leal	-12(%ebp), %esp
 500 0236 5B       		popl	%ebx
 501              		.cfi_restore 3
 502 0237 5E       		popl	%esi
 503              		.cfi_restore 6
 504 0238 5F       		popl	%edi
 505              		.cfi_restore 7
 506 0239 5D       		popl	%ebp
 507              		.cfi_restore 5
 508              		.cfi_def_cfa 4, 4
 509 023a C21400   		ret	$20
 510              		.cfi_endproc
 511              	LFE1035:
 512              		.section	.gcc_except_table,"w"
 513              	LLSDA1035:
 514 0008 FF       		.byte	0xff
 515 0009 FF       		.byte	0xff
 516 000a 01       		.byte	0x1
 517 000b 04       		.uleb128 LLSDACSE1035-LLSDACSB1035
 518              	LLSDACSB1035:
 519 000c 00       		.uleb128 0
 520 000d 00       		.uleb128 0
 521 000e 01       		.uleb128 0x1
 522 000f 00       		.uleb128 0
 523              	LLSDACSE1035:
 524              		.text
 525              		.globl	__ZN8EmployeeC1ESsSsiii
 527              		.set	__ZN8EmployeeC1ESsSsiii,__ZN8EmployeeC2ESsSsiii
 528 023d 90       		.align 2
 529              		.globl	__ZN8EmployeeD2Ev
 531              	__ZN8EmployeeD2Ev:
 532              	LFB1038:
  18:C:/Users/Njll Mrdal/3viknanamskeid/LitidVerk1/Verkefni2/Vikuverk2/src/models\Employee.cpp **** 
  19:C:/Users/Njll Mrdal/3viknanamskeid/LitidVerk1/Verkefni2/Vikuverk2/src/models\Employee.cpp **** Employee::~Employee() {
 533              		.loc 3 19 0
 534              		.cfi_startproc
 535              		.cfi_personality 0,___gxx_personality_sj0
 536              		.cfi_lsda 0,LLSDA1038
 537 023e 55       		pushl	%ebp
 538              		.cfi_def_cfa_offset 8
 539              		.cfi_offset 5, -8
 540 023f 89E5     		movl	%esp, %ebp
 541              		.cfi_def_cfa_register 5
 542 0241 57       		pushl	%edi
 543 0242 56       		pushl	%esi
 544 0243 53       		pushl	%ebx
 545 0244 83EC5C   		subl	$92, %esp
 546              		.cfi_offset 7, -12
 547              		.cfi_offset 6, -16
 548              		.cfi_offset 3, -20
 549 0247 894DE4   		movl	%ecx, -28(%ebp)
 550 024a C745C800 		movl	$___gxx_personality_sj0, -56(%ebp)
 550      000000
 551 0251 C745CC10 		movl	$LLSDA1038, -52(%ebp)
GAS LISTING C:\Users\NJLLMR~1\AppData\Local\Temp\ccqq7oi7.s 			page 32


 551      000000
 552 0258 8D45D0   		leal	-48(%ebp), %eax
 553 025b 8D5DE8   		leal	-24(%ebp), %ebx
 554 025e 8918     		movl	%ebx, (%eax)
 555 0260 BA9D0200 		movl	$L34, %edx
 555      00
 556 0265 895004   		movl	%edx, 4(%eax)
 557 0268 896008   		movl	%esp, 8(%eax)
 558 026b 8D45B0   		leal	-80(%ebp), %eax
 559 026e 890424   		movl	%eax, (%esp)
 560 0271 E8000000 		call	__Unwind_SjLj_Register
 560      00
 561              	LBB5:
 562              		.loc 3 19 0
 563 0276 8B45E4   		movl	-28(%ebp), %eax
 564 0279 83C004   		addl	$4, %eax
 565 027c C745B401 		movl	$1, -76(%ebp)
 565      000000
 566 0283 89C1     		movl	%eax, %ecx
 567 0285 E8000000 		call	__ZNSsD1Ev
 567      00
 568              		.loc 3 19 0 is_stmt 0 discriminator 2
 569 028a 8B45E4   		movl	-28(%ebp), %eax
 570 028d C745B4FF 		movl	$-1, -76(%ebp)
 570      FFFFFF
 571 0294 89C1     		movl	%eax, %ecx
 572 0296 E8000000 		call	__ZNSsD1Ev
 572      00
 573 029b EB2C     		jmp	L36
 574              	L34:
 575 029d 8D6D18   		leal	24(%ebp), %ebp
 576 02a0 8B45B8   		movl	-72(%ebp), %eax
 577 02a3 8945AC   		movl	%eax, -84(%ebp)
 578              		.loc 3 19 0
 579 02a6 8B45E4   		movl	-28(%ebp), %eax
 580 02a9 C745B400 		movl	$0, -76(%ebp)
 580      000000
 581 02b0 89C1     		movl	%eax, %ecx
 582 02b2 E8000000 		call	__ZNSsD1Ev
 582      00
 583 02b7 8B45AC   		movl	-84(%ebp), %eax
 584 02ba 890424   		movl	%eax, (%esp)
 585 02bd C745B4FF 		movl	$-1, -76(%ebp)
 585      FFFFFF
 586 02c4 E8000000 		call	__Unwind_SjLj_Resume
 586      00
 587              	L36:
 588 02c9 8D45B0   		leal	-80(%ebp), %eax
 589 02cc 890424   		movl	%eax, (%esp)
 590 02cf E8000000 		call	__Unwind_SjLj_Unregister
 590      00
 591              	LBE5:
  20:C:/Users/Njll Mrdal/3viknanamskeid/LitidVerk1/Verkefni2/Vikuverk2/src/models\Employee.cpp ****     //dtor
  21:C:/Users/Njll Mrdal/3viknanamskeid/LitidVerk1/Verkefni2/Vikuverk2/src/models\Employee.cpp **** }
 592              		.loc 3 21 0 is_stmt 1
 593 02d4 83C45C   		addl	$92, %esp
 594 02d7 5B       		popl	%ebx
GAS LISTING C:\Users\NJLLMR~1\AppData\Local\Temp\ccqq7oi7.s 			page 33


 595              		.cfi_restore 3
 596 02d8 5E       		popl	%esi
 597              		.cfi_restore 6
 598 02d9 5F       		popl	%edi
 599              		.cfi_restore 7
 600 02da 5D       		popl	%ebp
 601              		.cfi_restore 5
 602              		.cfi_def_cfa 4, 4
 603 02db C3       		ret
 604              		.cfi_endproc
 605              	LFE1038:
 606              		.section	.gcc_except_table,"w"
 607              	LLSDA1038:
 608 0010 FF       		.byte	0xff
 609 0011 FF       		.byte	0xff
 610 0012 01       		.byte	0x1
 611 0013 02       		.uleb128 LLSDACSE1038-LLSDACSB1038
 612              	LLSDACSB1038:
 613 0014 00       		.uleb128 0
 614 0015 00       		.uleb128 0
 615              	LLSDACSE1038:
 616 0016 0000     		.text
 617              		.globl	__ZN8EmployeeD1Ev
 619              		.set	__ZN8EmployeeD1Ev,__ZN8EmployeeD2Ev
 620              		.align 2
 621              		.globl	__ZN8Employee8get_nameEv
 623              	__ZN8Employee8get_nameEv:
 624              	LFB1040:
  22:C:/Users/Njll Mrdal/3viknanamskeid/LitidVerk1/Verkefni2/Vikuverk2/src/models\Employee.cpp **** 
  23:C:/Users/Njll Mrdal/3viknanamskeid/LitidVerk1/Verkefni2/Vikuverk2/src/models\Employee.cpp **** string Employee::get_name() {
 625              		.loc 3 23 0
 626              		.cfi_startproc
 627 02dc 55       		pushl	%ebp
 628              		.cfi_def_cfa_offset 8
 629              		.cfi_offset 5, -8
 630 02dd 89E5     		movl	%esp, %ebp
 631              		.cfi_def_cfa_register 5
 632 02df 83EC28   		subl	$40, %esp
 633 02e2 894DF4   		movl	%ecx, -12(%ebp)
  24:C:/Users/Njll Mrdal/3viknanamskeid/LitidVerk1/Verkefni2/Vikuverk2/src/models\Employee.cpp ****     return _name;
 634              		.loc 3 24 0
 635 02e5 8B5508   		movl	8(%ebp), %edx
 636 02e8 8B45F4   		movl	-12(%ebp), %eax
 637 02eb 891424   		movl	%edx, (%esp)
 638 02ee 89C1     		movl	%eax, %ecx
 639 02f0 E8000000 		call	__ZNSsC1ERKSs
 639      00
 640 02f5 83EC04   		subl	$4, %esp
  25:C:/Users/Njll Mrdal/3viknanamskeid/LitidVerk1/Verkefni2/Vikuverk2/src/models\Employee.cpp **** }
 641              		.loc 3 25 0
 642 02f8 8B45F4   		movl	-12(%ebp), %eax
 643 02fb C9       		leave
 644              		.cfi_restore 5
 645              		.cfi_def_cfa 4, 4
 646 02fc C20400   		ret	$4
 647              		.cfi_endproc
 648              	LFE1040:
GAS LISTING C:\Users\NJLLMR~1\AppData\Local\Temp\ccqq7oi7.s 			page 34


 649 02ff 90       		.align 2
 650              		.globl	__ZN8Employee7get_ssnEv
 652              	__ZN8Employee7get_ssnEv:
 653              	LFB1041:
  26:C:/Users/Njll Mrdal/3viknanamskeid/LitidVerk1/Verkefni2/Vikuverk2/src/models\Employee.cpp **** 
  27:C:/Users/Njll Mrdal/3viknanamskeid/LitidVerk1/Verkefni2/Vikuverk2/src/models\Employee.cpp **** string Employee::get_ssn() {
 654              		.loc 3 27 0
 655              		.cfi_startproc
 656 0300 55       		pushl	%ebp
 657              		.cfi_def_cfa_offset 8
 658              		.cfi_offset 5, -8
 659 0301 89E5     		movl	%esp, %ebp
 660              		.cfi_def_cfa_register 5
 661 0303 83EC28   		subl	$40, %esp
 662 0306 894DF4   		movl	%ecx, -12(%ebp)
  28:C:/Users/Njll Mrdal/3viknanamskeid/LitidVerk1/Verkefni2/Vikuverk2/src/models\Employee.cpp ****     return _ssn;
 663              		.loc 3 28 0
 664 0309 8B4508   		movl	8(%ebp), %eax
 665 030c 8D5004   		leal	4(%eax), %edx
 666 030f 8B45F4   		movl	-12(%ebp), %eax
 667 0312 891424   		movl	%edx, (%esp)
 668 0315 89C1     		movl	%eax, %ecx
 669 0317 E8000000 		call	__ZNSsC1ERKSs
 669      00
 670 031c 83EC04   		subl	$4, %esp
  29:C:/Users/Njll Mrdal/3viknanamskeid/LitidVerk1/Verkefni2/Vikuverk2/src/models\Employee.cpp **** }
 671              		.loc 3 29 0
 672 031f 8B45F4   		movl	-12(%ebp), %eax
 673 0322 C9       		leave
 674              		.cfi_restore 5
 675              		.cfi_def_cfa 4, 4
 676 0323 C20400   		ret	$4
 677              		.cfi_endproc
 678              	LFE1041:
 679              		.align 2
 680              		.globl	__ZN8Employee10get_salaryEv
 682              	__ZN8Employee10get_salaryEv:
 683              	LFB1042:
  30:C:/Users/Njll Mrdal/3viknanamskeid/LitidVerk1/Verkefni2/Vikuverk2/src/models\Employee.cpp **** 
  31:C:/Users/Njll Mrdal/3viknanamskeid/LitidVerk1/Verkefni2/Vikuverk2/src/models\Employee.cpp **** int Employee::get_salary() {
 684              		.loc 3 31 0
 685              		.cfi_startproc
 686 0326 55       		pushl	%ebp
 687              		.cfi_def_cfa_offset 8
 688              		.cfi_offset 5, -8
 689 0327 89E5     		movl	%esp, %ebp
 690              		.cfi_def_cfa_register 5
 691 0329 83EC04   		subl	$4, %esp
 692 032c 894DFC   		movl	%ecx, -4(%ebp)
  32:C:/Users/Njll Mrdal/3viknanamskeid/LitidVerk1/Verkefni2/Vikuverk2/src/models\Employee.cpp ****     return _salary;
 693              		.loc 3 32 0
 694 032f 8B45FC   		movl	-4(%ebp), %eax
 695 0332 8B4008   		movl	8(%eax), %eax
  33:C:/Users/Njll Mrdal/3viknanamskeid/LitidVerk1/Verkefni2/Vikuverk2/src/models\Employee.cpp **** }
 696              		.loc 3 33 0
 697 0335 C9       		leave
 698              		.cfi_restore 5
GAS LISTING C:\Users\NJLLMR~1\AppData\Local\Temp\ccqq7oi7.s 			page 35


 699              		.cfi_def_cfa 4, 4
 700 0336 C3       		ret
 701              		.cfi_endproc
 702              	LFE1042:
 703 0337 90       		.align 2
 704              		.globl	__ZN8Employee9get_monthEv
 706              	__ZN8Employee9get_monthEv:
 707              	LFB1043:
  34:C:/Users/Njll Mrdal/3viknanamskeid/LitidVerk1/Verkefni2/Vikuverk2/src/models\Employee.cpp **** 
  35:C:/Users/Njll Mrdal/3viknanamskeid/LitidVerk1/Verkefni2/Vikuverk2/src/models\Employee.cpp **** int Employee::get_month() {
 708              		.loc 3 35 0
 709              		.cfi_startproc
 710 0338 55       		pushl	%ebp
 711              		.cfi_def_cfa_offset 8
 712              		.cfi_offset 5, -8
 713 0339 89E5     		movl	%esp, %ebp
 714              		.cfi_def_cfa_register 5
 715 033b 83EC04   		subl	$4, %esp
 716 033e 894DFC   		movl	%ecx, -4(%ebp)
  36:C:/Users/Njll Mrdal/3viknanamskeid/LitidVerk1/Verkefni2/Vikuverk2/src/models\Employee.cpp ****     return _month;
 717              		.loc 3 36 0
 718 0341 8B45FC   		movl	-4(%ebp), %eax
 719 0344 8B400C   		movl	12(%eax), %eax
  37:C:/Users/Njll Mrdal/3viknanamskeid/LitidVerk1/Verkefni2/Vikuverk2/src/models\Employee.cpp **** }
 720              		.loc 3 37 0
 721 0347 C9       		leave
 722              		.cfi_restore 5
 723              		.cfi_def_cfa 4, 4
 724 0348 C3       		ret
 725              		.cfi_endproc
 726              	LFE1043:
 727 0349 90       		.align 2
 728              		.globl	__ZN8Employee8get_yearEv
 730              	__ZN8Employee8get_yearEv:
 731              	LFB1044:
  38:C:/Users/Njll Mrdal/3viknanamskeid/LitidVerk1/Verkefni2/Vikuverk2/src/models\Employee.cpp **** 
  39:C:/Users/Njll Mrdal/3viknanamskeid/LitidVerk1/Verkefni2/Vikuverk2/src/models\Employee.cpp **** int Employee::get_year() {
 732              		.loc 3 39 0
 733              		.cfi_startproc
 734 034a 55       		pushl	%ebp
 735              		.cfi_def_cfa_offset 8
 736              		.cfi_offset 5, -8
 737 034b 89E5     		movl	%esp, %ebp
 738              		.cfi_def_cfa_register 5
 739 034d 83EC04   		subl	$4, %esp
 740 0350 894DFC   		movl	%ecx, -4(%ebp)
  40:C:/Users/Njll Mrdal/3viknanamskeid/LitidVerk1/Verkefni2/Vikuverk2/src/models\Employee.cpp ****     return _year;
 741              		.loc 3 40 0
 742 0353 8B45FC   		movl	-4(%ebp), %eax
 743 0356 8B4010   		movl	16(%eax), %eax
  41:C:/Users/Njll Mrdal/3viknanamskeid/LitidVerk1/Verkefni2/Vikuverk2/src/models\Employee.cpp **** }
 744              		.loc 3 41 0
 745 0359 C9       		leave
 746              		.cfi_restore 5
 747              		.cfi_def_cfa 4, 4
 748 035a C3       		ret
 749              		.cfi_endproc
GAS LISTING C:\Users\NJLLMR~1\AppData\Local\Temp\ccqq7oi7.s 			page 36


 750              	LFE1044:
 751              		.section .rdata,"dr"
 752              	LC1:
 753 0001 4E616D65 		.ascii "Name: \0"
 753      3A2000
 754              	LC2:
 755 0008 536F6369 		.ascii "Social Security Number: \0"
 755      616C2053 
 755      65637572 
 755      69747920 
 755      4E756D62 
 756              	LC3:
 757 0021 53616C61 		.ascii "Salary: \0"
 757      72793A20 
 757      00
 758              	LC4:
 759 002a 2E6B7200 		.ascii ".kr\0"
 760              	LC5:
 761 002e 4D6F6E74 		.ascii "Month: \0"
 761      683A2000 
 762              	LC6:
 763 0036 3000     		.ascii "0\0"
 764              	LC7:
 765 0038 59656172 		.ascii "Year: \0"
 765      3A2000
 766 003f 00       		.text
 767              		.globl	__ZlsRSoR8Employee
 769              	__ZlsRSoR8Employee:
 770              	LFB1045:
  42:C:/Users/Njll Mrdal/3viknanamskeid/LitidVerk1/Verkefni2/Vikuverk2/src/models\Employee.cpp **** 
  43:C:/Users/Njll Mrdal/3viknanamskeid/LitidVerk1/Verkefni2/Vikuverk2/src/models\Employee.cpp **** ostream& operator << (ostream& out, Employee& employee) {
 771              		.loc 3 43 0
 772              		.cfi_startproc
 773 035b 55       		pushl	%ebp
 774              		.cfi_def_cfa_offset 8
 775              		.cfi_offset 5, -8
 776 035c 89E5     		movl	%esp, %ebp
 777              		.cfi_def_cfa_register 5
 778 035e 56       		pushl	%esi
 779 035f 53       		pushl	%ebx
 780 0360 83EC10   		subl	$16, %esp
 781              		.cfi_offset 6, -12
 782              		.cfi_offset 3, -16
  44:C:/Users/Njll Mrdal/3viknanamskeid/LitidVerk1/Verkefni2/Vikuverk2/src/models\Employee.cpp ****     out << "Name: " << employee._name << endl;
 783              		.loc 3 44 0
 784 0363 8B5D0C   		movl	12(%ebp), %ebx
 785 0366 C7442404 		movl	$LC1, 4(%esp)
 785      01000000 
 786 036e 8B4508   		movl	8(%ebp), %eax
 787 0371 890424   		movl	%eax, (%esp)
 788 0374 E8000000 		call	__ZStlsISt11char_traitsIcEERSt13basic_ostreamIcT_ES5_PKc
 788      00
 789 0379 895C2404 		movl	%ebx, 4(%esp)
 790 037d 890424   		movl	%eax, (%esp)
 791 0380 E8000000 		call	__ZStlsIcSt11char_traitsIcESaIcEERSt13basic_ostreamIT_T0_ES7_RKSbIS4_S5_T1_E
 791      00
 792 0385 C7042400 		movl	$__ZSt4endlIcSt11char_traitsIcEERSt13basic_ostreamIT_T0_ES6_, (%esp)
GAS LISTING C:\Users\NJLLMR~1\AppData\Local\Temp\ccqq7oi7.s 			page 37


 792      000000
 793 038c 89C1     		movl	%eax, %ecx
 794 038e E8000000 		call	__ZNSolsEPFRSoS_E
 794      00
 795 0393 83EC04   		subl	$4, %esp
  45:C:/Users/Njll Mrdal/3viknanamskeid/LitidVerk1/Verkefni2/Vikuverk2/src/models\Employee.cpp ****     out << "Social Security Number: " << employee._ssn << endl;
 796              		.loc 3 45 0
 797 0396 8B450C   		movl	12(%ebp), %eax
 798 0399 8D5804   		leal	4(%eax), %ebx
 799 039c C7442404 		movl	$LC2, 4(%esp)
 799      08000000 
 800 03a4 8B4508   		movl	8(%ebp), %eax
 801 03a7 890424   		movl	%eax, (%esp)
 802 03aa E8000000 		call	__ZStlsISt11char_traitsIcEERSt13basic_ostreamIcT_ES5_PKc
 802      00
 803 03af 895C2404 		movl	%ebx, 4(%esp)
 804 03b3 890424   		movl	%eax, (%esp)
 805 03b6 E8000000 		call	__ZStlsIcSt11char_traitsIcESaIcEERSt13basic_ostreamIT_T0_ES7_RKSbIS4_S5_T1_E
 805      00
 806 03bb C7042400 		movl	$__ZSt4endlIcSt11char_traitsIcEERSt13basic_ostreamIT_T0_ES6_, (%esp)
 806      000000
 807 03c2 89C1     		movl	%eax, %ecx
 808 03c4 E8000000 		call	__ZNSolsEPFRSoS_E
 808      00
 809 03c9 83EC04   		subl	$4, %esp
  46:C:/Users/Njll Mrdal/3viknanamskeid/LitidVerk1/Verkefni2/Vikuverk2/src/models\Employee.cpp ****     out << std::fixed << setprecision(2) << "Salary: " << employee._salary << ".kr" << endl;
 810              		.loc 3 46 0
 811 03cc 8B450C   		movl	12(%ebp), %eax
 812 03cf 8B5808   		movl	8(%eax), %ebx
 813 03d2 C7042402 		movl	$2, (%esp)
 813      000000
 814 03d9 E8000000 		call	__ZSt12setprecisioni
 814      00
 815 03de 89C6     		movl	%eax, %esi
 816 03e0 C7042400 		movl	$__ZSt5fixedRSt8ios_base, (%esp)
 816      000000
 817 03e7 8B4D08   		movl	8(%ebp), %ecx
 818 03ea E8000000 		call	__ZNSolsEPFRSt8ios_baseS0_E
 818      00
 819 03ef 83EC04   		subl	$4, %esp
 820 03f2 89742404 		movl	%esi, 4(%esp)
 821 03f6 890424   		movl	%eax, (%esp)
 822 03f9 E8000000 		call	__ZStlsIcSt11char_traitsIcEERSt13basic_ostreamIT_T0_ES6_St13_Setprecision
 822      00
 823 03fe C7442404 		movl	$LC3, 4(%esp)
 823      21000000 
 824 0406 890424   		movl	%eax, (%esp)
 825 0409 E8000000 		call	__ZStlsISt11char_traitsIcEERSt13basic_ostreamIcT_ES5_PKc
 825      00
 826 040e 891C24   		movl	%ebx, (%esp)
 827 0411 89C1     		movl	%eax, %ecx
 828 0413 E8000000 		call	__ZNSolsEi
 828      00
 829 0418 83EC04   		subl	$4, %esp
 830 041b C7442404 		movl	$LC4, 4(%esp)
 830      2A000000 
 831 0423 890424   		movl	%eax, (%esp)
GAS LISTING C:\Users\NJLLMR~1\AppData\Local\Temp\ccqq7oi7.s 			page 38


 832 0426 E8000000 		call	__ZStlsISt11char_traitsIcEERSt13basic_ostreamIcT_ES5_PKc
 832      00
 833 042b C7042400 		movl	$__ZSt4endlIcSt11char_traitsIcEERSt13basic_ostreamIT_T0_ES6_, (%esp)
 833      000000
 834 0432 89C1     		movl	%eax, %ecx
 835 0434 E8000000 		call	__ZNSolsEPFRSoS_E
 835      00
 836 0439 83EC04   		subl	$4, %esp
  47:C:/Users/Njll Mrdal/3viknanamskeid/LitidVerk1/Verkefni2/Vikuverk2/src/models\Employee.cpp ****     if(employee._month < 10) {
 837              		.loc 3 47 0
 838 043c 8B450C   		movl	12(%ebp), %eax
 839 043f 8B400C   		movl	12(%eax), %eax
 840 0442 83F809   		cmpl	$9, %eax
 841 0445 7F49     		jg	L48
  48:C:/Users/Njll Mrdal/3viknanamskeid/LitidVerk1/Verkefni2/Vikuverk2/src/models\Employee.cpp ****         out << "Month: " << "0" << employee._month << endl;
 842              		.loc 3 48 0
 843 0447 8B450C   		movl	12(%ebp), %eax
 844 044a 8B580C   		movl	12(%eax), %ebx
 845 044d C7442404 		movl	$LC5, 4(%esp)
 845      2E000000 
 846 0455 8B4508   		movl	8(%ebp), %eax
 847 0458 890424   		movl	%eax, (%esp)
 848 045b E8000000 		call	__ZStlsISt11char_traitsIcEERSt13basic_ostreamIcT_ES5_PKc
 848      00
 849 0460 C7442404 		movl	$LC6, 4(%esp)
 849      36000000 
 850 0468 890424   		movl	%eax, (%esp)
 851 046b E8000000 		call	__ZStlsISt11char_traitsIcEERSt13basic_ostreamIcT_ES5_PKc
 851      00
 852 0470 891C24   		movl	%ebx, (%esp)
 853 0473 89C1     		movl	%eax, %ecx
 854 0475 E8000000 		call	__ZNSolsEi
 854      00
 855 047a 83EC04   		subl	$4, %esp
 856 047d C7042400 		movl	$__ZSt4endlIcSt11char_traitsIcEERSt13basic_ostreamIT_T0_ES6_, (%esp)
 856      000000
 857 0484 89C1     		movl	%eax, %ecx
 858 0486 E8000000 		call	__ZNSolsEPFRSoS_E
 858      00
 859 048b 83EC04   		subl	$4, %esp
 860 048e EB37     		jmp	L49
 861              	L48:
  49:C:/Users/Njll Mrdal/3viknanamskeid/LitidVerk1/Verkefni2/Vikuverk2/src/models\Employee.cpp ****     }
  50:C:/Users/Njll Mrdal/3viknanamskeid/LitidVerk1/Verkefni2/Vikuverk2/src/models\Employee.cpp ****     else {
  51:C:/Users/Njll Mrdal/3viknanamskeid/LitidVerk1/Verkefni2/Vikuverk2/src/models\Employee.cpp ****         out << "Month: " << employee._month << endl;
 862              		.loc 3 51 0
 863 0490 8B450C   		movl	12(%ebp), %eax
 864 0493 8B580C   		movl	12(%eax), %ebx
 865 0496 C7442404 		movl	$LC5, 4(%esp)
 865      2E000000 
 866 049e 8B4508   		movl	8(%ebp), %eax
 867 04a1 890424   		movl	%eax, (%esp)
 868 04a4 E8000000 		call	__ZStlsISt11char_traitsIcEERSt13basic_ostreamIcT_ES5_PKc
 868      00
 869 04a9 891C24   		movl	%ebx, (%esp)
 870 04ac 89C1     		movl	%eax, %ecx
 871 04ae E8000000 		call	__ZNSolsEi
GAS LISTING C:\Users\NJLLMR~1\AppData\Local\Temp\ccqq7oi7.s 			page 39


 871      00
 872 04b3 83EC04   		subl	$4, %esp
 873 04b6 C7042400 		movl	$__ZSt4endlIcSt11char_traitsIcEERSt13basic_ostreamIT_T0_ES6_, (%esp)
 873      000000
 874 04bd 89C1     		movl	%eax, %ecx
 875 04bf E8000000 		call	__ZNSolsEPFRSoS_E
 875      00
 876 04c4 83EC04   		subl	$4, %esp
 877              	L49:
  52:C:/Users/Njll Mrdal/3viknanamskeid/LitidVerk1/Verkefni2/Vikuverk2/src/models\Employee.cpp ****     }
  53:C:/Users/Njll Mrdal/3viknanamskeid/LitidVerk1/Verkefni2/Vikuverk2/src/models\Employee.cpp ****     out << "Year: " << employee._year << endl;
 878              		.loc 3 53 0
 879 04c7 8B450C   		movl	12(%ebp), %eax
 880 04ca 8B5810   		movl	16(%eax), %ebx
 881 04cd C7442404 		movl	$LC7, 4(%esp)
 881      38000000 
 882 04d5 8B4508   		movl	8(%ebp), %eax
 883 04d8 890424   		movl	%eax, (%esp)
 884 04db E8000000 		call	__ZStlsISt11char_traitsIcEERSt13basic_ostreamIcT_ES5_PKc
 884      00
 885 04e0 891C24   		movl	%ebx, (%esp)
 886 04e3 89C1     		movl	%eax, %ecx
 887 04e5 E8000000 		call	__ZNSolsEi
 887      00
 888 04ea 83EC04   		subl	$4, %esp
 889 04ed C7042400 		movl	$__ZSt4endlIcSt11char_traitsIcEERSt13basic_ostreamIT_T0_ES6_, (%esp)
 889      000000
 890 04f4 89C1     		movl	%eax, %ecx
 891 04f6 E8000000 		call	__ZNSolsEPFRSoS_E
 891      00
 892 04fb 83EC04   		subl	$4, %esp
  54:C:/Users/Njll Mrdal/3viknanamskeid/LitidVerk1/Verkefni2/Vikuverk2/src/models\Employee.cpp **** 
  55:C:/Users/Njll Mrdal/3viknanamskeid/LitidVerk1/Verkefni2/Vikuverk2/src/models\Employee.cpp ****     return out;
 893              		.loc 3 55 0
 894 04fe 8B4508   		movl	8(%ebp), %eax
  56:C:/Users/Njll Mrdal/3viknanamskeid/LitidVerk1/Verkefni2/Vikuverk2/src/models\Employee.cpp **** }
 895              		.loc 3 56 0
 896 0501 8D65F8   		leal	-8(%ebp), %esp
 897 0504 5B       		popl	%ebx
 898              		.cfi_restore 3
 899 0505 5E       		popl	%esi
 900              		.cfi_restore 6
 901 0506 5D       		popl	%ebp
 902              		.cfi_restore 5
 903              		.cfi_def_cfa 4, 4
 904 0507 C3       		ret
 905              		.cfi_endproc
 906              	LFE1045:
 907              		.globl	__ZrsRSiR8Employee
 909              	__ZrsRSiR8Employee:
 910              	LFB1046:
  57:C:/Users/Njll Mrdal/3viknanamskeid/LitidVerk1/Verkefni2/Vikuverk2/src/models\Employee.cpp **** 
  58:C:/Users/Njll Mrdal/3viknanamskeid/LitidVerk1/Verkefni2/Vikuverk2/src/models\Employee.cpp **** istream& operator >> (istream& in, Employee& employee) {
 911              		.loc 3 58 0
 912              		.cfi_startproc
 913 0508 55       		pushl	%ebp
 914              		.cfi_def_cfa_offset 8
GAS LISTING C:\Users\NJLLMR~1\AppData\Local\Temp\ccqq7oi7.s 			page 40


 915              		.cfi_offset 5, -8
 916 0509 89E5     		movl	%esp, %ebp
 917              		.cfi_def_cfa_register 5
 918 050b 83EC18   		subl	$24, %esp
  59:C:/Users/Njll Mrdal/3viknanamskeid/LitidVerk1/Verkefni2/Vikuverk2/src/models\Employee.cpp ****     cout << "Name: ";
 919              		.loc 3 59 0
 920 050e C7442404 		movl	$LC1, 4(%esp)
 920      01000000 
 921 0516 C7042400 		movl	$__ZSt4cout, (%esp)
 921      000000
 922 051d E8000000 		call	__ZStlsISt11char_traitsIcEERSt13basic_ostreamIcT_ES5_PKc
 922      00
  60:C:/Users/Njll Mrdal/3viknanamskeid/LitidVerk1/Verkefni2/Vikuverk2/src/models\Employee.cpp ****     in >> employee._name;
 923              		.loc 3 60 0
 924 0522 8B450C   		movl	12(%ebp), %eax
 925 0525 89442404 		movl	%eax, 4(%esp)
 926 0529 8B4508   		movl	8(%ebp), %eax
 927 052c 890424   		movl	%eax, (%esp)
 928 052f E8000000 		call	__ZStrsIcSt11char_traitsIcESaIcEERSt13basic_istreamIT_T0_ES7_RSbIS4_S5_T1_E
 928      00
  61:C:/Users/Njll Mrdal/3viknanamskeid/LitidVerk1/Verkefni2/Vikuverk2/src/models\Employee.cpp ****     cout << "Social Security Number: ";
 929              		.loc 3 61 0
 930 0534 C7442404 		movl	$LC2, 4(%esp)
 930      08000000 
 931 053c C7042400 		movl	$__ZSt4cout, (%esp)
 931      000000
 932 0543 E8000000 		call	__ZStlsISt11char_traitsIcEERSt13basic_ostreamIcT_ES5_PKc
 932      00
  62:C:/Users/Njll Mrdal/3viknanamskeid/LitidVerk1/Verkefni2/Vikuverk2/src/models\Employee.cpp ****     in >> employee._ssn;
 933              		.loc 3 62 0
 934 0548 8B450C   		movl	12(%ebp), %eax
 935 054b 83C004   		addl	$4, %eax
 936 054e 89442404 		movl	%eax, 4(%esp)
 937 0552 8B4508   		movl	8(%ebp), %eax
 938 0555 890424   		movl	%eax, (%esp)
 939 0558 E8000000 		call	__ZStrsIcSt11char_traitsIcESaIcEERSt13basic_istreamIT_T0_ES7_RSbIS4_S5_T1_E
 939      00
  63:C:/Users/Njll Mrdal/3viknanamskeid/LitidVerk1/Verkefni2/Vikuverk2/src/models\Employee.cpp ****     cout << "Salary: ";
 940              		.loc 3 63 0
 941 055d C7442404 		movl	$LC3, 4(%esp)
 941      21000000 
 942 0565 C7042400 		movl	$__ZSt4cout, (%esp)
 942      000000
 943 056c E8000000 		call	__ZStlsISt11char_traitsIcEERSt13basic_ostreamIcT_ES5_PKc
 943      00
  64:C:/Users/Njll Mrdal/3viknanamskeid/LitidVerk1/Verkefni2/Vikuverk2/src/models\Employee.cpp ****     in >> employee._salary;
 944              		.loc 3 64 0
 945 0571 8B450C   		movl	12(%ebp), %eax
 946 0574 83C008   		addl	$8, %eax
 947 0577 890424   		movl	%eax, (%esp)
 948 057a 8B4D08   		movl	8(%ebp), %ecx
 949 057d E8000000 		call	__ZNSirsERi
 949      00
 950 0582 83EC04   		subl	$4, %esp
  65:C:/Users/Njll Mrdal/3viknanamskeid/LitidVerk1/Verkefni2/Vikuverk2/src/models\Employee.cpp ****     cout << "Month: ";
 951              		.loc 3 65 0
 952 0585 C7442404 		movl	$LC5, 4(%esp)
GAS LISTING C:\Users\NJLLMR~1\AppData\Local\Temp\ccqq7oi7.s 			page 41


 952      2E000000 
 953 058d C7042400 		movl	$__ZSt4cout, (%esp)
 953      000000
 954 0594 E8000000 		call	__ZStlsISt11char_traitsIcEERSt13basic_ostreamIcT_ES5_PKc
 954      00
  66:C:/Users/Njll Mrdal/3viknanamskeid/LitidVerk1/Verkefni2/Vikuverk2/src/models\Employee.cpp ****     in >> employee._month;
 955              		.loc 3 66 0
 956 0599 8B450C   		movl	12(%ebp), %eax
 957 059c 83C00C   		addl	$12, %eax
 958 059f 890424   		movl	%eax, (%esp)
 959 05a2 8B4D08   		movl	8(%ebp), %ecx
 960 05a5 E8000000 		call	__ZNSirsERi
 960      00
 961 05aa 83EC04   		subl	$4, %esp
  67:C:/Users/Njll Mrdal/3viknanamskeid/LitidVerk1/Verkefni2/Vikuverk2/src/models\Employee.cpp ****     cout << "Year: ";
 962              		.loc 3 67 0
 963 05ad C7442404 		movl	$LC7, 4(%esp)
 963      38000000 
 964 05b5 C7042400 		movl	$__ZSt4cout, (%esp)
 964      000000
 965 05bc E8000000 		call	__ZStlsISt11char_traitsIcEERSt13basic_ostreamIcT_ES5_PKc
 965      00
  68:C:/Users/Njll Mrdal/3viknanamskeid/LitidVerk1/Verkefni2/Vikuverk2/src/models\Employee.cpp ****     in >> employee._year;
 966              		.loc 3 68 0
 967 05c1 8B450C   		movl	12(%ebp), %eax
 968 05c4 83C010   		addl	$16, %eax
 969 05c7 890424   		movl	%eax, (%esp)
 970 05ca 8B4D08   		movl	8(%ebp), %ecx
 971 05cd E8000000 		call	__ZNSirsERi
 971      00
 972 05d2 83EC04   		subl	$4, %esp
  69:C:/Users/Njll Mrdal/3viknanamskeid/LitidVerk1/Verkefni2/Vikuverk2/src/models\Employee.cpp **** 
  70:C:/Users/Njll Mrdal/3viknanamskeid/LitidVerk1/Verkefni2/Vikuverk2/src/models\Employee.cpp ****     return in;
 973              		.loc 3 70 0
 974 05d5 8B4508   		movl	8(%ebp), %eax
  71:C:/Users/Njll Mrdal/3viknanamskeid/LitidVerk1/Verkefni2/Vikuverk2/src/models\Employee.cpp **** }
 975              		.loc 3 71 0
 976 05d8 C9       		leave
 977              		.cfi_restore 5
 978              		.cfi_def_cfa 4, 4
 979 05d9 C3       		ret
 980              		.cfi_endproc
 981              	LFE1046:
 983              	___tcf_0:
 984              	LFB1098:
 985              		.file 4 "C:/Program Files (x86)/CodeBlocks/MinGW/lib/gcc/mingw32/4.9.2/include/c++/iostream"
   1:C:/Program Files (x86)/CodeBlocks/MinGW/lib/gcc/mingw32/4.9.2/include/c++\iostream **** // Standard iostream objects -*- C++ -*-
   2:C:/Program Files (x86)/CodeBlocks/MinGW/lib/gcc/mingw32/4.9.2/include/c++\iostream **** 
   3:C:/Program Files (x86)/CodeBlocks/MinGW/lib/gcc/mingw32/4.9.2/include/c++\iostream **** // Copyright (C) 1997-2014 Free Software Foundation, Inc.
   4:C:/Program Files (x86)/CodeBlocks/MinGW/lib/gcc/mingw32/4.9.2/include/c++\iostream **** //
   5:C:/Program Files (x86)/CodeBlocks/MinGW/lib/gcc/mingw32/4.9.2/include/c++\iostream **** // This file is part of the GNU ISO C++ Library.  This library is free
   6:C:/Program Files (x86)/CodeBlocks/MinGW/lib/gcc/mingw32/4.9.2/include/c++\iostream **** // software; you can redistribute it and/or modify it under the
   7:C:/Program Files (x86)/CodeBlocks/MinGW/lib/gcc/mingw32/4.9.2/include/c++\iostream **** // terms of the GNU General Public License as published by the
   8:C:/Program Files (x86)/CodeBlocks/MinGW/lib/gcc/mingw32/4.9.2/include/c++\iostream **** // Free Software Foundation; either version 3, or (at your option)
   9:C:/Program Files (x86)/CodeBlocks/MinGW/lib/gcc/mingw32/4.9.2/include/c++\iostream **** // any later version.
  10:C:/Program Files (x86)/CodeBlocks/MinGW/lib/gcc/mingw32/4.9.2/include/c++\iostream **** 
  11:C:/Program Files (x86)/CodeBlocks/MinGW/lib/gcc/mingw32/4.9.2/include/c++\iostream **** // This library is distributed in the hope that it will be useful,
GAS LISTING C:\Users\NJLLMR~1\AppData\Local\Temp\ccqq7oi7.s 			page 42


  12:C:/Program Files (x86)/CodeBlocks/MinGW/lib/gcc/mingw32/4.9.2/include/c++\iostream **** // but WITHOUT ANY WARRANTY; without even the implied warranty of
  13:C:/Program Files (x86)/CodeBlocks/MinGW/lib/gcc/mingw32/4.9.2/include/c++\iostream **** // MERCHANTABILITY or FITNESS FOR A PARTICULAR PURPOSE.  See the
  14:C:/Program Files (x86)/CodeBlocks/MinGW/lib/gcc/mingw32/4.9.2/include/c++\iostream **** // GNU General Public License for more details.
  15:C:/Program Files (x86)/CodeBlocks/MinGW/lib/gcc/mingw32/4.9.2/include/c++\iostream **** 
  16:C:/Program Files (x86)/CodeBlocks/MinGW/lib/gcc/mingw32/4.9.2/include/c++\iostream **** // Under Section 7 of GPL version 3, you are granted additional
  17:C:/Program Files (x86)/CodeBlocks/MinGW/lib/gcc/mingw32/4.9.2/include/c++\iostream **** // permissions described in the GCC Runtime Library Exception, version
  18:C:/Program Files (x86)/CodeBlocks/MinGW/lib/gcc/mingw32/4.9.2/include/c++\iostream **** // 3.1, as published by the Free Software Foundation.
  19:C:/Program Files (x86)/CodeBlocks/MinGW/lib/gcc/mingw32/4.9.2/include/c++\iostream **** 
  20:C:/Program Files (x86)/CodeBlocks/MinGW/lib/gcc/mingw32/4.9.2/include/c++\iostream **** // You should have received a copy of the GNU General Public License and
  21:C:/Program Files (x86)/CodeBlocks/MinGW/lib/gcc/mingw32/4.9.2/include/c++\iostream **** // a copy of the GCC Runtime Library Exception along with this program;
  22:C:/Program Files (x86)/CodeBlocks/MinGW/lib/gcc/mingw32/4.9.2/include/c++\iostream **** // see the files COPYING3 and COPYING.RUNTIME respectively.  If not, see
  23:C:/Program Files (x86)/CodeBlocks/MinGW/lib/gcc/mingw32/4.9.2/include/c++\iostream **** // <http://www.gnu.org/licenses/>.
  24:C:/Program Files (x86)/CodeBlocks/MinGW/lib/gcc/mingw32/4.9.2/include/c++\iostream **** 
  25:C:/Program Files (x86)/CodeBlocks/MinGW/lib/gcc/mingw32/4.9.2/include/c++\iostream **** /** @file include/iostream
  26:C:/Program Files (x86)/CodeBlocks/MinGW/lib/gcc/mingw32/4.9.2/include/c++\iostream ****  *  This is a Standard C++ Library header.
  27:C:/Program Files (x86)/CodeBlocks/MinGW/lib/gcc/mingw32/4.9.2/include/c++\iostream ****  */
  28:C:/Program Files (x86)/CodeBlocks/MinGW/lib/gcc/mingw32/4.9.2/include/c++\iostream **** 
  29:C:/Program Files (x86)/CodeBlocks/MinGW/lib/gcc/mingw32/4.9.2/include/c++\iostream **** //
  30:C:/Program Files (x86)/CodeBlocks/MinGW/lib/gcc/mingw32/4.9.2/include/c++\iostream **** // ISO C++ 14882: 27.3  Standard iostream objects
  31:C:/Program Files (x86)/CodeBlocks/MinGW/lib/gcc/mingw32/4.9.2/include/c++\iostream **** //
  32:C:/Program Files (x86)/CodeBlocks/MinGW/lib/gcc/mingw32/4.9.2/include/c++\iostream **** 
  33:C:/Program Files (x86)/CodeBlocks/MinGW/lib/gcc/mingw32/4.9.2/include/c++\iostream **** #ifndef _GLIBCXX_IOSTREAM
  34:C:/Program Files (x86)/CodeBlocks/MinGW/lib/gcc/mingw32/4.9.2/include/c++\iostream **** #define _GLIBCXX_IOSTREAM 1
  35:C:/Program Files (x86)/CodeBlocks/MinGW/lib/gcc/mingw32/4.9.2/include/c++\iostream **** 
  36:C:/Program Files (x86)/CodeBlocks/MinGW/lib/gcc/mingw32/4.9.2/include/c++\iostream **** #pragma GCC system_header
  37:C:/Program Files (x86)/CodeBlocks/MinGW/lib/gcc/mingw32/4.9.2/include/c++\iostream **** 
  38:C:/Program Files (x86)/CodeBlocks/MinGW/lib/gcc/mingw32/4.9.2/include/c++\iostream **** #include <bits/c++config.h>
  39:C:/Program Files (x86)/CodeBlocks/MinGW/lib/gcc/mingw32/4.9.2/include/c++\iostream **** #include <ostream>
  40:C:/Program Files (x86)/CodeBlocks/MinGW/lib/gcc/mingw32/4.9.2/include/c++\iostream **** #include <istream>
  41:C:/Program Files (x86)/CodeBlocks/MinGW/lib/gcc/mingw32/4.9.2/include/c++\iostream **** 
  42:C:/Program Files (x86)/CodeBlocks/MinGW/lib/gcc/mingw32/4.9.2/include/c++\iostream **** namespace std _GLIBCXX_VISIBILITY(default)
  43:C:/Program Files (x86)/CodeBlocks/MinGW/lib/gcc/mingw32/4.9.2/include/c++\iostream **** {
  44:C:/Program Files (x86)/CodeBlocks/MinGW/lib/gcc/mingw32/4.9.2/include/c++\iostream **** _GLIBCXX_BEGIN_NAMESPACE_VERSION
  45:C:/Program Files (x86)/CodeBlocks/MinGW/lib/gcc/mingw32/4.9.2/include/c++\iostream **** 
  46:C:/Program Files (x86)/CodeBlocks/MinGW/lib/gcc/mingw32/4.9.2/include/c++\iostream ****   /**
  47:C:/Program Files (x86)/CodeBlocks/MinGW/lib/gcc/mingw32/4.9.2/include/c++\iostream ****    *  @name Standard Stream Objects
  48:C:/Program Files (x86)/CodeBlocks/MinGW/lib/gcc/mingw32/4.9.2/include/c++\iostream ****    *
  49:C:/Program Files (x86)/CodeBlocks/MinGW/lib/gcc/mingw32/4.9.2/include/c++\iostream ****    *  The &lt;iostream&gt; header declares the eight <em>standard stream
  50:C:/Program Files (x86)/CodeBlocks/MinGW/lib/gcc/mingw32/4.9.2/include/c++\iostream ****    *  objects</em>.  For other declarations, see
  51:C:/Program Files (x86)/CodeBlocks/MinGW/lib/gcc/mingw32/4.9.2/include/c++\iostream ****    *  http://gcc.gnu.org/onlinedocs/libstdc++/manual/io.html
  52:C:/Program Files (x86)/CodeBlocks/MinGW/lib/gcc/mingw32/4.9.2/include/c++\iostream ****    *  and the @link iosfwd I/O forward declarations @endlink
  53:C:/Program Files (x86)/CodeBlocks/MinGW/lib/gcc/mingw32/4.9.2/include/c++\iostream ****    *
  54:C:/Program Files (x86)/CodeBlocks/MinGW/lib/gcc/mingw32/4.9.2/include/c++\iostream ****    *  They are required by default to cooperate with the global C
  55:C:/Program Files (x86)/CodeBlocks/MinGW/lib/gcc/mingw32/4.9.2/include/c++\iostream ****    *  library's @c FILE streams, and to be available during program
  56:C:/Program Files (x86)/CodeBlocks/MinGW/lib/gcc/mingw32/4.9.2/include/c++\iostream ****    *  startup and termination. For more information, see the section of the
  57:C:/Program Files (x86)/CodeBlocks/MinGW/lib/gcc/mingw32/4.9.2/include/c++\iostream ****    *  manual linked to above.
  58:C:/Program Files (x86)/CodeBlocks/MinGW/lib/gcc/mingw32/4.9.2/include/c++\iostream ****   */
  59:C:/Program Files (x86)/CodeBlocks/MinGW/lib/gcc/mingw32/4.9.2/include/c++\iostream ****   //@{
  60:C:/Program Files (x86)/CodeBlocks/MinGW/lib/gcc/mingw32/4.9.2/include/c++\iostream ****   extern istream cin;		/// Linked to standard input
  61:C:/Program Files (x86)/CodeBlocks/MinGW/lib/gcc/mingw32/4.9.2/include/c++\iostream ****   extern ostream cout;		/// Linked to standard output
  62:C:/Program Files (x86)/CodeBlocks/MinGW/lib/gcc/mingw32/4.9.2/include/c++\iostream ****   extern ostream cerr;		/// Linked to standard error (unbuffered)
  63:C:/Program Files (x86)/CodeBlocks/MinGW/lib/gcc/mingw32/4.9.2/include/c++\iostream ****   extern ostream clog;		/// Linked to standard error (buffered)
  64:C:/Program Files (x86)/CodeBlocks/MinGW/lib/gcc/mingw32/4.9.2/include/c++\iostream **** 
  65:C:/Program Files (x86)/CodeBlocks/MinGW/lib/gcc/mingw32/4.9.2/include/c++\iostream **** #ifdef _GLIBCXX_USE_WCHAR_T
  66:C:/Program Files (x86)/CodeBlocks/MinGW/lib/gcc/mingw32/4.9.2/include/c++\iostream ****   extern wistream wcin;		/// Linked to standard input
  67:C:/Program Files (x86)/CodeBlocks/MinGW/lib/gcc/mingw32/4.9.2/include/c++\iostream ****   extern wostream wcout;	/// Linked to standard output
  68:C:/Program Files (x86)/CodeBlocks/MinGW/lib/gcc/mingw32/4.9.2/include/c++\iostream ****   extern wostream wcerr;	/// Linked to standard error (unbuffered)
GAS LISTING C:\Users\NJLLMR~1\AppData\Local\Temp\ccqq7oi7.s 			page 43


  69:C:/Program Files (x86)/CodeBlocks/MinGW/lib/gcc/mingw32/4.9.2/include/c++\iostream ****   extern wostream wclog;	/// Linked to standard error (buffered)
  70:C:/Program Files (x86)/CodeBlocks/MinGW/lib/gcc/mingw32/4.9.2/include/c++\iostream **** #endif
  71:C:/Program Files (x86)/CodeBlocks/MinGW/lib/gcc/mingw32/4.9.2/include/c++\iostream ****   //@}
  72:C:/Program Files (x86)/CodeBlocks/MinGW/lib/gcc/mingw32/4.9.2/include/c++\iostream **** 
  73:C:/Program Files (x86)/CodeBlocks/MinGW/lib/gcc/mingw32/4.9.2/include/c++\iostream ****   // For construction of filebuffers for cout, cin, cerr, clog et. al.
  74:C:/Program Files (x86)/CodeBlocks/MinGW/lib/gcc/mingw32/4.9.2/include/c++\iostream ****   static ios_base::Init __ioinit;
 986              		.loc 4 74 0
 987              		.cfi_startproc
 988 05da 55       		pushl	%ebp
 989              		.cfi_def_cfa_offset 8
 990              		.cfi_offset 5, -8
 991 05db 89E5     		movl	%esp, %ebp
 992              		.cfi_def_cfa_register 5
 993 05dd 83EC08   		subl	$8, %esp
 994              		.loc 4 74 0
 995 05e0 B9000000 		movl	$__ZStL8__ioinit, %ecx
 995      00
 996 05e5 E8000000 		call	__ZNSt8ios_base4InitD1Ev
 996      00
 997 05ea C9       		leave
 998              		.cfi_restore 5
 999              		.cfi_def_cfa 4, 4
 1000 05eb C3       		ret
 1001              		.cfi_endproc
 1002              	LFE1098:
 1004              	__Z41__static_initialization_and_destruction_0ii:
 1005              	LFB1097:
 1006              		.loc 3 71 0
 1007              		.cfi_startproc
 1008 05ec 55       		pushl	%ebp
 1009              		.cfi_def_cfa_offset 8
 1010              		.cfi_offset 5, -8
 1011 05ed 89E5     		movl	%esp, %ebp
 1012              		.cfi_def_cfa_register 5
 1013 05ef 83EC18   		subl	$24, %esp
 1014              		.loc 3 71 0
 1015 05f2 837D0801 		cmpl	$1, 8(%ebp)
 1016 05f6 751F     		jne	L54
 1017              		.loc 3 71 0 is_stmt 0 discriminator 1
 1018 05f8 817D0CFF 		cmpl	$65535, 12(%ebp)
 1018      FF0000
 1019 05ff 7516     		jne	L54
 1020              		.loc 4 74 0 is_stmt 1
 1021 0601 B9000000 		movl	$__ZStL8__ioinit, %ecx
 1021      00
 1022 0606 E8000000 		call	__ZNSt8ios_base4InitC1Ev
 1022      00
 1023 060b C70424DA 		movl	$___tcf_0, (%esp)
 1023      050000
 1024 0612 E8000000 		call	_atexit
 1024      00
 1025              	L54:
 1026              		.loc 3 71 0
 1027 0617 C9       		leave
 1028              		.cfi_restore 5
 1029              		.cfi_def_cfa 4, 4
 1030 0618 C3       		ret
GAS LISTING C:\Users\NJLLMR~1\AppData\Local\Temp\ccqq7oi7.s 			page 44


 1031              		.cfi_endproc
 1032              	LFE1097:
 1034              	__GLOBAL__sub_I__ZN8EmployeeC2Ev:
 1035              	LFB1099:
 1036              		.loc 3 71 0
 1037              		.cfi_startproc
 1038 0619 55       		pushl	%ebp
 1039              		.cfi_def_cfa_offset 8
 1040              		.cfi_offset 5, -8
 1041 061a 89E5     		movl	%esp, %ebp
 1042              		.cfi_def_cfa_register 5
 1043 061c 83EC18   		subl	$24, %esp
 1044              		.loc 3 71 0
 1045 061f C7442404 		movl	$65535, 4(%esp)
 1045      FFFF0000 
 1046 0627 C7042401 		movl	$1, (%esp)
 1046      000000
 1047 062e E8B9FFFF 		call	__Z41__static_initialization_and_destruction_0ii
 1047      FF
 1048 0633 C9       		leave
 1049              		.cfi_restore 5
 1050              		.cfi_def_cfa 4, 4
 1051 0634 C3       		ret
 1052              		.cfi_endproc
 1053              	LFE1099:
 1054              		.section	.ctors,"w"
 1055              		.align 4
 1056 0000 19060000 		.long	__GLOBAL__sub_I__ZN8EmployeeC2Ev
 1057              		.text
 1058              	Letext0:
 1059              		.file 5 "C:/Program Files (x86)/CodeBlocks/MinGW/lib/gcc/mingw32/4.9.2/include/stddef.h"
 1060              		.file 6 "C:/Program Files (x86)/CodeBlocks/MinGW/include/wctype.h"
 1061              		.file 7 "C:/Program Files (x86)/CodeBlocks/MinGW/include/wchar.h"
 1062              		.file 8 "C:/Program Files (x86)/CodeBlocks/MinGW/lib/gcc/mingw32/4.9.2/include/c++/cwchar"
 1063              		.file 9 "C:/Program Files (x86)/CodeBlocks/MinGW/lib/gcc/mingw32/4.9.2/include/c++/bits/char_trait
 1064              		.file 10 "C:/Program Files (x86)/CodeBlocks/MinGW/lib/gcc/mingw32/4.9.2/include/c++/mingw32/bits/c
 1065              		.file 11 "C:/Program Files (x86)/CodeBlocks/MinGW/lib/gcc/mingw32/4.9.2/include/c++/clocale"
 1066              		.file 12 "C:/Program Files (x86)/CodeBlocks/MinGW/lib/gcc/mingw32/4.9.2/include/c++/bits/allocator
 1067              		.file 13 "C:/Program Files (x86)/CodeBlocks/MinGW/lib/gcc/mingw32/4.9.2/include/c++/bits/basic_str
 1068              		.file 14 "C:/Program Files (x86)/CodeBlocks/MinGW/lib/gcc/mingw32/4.9.2/include/c++/bits/basic_str
 1069              		.file 15 "C:/Program Files (x86)/CodeBlocks/MinGW/lib/gcc/mingw32/4.9.2/include/c++/bits/stringfwd
 1070              		.file 16 "C:/Program Files (x86)/CodeBlocks/MinGW/lib/gcc/mingw32/4.9.2/include/c++/cwctype"
 1071              		.file 17 "C:/Program Files (x86)/CodeBlocks/MinGW/lib/gcc/mingw32/4.9.2/include/c++/iosfwd"
 1072              		.file 18 "<built-in>"
 1073              		.file 19 "C:/Program Files (x86)/CodeBlocks/MinGW/lib/gcc/mingw32/4.9.2/include/c++/debug/debug.h"
 1074              		.file 20 "C:/Program Files (x86)/CodeBlocks/MinGW/lib/gcc/mingw32/4.9.2/include/c++/bits/predefine
 1075              		.file 21 "C:/Program Files (x86)/CodeBlocks/MinGW/lib/gcc/mingw32/4.9.2/include/c++/ext/new_alloca
 1076              		.file 22 "C:/Program Files (x86)/CodeBlocks/MinGW/lib/gcc/mingw32/4.9.2/include/c++/ext/numeric_tr
 1077              		.file 23 "C:/Program Files (x86)/CodeBlocks/MinGW/include/locale.h"
 1078              		.file 24 "C:/Program Files (x86)/CodeBlocks/MinGW/lib/gcc/mingw32/4.9.2/include/c++/mingw32/bits/a
 1079              		.file 25 "C:/Program Files (x86)/CodeBlocks/MinGW/include/ctype.h"
 1080              		.file 26 "include/models/Employee.h"
 1081 0635 909090   		.section	.debug_info,"dr"
 1082              	Ldebug_info0:
 1083 0000 CF4E0000 		.long	0x4ecf
 1084 0004 0400     		.word	0x4
 1085 0006 00000000 		.secrel32	Ldebug_abbrev0
GAS LISTING C:\Users\NJLLMR~1\AppData\Local\Temp\ccqq7oi7.s 			page 45


 1086 000a 04       		.byte	0x4
 1087 000b 01       		.uleb128 0x1
 1088 000c 474E5520 		.ascii "GNU C++ 4.9.2 -mtune=generic -march=pentiumpro -g -fexceptions\0"
 1088      432B2B20 
 1088      342E392E 
 1088      32202D6D 
 1088      74756E65 
 1089 004b 04       		.byte	0x4
 1090 004c 433A5C55 		.ascii "C:\\Users\\Nj\341ll M\375rdal\\3viknanamskeid\\LitidVerk1\\Verkefni2\\Vikuverk2\\src\\mode
 1090      73657273 
 1090      5C4E6AE1 
 1090      6C6C204D 
 1090      FD726461 
 1091 00a8 433A5C55 		.ascii "C:\\Users\\Nj\341ll M\375rdal\\3viknanamskeid\\LitidVerk1\\Verkefni2\\Vikuverk2\0"
 1091      73657273 
 1091      5C4E6AE1 
 1091      6C6C204D 
 1091      FD726461 
 1092 00ec 00000000 		.secrel32	Ldebug_ranges0+0
 1093 00f0 00000000 		.long	0
 1094 00f4 00000000 		.secrel32	Ldebug_line0
 1095 00f8 02       		.uleb128 0x2
 1096 00f9 73697A65 		.ascii "size_t\0"
 1096      5F7400
 1097 0100 05       		.byte	0x5
 1098 0101 D4       		.byte	0xd4
 1099 0102 06010000 		.long	0x106
 1100 0106 03       		.uleb128 0x3
 1101 0107 04       		.byte	0x4
 1102 0108 07       		.byte	0x7
 1103 0109 756E7369 		.ascii "unsigned int\0"
 1103      676E6564 
 1103      20696E74 
 1103      00
 1104 0116 04       		.uleb128 0x4
 1105 0117 77696E74 		.ascii "wint_t\0"
 1105      5F7400
 1106 011e 05       		.byte	0x5
 1107 011f 6101     		.word	0x161
 1108 0121 25010000 		.long	0x125
 1109 0125 03       		.uleb128 0x3
 1110 0126 02       		.byte	0x2
 1111 0127 07       		.byte	0x7
 1112 0128 73686F72 		.ascii "short unsigned int\0"
 1112      7420756E 
 1112      7369676E 
 1112      65642069 
 1112      6E7400
 1113 013b 05       		.uleb128 0x5
 1114 013c 04       		.byte	0x4
 1115 013d 5F5F6275 		.ascii "__builtin_va_list\0"
 1115      696C7469 
 1115      6E5F7661 
 1115      5F6C6973 
 1115      7400
 1116 014f 53010000 		.long	0x153
 1117 0153 03       		.uleb128 0x3
GAS LISTING C:\Users\NJLLMR~1\AppData\Local\Temp\ccqq7oi7.s 			page 46


 1118 0154 01       		.byte	0x1
 1119 0155 06       		.byte	0x6
 1120 0156 63686172 		.ascii "char\0"
 1120      00
 1121 015b 02       		.uleb128 0x2
 1122 015c 77637479 		.ascii "wctype_t\0"
 1122      70655F74 
 1122      00
 1123 0165 06       		.byte	0x6
 1124 0166 3E       		.byte	0x3e
 1125 0167 6B010000 		.long	0x16b
 1126 016b 03       		.uleb128 0x3
 1127 016c 02       		.byte	0x2
 1128 016d 07       		.byte	0x7
 1129 016e 77636861 		.ascii "wchar_t\0"
 1129      725F7400 
 1130 0176 02       		.uleb128 0x2
 1131 0177 77637472 		.ascii "wctrans_t\0"
 1131      616E735F 
 1131      7400
 1132 0181 06       		.byte	0x6
 1133 0182 94       		.byte	0x94
 1134 0183 6B010000 		.long	0x16b
 1135 0187 03       		.uleb128 0x3
 1136 0188 04       		.byte	0x4
 1137 0189 05       		.byte	0x5
 1138 018a 696E7400 		.ascii "int\0"
 1139 018e 03       		.uleb128 0x3
 1140 018f 04       		.byte	0x4
 1141 0190 05       		.byte	0x5
 1142 0191 6C6F6E67 		.ascii "long int\0"
 1142      20696E74 
 1142      00
 1143 019a 03       		.uleb128 0x3
 1144 019b 08       		.byte	0x8
 1145 019c 05       		.byte	0x5
 1146 019d 6C6F6E67 		.ascii "long long int\0"
 1146      206C6F6E 
 1146      6720696E 
 1146      7400
 1147 01ab 03       		.uleb128 0x3
 1148 01ac 02       		.byte	0x2
 1149 01ad 05       		.byte	0x5
 1150 01ae 73686F72 		.ascii "short int\0"
 1150      7420696E 
 1150      7400
 1151 01b8 06       		.uleb128 0x6
 1152 01b9 5F696F62 		.ascii "_iobuf\0"
 1152      756600
 1153 01c0 20       		.byte	0x20
 1154 01c1 07       		.byte	0x7
 1155 01c2 44       		.byte	0x44
 1156 01c3 3F020000 		.long	0x23f
 1157 01c7 07       		.uleb128 0x7
 1158 01c8 5F707472 		.ascii "_ptr\0"
 1158      00
 1159 01cd 07       		.byte	0x7
GAS LISTING C:\Users\NJLLMR~1\AppData\Local\Temp\ccqq7oi7.s 			page 47


 1160 01ce 46       		.byte	0x46
 1161 01cf 3F020000 		.long	0x23f
 1162 01d3 00       		.byte	0
 1163 01d4 07       		.uleb128 0x7
 1164 01d5 5F636E74 		.ascii "_cnt\0"
 1164      00
 1165 01da 07       		.byte	0x7
 1166 01db 47       		.byte	0x47
 1167 01dc 87010000 		.long	0x187
 1168 01e0 04       		.byte	0x4
 1169 01e1 07       		.uleb128 0x7
 1170 01e2 5F626173 		.ascii "_base\0"
 1170      6500
 1171 01e8 07       		.byte	0x7
 1172 01e9 48       		.byte	0x48
 1173 01ea 3F020000 		.long	0x23f
 1174 01ee 08       		.byte	0x8
 1175 01ef 07       		.uleb128 0x7
 1176 01f0 5F666C61 		.ascii "_flag\0"
 1176      6700
 1177 01f6 07       		.byte	0x7
 1178 01f7 49       		.byte	0x49
 1179 01f8 87010000 		.long	0x187
 1180 01fc 0C       		.byte	0xc
 1181 01fd 07       		.uleb128 0x7
 1182 01fe 5F66696C 		.ascii "_file\0"
 1182      6500
 1183 0204 07       		.byte	0x7
 1184 0205 4A       		.byte	0x4a
 1185 0206 87010000 		.long	0x187
 1186 020a 10       		.byte	0x10
 1187 020b 07       		.uleb128 0x7
 1188 020c 5F636861 		.ascii "_charbuf\0"
 1188      72627566 
 1188      00
 1189 0215 07       		.byte	0x7
 1190 0216 4B       		.byte	0x4b
 1191 0217 87010000 		.long	0x187
 1192 021b 14       		.byte	0x14
 1193 021c 07       		.uleb128 0x7
 1194 021d 5F627566 		.ascii "_bufsiz\0"
 1194      73697A00 
 1195 0225 07       		.byte	0x7
 1196 0226 4C       		.byte	0x4c
 1197 0227 87010000 		.long	0x187
 1198 022b 18       		.byte	0x18
 1199 022c 07       		.uleb128 0x7
 1200 022d 5F746D70 		.ascii "_tmpfname\0"
 1200      666E616D 
 1200      6500
 1201 0237 07       		.byte	0x7
 1202 0238 4D       		.byte	0x4d
 1203 0239 3F020000 		.long	0x23f
 1204 023d 1C       		.byte	0x1c
 1205 023e 00       		.byte	0
 1206 023f 08       		.uleb128 0x8
 1207 0240 04       		.byte	0x4
GAS LISTING C:\Users\NJLLMR~1\AppData\Local\Temp\ccqq7oi7.s 			page 48


 1208 0241 53010000 		.long	0x153
 1209 0245 02       		.uleb128 0x2
 1210 0246 46494C45 		.ascii "FILE\0"
 1210      00
 1211 024b 07       		.byte	0x7
 1212 024c 4E       		.byte	0x4e
 1213 024d B8010000 		.long	0x1b8
 1214 0251 06       		.uleb128 0x6
 1215 0252 746D00   		.ascii "tm\0"
 1216 0255 24       		.byte	0x24
 1217 0256 07       		.byte	0x7
 1218 0257 57       		.byte	0x57
 1219 0258 EB020000 		.long	0x2eb
 1220 025c 07       		.uleb128 0x7
 1221 025d 746D5F73 		.ascii "tm_sec\0"
 1221      656300
 1222 0264 07       		.byte	0x7
 1223 0265 58       		.byte	0x58
 1224 0266 87010000 		.long	0x187
 1225 026a 00       		.byte	0
 1226 026b 07       		.uleb128 0x7
 1227 026c 746D5F6D 		.ascii "tm_min\0"
 1227      696E00
 1228 0273 07       		.byte	0x7
 1229 0274 59       		.byte	0x59
 1230 0275 87010000 		.long	0x187
 1231 0279 04       		.byte	0x4
 1232 027a 07       		.uleb128 0x7
 1233 027b 746D5F68 		.ascii "tm_hour\0"
 1233      6F757200 
 1234 0283 07       		.byte	0x7
 1235 0284 5A       		.byte	0x5a
 1236 0285 87010000 		.long	0x187
 1237 0289 08       		.byte	0x8
 1238 028a 07       		.uleb128 0x7
 1239 028b 746D5F6D 		.ascii "tm_mday\0"
 1239      64617900 
 1240 0293 07       		.byte	0x7
 1241 0294 5B       		.byte	0x5b
 1242 0295 87010000 		.long	0x187
 1243 0299 0C       		.byte	0xc
 1244 029a 07       		.uleb128 0x7
 1245 029b 746D5F6D 		.ascii "tm_mon\0"
 1245      6F6E00
 1246 02a2 07       		.byte	0x7
 1247 02a3 5C       		.byte	0x5c
 1248 02a4 87010000 		.long	0x187
 1249 02a8 10       		.byte	0x10
 1250 02a9 07       		.uleb128 0x7
 1251 02aa 746D5F79 		.ascii "tm_year\0"
 1251      65617200 
 1252 02b2 07       		.byte	0x7
 1253 02b3 5D       		.byte	0x5d
 1254 02b4 87010000 		.long	0x187
 1255 02b8 14       		.byte	0x14
 1256 02b9 07       		.uleb128 0x7
 1257 02ba 746D5F77 		.ascii "tm_wday\0"
GAS LISTING C:\Users\NJLLMR~1\AppData\Local\Temp\ccqq7oi7.s 			page 49


 1257      64617900 
 1258 02c2 07       		.byte	0x7
 1259 02c3 5E       		.byte	0x5e
 1260 02c4 87010000 		.long	0x187
 1261 02c8 18       		.byte	0x18
 1262 02c9 07       		.uleb128 0x7
 1263 02ca 746D5F79 		.ascii "tm_yday\0"
 1263      64617900 
 1264 02d2 07       		.byte	0x7
 1265 02d3 5F       		.byte	0x5f
 1266 02d4 87010000 		.long	0x187
 1267 02d8 1C       		.byte	0x1c
 1268 02d9 07       		.uleb128 0x7
 1269 02da 746D5F69 		.ascii "tm_isdst\0"
 1269      73647374 
 1269      00
 1270 02e3 07       		.byte	0x7
 1271 02e4 60       		.byte	0x60
 1272 02e5 87010000 		.long	0x187
 1273 02e9 20       		.byte	0x20
 1274 02ea 00       		.byte	0
 1275 02eb 04       		.uleb128 0x4
 1276 02ec 6D627374 		.ascii "mbstate_t\0"
 1276      6174655F 
 1276      7400
 1277 02f6 07       		.byte	0x7
 1278 02f7 2701     		.word	0x127
 1279 02f9 87010000 		.long	0x187
 1280 02fd 03       		.uleb128 0x3
 1281 02fe 04       		.byte	0x4
 1282 02ff 07       		.byte	0x7
 1283 0300 6C6F6E67 		.ascii "long unsigned int\0"
 1283      20756E73 
 1283      69676E65 
 1283      6420696E 
 1283      7400
 1284 0312 03       		.uleb128 0x3
 1285 0313 04       		.byte	0x4
 1286 0314 07       		.byte	0x7
 1287 0315 73697A65 		.ascii "sizetype\0"
 1287      74797065 
 1287      00
 1288 031e 03       		.uleb128 0x3
 1289 031f 01       		.byte	0x1
 1290 0320 06       		.byte	0x6
 1291 0321 7369676E 		.ascii "signed char\0"
 1291      65642063 
 1291      68617200 
 1292 032d 03       		.uleb128 0x3
 1293 032e 01       		.byte	0x1
 1294 032f 08       		.byte	0x8
 1295 0330 756E7369 		.ascii "unsigned char\0"
 1295      676E6564 
 1295      20636861 
 1295      7200
 1296 033e 03       		.uleb128 0x3
 1297 033f 08       		.byte	0x8
GAS LISTING C:\Users\NJLLMR~1\AppData\Local\Temp\ccqq7oi7.s 			page 50


 1298 0340 07       		.byte	0x7
 1299 0341 6C6F6E67 		.ascii "long long unsigned int\0"
 1299      206C6F6E 
 1299      6720756E 
 1299      7369676E 
 1299      65642069 
 1300 0358 09       		.uleb128 0x9
 1301 0359 73746400 		.ascii "std\0"
 1302 035d 12       		.byte	0x12
 1303 035e 00       		.byte	0
 1304 035f 2A360000 		.long	0x362a
 1305 0363 0A       		.uleb128 0xa
 1306 0364 08       		.byte	0x8
 1307 0365 40       		.byte	0x40
 1308 0366 EB020000 		.long	0x2eb
 1309 036a 0A       		.uleb128 0xa
 1310 036b 08       		.byte	0x8
 1311 036c 8B       		.byte	0x8b
 1312 036d 16010000 		.long	0x116
 1313 0371 0A       		.uleb128 0xa
 1314 0372 08       		.byte	0x8
 1315 0373 8D       		.byte	0x8d
 1316 0374 2A360000 		.long	0x362a
 1317 0378 0A       		.uleb128 0xa
 1318 0379 08       		.byte	0x8
 1319 037a 8E       		.byte	0x8e
 1320 037b 42360000 		.long	0x3642
 1321 037f 0A       		.uleb128 0xa
 1322 0380 08       		.byte	0x8
 1323 0381 8F       		.byte	0x8f
 1324 0382 60360000 		.long	0x3660
 1325 0386 0A       		.uleb128 0xa
 1326 0387 08       		.byte	0x8
 1327 0388 90       		.byte	0x90
 1328 0389 88360000 		.long	0x3688
 1329 038d 0A       		.uleb128 0xa
 1330 038e 08       		.byte	0x8
 1331 038f 91       		.byte	0x91
 1332 0390 A5360000 		.long	0x36a5
 1333 0394 0A       		.uleb128 0xa
 1334 0395 08       		.byte	0x8
 1335 0396 92       		.byte	0x92
 1336 0397 CD360000 		.long	0x36cd
 1337 039b 0A       		.uleb128 0xa
 1338 039c 08       		.byte	0x8
 1339 039d 93       		.byte	0x93
 1340 039e EA360000 		.long	0x36ea
 1341 03a2 0A       		.uleb128 0xa
 1342 03a3 08       		.byte	0x8
 1343 03a4 94       		.byte	0x94
 1344 03a5 0A370000 		.long	0x370a
 1345 03a9 0A       		.uleb128 0xa
 1346 03aa 08       		.byte	0x8
 1347 03ab 95       		.byte	0x95
 1348 03ac 29370000 		.long	0x3729
 1349 03b0 0A       		.uleb128 0xa
 1350 03b1 08       		.byte	0x8
GAS LISTING C:\Users\NJLLMR~1\AppData\Local\Temp\ccqq7oi7.s 			page 51


 1351 03b2 96       		.byte	0x96
 1352 03b3 40370000 		.long	0x3740
 1353 03b7 0A       		.uleb128 0xa
 1354 03b8 08       		.byte	0x8
 1355 03b9 97       		.byte	0x97
 1356 03ba 50370000 		.long	0x3750
 1357 03be 0A       		.uleb128 0xa
 1358 03bf 08       		.byte	0x8
 1359 03c0 98       		.byte	0x98
 1360 03c1 84370000 		.long	0x3784
 1361 03c5 0A       		.uleb128 0xa
 1362 03c6 08       		.byte	0x8
 1363 03c7 99       		.byte	0x99
 1364 03c8 AD370000 		.long	0x37ad
 1365 03cc 0A       		.uleb128 0xa
 1366 03cd 08       		.byte	0x8
 1367 03ce 9A       		.byte	0x9a
 1368 03cf D2370000 		.long	0x37d2
 1369 03d3 0A       		.uleb128 0xa
 1370 03d4 08       		.byte	0x8
 1371 03d5 9B       		.byte	0x9b
 1372 03d6 03380000 		.long	0x3803
 1373 03da 0A       		.uleb128 0xa
 1374 03db 08       		.byte	0x8
 1375 03dc 9C       		.byte	0x9c
 1376 03dd 1F380000 		.long	0x381f
 1377 03e1 0A       		.uleb128 0xa
 1378 03e2 08       		.byte	0x8
 1379 03e3 A0       		.byte	0xa0
 1380 03e4 39380000 		.long	0x3839
 1381 03e8 0A       		.uleb128 0xa
 1382 03e9 08       		.byte	0x8
 1383 03ea A1       		.byte	0xa1
 1384 03eb 58380000 		.long	0x3858
 1385 03ef 0A       		.uleb128 0xa
 1386 03f0 08       		.byte	0x8
 1387 03f1 A2       		.byte	0xa2
 1388 03f2 76380000 		.long	0x3876
 1389 03f6 0A       		.uleb128 0xa
 1390 03f7 08       		.byte	0x8
 1391 03f8 A4       		.byte	0xa4
 1392 03f9 9B380000 		.long	0x389b
 1393 03fd 0A       		.uleb128 0xa
 1394 03fe 08       		.byte	0x8
 1395 03ff AA       		.byte	0xaa
 1396 0400 BF380000 		.long	0x38bf
 1397 0404 0A       		.uleb128 0xa
 1398 0405 08       		.byte	0x8
 1399 0406 AC       		.byte	0xac
 1400 0407 E3380000 		.long	0x38e3
 1401 040b 0A       		.uleb128 0xa
 1402 040c 08       		.byte	0x8
 1403 040d AE       		.byte	0xae
 1404 040e 02390000 		.long	0x3902
 1405 0412 0A       		.uleb128 0xa
 1406 0413 08       		.byte	0x8
 1407 0414 B0       		.byte	0xb0
GAS LISTING C:\Users\NJLLMR~1\AppData\Local\Temp\ccqq7oi7.s 			page 52


 1408 0415 20390000 		.long	0x3920
 1409 0419 0A       		.uleb128 0xa
 1410 041a 08       		.byte	0x8
 1411 041b B1       		.byte	0xb1
 1412 041c 44390000 		.long	0x3944
 1413 0420 0A       		.uleb128 0xa
 1414 0421 08       		.byte	0x8
 1415 0422 B2       		.byte	0xb2
 1416 0423 61390000 		.long	0x3961
 1417 0427 0A       		.uleb128 0xa
 1418 0428 08       		.byte	0x8
 1419 0429 B3       		.byte	0xb3
 1420 042a 7E390000 		.long	0x397e
 1421 042e 0A       		.uleb128 0xa
 1422 042f 08       		.byte	0x8
 1423 0430 B4       		.byte	0xb4
 1424 0431 9C390000 		.long	0x399c
 1425 0435 0A       		.uleb128 0xa
 1426 0436 08       		.byte	0x8
 1427 0437 B5       		.byte	0xb5
 1428 0438 B9390000 		.long	0x39b9
 1429 043c 0A       		.uleb128 0xa
 1430 043d 08       		.byte	0x8
 1431 043e B6       		.byte	0xb6
 1432 043f D7390000 		.long	0x39d7
 1433 0443 0A       		.uleb128 0xa
 1434 0444 08       		.byte	0x8
 1435 0445 B7       		.byte	0xb7
 1436 0446 0B3A0000 		.long	0x3a0b
 1437 044a 0A       		.uleb128 0xa
 1438 044b 08       		.byte	0x8
 1439 044c B8       		.byte	0xb8
 1440 044d 233A0000 		.long	0x3a23
 1441 0451 0A       		.uleb128 0xa
 1442 0452 08       		.byte	0x8
 1443 0453 B9       		.byte	0xb9
 1444 0454 463A0000 		.long	0x3a46
 1445 0458 0A       		.uleb128 0xa
 1446 0459 08       		.byte	0x8
 1447 045a BA       		.byte	0xba
 1448 045b 693A0000 		.long	0x3a69
 1449 045f 0A       		.uleb128 0xa
 1450 0460 08       		.byte	0x8
 1451 0461 BB       		.byte	0xbb
 1452 0462 8C3A0000 		.long	0x3a8c
 1453 0466 0A       		.uleb128 0xa
 1454 0467 08       		.byte	0x8
 1455 0468 BC       		.byte	0xbc
 1456 0469 BD3A0000 		.long	0x3abd
 1457 046d 0A       		.uleb128 0xa
 1458 046e 08       		.byte	0x8
 1459 046f BD       		.byte	0xbd
 1460 0470 DA3A0000 		.long	0x3ada
 1461 0474 0A       		.uleb128 0xa
 1462 0475 08       		.byte	0x8
 1463 0476 BF       		.byte	0xbf
 1464 0477 073B0000 		.long	0x3b07
GAS LISTING C:\Users\NJLLMR~1\AppData\Local\Temp\ccqq7oi7.s 			page 53


 1465 047b 0A       		.uleb128 0xa
 1466 047c 08       		.byte	0x8
 1467 047d C1       		.byte	0xc1
 1468 047e 2D3B0000 		.long	0x3b2d
 1469 0482 0A       		.uleb128 0xa
 1470 0483 08       		.byte	0x8
 1471 0484 C2       		.byte	0xc2
 1472 0485 4A3B0000 		.long	0x3b4a
 1473 0489 0A       		.uleb128 0xa
 1474 048a 08       		.byte	0x8
 1475 048b C3       		.byte	0xc3
 1476 048c 6C3B0000 		.long	0x3b6c
 1477 0490 0A       		.uleb128 0xa
 1478 0491 08       		.byte	0x8
 1479 0492 C4       		.byte	0xc4
 1480 0493 8F3B0000 		.long	0x3b8f
 1481 0497 0A       		.uleb128 0xa
 1482 0498 08       		.byte	0x8
 1483 0499 C5       		.byte	0xc5
 1484 049a B23B0000 		.long	0x3bb2
 1485 049e 0A       		.uleb128 0xa
 1486 049f 08       		.byte	0x8
 1487 04a0 C6       		.byte	0xc6
 1488 04a1 CA3B0000 		.long	0x3bca
 1489 04a5 0A       		.uleb128 0xa
 1490 04a6 08       		.byte	0x8
 1491 04a7 C7       		.byte	0xc7
 1492 04a8 EE3B0000 		.long	0x3bee
 1493 04ac 0A       		.uleb128 0xa
 1494 04ad 08       		.byte	0x8
 1495 04ae C8       		.byte	0xc8
 1496 04af 123C0000 		.long	0x3c12
 1497 04b3 0A       		.uleb128 0xa
 1498 04b4 08       		.byte	0x8
 1499 04b5 C9       		.byte	0xc9
 1500 04b6 373C0000 		.long	0x3c37
 1501 04ba 0A       		.uleb128 0xa
 1502 04bb 08       		.byte	0x8
 1503 04bc CA       		.byte	0xca
 1504 04bd 5B3C0000 		.long	0x3c5b
 1505 04c1 0A       		.uleb128 0xa
 1506 04c2 08       		.byte	0x8
 1507 04c3 CB       		.byte	0xcb
 1508 04c4 753C0000 		.long	0x3c75
 1509 04c8 0A       		.uleb128 0xa
 1510 04c9 08       		.byte	0x8
 1511 04ca CC       		.byte	0xcc
 1512 04cb 8E3C0000 		.long	0x3c8e
 1513 04cf 0A       		.uleb128 0xa
 1514 04d0 08       		.byte	0x8
 1515 04d1 CD       		.byte	0xcd
 1516 04d2 AB3C0000 		.long	0x3cab
 1517 04d6 0A       		.uleb128 0xa
 1518 04d7 08       		.byte	0x8
 1519 04d8 CE       		.byte	0xce
 1520 04d9 C93C0000 		.long	0x3cc9
 1521 04dd 0A       		.uleb128 0xa
GAS LISTING C:\Users\NJLLMR~1\AppData\Local\Temp\ccqq7oi7.s 			page 54


 1522 04de 08       		.byte	0x8
 1523 04df CF       		.byte	0xcf
 1524 04e0 E73C0000 		.long	0x3ce7
 1525 04e4 0A       		.uleb128 0xa
 1526 04e5 08       		.byte	0x8
 1527 04e6 D0       		.byte	0xd0
 1528 04e7 043D0000 		.long	0x3d04
 1529 04eb 0B       		.uleb128 0xb
 1530 04ec 08       		.byte	0x8
 1531 04ed 0801     		.word	0x108
 1532 04ef B4420000 		.long	0x42b4
 1533 04f3 0B       		.uleb128 0xb
 1534 04f4 08       		.byte	0x8
 1535 04f5 0901     		.word	0x109
 1536 04f7 E1420000 		.long	0x42e1
 1537 04fb 0B       		.uleb128 0xb
 1538 04fc 08       		.byte	0x8
 1539 04fd 0A01     		.word	0x10a
 1540 04ff 05430000 		.long	0x4305
 1541 0503 0C       		.uleb128 0xc
 1542 0504 5F5F6465 		.ascii "__debug\0"
 1542      62756700 
 1543 050c 13       		.byte	0x13
 1544 050d 30       		.byte	0x30
 1545 050e 06       		.uleb128 0x6
 1546 050f 63686172 		.ascii "char_traits<char>\0"
 1546      5F747261 
 1546      6974733C 
 1546      63686172 
 1546      3E00
 1547 0521 01       		.byte	0x1
 1548 0522 09       		.byte	0x9
 1549 0523 E9       		.byte	0xe9
 1550 0524 C5080000 		.long	0x8c5
 1551 0528 02       		.uleb128 0x2
 1552 0529 63686172 		.ascii "char_type\0"
 1552      5F747970 
 1552      6500
 1553 0533 09       		.byte	0x9
 1554 0534 EB       		.byte	0xeb
 1555 0535 53010000 		.long	0x153
 1556 0539 02       		.uleb128 0x2
 1557 053a 696E745F 		.ascii "int_type\0"
 1557      74797065 
 1557      00
 1558 0543 09       		.byte	0x9
 1559 0544 EC       		.byte	0xec
 1560 0545 87010000 		.long	0x187
 1561 0549 0D       		.uleb128 0xd
 1562 054a 40010000 		.secrel32	LASF1
 1563 054e 09       		.byte	0x9
 1564 054f F2       		.byte	0xf2
 1565 0550 5F5A4E53 		.ascii "_ZNSt11char_traitsIcE6assignERcRKc\0"
 1565      74313163 
 1565      6861725F 
 1565      74726169 
 1565      74734963 
GAS LISTING C:\Users\NJLLMR~1\AppData\Local\Temp\ccqq7oi7.s 			page 55


 1566 0573 82050000 		.long	0x582
 1567 0577 0E       		.uleb128 0xe
 1568 0578 45430000 		.long	0x4345
 1569 057c 0E       		.uleb128 0xe
 1570 057d 4B430000 		.long	0x434b
 1571 0581 00       		.byte	0
 1572 0582 0F       		.uleb128 0xf
 1573 0583 28050000 		.long	0x528
 1574 0587 10       		.uleb128 0x10
 1575 0588 657100   		.ascii "eq\0"
 1576 058b 09       		.byte	0x9
 1577 058c F6       		.byte	0xf6
 1578 058d 5F5A4E53 		.ascii "_ZNSt11char_traitsIcE2eqERKcS2_\0"
 1578      74313163 
 1578      6861725F 
 1578      74726169 
 1578      74734963 
 1579 05ad 51430000 		.long	0x4351
 1580 05b1 C0050000 		.long	0x5c0
 1581 05b5 0E       		.uleb128 0xe
 1582 05b6 4B430000 		.long	0x434b
 1583 05ba 0E       		.uleb128 0xe
 1584 05bb 4B430000 		.long	0x434b
 1585 05bf 00       		.byte	0
 1586 05c0 10       		.uleb128 0x10
 1587 05c1 6C7400   		.ascii "lt\0"
 1588 05c4 09       		.byte	0x9
 1589 05c5 FA       		.byte	0xfa
 1590 05c6 5F5A4E53 		.ascii "_ZNSt11char_traitsIcE2ltERKcS2_\0"
 1590      74313163 
 1590      6861725F 
 1590      74726169 
 1590      74734963 
 1591 05e6 51430000 		.long	0x4351
 1592 05ea F9050000 		.long	0x5f9
 1593 05ee 0E       		.uleb128 0xe
 1594 05ef 4B430000 		.long	0x434b
 1595 05f3 0E       		.uleb128 0xe
 1596 05f4 4B430000 		.long	0x434b
 1597 05f8 00       		.byte	0
 1598 05f9 11       		.uleb128 0x11
 1599 05fa 38010000 		.secrel32	LASF0
 1600 05fe 09       		.byte	0x9
 1601 05ff 0201     		.word	0x102
 1602 0601 5F5A4E53 		.ascii "_ZNSt11char_traitsIcE7compareEPKcS2_j\0"
 1602      74313163 
 1602      6861725F 
 1602      74726169 
 1602      74734963 
 1603 0627 87010000 		.long	0x187
 1604 062b 3F060000 		.long	0x63f
 1605 062f 0E       		.uleb128 0xe
 1606 0630 59430000 		.long	0x4359
 1607 0634 0E       		.uleb128 0xe
 1608 0635 59430000 		.long	0x4359
 1609 0639 0E       		.uleb128 0xe
 1610 063a C5080000 		.long	0x8c5
GAS LISTING C:\Users\NJLLMR~1\AppData\Local\Temp\ccqq7oi7.s 			page 56


 1611 063e 00       		.byte	0
 1612 063f 12       		.uleb128 0x12
 1613 0640 6C656E67 		.ascii "length\0"
 1613      746800
 1614 0647 09       		.byte	0x9
 1615 0648 0601     		.word	0x106
 1616 064a 5F5A4E53 		.ascii "_ZNSt11char_traitsIcE6lengthEPKc\0"
 1616      74313163 
 1616      6861725F 
 1616      74726169 
 1616      74734963 
 1617 066b C5080000 		.long	0x8c5
 1618 066f 79060000 		.long	0x679
 1619 0673 0E       		.uleb128 0xe
 1620 0674 59430000 		.long	0x4359
 1621 0678 00       		.byte	0
 1622 0679 12       		.uleb128 0x12
 1623 067a 66696E64 		.ascii "find\0"
 1623      00
 1624 067f 09       		.byte	0x9
 1625 0680 0A01     		.word	0x10a
 1626 0682 5F5A4E53 		.ascii "_ZNSt11char_traitsIcE4findEPKcjRS1_\0"
 1626      74313163 
 1626      6861725F 
 1626      74726169 
 1626      74734963 
 1627 06a6 59430000 		.long	0x4359
 1628 06aa BE060000 		.long	0x6be
 1629 06ae 0E       		.uleb128 0xe
 1630 06af 59430000 		.long	0x4359
 1631 06b3 0E       		.uleb128 0xe
 1632 06b4 C5080000 		.long	0x8c5
 1633 06b8 0E       		.uleb128 0xe
 1634 06b9 4B430000 		.long	0x434b
 1635 06bd 00       		.byte	0
 1636 06be 12       		.uleb128 0x12
 1637 06bf 6D6F7665 		.ascii "move\0"
 1637      00
 1638 06c4 09       		.byte	0x9
 1639 06c5 0E01     		.word	0x10e
 1640 06c7 5F5A4E53 		.ascii "_ZNSt11char_traitsIcE4moveEPcPKcj\0"
 1640      74313163 
 1640      6861725F 
 1640      74726169 
 1640      74734963 
 1641 06e9 5F430000 		.long	0x435f
 1642 06ed 01070000 		.long	0x701
 1643 06f1 0E       		.uleb128 0xe
 1644 06f2 5F430000 		.long	0x435f
 1645 06f6 0E       		.uleb128 0xe
 1646 06f7 59430000 		.long	0x4359
 1647 06fb 0E       		.uleb128 0xe
 1648 06fc C5080000 		.long	0x8c5
 1649 0700 00       		.byte	0
 1650 0701 12       		.uleb128 0x12
 1651 0702 636F7079 		.ascii "copy\0"
 1651      00
GAS LISTING C:\Users\NJLLMR~1\AppData\Local\Temp\ccqq7oi7.s 			page 57


 1652 0707 09       		.byte	0x9
 1653 0708 1201     		.word	0x112
 1654 070a 5F5A4E53 		.ascii "_ZNSt11char_traitsIcE4copyEPcPKcj\0"
 1654      74313163 
 1654      6861725F 
 1654      74726169 
 1654      74734963 
 1655 072c 5F430000 		.long	0x435f
 1656 0730 44070000 		.long	0x744
 1657 0734 0E       		.uleb128 0xe
 1658 0735 5F430000 		.long	0x435f
 1659 0739 0E       		.uleb128 0xe
 1660 073a 59430000 		.long	0x4359
 1661 073e 0E       		.uleb128 0xe
 1662 073f C5080000 		.long	0x8c5
 1663 0743 00       		.byte	0
 1664 0744 11       		.uleb128 0x11
 1665 0745 40010000 		.secrel32	LASF1
 1666 0749 09       		.byte	0x9
 1667 074a 1601     		.word	0x116
 1668 074c 5F5A4E53 		.ascii "_ZNSt11char_traitsIcE6assignEPcjc\0"
 1668      74313163 
 1668      6861725F 
 1668      74726169 
 1668      74734963 
 1669 076e 5F430000 		.long	0x435f
 1670 0772 86070000 		.long	0x786
 1671 0776 0E       		.uleb128 0xe
 1672 0777 5F430000 		.long	0x435f
 1673 077b 0E       		.uleb128 0xe
 1674 077c C5080000 		.long	0x8c5
 1675 0780 0E       		.uleb128 0xe
 1676 0781 28050000 		.long	0x528
 1677 0785 00       		.byte	0
 1678 0786 12       		.uleb128 0x12
 1679 0787 746F5F63 		.ascii "to_char_type\0"
 1679      6861725F 
 1679      74797065 
 1679      00
 1680 0794 09       		.byte	0x9
 1681 0795 1A01     		.word	0x11a
 1682 0797 5F5A4E53 		.ascii "_ZNSt11char_traitsIcE12to_char_typeERKi\0"
 1682      74313163 
 1682      6861725F 
 1682      74726169 
 1682      74734963 
 1683 07bf 28050000 		.long	0x528
 1684 07c3 CD070000 		.long	0x7cd
 1685 07c7 0E       		.uleb128 0xe
 1686 07c8 65430000 		.long	0x4365
 1687 07cc 00       		.byte	0
 1688 07cd 0F       		.uleb128 0xf
 1689 07ce 39050000 		.long	0x539
 1690 07d2 12       		.uleb128 0x12
 1691 07d3 746F5F69 		.ascii "to_int_type\0"
 1691      6E745F74 
 1691      79706500 
GAS LISTING C:\Users\NJLLMR~1\AppData\Local\Temp\ccqq7oi7.s 			page 58


 1692 07df 09       		.byte	0x9
 1693 07e0 2001     		.word	0x120
 1694 07e2 5F5A4E53 		.ascii "_ZNSt11char_traitsIcE11to_int_typeERKc\0"
 1694      74313163 
 1694      6861725F 
 1694      74726169 
 1694      74734963 
 1695 0809 39050000 		.long	0x539
 1696 080d 17080000 		.long	0x817
 1697 0811 0E       		.uleb128 0xe
 1698 0812 4B430000 		.long	0x434b
 1699 0816 00       		.byte	0
 1700 0817 12       		.uleb128 0x12
 1701 0818 65715F69 		.ascii "eq_int_type\0"
 1701      6E745F74 
 1701      79706500 
 1702 0824 09       		.byte	0x9
 1703 0825 2401     		.word	0x124
 1704 0827 5F5A4E53 		.ascii "_ZNSt11char_traitsIcE11eq_int_typeERKiS2_\0"
 1704      74313163 
 1704      6861725F 
 1704      74726169 
 1704      74734963 
 1705 0851 51430000 		.long	0x4351
 1706 0855 64080000 		.long	0x864
 1707 0859 0E       		.uleb128 0xe
 1708 085a 65430000 		.long	0x4365
 1709 085e 0E       		.uleb128 0xe
 1710 085f 65430000 		.long	0x4365
 1711 0863 00       		.byte	0
 1712 0864 13       		.uleb128 0x13
 1713 0865 656F6600 		.ascii "eof\0"
 1714 0869 09       		.byte	0x9
 1715 086a 2801     		.word	0x128
 1716 086c 5F5A4E53 		.ascii "_ZNSt11char_traitsIcE3eofEv\0"
 1716      74313163 
 1716      6861725F 
 1716      74726169 
 1716      74734963 
 1717 0888 39050000 		.long	0x539
 1718 088c 14       		.uleb128 0x14
 1719 088d 6E6F745F 		.ascii "not_eof\0"
 1719      656F6600 
 1720 0895 09       		.byte	0x9
 1721 0896 2C01     		.word	0x12c
 1722 0898 5F5A4E53 		.ascii "_ZNSt11char_traitsIcE7not_eofERKi\0"
 1722      74313163 
 1722      6861725F 
 1722      74726169 
 1722      74734963 
 1723 08ba 39050000 		.long	0x539
 1724 08be 0E       		.uleb128 0xe
 1725 08bf 65430000 		.long	0x4365
 1726 08c3 00       		.byte	0
 1727 08c4 00       		.byte	0
 1728 08c5 02       		.uleb128 0x2
 1729 08c6 73697A65 		.ascii "size_t\0"
GAS LISTING C:\Users\NJLLMR~1\AppData\Local\Temp\ccqq7oi7.s 			page 59


 1729      5F7400
 1730 08cd 0A       		.byte	0xa
 1731 08ce BC       		.byte	0xbc
 1732 08cf 06010000 		.long	0x106
 1733 08d3 0A       		.uleb128 0xa
 1734 08d4 0B       		.byte	0xb
 1735 08d5 35       		.byte	0x35
 1736 08d6 6B430000 		.long	0x436b
 1737 08da 0A       		.uleb128 0xa
 1738 08db 0B       		.byte	0xb
 1739 08dc 36       		.byte	0x36
 1740 08dd 0A450000 		.long	0x450a
 1741 08e1 0A       		.uleb128 0xa
 1742 08e2 0B       		.byte	0xb
 1743 08e3 37       		.byte	0x37
 1744 08e4 2A450000 		.long	0x452a
 1745 08e8 02       		.uleb128 0x2
 1746 08e9 70747264 		.ascii "ptrdiff_t\0"
 1746      6966665F 
 1746      7400
 1747 08f3 0A       		.byte	0xa
 1748 08f4 BD       		.byte	0xbd
 1749 08f5 87010000 		.long	0x187
 1750 08f9 15       		.uleb128 0x15
 1751 08fa 616C6C6F 		.ascii "allocator<char>\0"
 1751      6361746F 
 1751      723C6368 
 1751      61723E00 
 1752 090a 01       		.byte	0x1
 1753 090b 0C       		.byte	0xc
 1754 090c 5C       		.byte	0x5c
 1755 090d 8C090000 		.long	0x98c
 1756 0911 16       		.uleb128 0x16
 1757 0912 673D0000 		.long	0x3d67
 1758 0916 00       		.byte	0
 1759 0917 01       		.byte	0x1
 1760 0918 17       		.uleb128 0x17
 1761 0919 1D010000 		.secrel32	LASF2
 1762 091d 0C       		.byte	0xc
 1763 091e 5F       		.byte	0x5f
 1764 091f C5080000 		.long	0x8c5
 1765 0923 01       		.byte	0x1
 1766 0924 17       		.uleb128 0x17
 1767 0925 24000000 		.secrel32	LASF3
 1768 0929 0C       		.byte	0xc
 1769 092a 63       		.byte	0x63
 1770 092b 5D450000 		.long	0x455d
 1771 092f 01       		.byte	0x1
 1772 0930 17       		.uleb128 0x17
 1773 0931 B5000000 		.secrel32	LASF4
 1774 0935 0C       		.byte	0xc
 1775 0936 64       		.byte	0x64
 1776 0937 63450000 		.long	0x4563
 1777 093b 01       		.byte	0x1
 1778 093c 18       		.uleb128 0x18
 1779 093d 47010000 		.secrel32	LASF5
 1780 0941 0C       		.byte	0xc
GAS LISTING C:\Users\NJLLMR~1\AppData\Local\Temp\ccqq7oi7.s 			page 60


 1781 0942 71       		.byte	0x71
 1782 0943 01       		.byte	0x1
 1783 0944 4C090000 		.long	0x94c
 1784 0948 52090000 		.long	0x952
 1785 094c 19       		.uleb128 0x19
 1786 094d 7B450000 		.long	0x457b
 1787 0951 00       		.byte	0
 1788 0952 18       		.uleb128 0x18
 1789 0953 47010000 		.secrel32	LASF5
 1790 0957 0C       		.byte	0xc
 1791 0958 73       		.byte	0x73
 1792 0959 01       		.byte	0x1
 1793 095a 62090000 		.long	0x962
 1794 095e 6D090000 		.long	0x96d
 1795 0962 19       		.uleb128 0x19
 1796 0963 7B450000 		.long	0x457b
 1797 0967 0E       		.uleb128 0xe
 1798 0968 81450000 		.long	0x4581
 1799 096c 00       		.byte	0
 1800 096d 1A       		.uleb128 0x1a
 1801 096e 7E616C6C 		.ascii "~allocator\0"
 1801      6F636174 
 1801      6F7200
 1802 0979 0C       		.byte	0xc
 1803 097a 79       		.byte	0x79
 1804 097b 01       		.byte	0x1
 1805 097c 80090000 		.long	0x980
 1806 0980 19       		.uleb128 0x19
 1807 0981 7B450000 		.long	0x457b
 1808 0985 19       		.uleb128 0x19
 1809 0986 87010000 		.long	0x187
 1810 098a 00       		.byte	0
 1811 098b 00       		.byte	0
 1812 098c 0F       		.uleb128 0xf
 1813 098d F9080000 		.long	0x8f9
 1814 0991 15       		.uleb128 0x15
 1815 0992 62617369 		.ascii "basic_string<char, std::char_traits<char>, std::allocator<char> >\0"
 1815      635F7374 
 1815      72696E67 
 1815      3C636861 
 1815      722C2073 
 1816 09d4 04       		.byte	0x4
 1817 09d5 0D       		.byte	0xd
 1818 09d6 70       		.byte	0x70
 1819 09d7 F42C0000 		.long	0x2cf4
 1820 09db 1B       		.uleb128 0x1b
 1821 09dc A8000000 		.secrel32	LASF6
 1822 09e0 04       		.byte	0x4
 1823 09e1 0D       		.byte	0xd
 1824 09e2 1001     		.word	0x110
 1825 09e4 190A0000 		.long	0xa19
 1826 09e8 1C       		.uleb128 0x1c
 1827 09e9 F9080000 		.long	0x8f9
 1828 09ed 00       		.byte	0
 1829 09ee 1D       		.uleb128 0x1d
 1830 09ef 5F4D5F70 		.ascii "_M_p\0"
 1830      00
GAS LISTING C:\Users\NJLLMR~1\AppData\Local\Temp\ccqq7oi7.s 			page 61


 1831 09f4 0D       		.byte	0xd
 1832 09f5 1501     		.word	0x115
 1833 09f7 3F020000 		.long	0x23f
 1834 09fb 00       		.byte	0
 1835 09fc 1E       		.uleb128 0x1e
 1836 09fd A8000000 		.secrel32	LASF6
 1837 0a01 0D       		.byte	0xd
 1838 0a02 1201     		.word	0x112
 1839 0a04 080A0000 		.long	0xa08
 1840 0a08 19       		.uleb128 0x19
 1841 0a09 91450000 		.long	0x4591
 1842 0a0d 0E       		.uleb128 0xe
 1843 0a0e 3F020000 		.long	0x23f
 1844 0a12 0E       		.uleb128 0xe
 1845 0a13 81450000 		.long	0x4581
 1846 0a17 00       		.byte	0
 1847 0a18 00       		.byte	0
 1848 0a19 17       		.uleb128 0x17
 1849 0a1a 1D010000 		.secrel32	LASF2
 1850 0a1e 0D       		.byte	0xd
 1851 0a1f 79       		.byte	0x79
 1852 0a20 18090000 		.long	0x918
 1853 0a24 01       		.byte	0x1
 1854 0a25 1F       		.uleb128 0x1f
 1855 0a26 6E706F73 		.ascii "npos\0"
 1855      00
 1856 0a2b 0D       		.byte	0xd
 1857 0a2c 1D01     		.word	0x11d
 1858 0a2e 330A0000 		.long	0xa33
 1859 0a32 01       		.byte	0x1
 1860 0a33 0F       		.uleb128 0xf
 1861 0a34 190A0000 		.long	0xa19
 1862 0a38 1D       		.uleb128 0x1d
 1863 0a39 5F4D5F64 		.ascii "_M_dataplus\0"
 1863      61746170 
 1863      6C757300 
 1864 0a45 0D       		.byte	0xd
 1865 0a46 2101     		.word	0x121
 1866 0a48 DB090000 		.long	0x9db
 1867 0a4c 00       		.byte	0
 1868 0a4d 20       		.uleb128 0x20
 1869 0a4e 616C6C6F 		.ascii "allocator_type\0"
 1869      6361746F 
 1869      725F7479 
 1869      706500
 1870 0a5d 0D       		.byte	0xd
 1871 0a5e 78       		.byte	0x78
 1872 0a5f F9080000 		.long	0x8f9
 1873 0a63 01       		.byte	0x1
 1874 0a64 17       		.uleb128 0x17
 1875 0a65 24000000 		.secrel32	LASF3
 1876 0a69 0D       		.byte	0xd
 1877 0a6a 7B       		.byte	0x7b
 1878 0a6b 24090000 		.long	0x924
 1879 0a6f 01       		.byte	0x1
 1880 0a70 17       		.uleb128 0x17
 1881 0a71 B5000000 		.secrel32	LASF4
GAS LISTING C:\Users\NJLLMR~1\AppData\Local\Temp\ccqq7oi7.s 			page 62


 1882 0a75 0D       		.byte	0xd
 1883 0a76 7C       		.byte	0x7c
 1884 0a77 30090000 		.long	0x930
 1885 0a7b 01       		.byte	0x1
 1886 0a7c 20       		.uleb128 0x20
 1887 0a7d 69746572 		.ascii "iterator\0"
 1887      61746F72 
 1887      00
 1888 0a86 0D       		.byte	0xd
 1889 0a87 7F       		.byte	0x7f
 1890 0a88 C2400000 		.long	0x40c2
 1891 0a8c 01       		.byte	0x1
 1892 0a8d 20       		.uleb128 0x20
 1893 0a8e 636F6E73 		.ascii "const_iterator\0"
 1893      745F6974 
 1893      65726174 
 1893      6F7200
 1894 0a9d 0D       		.byte	0xd
 1895 0a9e 81       		.byte	0x81
 1896 0a9f 25410000 		.long	0x4125
 1897 0aa3 01       		.byte	0x1
 1898 0aa4 20       		.uleb128 0x20
 1899 0aa5 636F6E73 		.ascii "const_reverse_iterator\0"
 1899      745F7265 
 1899      76657273 
 1899      655F6974 
 1899      65726174 
 1900 0abc 0D       		.byte	0xd
 1901 0abd 82       		.byte	0x82
 1902 0abe F42C0000 		.long	0x2cf4
 1903 0ac2 01       		.byte	0x1
 1904 0ac3 20       		.uleb128 0x20
 1905 0ac4 72657665 		.ascii "reverse_iterator\0"
 1905      7273655F 
 1905      69746572 
 1905      61746F72 
 1905      00
 1906 0ad5 0D       		.byte	0xd
 1907 0ad6 83       		.byte	0x83
 1908 0ad7 7B2D0000 		.long	0x2d7b
 1909 0adb 01       		.byte	0x1
 1910 0adc 06       		.uleb128 0x6
 1911 0add 5F526570 		.ascii "_Rep_base\0"
 1911      5F626173 
 1911      6500
 1912 0ae7 0C       		.byte	0xc
 1913 0ae8 0D       		.byte	0xd
 1914 0ae9 94       		.byte	0x94
 1915 0aea 290B0000 		.long	0xb29
 1916 0aee 07       		.uleb128 0x7
 1917 0aef 5F4D5F6C 		.ascii "_M_length\0"
 1917      656E6774 
 1917      6800
 1918 0af9 0D       		.byte	0xd
 1919 0afa 96       		.byte	0x96
 1920 0afb 190A0000 		.long	0xa19
 1921 0aff 00       		.byte	0
GAS LISTING C:\Users\NJLLMR~1\AppData\Local\Temp\ccqq7oi7.s 			page 63


 1922 0b00 07       		.uleb128 0x7
 1923 0b01 5F4D5F63 		.ascii "_M_capacity\0"
 1923      61706163 
 1923      69747900 
 1924 0b0d 0D       		.byte	0xd
 1925 0b0e 97       		.byte	0x97
 1926 0b0f 190A0000 		.long	0xa19
 1927 0b13 04       		.byte	0x4
 1928 0b14 07       		.uleb128 0x7
 1929 0b15 5F4D5F72 		.ascii "_M_refcount\0"
 1929      6566636F 
 1929      756E7400 
 1930 0b21 0D       		.byte	0xd
 1931 0b22 98       		.byte	0x98
 1932 0b23 42450000 		.long	0x4542
 1933 0b27 08       		.byte	0x8
 1934 0b28 00       		.byte	0
 1935 0b29 06       		.uleb128 0x6
 1936 0b2a 5F526570 		.ascii "_Rep\0"
 1936      00
 1937 0b2f 0C       		.byte	0xc
 1938 0b30 0D       		.byte	0xd
 1939 0b31 9B       		.byte	0x9b
 1940 0b32 B50E0000 		.long	0xeb5
 1941 0b36 1C       		.uleb128 0x1c
 1942 0b37 DC0A0000 		.long	0xadc
 1943 0b3b 00       		.byte	0
 1944 0b3c 21       		.uleb128 0x21
 1945 0b3d 5F535F6D 		.ascii "_S_max_size\0"
 1945      61785F73 
 1945      697A6500 
 1946 0b49 0E       		.byte	0xe
 1947 0b4a 32       		.byte	0x32
 1948 0b4b 330A0000 		.long	0xa33
 1949 0b4f 21       		.uleb128 0x21
 1950 0b50 5F535F74 		.ascii "_S_terminal\0"
 1950      65726D69 
 1950      6E616C00 
 1951 0b5c 0E       		.byte	0xe
 1952 0b5d 37       		.byte	0x37
 1953 0b5e 79370000 		.long	0x3779
 1954 0b62 21       		.uleb128 0x21
 1955 0b63 5F535F65 		.ascii "_S_empty_rep_storage\0"
 1955      6D707479 
 1955      5F726570 
 1955      5F73746F 
 1955      72616765 
 1956 0b78 0E       		.byte	0xe
 1957 0b79 42       		.byte	0x42
 1958 0b7a BB450000 		.long	0x45bb
 1959 0b7e 22       		.uleb128 0x22
 1960 0b7f 08000000 		.secrel32	LASF7
 1961 0b83 0D       		.byte	0xd
 1962 0b84 B5       		.byte	0xb5
 1963 0b85 5F5A4E53 		.ascii "_ZNSs4_Rep12_S_empty_repEv\0"
 1963      73345F52 
 1963      65703132 
GAS LISTING C:\Users\NJLLMR~1\AppData\Local\Temp\ccqq7oi7.s 			page 64


 1963      5F535F65 
 1963      6D707479 
 1964 0ba0 A9450000 		.long	0x45a9
 1965 0ba4 23       		.uleb128 0x23
 1966 0ba5 5F4D5F69 		.ascii "_M_is_leaked\0"
 1966      735F6C65 
 1966      616B6564 
 1966      00
 1967 0bb2 0D       		.byte	0xd
 1968 0bb3 BF       		.byte	0xbf
 1969 0bb4 5F5A4E4B 		.ascii "_ZNKSs4_Rep12_M_is_leakedEv\0"
 1969      5373345F 
 1969      52657031 
 1969      325F4D5F 
 1969      69735F6C 
 1970 0bd0 51430000 		.long	0x4351
 1971 0bd4 DC0B0000 		.long	0xbdc
 1972 0bd8 E20B0000 		.long	0xbe2
 1973 0bdc 19       		.uleb128 0x19
 1974 0bdd C6450000 		.long	0x45c6
 1975 0be1 00       		.byte	0
 1976 0be2 23       		.uleb128 0x23
 1977 0be3 5F4D5F69 		.ascii "_M_is_shared\0"
 1977      735F7368 
 1977      61726564 
 1977      00
 1978 0bf0 0D       		.byte	0xd
 1979 0bf1 C3       		.byte	0xc3
 1980 0bf2 5F5A4E4B 		.ascii "_ZNKSs4_Rep12_M_is_sharedEv\0"
 1980      5373345F 
 1980      52657031 
 1980      325F4D5F 
 1980      69735F73 
 1981 0c0e 51430000 		.long	0x4351
 1982 0c12 1A0C0000 		.long	0xc1a
 1983 0c16 200C0000 		.long	0xc20
 1984 0c1a 19       		.uleb128 0x19
 1985 0c1b C6450000 		.long	0x45c6
 1986 0c1f 00       		.byte	0
 1987 0c20 24       		.uleb128 0x24
 1988 0c21 5F4D5F73 		.ascii "_M_set_leaked\0"
 1988      65745F6C 
 1988      65616B65 
 1988      6400
 1989 0c2f 0D       		.byte	0xd
 1990 0c30 C7       		.byte	0xc7
 1991 0c31 5F5A4E53 		.ascii "_ZNSs4_Rep13_M_set_leakedEv\0"
 1991      73345F52 
 1991      65703133 
 1991      5F4D5F73 
 1991      65745F6C 
 1992 0c4d 550C0000 		.long	0xc55
 1993 0c51 5B0C0000 		.long	0xc5b
 1994 0c55 19       		.uleb128 0x19
 1995 0c56 A3450000 		.long	0x45a3
 1996 0c5a 00       		.byte	0
 1997 0c5b 24       		.uleb128 0x24
GAS LISTING C:\Users\NJLLMR~1\AppData\Local\Temp\ccqq7oi7.s 			page 65


 1998 0c5c 5F4D5F73 		.ascii "_M_set_sharable\0"
 1998      65745F73 
 1998      68617261 
 1998      626C6500 
 1999 0c6c 0D       		.byte	0xd
 2000 0c6d CB       		.byte	0xcb
 2001 0c6e 5F5A4E53 		.ascii "_ZNSs4_Rep15_M_set_sharableEv\0"
 2001      73345F52 
 2001      65703135 
 2001      5F4D5F73 
 2001      65745F73 
 2002 0c8c 940C0000 		.long	0xc94
 2003 0c90 9A0C0000 		.long	0xc9a
 2004 0c94 19       		.uleb128 0x19
 2005 0c95 A3450000 		.long	0x45a3
 2006 0c99 00       		.byte	0
 2007 0c9a 24       		.uleb128 0x24
 2008 0c9b 5F4D5F73 		.ascii "_M_set_length_and_sharable\0"
 2008      65745F6C 
 2008      656E6774 
 2008      685F616E 
 2008      645F7368 
 2009 0cb6 0D       		.byte	0xd
 2010 0cb7 CF       		.byte	0xcf
 2011 0cb8 5F5A4E53 		.ascii "_ZNSs4_Rep26_M_set_length_and_sharableEj\0"
 2011      73345F52 
 2011      65703236 
 2011      5F4D5F73 
 2011      65745F6C 
 2012 0ce1 E90C0000 		.long	0xce9
 2013 0ce5 F40C0000 		.long	0xcf4
 2014 0ce9 19       		.uleb128 0x19
 2015 0cea A3450000 		.long	0x45a3
 2016 0cee 0E       		.uleb128 0xe
 2017 0cef 190A0000 		.long	0xa19
 2018 0cf3 00       		.byte	0
 2019 0cf4 23       		.uleb128 0x23
 2020 0cf5 5F4D5F72 		.ascii "_M_refdata\0"
 2020      65666461 
 2020      746100
 2021 0d00 0D       		.byte	0xd
 2022 0d01 DE       		.byte	0xde
 2023 0d02 5F5A4E53 		.ascii "_ZNSs4_Rep10_M_refdataEv\0"
 2023      73345F52 
 2023      65703130 
 2023      5F4D5F72 
 2023      65666461 
 2024 0d1b 3F020000 		.long	0x23f
 2025 0d1f 270D0000 		.long	0xd27
 2026 0d23 2D0D0000 		.long	0xd2d
 2027 0d27 19       		.uleb128 0x19
 2028 0d28 A3450000 		.long	0x45a3
 2029 0d2c 00       		.byte	0
 2030 0d2d 23       		.uleb128 0x23
 2031 0d2e 5F4D5F67 		.ascii "_M_grab\0"
 2031      72616200 
 2032 0d36 0D       		.byte	0xd
GAS LISTING C:\Users\NJLLMR~1\AppData\Local\Temp\ccqq7oi7.s 			page 66


 2033 0d37 E2       		.byte	0xe2
 2034 0d38 5F5A4E53 		.ascii "_ZNSs4_Rep7_M_grabERKSaIcES2_\0"
 2034      73345F52 
 2034      6570375F 
 2034      4D5F6772 
 2034      61624552 
 2035 0d56 3F020000 		.long	0x23f
 2036 0d5a 620D0000 		.long	0xd62
 2037 0d5e 720D0000 		.long	0xd72
 2038 0d62 19       		.uleb128 0x19
 2039 0d63 A3450000 		.long	0x45a3
 2040 0d67 0E       		.uleb128 0xe
 2041 0d68 81450000 		.long	0x4581
 2042 0d6c 0E       		.uleb128 0xe
 2043 0d6d 81450000 		.long	0x4581
 2044 0d71 00       		.byte	0
 2045 0d72 12       		.uleb128 0x12
 2046 0d73 5F535F63 		.ascii "_S_create\0"
 2046      72656174 
 2046      6500
 2047 0d7d 0E       		.byte	0xe
 2048 0d7e 2102     		.word	0x221
 2049 0d80 5F5A4E53 		.ascii "_ZNSs4_Rep9_S_createEjjRKSaIcE\0"
 2049      73345F52 
 2049      6570395F 
 2049      535F6372 
 2049      65617465 
 2050 0d9f A3450000 		.long	0x45a3
 2051 0da3 B70D0000 		.long	0xdb7
 2052 0da7 0E       		.uleb128 0xe
 2053 0da8 190A0000 		.long	0xa19
 2054 0dac 0E       		.uleb128 0xe
 2055 0dad 190A0000 		.long	0xa19
 2056 0db1 0E       		.uleb128 0xe
 2057 0db2 81450000 		.long	0x4581
 2058 0db6 00       		.byte	0
 2059 0db7 24       		.uleb128 0x24
 2060 0db8 5F4D5F64 		.ascii "_M_dispose\0"
 2060      6973706F 
 2060      736500
 2061 0dc3 0D       		.byte	0xd
 2062 0dc4 ED       		.byte	0xed
 2063 0dc5 5F5A4E53 		.ascii "_ZNSs4_Rep10_M_disposeERKSaIcE\0"
 2063      73345F52 
 2063      65703130 
 2063      5F4D5F64 
 2063      6973706F 
 2064 0de4 EC0D0000 		.long	0xdec
 2065 0de8 F70D0000 		.long	0xdf7
 2066 0dec 19       		.uleb128 0x19
 2067 0ded A3450000 		.long	0x45a3
 2068 0df1 0E       		.uleb128 0xe
 2069 0df2 81450000 		.long	0x4581
 2070 0df6 00       		.byte	0
 2071 0df7 25       		.uleb128 0x25
 2072 0df8 5F4D5F64 		.ascii "_M_destroy\0"
 2072      65737472 
GAS LISTING C:\Users\NJLLMR~1\AppData\Local\Temp\ccqq7oi7.s 			page 67


 2072      6F7900
 2073 0e03 0E       		.byte	0xe
 2074 0e04 BC01     		.word	0x1bc
 2075 0e06 5F5A4E53 		.ascii "_ZNSs4_Rep10_M_destroyERKSaIcE\0"
 2075      73345F52 
 2075      65703130 
 2075      5F4D5F64 
 2075      65737472 
 2076 0e25 2D0E0000 		.long	0xe2d
 2077 0e29 380E0000 		.long	0xe38
 2078 0e2d 19       		.uleb128 0x19
 2079 0e2e A3450000 		.long	0x45a3
 2080 0e32 0E       		.uleb128 0xe
 2081 0e33 81450000 		.long	0x4581
 2082 0e37 00       		.byte	0
 2083 0e38 26       		.uleb128 0x26
 2084 0e39 5F4D5F72 		.ascii "_M_refcopy\0"
 2084      6566636F 
 2084      707900
 2085 0e44 0D       		.byte	0xd
 2086 0e45 0201     		.word	0x102
 2087 0e47 5F5A4E53 		.ascii "_ZNSs4_Rep10_M_refcopyEv\0"
 2087      73345F52 
 2087      65703130 
 2087      5F4D5F72 
 2087      6566636F 
 2088 0e60 3F020000 		.long	0x23f
 2089 0e64 6C0E0000 		.long	0xe6c
 2090 0e68 720E0000 		.long	0xe72
 2091 0e6c 19       		.uleb128 0x19
 2092 0e6d A3450000 		.long	0x45a3
 2093 0e71 00       		.byte	0
 2094 0e72 27       		.uleb128 0x27
 2095 0e73 5F4D5F63 		.ascii "_M_clone\0"
 2095      6C6F6E65 
 2095      00
 2096 0e7c 0E       		.byte	0xe
 2097 0e7d 6F02     		.word	0x26f
 2098 0e7f 5F5A4E53 		.ascii "_ZNSs4_Rep8_M_cloneERKSaIcEj\0"
 2098      73345F52 
 2098      6570385F 
 2098      4D5F636C 
 2098      6F6E6545 
 2099 0e9c 3F020000 		.long	0x23f
 2100 0ea0 A40E0000 		.long	0xea4
 2101 0ea4 19       		.uleb128 0x19
 2102 0ea5 A3450000 		.long	0x45a3
 2103 0ea9 0E       		.uleb128 0xe
 2104 0eaa 81450000 		.long	0x4581
 2105 0eae 0E       		.uleb128 0xe
 2106 0eaf 190A0000 		.long	0xa19
 2107 0eb3 00       		.byte	0
 2108 0eb4 00       		.byte	0
 2109 0eb5 26       		.uleb128 0x26
 2110 0eb6 5F4D5F64 		.ascii "_M_data\0"
 2110      61746100 
 2111 0ebe 0D       		.byte	0xd
GAS LISTING C:\Users\NJLLMR~1\AppData\Local\Temp\ccqq7oi7.s 			page 68


 2112 0ebf 2401     		.word	0x124
 2113 0ec1 5F5A4E4B 		.ascii "_ZNKSs7_M_dataEv\0"
 2113      5373375F 
 2113      4D5F6461 
 2113      74614576 
 2113      00
 2114 0ed2 3F020000 		.long	0x23f
 2115 0ed6 DE0E0000 		.long	0xede
 2116 0eda E40E0000 		.long	0xee4
 2117 0ede 19       		.uleb128 0x19
 2118 0edf 97450000 		.long	0x4597
 2119 0ee3 00       		.byte	0
 2120 0ee4 26       		.uleb128 0x26
 2121 0ee5 5F4D5F64 		.ascii "_M_data\0"
 2121      61746100 
 2122 0eed 0D       		.byte	0xd
 2123 0eee 2801     		.word	0x128
 2124 0ef0 5F5A4E53 		.ascii "_ZNSs7_M_dataEPc\0"
 2124      73375F4D 
 2124      5F646174 
 2124      61455063 
 2124      00
 2125 0f01 3F020000 		.long	0x23f
 2126 0f05 0D0F0000 		.long	0xf0d
 2127 0f09 180F0000 		.long	0xf18
 2128 0f0d 19       		.uleb128 0x19
 2129 0f0e 9D450000 		.long	0x459d
 2130 0f12 0E       		.uleb128 0xe
 2131 0f13 3F020000 		.long	0x23f
 2132 0f17 00       		.byte	0
 2133 0f18 26       		.uleb128 0x26
 2134 0f19 5F4D5F72 		.ascii "_M_rep\0"
 2134      657000
 2135 0f20 0D       		.byte	0xd
 2136 0f21 2C01     		.word	0x12c
 2137 0f23 5F5A4E4B 		.ascii "_ZNKSs6_M_repEv\0"
 2137      5373365F 
 2137      4D5F7265 
 2137      70457600 
 2138 0f33 A3450000 		.long	0x45a3
 2139 0f37 3F0F0000 		.long	0xf3f
 2140 0f3b 450F0000 		.long	0xf45
 2141 0f3f 19       		.uleb128 0x19
 2142 0f40 97450000 		.long	0x4597
 2143 0f44 00       		.byte	0
 2144 0f45 26       		.uleb128 0x26
 2145 0f46 5F4D5F69 		.ascii "_M_ibegin\0"
 2145      62656769 
 2145      6E00
 2146 0f50 0D       		.byte	0xd
 2147 0f51 3201     		.word	0x132
 2148 0f53 5F5A4E4B 		.ascii "_ZNKSs9_M_ibeginEv\0"
 2148      5373395F 
 2148      4D5F6962 
 2148      6567696E 
 2148      457600
 2149 0f66 7C0A0000 		.long	0xa7c
GAS LISTING C:\Users\NJLLMR~1\AppData\Local\Temp\ccqq7oi7.s 			page 69


 2150 0f6a 720F0000 		.long	0xf72
 2151 0f6e 780F0000 		.long	0xf78
 2152 0f72 19       		.uleb128 0x19
 2153 0f73 97450000 		.long	0x4597
 2154 0f77 00       		.byte	0
 2155 0f78 26       		.uleb128 0x26
 2156 0f79 5F4D5F69 		.ascii "_M_iend\0"
 2156      656E6400 
 2157 0f81 0D       		.byte	0xd
 2158 0f82 3601     		.word	0x136
 2159 0f84 5F5A4E4B 		.ascii "_ZNKSs7_M_iendEv\0"
 2159      5373375F 
 2159      4D5F6965 
 2159      6E644576 
 2159      00
 2160 0f95 7C0A0000 		.long	0xa7c
 2161 0f99 A10F0000 		.long	0xfa1
 2162 0f9d A70F0000 		.long	0xfa7
 2163 0fa1 19       		.uleb128 0x19
 2164 0fa2 97450000 		.long	0x4597
 2165 0fa6 00       		.byte	0
 2166 0fa7 25       		.uleb128 0x25
 2167 0fa8 5F4D5F6C 		.ascii "_M_leak\0"
 2167      65616B00 
 2168 0fb0 0D       		.byte	0xd
 2169 0fb1 3A01     		.word	0x13a
 2170 0fb3 5F5A4E53 		.ascii "_ZNSs7_M_leakEv\0"
 2170      73375F4D 
 2170      5F6C6561 
 2170      6B457600 
 2171 0fc3 CB0F0000 		.long	0xfcb
 2172 0fc7 D10F0000 		.long	0xfd1
 2173 0fcb 19       		.uleb128 0x19
 2174 0fcc 9D450000 		.long	0x459d
 2175 0fd0 00       		.byte	0
 2176 0fd1 26       		.uleb128 0x26
 2177 0fd2 5F4D5F63 		.ascii "_M_check\0"
 2177      6865636B 
 2177      00
 2178 0fdb 0D       		.byte	0xd
 2179 0fdc 4101     		.word	0x141
 2180 0fde 5F5A4E4B 		.ascii "_ZNKSs8_M_checkEjPKc\0"
 2180      5373385F 
 2180      4D5F6368 
 2180      65636B45 
 2180      6A504B63 
 2181 0ff3 190A0000 		.long	0xa19
 2182 0ff7 FF0F0000 		.long	0xfff
 2183 0ffb 0F100000 		.long	0x100f
 2184 0fff 19       		.uleb128 0x19
 2185 1000 97450000 		.long	0x4597
 2186 1004 0E       		.uleb128 0xe
 2187 1005 190A0000 		.long	0xa19
 2188 1009 0E       		.uleb128 0xe
 2189 100a 73370000 		.long	0x3773
 2190 100e 00       		.byte	0
 2191 100f 25       		.uleb128 0x25
GAS LISTING C:\Users\NJLLMR~1\AppData\Local\Temp\ccqq7oi7.s 			page 70


 2192 1010 5F4D5F63 		.ascii "_M_check_length\0"
 2192      6865636B 
 2192      5F6C656E 
 2192      67746800 
 2193 1020 0D       		.byte	0xd
 2194 1021 4B01     		.word	0x14b
 2195 1023 5F5A4E4B 		.ascii "_ZNKSs15_M_check_lengthEjjPKc\0"
 2195      53733135 
 2195      5F4D5F63 
 2195      6865636B 
 2195      5F6C656E 
 2196 1041 49100000 		.long	0x1049
 2197 1045 5E100000 		.long	0x105e
 2198 1049 19       		.uleb128 0x19
 2199 104a 97450000 		.long	0x4597
 2200 104e 0E       		.uleb128 0xe
 2201 104f 190A0000 		.long	0xa19
 2202 1053 0E       		.uleb128 0xe
 2203 1054 190A0000 		.long	0xa19
 2204 1058 0E       		.uleb128 0xe
 2205 1059 73370000 		.long	0x3773
 2206 105d 00       		.byte	0
 2207 105e 26       		.uleb128 0x26
 2208 105f 5F4D5F6C 		.ascii "_M_limit\0"
 2208      696D6974 
 2208      00
 2209 1068 0D       		.byte	0xd
 2210 1069 5301     		.word	0x153
 2211 106b 5F5A4E4B 		.ascii "_ZNKSs8_M_limitEjj\0"
 2211      5373385F 
 2211      4D5F6C69 
 2211      6D697445 
 2211      6A6A00
 2212 107e 190A0000 		.long	0xa19
 2213 1082 8A100000 		.long	0x108a
 2214 1086 9A100000 		.long	0x109a
 2215 108a 19       		.uleb128 0x19
 2216 108b 97450000 		.long	0x4597
 2217 108f 0E       		.uleb128 0xe
 2218 1090 190A0000 		.long	0xa19
 2219 1094 0E       		.uleb128 0xe
 2220 1095 190A0000 		.long	0xa19
 2221 1099 00       		.byte	0
 2222 109a 26       		.uleb128 0x26
 2223 109b 5F4D5F64 		.ascii "_M_disjunct\0"
 2223      69736A75 
 2223      6E637400 
 2224 10a7 0D       		.byte	0xd
 2225 10a8 5B01     		.word	0x15b
 2226 10aa 5F5A4E4B 		.ascii "_ZNKSs11_M_disjunctEPKc\0"
 2226      53733131 
 2226      5F4D5F64 
 2226      69736A75 
 2226      6E637445 
 2227 10c2 51430000 		.long	0x4351
 2228 10c6 CE100000 		.long	0x10ce
 2229 10ca D9100000 		.long	0x10d9
GAS LISTING C:\Users\NJLLMR~1\AppData\Local\Temp\ccqq7oi7.s 			page 71


 2230 10ce 19       		.uleb128 0x19
 2231 10cf 97450000 		.long	0x4597
 2232 10d3 0E       		.uleb128 0xe
 2233 10d4 73370000 		.long	0x3773
 2234 10d8 00       		.byte	0
 2235 10d9 28       		.uleb128 0x28
 2236 10da 5F4D5F63 		.ascii "_M_copy\0"
 2236      6F707900 
 2237 10e2 0D       		.byte	0xd
 2238 10e3 6401     		.word	0x164
 2239 10e5 5F5A4E53 		.ascii "_ZNSs7_M_copyEPcPKcj\0"
 2239      73375F4D 
 2239      5F636F70 
 2239      79455063 
 2239      504B636A 
 2240 10fa 0E110000 		.long	0x110e
 2241 10fe 0E       		.uleb128 0xe
 2242 10ff 3F020000 		.long	0x23f
 2243 1103 0E       		.uleb128 0xe
 2244 1104 73370000 		.long	0x3773
 2245 1108 0E       		.uleb128 0xe
 2246 1109 190A0000 		.long	0xa19
 2247 110d 00       		.byte	0
 2248 110e 28       		.uleb128 0x28
 2249 110f 5F4D5F6D 		.ascii "_M_move\0"
 2249      6F766500 
 2250 1117 0D       		.byte	0xd
 2251 1118 6D01     		.word	0x16d
 2252 111a 5F5A4E53 		.ascii "_ZNSs7_M_moveEPcPKcj\0"
 2252      73375F4D 
 2252      5F6D6F76 
 2252      65455063 
 2252      504B636A 
 2253 112f 43110000 		.long	0x1143
 2254 1133 0E       		.uleb128 0xe
 2255 1134 3F020000 		.long	0x23f
 2256 1138 0E       		.uleb128 0xe
 2257 1139 73370000 		.long	0x3773
 2258 113d 0E       		.uleb128 0xe
 2259 113e 190A0000 		.long	0xa19
 2260 1142 00       		.byte	0
 2261 1143 28       		.uleb128 0x28
 2262 1144 5F4D5F61 		.ascii "_M_assign\0"
 2262      73736967 
 2262      6E00
 2263 114e 0D       		.byte	0xd
 2264 114f 7601     		.word	0x176
 2265 1151 5F5A4E53 		.ascii "_ZNSs9_M_assignEPcjc\0"
 2265      73395F4D 
 2265      5F617373 
 2265      69676E45 
 2265      50636A63 
 2266 1166 7A110000 		.long	0x117a
 2267 116a 0E       		.uleb128 0xe
 2268 116b 3F020000 		.long	0x23f
 2269 116f 0E       		.uleb128 0xe
 2270 1170 190A0000 		.long	0xa19
GAS LISTING C:\Users\NJLLMR~1\AppData\Local\Temp\ccqq7oi7.s 			page 72


 2271 1174 0E       		.uleb128 0xe
 2272 1175 53010000 		.long	0x153
 2273 1179 00       		.byte	0
 2274 117a 29       		.uleb128 0x29
 2275 117b F9000000 		.secrel32	LASF8
 2276 117f 0D       		.byte	0xd
 2277 1180 8A01     		.word	0x18a
 2278 1182 5F5A4E53 		.ascii "_ZNSs13_S_copy_charsEPcN9__gnu_cxx17__normal_iteratorIS_SsEES2_\0"
 2278      7331335F 
 2278      535F636F 
 2278      70795F63 
 2278      68617273 
 2279 11c2 D6110000 		.long	0x11d6
 2280 11c6 0E       		.uleb128 0xe
 2281 11c7 3F020000 		.long	0x23f
 2282 11cb 0E       		.uleb128 0xe
 2283 11cc 7C0A0000 		.long	0xa7c
 2284 11d0 0E       		.uleb128 0xe
 2285 11d1 7C0A0000 		.long	0xa7c
 2286 11d5 00       		.byte	0
 2287 11d6 29       		.uleb128 0x29
 2288 11d7 F9000000 		.secrel32	LASF8
 2289 11db 0D       		.byte	0xd
 2290 11dc 8E01     		.word	0x18e
 2291 11de 5F5A4E53 		.ascii "_ZNSs13_S_copy_charsEPcN9__gnu_cxx17__normal_iteratorIPKcSsEES4_\0"
 2291      7331335F 
 2291      535F636F 
 2291      70795F63 
 2291      68617273 
 2292 121f 33120000 		.long	0x1233
 2293 1223 0E       		.uleb128 0xe
 2294 1224 3F020000 		.long	0x23f
 2295 1228 0E       		.uleb128 0xe
 2296 1229 8D0A0000 		.long	0xa8d
 2297 122d 0E       		.uleb128 0xe
 2298 122e 8D0A0000 		.long	0xa8d
 2299 1232 00       		.byte	0
 2300 1233 29       		.uleb128 0x29
 2301 1234 F9000000 		.secrel32	LASF8
 2302 1238 0D       		.byte	0xd
 2303 1239 9301     		.word	0x193
 2304 123b 5F5A4E53 		.ascii "_ZNSs13_S_copy_charsEPcS_S_\0"
 2304      7331335F 
 2304      535F636F 
 2304      70795F63 
 2304      68617273 
 2305 1257 6B120000 		.long	0x126b
 2306 125b 0E       		.uleb128 0xe
 2307 125c 3F020000 		.long	0x23f
 2308 1260 0E       		.uleb128 0xe
 2309 1261 3F020000 		.long	0x23f
 2310 1265 0E       		.uleb128 0xe
 2311 1266 3F020000 		.long	0x23f
 2312 126a 00       		.byte	0
 2313 126b 29       		.uleb128 0x29
 2314 126c F9000000 		.secrel32	LASF8
 2315 1270 0D       		.byte	0xd
GAS LISTING C:\Users\NJLLMR~1\AppData\Local\Temp\ccqq7oi7.s 			page 73


 2316 1271 9701     		.word	0x197
 2317 1273 5F5A4E53 		.ascii "_ZNSs13_S_copy_charsEPcPKcS1_\0"
 2317      7331335F 
 2317      535F636F 
 2317      70795F63 
 2317      68617273 
 2318 1291 A5120000 		.long	0x12a5
 2319 1295 0E       		.uleb128 0xe
 2320 1296 3F020000 		.long	0x23f
 2321 129a 0E       		.uleb128 0xe
 2322 129b 73370000 		.long	0x3773
 2323 129f 0E       		.uleb128 0xe
 2324 12a0 73370000 		.long	0x3773
 2325 12a4 00       		.byte	0
 2326 12a5 12       		.uleb128 0x12
 2327 12a6 5F535F63 		.ascii "_S_compare\0"
 2327      6F6D7061 
 2327      726500
 2328 12b1 0D       		.byte	0xd
 2329 12b2 9C01     		.word	0x19c
 2330 12b4 5F5A4E53 		.ascii "_ZNSs10_S_compareEjj\0"
 2330      7331305F 
 2330      535F636F 
 2330      6D706172 
 2330      65456A6A 
 2331 12c9 87010000 		.long	0x187
 2332 12cd DC120000 		.long	0x12dc
 2333 12d1 0E       		.uleb128 0xe
 2334 12d2 190A0000 		.long	0xa19
 2335 12d6 0E       		.uleb128 0xe
 2336 12d7 190A0000 		.long	0xa19
 2337 12db 00       		.byte	0
 2338 12dc 25       		.uleb128 0x25
 2339 12dd 5F4D5F6D 		.ascii "_M_mutate\0"
 2339      75746174 
 2339      6500
 2340 12e7 0E       		.byte	0xe
 2341 12e8 D401     		.word	0x1d4
 2342 12ea 5F5A4E53 		.ascii "_ZNSs9_M_mutateEjjj\0"
 2342      73395F4D 
 2342      5F6D7574 
 2342      61746545 
 2342      6A6A6A00 
 2343 12fe 06130000 		.long	0x1306
 2344 1302 1B130000 		.long	0x131b
 2345 1306 19       		.uleb128 0x19
 2346 1307 9D450000 		.long	0x459d
 2347 130b 0E       		.uleb128 0xe
 2348 130c 190A0000 		.long	0xa19
 2349 1310 0E       		.uleb128 0xe
 2350 1311 190A0000 		.long	0xa19
 2351 1315 0E       		.uleb128 0xe
 2352 1316 190A0000 		.long	0xa19
 2353 131a 00       		.byte	0
 2354 131b 25       		.uleb128 0x25
 2355 131c 5F4D5F6C 		.ascii "_M_leak_hard\0"
 2355      65616B5F 
GAS LISTING C:\Users\NJLLMR~1\AppData\Local\Temp\ccqq7oi7.s 			page 74


 2355      68617264 
 2355      00
 2356 1329 0E       		.byte	0xe
 2357 132a C601     		.word	0x1c6
 2358 132c 5F5A4E53 		.ascii "_ZNSs12_M_leak_hardEv\0"
 2358      7331325F 
 2358      4D5F6C65 
 2358      616B5F68 
 2358      61726445 
 2359 1342 4A130000 		.long	0x134a
 2360 1346 50130000 		.long	0x1350
 2361 134a 19       		.uleb128 0x19
 2362 134b 9D450000 		.long	0x459d
 2363 134f 00       		.byte	0
 2364 1350 2A       		.uleb128 0x2a
 2365 1351 08000000 		.secrel32	LASF7
 2366 1355 0D       		.byte	0xd
 2367 1356 AF01     		.word	0x1af
 2368 1358 5F5A4E53 		.ascii "_ZNSs12_S_empty_repEv\0"
 2368      7331325F 
 2368      535F656D 
 2368      7074795F 
 2368      72657045 
 2369 136e A9450000 		.long	0x45a9
 2370 1372 2B       		.uleb128 0x2b
 2371 1373 40000000 		.secrel32	LASF9
 2372 1377 0D       		.byte	0xd
 2373 1378 BA01     		.word	0x1ba
 2374 137a 01       		.byte	0x1
 2375 137b 83130000 		.long	0x1383
 2376 137f 89130000 		.long	0x1389
 2377 1383 19       		.uleb128 0x19
 2378 1384 9D450000 		.long	0x459d
 2379 1388 00       		.byte	0
 2380 1389 2C       		.uleb128 0x2c
 2381 138a 40000000 		.secrel32	LASF9
 2382 138e 0E       		.byte	0xe
 2383 138f B1       		.byte	0xb1
 2384 1390 01       		.byte	0x1
 2385 1391 99130000 		.long	0x1399
 2386 1395 A4130000 		.long	0x13a4
 2387 1399 19       		.uleb128 0x19
 2388 139a 9D450000 		.long	0x459d
 2389 139e 0E       		.uleb128 0xe
 2390 139f 81450000 		.long	0x4581
 2391 13a3 00       		.byte	0
 2392 13a4 18       		.uleb128 0x18
 2393 13a5 40000000 		.secrel32	LASF9
 2394 13a9 0E       		.byte	0xe
 2395 13aa A9       		.byte	0xa9
 2396 13ab 01       		.byte	0x1
 2397 13ac B4130000 		.long	0x13b4
 2398 13b0 BF130000 		.long	0x13bf
 2399 13b4 19       		.uleb128 0x19
 2400 13b5 9D450000 		.long	0x459d
 2401 13b9 0E       		.uleb128 0xe
 2402 13ba AF450000 		.long	0x45af
GAS LISTING C:\Users\NJLLMR~1\AppData\Local\Temp\ccqq7oi7.s 			page 75


 2403 13be 00       		.byte	0
 2404 13bf 18       		.uleb128 0x18
 2405 13c0 40000000 		.secrel32	LASF9
 2406 13c4 0E       		.byte	0xe
 2407 13c5 B7       		.byte	0xb7
 2408 13c6 01       		.byte	0x1
 2409 13c7 CF130000 		.long	0x13cf
 2410 13cb E4130000 		.long	0x13e4
 2411 13cf 19       		.uleb128 0x19
 2412 13d0 9D450000 		.long	0x459d
 2413 13d4 0E       		.uleb128 0xe
 2414 13d5 AF450000 		.long	0x45af
 2415 13d9 0E       		.uleb128 0xe
 2416 13da 190A0000 		.long	0xa19
 2417 13de 0E       		.uleb128 0xe
 2418 13df 190A0000 		.long	0xa19
 2419 13e3 00       		.byte	0
 2420 13e4 18       		.uleb128 0x18
 2421 13e5 40000000 		.secrel32	LASF9
 2422 13e9 0E       		.byte	0xe
 2423 13ea C1       		.byte	0xc1
 2424 13eb 01       		.byte	0x1
 2425 13ec F4130000 		.long	0x13f4
 2426 13f0 0E140000 		.long	0x140e
 2427 13f4 19       		.uleb128 0x19
 2428 13f5 9D450000 		.long	0x459d
 2429 13f9 0E       		.uleb128 0xe
 2430 13fa AF450000 		.long	0x45af
 2431 13fe 0E       		.uleb128 0xe
 2432 13ff 190A0000 		.long	0xa19
 2433 1403 0E       		.uleb128 0xe
 2434 1404 190A0000 		.long	0xa19
 2435 1408 0E       		.uleb128 0xe
 2436 1409 81450000 		.long	0x4581
 2437 140d 00       		.byte	0
 2438 140e 18       		.uleb128 0x18
 2439 140f 40000000 		.secrel32	LASF9
 2440 1413 0E       		.byte	0xe
 2441 1414 CD       		.byte	0xcd
 2442 1415 01       		.byte	0x1
 2443 1416 1E140000 		.long	0x141e
 2444 141a 33140000 		.long	0x1433
 2445 141e 19       		.uleb128 0x19
 2446 141f 9D450000 		.long	0x459d
 2447 1423 0E       		.uleb128 0xe
 2448 1424 73370000 		.long	0x3773
 2449 1428 0E       		.uleb128 0xe
 2450 1429 190A0000 		.long	0xa19
 2451 142d 0E       		.uleb128 0xe
 2452 142e 81450000 		.long	0x4581
 2453 1432 00       		.byte	0
 2454 1433 18       		.uleb128 0x18
 2455 1434 40000000 		.secrel32	LASF9
 2456 1438 0E       		.byte	0xe
 2457 1439 D4       		.byte	0xd4
 2458 143a 01       		.byte	0x1
 2459 143b 43140000 		.long	0x1443
GAS LISTING C:\Users\NJLLMR~1\AppData\Local\Temp\ccqq7oi7.s 			page 76


 2460 143f 53140000 		.long	0x1453
 2461 1443 19       		.uleb128 0x19
 2462 1444 9D450000 		.long	0x459d
 2463 1448 0E       		.uleb128 0xe
 2464 1449 73370000 		.long	0x3773
 2465 144d 0E       		.uleb128 0xe
 2466 144e 81450000 		.long	0x4581
 2467 1452 00       		.byte	0
 2468 1453 18       		.uleb128 0x18
 2469 1454 40000000 		.secrel32	LASF9
 2470 1458 0E       		.byte	0xe
 2471 1459 DB       		.byte	0xdb
 2472 145a 01       		.byte	0x1
 2473 145b 63140000 		.long	0x1463
 2474 145f 78140000 		.long	0x1478
 2475 1463 19       		.uleb128 0x19
 2476 1464 9D450000 		.long	0x459d
 2477 1468 0E       		.uleb128 0xe
 2478 1469 190A0000 		.long	0xa19
 2479 146d 0E       		.uleb128 0xe
 2480 146e 53010000 		.long	0x153
 2481 1472 0E       		.uleb128 0xe
 2482 1473 81450000 		.long	0x4581
 2483 1477 00       		.byte	0
 2484 1478 2D       		.uleb128 0x2d
 2485 1479 7E626173 		.ascii "~basic_string\0"
 2485      69635F73 
 2485      7472696E 
 2485      6700
 2486 1487 0D       		.byte	0xd
 2487 1488 2202     		.word	0x222
 2488 148a 01       		.byte	0x1
 2489 148b 93140000 		.long	0x1493
 2490 148f 9E140000 		.long	0x149e
 2491 1493 19       		.uleb128 0x19
 2492 1494 9D450000 		.long	0x459d
 2493 1498 19       		.uleb128 0x19
 2494 1499 87010000 		.long	0x187
 2495 149d 00       		.byte	0
 2496 149e 2E       		.uleb128 0x2e
 2497 149f 2E010000 		.secrel32	LASF10
 2498 14a3 0D       		.byte	0xd
 2499 14a4 2A02     		.word	0x22a
 2500 14a6 5F5A4E53 		.ascii "_ZNSsaSERKSs\0"
 2500      73615345 
 2500      524B5373 
 2500      00
 2501 14b3 B5450000 		.long	0x45b5
 2502 14b7 01       		.byte	0x1
 2503 14b8 C0140000 		.long	0x14c0
 2504 14bc CB140000 		.long	0x14cb
 2505 14c0 19       		.uleb128 0x19
 2506 14c1 9D450000 		.long	0x459d
 2507 14c5 0E       		.uleb128 0xe
 2508 14c6 AF450000 		.long	0x45af
 2509 14ca 00       		.byte	0
 2510 14cb 2E       		.uleb128 0x2e
GAS LISTING C:\Users\NJLLMR~1\AppData\Local\Temp\ccqq7oi7.s 			page 77


 2511 14cc 2E010000 		.secrel32	LASF10
 2512 14d0 0D       		.byte	0xd
 2513 14d1 3202     		.word	0x232
 2514 14d3 5F5A4E53 		.ascii "_ZNSsaSEPKc\0"
 2514      73615345 
 2514      504B6300 
 2515 14df B5450000 		.long	0x45b5
 2516 14e3 01       		.byte	0x1
 2517 14e4 EC140000 		.long	0x14ec
 2518 14e8 F7140000 		.long	0x14f7
 2519 14ec 19       		.uleb128 0x19
 2520 14ed 9D450000 		.long	0x459d
 2521 14f1 0E       		.uleb128 0xe
 2522 14f2 73370000 		.long	0x3773
 2523 14f6 00       		.byte	0
 2524 14f7 2E       		.uleb128 0x2e
 2525 14f8 2E010000 		.secrel32	LASF10
 2526 14fc 0D       		.byte	0xd
 2527 14fd 3D02     		.word	0x23d
 2528 14ff 5F5A4E53 		.ascii "_ZNSsaSEc\0"
 2528      73615345 
 2528      6300
 2529 1509 B5450000 		.long	0x45b5
 2530 150d 01       		.byte	0x1
 2531 150e 16150000 		.long	0x1516
 2532 1512 21150000 		.long	0x1521
 2533 1516 19       		.uleb128 0x19
 2534 1517 9D450000 		.long	0x459d
 2535 151b 0E       		.uleb128 0xe
 2536 151c 53010000 		.long	0x153
 2537 1520 00       		.byte	0
 2538 1521 2F       		.uleb128 0x2f
 2539 1522 62656769 		.ascii "begin\0"
 2539      6E00
 2540 1528 0D       		.byte	0xd
 2541 1529 6602     		.word	0x266
 2542 152b 5F5A4E53 		.ascii "_ZNSs5beginEv\0"
 2542      73356265 
 2542      67696E45 
 2542      7600
 2543 1539 7C0A0000 		.long	0xa7c
 2544 153d 01       		.byte	0x1
 2545 153e 46150000 		.long	0x1546
 2546 1542 4C150000 		.long	0x154c
 2547 1546 19       		.uleb128 0x19
 2548 1547 9D450000 		.long	0x459d
 2549 154b 00       		.byte	0
 2550 154c 2F       		.uleb128 0x2f
 2551 154d 62656769 		.ascii "begin\0"
 2551      6E00
 2552 1553 0D       		.byte	0xd
 2553 1554 7102     		.word	0x271
 2554 1556 5F5A4E4B 		.ascii "_ZNKSs5beginEv\0"
 2554      53733562 
 2554      6567696E 
 2554      457600
 2555 1565 8D0A0000 		.long	0xa8d
GAS LISTING C:\Users\NJLLMR~1\AppData\Local\Temp\ccqq7oi7.s 			page 78


 2556 1569 01       		.byte	0x1
 2557 156a 72150000 		.long	0x1572
 2558 156e 78150000 		.long	0x1578
 2559 1572 19       		.uleb128 0x19
 2560 1573 97450000 		.long	0x4597
 2561 1577 00       		.byte	0
 2562 1578 2F       		.uleb128 0x2f
 2563 1579 656E6400 		.ascii "end\0"
 2564 157d 0D       		.byte	0xd
 2565 157e 7902     		.word	0x279
 2566 1580 5F5A4E53 		.ascii "_ZNSs3endEv\0"
 2566      7333656E 
 2566      64457600 
 2567 158c 7C0A0000 		.long	0xa7c
 2568 1590 01       		.byte	0x1
 2569 1591 99150000 		.long	0x1599
 2570 1595 9F150000 		.long	0x159f
 2571 1599 19       		.uleb128 0x19
 2572 159a 9D450000 		.long	0x459d
 2573 159e 00       		.byte	0
 2574 159f 2F       		.uleb128 0x2f
 2575 15a0 656E6400 		.ascii "end\0"
 2576 15a4 0D       		.byte	0xd
 2577 15a5 8402     		.word	0x284
 2578 15a7 5F5A4E4B 		.ascii "_ZNKSs3endEv\0"
 2578      53733365 
 2578      6E644576 
 2578      00
 2579 15b4 8D0A0000 		.long	0xa8d
 2580 15b8 01       		.byte	0x1
 2581 15b9 C1150000 		.long	0x15c1
 2582 15bd C7150000 		.long	0x15c7
 2583 15c1 19       		.uleb128 0x19
 2584 15c2 97450000 		.long	0x4597
 2585 15c6 00       		.byte	0
 2586 15c7 2F       		.uleb128 0x2f
 2587 15c8 72626567 		.ascii "rbegin\0"
 2587      696E00
 2588 15cf 0D       		.byte	0xd
 2589 15d0 8D02     		.word	0x28d
 2590 15d2 5F5A4E53 		.ascii "_ZNSs6rbeginEv\0"
 2590      73367262 
 2590      6567696E 
 2590      457600
 2591 15e1 C30A0000 		.long	0xac3
 2592 15e5 01       		.byte	0x1
 2593 15e6 EE150000 		.long	0x15ee
 2594 15ea F4150000 		.long	0x15f4
 2595 15ee 19       		.uleb128 0x19
 2596 15ef 9D450000 		.long	0x459d
 2597 15f3 00       		.byte	0
 2598 15f4 2F       		.uleb128 0x2f
 2599 15f5 72626567 		.ascii "rbegin\0"
 2599      696E00
 2600 15fc 0D       		.byte	0xd
 2601 15fd 9602     		.word	0x296
 2602 15ff 5F5A4E4B 		.ascii "_ZNKSs6rbeginEv\0"
GAS LISTING C:\Users\NJLLMR~1\AppData\Local\Temp\ccqq7oi7.s 			page 79


 2602      53733672 
 2602      62656769 
 2602      6E457600 
 2603 160f A40A0000 		.long	0xaa4
 2604 1613 01       		.byte	0x1
 2605 1614 1C160000 		.long	0x161c
 2606 1618 22160000 		.long	0x1622
 2607 161c 19       		.uleb128 0x19
 2608 161d 97450000 		.long	0x4597
 2609 1621 00       		.byte	0
 2610 1622 2F       		.uleb128 0x2f
 2611 1623 72656E64 		.ascii "rend\0"
 2611      00
 2612 1628 0D       		.byte	0xd
 2613 1629 9F02     		.word	0x29f
 2614 162b 5F5A4E53 		.ascii "_ZNSs4rendEv\0"
 2614      73347265 
 2614      6E644576 
 2614      00
 2615 1638 C30A0000 		.long	0xac3
 2616 163c 01       		.byte	0x1
 2617 163d 45160000 		.long	0x1645
 2618 1641 4B160000 		.long	0x164b
 2619 1645 19       		.uleb128 0x19
 2620 1646 9D450000 		.long	0x459d
 2621 164a 00       		.byte	0
 2622 164b 2F       		.uleb128 0x2f
 2623 164c 72656E64 		.ascii "rend\0"
 2623      00
 2624 1651 0D       		.byte	0xd
 2625 1652 A802     		.word	0x2a8
 2626 1654 5F5A4E4B 		.ascii "_ZNKSs4rendEv\0"
 2626      53733472 
 2626      656E6445 
 2626      7600
 2627 1662 A40A0000 		.long	0xaa4
 2628 1666 01       		.byte	0x1
 2629 1667 6F160000 		.long	0x166f
 2630 166b 75160000 		.long	0x1675
 2631 166f 19       		.uleb128 0x19
 2632 1670 97450000 		.long	0x4597
 2633 1674 00       		.byte	0
 2634 1675 2F       		.uleb128 0x2f
 2635 1676 73697A65 		.ascii "size\0"
 2635      00
 2636 167b 0D       		.byte	0xd
 2637 167c D402     		.word	0x2d4
 2638 167e 5F5A4E4B 		.ascii "_ZNKSs4sizeEv\0"
 2638      53733473 
 2638      697A6545 
 2638      7600
 2639 168c 190A0000 		.long	0xa19
 2640 1690 01       		.byte	0x1
 2641 1691 99160000 		.long	0x1699
 2642 1695 9F160000 		.long	0x169f
 2643 1699 19       		.uleb128 0x19
 2644 169a 97450000 		.long	0x4597
GAS LISTING C:\Users\NJLLMR~1\AppData\Local\Temp\ccqq7oi7.s 			page 80


 2645 169e 00       		.byte	0
 2646 169f 2F       		.uleb128 0x2f
 2647 16a0 6C656E67 		.ascii "length\0"
 2647      746800
 2648 16a7 0D       		.byte	0xd
 2649 16a8 DA02     		.word	0x2da
 2650 16aa 5F5A4E4B 		.ascii "_ZNKSs6lengthEv\0"
 2650      5373366C 
 2650      656E6774 
 2650      68457600 
 2651 16ba 190A0000 		.long	0xa19
 2652 16be 01       		.byte	0x1
 2653 16bf C7160000 		.long	0x16c7
 2654 16c3 CD160000 		.long	0x16cd
 2655 16c7 19       		.uleb128 0x19
 2656 16c8 97450000 		.long	0x4597
 2657 16cc 00       		.byte	0
 2658 16cd 2E       		.uleb128 0x2e
 2659 16ce C5000000 		.secrel32	LASF11
 2660 16d2 0D       		.byte	0xd
 2661 16d3 DF02     		.word	0x2df
 2662 16d5 5F5A4E4B 		.ascii "_ZNKSs8max_sizeEv\0"
 2662      5373386D 
 2662      61785F73 
 2662      697A6545 
 2662      7600
 2663 16e7 190A0000 		.long	0xa19
 2664 16eb 01       		.byte	0x1
 2665 16ec F4160000 		.long	0x16f4
 2666 16f0 FA160000 		.long	0x16fa
 2667 16f4 19       		.uleb128 0x19
 2668 16f5 97450000 		.long	0x4597
 2669 16f9 00       		.byte	0
 2670 16fa 30       		.uleb128 0x30
 2671 16fb 72657369 		.ascii "resize\0"
 2671      7A6500
 2672 1702 0E       		.byte	0xe
 2673 1703 7F02     		.word	0x27f
 2674 1705 5F5A4E53 		.ascii "_ZNSs6resizeEjc\0"
 2674      73367265 
 2674      73697A65 
 2674      456A6300 
 2675 1715 01       		.byte	0x1
 2676 1716 1E170000 		.long	0x171e
 2677 171a 2E170000 		.long	0x172e
 2678 171e 19       		.uleb128 0x19
 2679 171f 9D450000 		.long	0x459d
 2680 1723 0E       		.uleb128 0xe
 2681 1724 190A0000 		.long	0xa19
 2682 1728 0E       		.uleb128 0xe
 2683 1729 53010000 		.long	0x153
 2684 172d 00       		.byte	0
 2685 172e 30       		.uleb128 0x30
 2686 172f 72657369 		.ascii "resize\0"
 2686      7A6500
 2687 1736 0D       		.byte	0xd
 2688 1737 FA02     		.word	0x2fa
GAS LISTING C:\Users\NJLLMR~1\AppData\Local\Temp\ccqq7oi7.s 			page 81


 2689 1739 5F5A4E53 		.ascii "_ZNSs6resizeEj\0"
 2689      73367265 
 2689      73697A65 
 2689      456A00
 2690 1748 01       		.byte	0x1
 2691 1749 51170000 		.long	0x1751
 2692 174d 5C170000 		.long	0x175c
 2693 1751 19       		.uleb128 0x19
 2694 1752 9D450000 		.long	0x459d
 2695 1756 0E       		.uleb128 0xe
 2696 1757 190A0000 		.long	0xa19
 2697 175b 00       		.byte	0
 2698 175c 2F       		.uleb128 0x2f
 2699 175d 63617061 		.ascii "capacity\0"
 2699      63697479 
 2699      00
 2700 1766 0D       		.byte	0xd
 2701 1767 1103     		.word	0x311
 2702 1769 5F5A4E4B 		.ascii "_ZNKSs8capacityEv\0"
 2702      53733863 
 2702      61706163 
 2702      69747945 
 2702      7600
 2703 177b 190A0000 		.long	0xa19
 2704 177f 01       		.byte	0x1
 2705 1780 88170000 		.long	0x1788
 2706 1784 8E170000 		.long	0x178e
 2707 1788 19       		.uleb128 0x19
 2708 1789 97450000 		.long	0x4597
 2709 178d 00       		.byte	0
 2710 178e 30       		.uleb128 0x30
 2711 178f 72657365 		.ascii "reserve\0"
 2711      72766500 
 2712 1797 0E       		.byte	0xe
 2713 1798 F501     		.word	0x1f5
 2714 179a 5F5A4E53 		.ascii "_ZNSs7reserveEj\0"
 2714      73377265 
 2714      73657276 
 2714      65456A00 
 2715 17aa 01       		.byte	0x1
 2716 17ab B3170000 		.long	0x17b3
 2717 17af BE170000 		.long	0x17be
 2718 17b3 19       		.uleb128 0x19
 2719 17b4 9D450000 		.long	0x459d
 2720 17b8 0E       		.uleb128 0xe
 2721 17b9 190A0000 		.long	0xa19
 2722 17bd 00       		.byte	0
 2723 17be 30       		.uleb128 0x30
 2724 17bf 636C6561 		.ascii "clear\0"
 2724      7200
 2725 17c5 0D       		.byte	0xd
 2726 17c6 2D03     		.word	0x32d
 2727 17c8 5F5A4E53 		.ascii "_ZNSs5clearEv\0"
 2727      7335636C 
 2727      65617245 
 2727      7600
 2728 17d6 01       		.byte	0x1
GAS LISTING C:\Users\NJLLMR~1\AppData\Local\Temp\ccqq7oi7.s 			page 82


 2729 17d7 DF170000 		.long	0x17df
 2730 17db E5170000 		.long	0x17e5
 2731 17df 19       		.uleb128 0x19
 2732 17e0 9D450000 		.long	0x459d
 2733 17e4 00       		.byte	0
 2734 17e5 2F       		.uleb128 0x2f
 2735 17e6 656D7074 		.ascii "empty\0"
 2735      7900
 2736 17ec 0D       		.byte	0xd
 2737 17ed 3503     		.word	0x335
 2738 17ef 5F5A4E4B 		.ascii "_ZNKSs5emptyEv\0"
 2738      53733565 
 2738      6D707479 
 2738      457600
 2739 17fe 51430000 		.long	0x4351
 2740 1802 01       		.byte	0x1
 2741 1803 0B180000 		.long	0x180b
 2742 1807 11180000 		.long	0x1811
 2743 180b 19       		.uleb128 0x19
 2744 180c 97450000 		.long	0x4597
 2745 1810 00       		.byte	0
 2746 1811 2E       		.uleb128 0x2e
 2747 1812 4D000000 		.secrel32	LASF12
 2748 1816 0D       		.byte	0xd
 2749 1817 4403     		.word	0x344
 2750 1819 5F5A4E4B 		.ascii "_ZNKSsixEj\0"
 2750      53736978 
 2750      456A00
 2751 1824 700A0000 		.long	0xa70
 2752 1828 01       		.byte	0x1
 2753 1829 31180000 		.long	0x1831
 2754 182d 3C180000 		.long	0x183c
 2755 1831 19       		.uleb128 0x19
 2756 1832 97450000 		.long	0x4597
 2757 1836 0E       		.uleb128 0xe
 2758 1837 190A0000 		.long	0xa19
 2759 183b 00       		.byte	0
 2760 183c 2E       		.uleb128 0x2e
 2761 183d 4D000000 		.secrel32	LASF12
 2762 1841 0D       		.byte	0xd
 2763 1842 5503     		.word	0x355
 2764 1844 5F5A4E53 		.ascii "_ZNSsixEj\0"
 2764      73697845 
 2764      6A00
 2765 184e 640A0000 		.long	0xa64
 2766 1852 01       		.byte	0x1
 2767 1853 5B180000 		.long	0x185b
 2768 1857 66180000 		.long	0x1866
 2769 185b 19       		.uleb128 0x19
 2770 185c 9D450000 		.long	0x459d
 2771 1860 0E       		.uleb128 0xe
 2772 1861 190A0000 		.long	0xa19
 2773 1865 00       		.byte	0
 2774 1866 2F       		.uleb128 0x2f
 2775 1867 617400   		.ascii "at\0"
 2776 186a 0D       		.byte	0xd
 2777 186b 6B03     		.word	0x36b
GAS LISTING C:\Users\NJLLMR~1\AppData\Local\Temp\ccqq7oi7.s 			page 83


 2778 186d 5F5A4E4B 		.ascii "_ZNKSs2atEj\0"
 2778      53733261 
 2778      74456A00 
 2779 1879 700A0000 		.long	0xa70
 2780 187d 01       		.byte	0x1
 2781 187e 86180000 		.long	0x1886
 2782 1882 91180000 		.long	0x1891
 2783 1886 19       		.uleb128 0x19
 2784 1887 97450000 		.long	0x4597
 2785 188b 0E       		.uleb128 0xe
 2786 188c 190A0000 		.long	0xa19
 2787 1890 00       		.byte	0
 2788 1891 2F       		.uleb128 0x2f
 2789 1892 617400   		.ascii "at\0"
 2790 1895 0D       		.byte	0xd
 2791 1896 8103     		.word	0x381
 2792 1898 5F5A4E53 		.ascii "_ZNSs2atEj\0"
 2792      73326174 
 2792      456A00
 2793 18a3 640A0000 		.long	0xa64
 2794 18a7 01       		.byte	0x1
 2795 18a8 B0180000 		.long	0x18b0
 2796 18ac BB180000 		.long	0x18bb
 2797 18b0 19       		.uleb128 0x19
 2798 18b1 9D450000 		.long	0x459d
 2799 18b5 0E       		.uleb128 0xe
 2800 18b6 190A0000 		.long	0xa19
 2801 18ba 00       		.byte	0
 2802 18bb 2E       		.uleb128 0x2e
 2803 18bc E0000000 		.secrel32	LASF13
 2804 18c0 0D       		.byte	0xd
 2805 18c1 B503     		.word	0x3b5
 2806 18c3 5F5A4E53 		.ascii "_ZNSspLERKSs\0"
 2806      73704C45 
 2806      524B5373 
 2806      00
 2807 18d0 B5450000 		.long	0x45b5
 2808 18d4 01       		.byte	0x1
 2809 18d5 DD180000 		.long	0x18dd
 2810 18d9 E8180000 		.long	0x18e8
 2811 18dd 19       		.uleb128 0x19
 2812 18de 9D450000 		.long	0x459d
 2813 18e2 0E       		.uleb128 0xe
 2814 18e3 AF450000 		.long	0x45af
 2815 18e7 00       		.byte	0
 2816 18e8 2E       		.uleb128 0x2e
 2817 18e9 E0000000 		.secrel32	LASF13
 2818 18ed 0D       		.byte	0xd
 2819 18ee BE03     		.word	0x3be
 2820 18f0 5F5A4E53 		.ascii "_ZNSspLEPKc\0"
 2820      73704C45 
 2820      504B6300 
 2821 18fc B5450000 		.long	0x45b5
 2822 1900 01       		.byte	0x1
 2823 1901 09190000 		.long	0x1909
 2824 1905 14190000 		.long	0x1914
 2825 1909 19       		.uleb128 0x19
GAS LISTING C:\Users\NJLLMR~1\AppData\Local\Temp\ccqq7oi7.s 			page 84


 2826 190a 9D450000 		.long	0x459d
 2827 190e 0E       		.uleb128 0xe
 2828 190f 73370000 		.long	0x3773
 2829 1913 00       		.byte	0
 2830 1914 2E       		.uleb128 0x2e
 2831 1915 E0000000 		.secrel32	LASF13
 2832 1919 0D       		.byte	0xd
 2833 191a C703     		.word	0x3c7
 2834 191c 5F5A4E53 		.ascii "_ZNSspLEc\0"
 2834      73704C45 
 2834      6300
 2835 1926 B5450000 		.long	0x45b5
 2836 192a 01       		.byte	0x1
 2837 192b 33190000 		.long	0x1933
 2838 192f 3E190000 		.long	0x193e
 2839 1933 19       		.uleb128 0x19
 2840 1934 9D450000 		.long	0x459d
 2841 1938 0E       		.uleb128 0xe
 2842 1939 53010000 		.long	0x153
 2843 193d 00       		.byte	0
 2844 193e 2E       		.uleb128 0x2e
 2845 193f 27010000 		.secrel32	LASF14
 2846 1943 0E       		.byte	0xe
 2847 1944 4401     		.word	0x144
 2848 1946 5F5A4E53 		.ascii "_ZNSs6appendERKSs\0"
 2848      73366170 
 2848      70656E64 
 2848      45524B53 
 2848      7300
 2849 1958 B5450000 		.long	0x45b5
 2850 195c 01       		.byte	0x1
 2851 195d 65190000 		.long	0x1965
 2852 1961 70190000 		.long	0x1970
 2853 1965 19       		.uleb128 0x19
 2854 1966 9D450000 		.long	0x459d
 2855 196a 0E       		.uleb128 0xe
 2856 196b AF450000 		.long	0x45af
 2857 196f 00       		.byte	0
 2858 1970 2E       		.uleb128 0x2e
 2859 1971 27010000 		.secrel32	LASF14
 2860 1975 0E       		.byte	0xe
 2861 1976 5501     		.word	0x155
 2862 1978 5F5A4E53 		.ascii "_ZNSs6appendERKSsjj\0"
 2862      73366170 
 2862      70656E64 
 2862      45524B53 
 2862      736A6A00 
 2863 198c B5450000 		.long	0x45b5
 2864 1990 01       		.byte	0x1
 2865 1991 99190000 		.long	0x1999
 2866 1995 AE190000 		.long	0x19ae
 2867 1999 19       		.uleb128 0x19
 2868 199a 9D450000 		.long	0x459d
 2869 199e 0E       		.uleb128 0xe
 2870 199f AF450000 		.long	0x45af
 2871 19a3 0E       		.uleb128 0xe
 2872 19a4 190A0000 		.long	0xa19
GAS LISTING C:\Users\NJLLMR~1\AppData\Local\Temp\ccqq7oi7.s 			page 85


 2873 19a8 0E       		.uleb128 0xe
 2874 19a9 190A0000 		.long	0xa19
 2875 19ad 00       		.byte	0
 2876 19ae 2E       		.uleb128 0x2e
 2877 19af 27010000 		.secrel32	LASF14
 2878 19b3 0E       		.byte	0xe
 2879 19b4 2901     		.word	0x129
 2880 19b6 5F5A4E53 		.ascii "_ZNSs6appendEPKcj\0"
 2880      73366170 
 2880      70656E64 
 2880      45504B63 
 2880      6A00
 2881 19c8 B5450000 		.long	0x45b5
 2882 19cc 01       		.byte	0x1
 2883 19cd D5190000 		.long	0x19d5
 2884 19d1 E5190000 		.long	0x19e5
 2885 19d5 19       		.uleb128 0x19
 2886 19d6 9D450000 		.long	0x459d
 2887 19da 0E       		.uleb128 0xe
 2888 19db 73370000 		.long	0x3773
 2889 19df 0E       		.uleb128 0xe
 2890 19e0 190A0000 		.long	0xa19
 2891 19e4 00       		.byte	0
 2892 19e5 2E       		.uleb128 0x2e
 2893 19e6 27010000 		.secrel32	LASF14
 2894 19ea 0D       		.byte	0xd
 2895 19eb FF03     		.word	0x3ff
 2896 19ed 5F5A4E53 		.ascii "_ZNSs6appendEPKc\0"
 2896      73366170 
 2896      70656E64 
 2896      45504B63 
 2896      00
 2897 19fe B5450000 		.long	0x45b5
 2898 1a02 01       		.byte	0x1
 2899 1a03 0B1A0000 		.long	0x1a0b
 2900 1a07 161A0000 		.long	0x1a16
 2901 1a0b 19       		.uleb128 0x19
 2902 1a0c 9D450000 		.long	0x459d
 2903 1a10 0E       		.uleb128 0xe
 2904 1a11 73370000 		.long	0x3773
 2905 1a15 00       		.byte	0
 2906 1a16 2E       		.uleb128 0x2e
 2907 1a17 27010000 		.secrel32	LASF14
 2908 1a1b 0E       		.byte	0xe
 2909 1a1c 1801     		.word	0x118
 2910 1a1e 5F5A4E53 		.ascii "_ZNSs6appendEjc\0"
 2910      73366170 
 2910      70656E64 
 2910      456A6300 
 2911 1a2e B5450000 		.long	0x45b5
 2912 1a32 01       		.byte	0x1
 2913 1a33 3B1A0000 		.long	0x1a3b
 2914 1a37 4B1A0000 		.long	0x1a4b
 2915 1a3b 19       		.uleb128 0x19
 2916 1a3c 9D450000 		.long	0x459d
 2917 1a40 0E       		.uleb128 0xe
 2918 1a41 190A0000 		.long	0xa19
GAS LISTING C:\Users\NJLLMR~1\AppData\Local\Temp\ccqq7oi7.s 			page 86


 2919 1a45 0E       		.uleb128 0xe
 2920 1a46 53010000 		.long	0x153
 2921 1a4a 00       		.byte	0
 2922 1a4b 30       		.uleb128 0x30
 2923 1a4c 70757368 		.ascii "push_back\0"
 2923      5F626163 
 2923      6B00
 2924 1a56 0D       		.byte	0xd
 2925 1a57 2D04     		.word	0x42d
 2926 1a59 5F5A4E53 		.ascii "_ZNSs9push_backEc\0"
 2926      73397075 
 2926      73685F62 
 2926      61636B45 
 2926      6300
 2927 1a6b 01       		.byte	0x1
 2928 1a6c 741A0000 		.long	0x1a74
 2929 1a70 7F1A0000 		.long	0x1a7f
 2930 1a74 19       		.uleb128 0x19
 2931 1a75 9D450000 		.long	0x459d
 2932 1a79 0E       		.uleb128 0xe
 2933 1a7a 53010000 		.long	0x153
 2934 1a7e 00       		.byte	0
 2935 1a7f 31       		.uleb128 0x31
 2936 1a80 40010000 		.secrel32	LASF1
 2937 1a84 0E       		.byte	0xe
 2938 1a85 F2       		.byte	0xf2
 2939 1a86 5F5A4E53 		.ascii "_ZNSs6assignERKSs\0"
 2939      73366173 
 2939      7369676E 
 2939      45524B53 
 2939      7300
 2940 1a98 B5450000 		.long	0x45b5
 2941 1a9c 01       		.byte	0x1
 2942 1a9d A51A0000 		.long	0x1aa5
 2943 1aa1 B01A0000 		.long	0x1ab0
 2944 1aa5 19       		.uleb128 0x19
 2945 1aa6 9D450000 		.long	0x459d
 2946 1aaa 0E       		.uleb128 0xe
 2947 1aab AF450000 		.long	0x45af
 2948 1aaf 00       		.byte	0
 2949 1ab0 2E       		.uleb128 0x2e
 2950 1ab1 40010000 		.secrel32	LASF1
 2951 1ab5 0D       		.byte	0xd
 2952 1ab6 5E04     		.word	0x45e
 2953 1ab8 5F5A4E53 		.ascii "_ZNSs6assignERKSsjj\0"
 2953      73366173 
 2953      7369676E 
 2953      45524B53 
 2953      736A6A00 
 2954 1acc B5450000 		.long	0x45b5
 2955 1ad0 01       		.byte	0x1
 2956 1ad1 D91A0000 		.long	0x1ad9
 2957 1ad5 EE1A0000 		.long	0x1aee
 2958 1ad9 19       		.uleb128 0x19
 2959 1ada 9D450000 		.long	0x459d
 2960 1ade 0E       		.uleb128 0xe
 2961 1adf AF450000 		.long	0x45af
GAS LISTING C:\Users\NJLLMR~1\AppData\Local\Temp\ccqq7oi7.s 			page 87


 2962 1ae3 0E       		.uleb128 0xe
 2963 1ae4 190A0000 		.long	0xa19
 2964 1ae8 0E       		.uleb128 0xe
 2965 1ae9 190A0000 		.long	0xa19
 2966 1aed 00       		.byte	0
 2967 1aee 2E       		.uleb128 0x2e
 2968 1aef 40010000 		.secrel32	LASF1
 2969 1af3 0E       		.byte	0xe
 2970 1af4 0201     		.word	0x102
 2971 1af6 5F5A4E53 		.ascii "_ZNSs6assignEPKcj\0"
 2971      73366173 
 2971      7369676E 
 2971      45504B63 
 2971      6A00
 2972 1b08 B5450000 		.long	0x45b5
 2973 1b0c 01       		.byte	0x1
 2974 1b0d 151B0000 		.long	0x1b15
 2975 1b11 251B0000 		.long	0x1b25
 2976 1b15 19       		.uleb128 0x19
 2977 1b16 9D450000 		.long	0x459d
 2978 1b1a 0E       		.uleb128 0xe
 2979 1b1b 73370000 		.long	0x3773
 2980 1b1f 0E       		.uleb128 0xe
 2981 1b20 190A0000 		.long	0xa19
 2982 1b24 00       		.byte	0
 2983 1b25 2E       		.uleb128 0x2e
 2984 1b26 40010000 		.secrel32	LASF1
 2985 1b2a 0D       		.byte	0xd
 2986 1b2b 7A04     		.word	0x47a
 2987 1b2d 5F5A4E53 		.ascii "_ZNSs6assignEPKc\0"
 2987      73366173 
 2987      7369676E 
 2987      45504B63 
 2987      00
 2988 1b3e B5450000 		.long	0x45b5
 2989 1b42 01       		.byte	0x1
 2990 1b43 4B1B0000 		.long	0x1b4b
 2991 1b47 561B0000 		.long	0x1b56
 2992 1b4b 19       		.uleb128 0x19
 2993 1b4c 9D450000 		.long	0x459d
 2994 1b50 0E       		.uleb128 0xe
 2995 1b51 73370000 		.long	0x3773
 2996 1b55 00       		.byte	0
 2997 1b56 2E       		.uleb128 0x2e
 2998 1b57 40010000 		.secrel32	LASF1
 2999 1b5b 0D       		.byte	0xd
 3000 1b5c 8A04     		.word	0x48a
 3001 1b5e 5F5A4E53 		.ascii "_ZNSs6assignEjc\0"
 3001      73366173 
 3001      7369676E 
 3001      456A6300 
 3002 1b6e B5450000 		.long	0x45b5
 3003 1b72 01       		.byte	0x1
 3004 1b73 7B1B0000 		.long	0x1b7b
 3005 1b77 8B1B0000 		.long	0x1b8b
 3006 1b7b 19       		.uleb128 0x19
 3007 1b7c 9D450000 		.long	0x459d
GAS LISTING C:\Users\NJLLMR~1\AppData\Local\Temp\ccqq7oi7.s 			page 88


 3008 1b80 0E       		.uleb128 0xe
 3009 1b81 190A0000 		.long	0xa19
 3010 1b85 0E       		.uleb128 0xe
 3011 1b86 53010000 		.long	0x153
 3012 1b8a 00       		.byte	0
 3013 1b8b 32       		.uleb128 0x32
 3014 1b8c EB000000 		.secrel32	LASF15
 3015 1b90 0D       		.byte	0xd
 3016 1b91 B304     		.word	0x4b3
 3017 1b93 5F5A4E53 		.ascii "_ZNSs6insertEN9__gnu_cxx17__normal_iteratorIPcSsEEjc\0"
 3017      7336696E 
 3017      73657274 
 3017      454E395F 
 3017      5F676E75 
 3018 1bc8 01       		.byte	0x1
 3019 1bc9 D11B0000 		.long	0x1bd1
 3020 1bcd E61B0000 		.long	0x1be6
 3021 1bd1 19       		.uleb128 0x19
 3022 1bd2 9D450000 		.long	0x459d
 3023 1bd6 0E       		.uleb128 0xe
 3024 1bd7 7C0A0000 		.long	0xa7c
 3025 1bdb 0E       		.uleb128 0xe
 3026 1bdc 190A0000 		.long	0xa19
 3027 1be0 0E       		.uleb128 0xe
 3028 1be1 53010000 		.long	0x153
 3029 1be5 00       		.byte	0
 3030 1be6 2E       		.uleb128 0x2e
 3031 1be7 EB000000 		.secrel32	LASF15
 3032 1beb 0D       		.byte	0xd
 3033 1bec E304     		.word	0x4e3
 3034 1bee 5F5A4E53 		.ascii "_ZNSs6insertEjRKSs\0"
 3034      7336696E 
 3034      73657274 
 3034      456A524B 
 3034      537300
 3035 1c01 B5450000 		.long	0x45b5
 3036 1c05 01       		.byte	0x1
 3037 1c06 0E1C0000 		.long	0x1c0e
 3038 1c0a 1E1C0000 		.long	0x1c1e
 3039 1c0e 19       		.uleb128 0x19
 3040 1c0f 9D450000 		.long	0x459d
 3041 1c13 0E       		.uleb128 0xe
 3042 1c14 190A0000 		.long	0xa19
 3043 1c18 0E       		.uleb128 0xe
 3044 1c19 AF450000 		.long	0x45af
 3045 1c1d 00       		.byte	0
 3046 1c1e 2E       		.uleb128 0x2e
 3047 1c1f EB000000 		.secrel32	LASF15
 3048 1c23 0D       		.byte	0xd
 3049 1c24 F904     		.word	0x4f9
 3050 1c26 5F5A4E53 		.ascii "_ZNSs6insertEjRKSsjj\0"
 3050      7336696E 
 3050      73657274 
 3050      456A524B 
 3050      53736A6A 
 3051 1c3b B5450000 		.long	0x45b5
 3052 1c3f 01       		.byte	0x1
GAS LISTING C:\Users\NJLLMR~1\AppData\Local\Temp\ccqq7oi7.s 			page 89


 3053 1c40 481C0000 		.long	0x1c48
 3054 1c44 621C0000 		.long	0x1c62
 3055 1c48 19       		.uleb128 0x19
 3056 1c49 9D450000 		.long	0x459d
 3057 1c4d 0E       		.uleb128 0xe
 3058 1c4e 190A0000 		.long	0xa19
 3059 1c52 0E       		.uleb128 0xe
 3060 1c53 AF450000 		.long	0x45af
 3061 1c57 0E       		.uleb128 0xe
 3062 1c58 190A0000 		.long	0xa19
 3063 1c5c 0E       		.uleb128 0xe
 3064 1c5d 190A0000 		.long	0xa19
 3065 1c61 00       		.byte	0
 3066 1c62 2E       		.uleb128 0x2e
 3067 1c63 EB000000 		.secrel32	LASF15
 3068 1c67 0E       		.byte	0xe
 3069 1c68 6701     		.word	0x167
 3070 1c6a 5F5A4E53 		.ascii "_ZNSs6insertEjPKcj\0"
 3070      7336696E 
 3070      73657274 
 3070      456A504B 
 3070      636A00
 3071 1c7d B5450000 		.long	0x45b5
 3072 1c81 01       		.byte	0x1
 3073 1c82 8A1C0000 		.long	0x1c8a
 3074 1c86 9F1C0000 		.long	0x1c9f
 3075 1c8a 19       		.uleb128 0x19
 3076 1c8b 9D450000 		.long	0x459d
 3077 1c8f 0E       		.uleb128 0xe
 3078 1c90 190A0000 		.long	0xa19
 3079 1c94 0E       		.uleb128 0xe
 3080 1c95 73370000 		.long	0x3773
 3081 1c99 0E       		.uleb128 0xe
 3082 1c9a 190A0000 		.long	0xa19
 3083 1c9e 00       		.byte	0
 3084 1c9f 2E       		.uleb128 0x2e
 3085 1ca0 EB000000 		.secrel32	LASF15
 3086 1ca4 0D       		.byte	0xd
 3087 1ca5 2205     		.word	0x522
 3088 1ca7 5F5A4E53 		.ascii "_ZNSs6insertEjPKc\0"
 3088      7336696E 
 3088      73657274 
 3088      456A504B 
 3088      6300
 3089 1cb9 B5450000 		.long	0x45b5
 3090 1cbd 01       		.byte	0x1
 3091 1cbe C61C0000 		.long	0x1cc6
 3092 1cc2 D61C0000 		.long	0x1cd6
 3093 1cc6 19       		.uleb128 0x19
 3094 1cc7 9D450000 		.long	0x459d
 3095 1ccb 0E       		.uleb128 0xe
 3096 1ccc 190A0000 		.long	0xa19
 3097 1cd0 0E       		.uleb128 0xe
 3098 1cd1 73370000 		.long	0x3773
 3099 1cd5 00       		.byte	0
 3100 1cd6 2E       		.uleb128 0x2e
 3101 1cd7 EB000000 		.secrel32	LASF15
GAS LISTING C:\Users\NJLLMR~1\AppData\Local\Temp\ccqq7oi7.s 			page 90


 3102 1cdb 0D       		.byte	0xd
 3103 1cdc 3905     		.word	0x539
 3104 1cde 5F5A4E53 		.ascii "_ZNSs6insertEjjc\0"
 3104      7336696E 
 3104      73657274 
 3104      456A6A63 
 3104      00
 3105 1cef B5450000 		.long	0x45b5
 3106 1cf3 01       		.byte	0x1
 3107 1cf4 FC1C0000 		.long	0x1cfc
 3108 1cf8 111D0000 		.long	0x1d11
 3109 1cfc 19       		.uleb128 0x19
 3110 1cfd 9D450000 		.long	0x459d
 3111 1d01 0E       		.uleb128 0xe
 3112 1d02 190A0000 		.long	0xa19
 3113 1d06 0E       		.uleb128 0xe
 3114 1d07 190A0000 		.long	0xa19
 3115 1d0b 0E       		.uleb128 0xe
 3116 1d0c 53010000 		.long	0x153
 3117 1d10 00       		.byte	0
 3118 1d11 2E       		.uleb128 0x2e
 3119 1d12 EB000000 		.secrel32	LASF15
 3120 1d16 0D       		.byte	0xd
 3121 1d17 4B05     		.word	0x54b
 3122 1d19 5F5A4E53 		.ascii "_ZNSs6insertEN9__gnu_cxx17__normal_iteratorIPcSsEEc\0"
 3122      7336696E 
 3122      73657274 
 3122      454E395F 
 3122      5F676E75 
 3123 1d4d 7C0A0000 		.long	0xa7c
 3124 1d51 01       		.byte	0x1
 3125 1d52 5A1D0000 		.long	0x1d5a
 3126 1d56 6A1D0000 		.long	0x1d6a
 3127 1d5a 19       		.uleb128 0x19
 3128 1d5b 9D450000 		.long	0x459d
 3129 1d5f 0E       		.uleb128 0xe
 3130 1d60 7C0A0000 		.long	0xa7c
 3131 1d64 0E       		.uleb128 0xe
 3132 1d65 53010000 		.long	0x153
 3133 1d69 00       		.byte	0
 3134 1d6a 2F       		.uleb128 0x2f
 3135 1d6b 65726173 		.ascii "erase\0"
 3135      6500
 3136 1d71 0D       		.byte	0xd
 3137 1d72 6405     		.word	0x564
 3138 1d74 5F5A4E53 		.ascii "_ZNSs5eraseEjj\0"
 3138      73356572 
 3138      61736545 
 3138      6A6A00
 3139 1d83 B5450000 		.long	0x45b5
 3140 1d87 01       		.byte	0x1
 3141 1d88 901D0000 		.long	0x1d90
 3142 1d8c A01D0000 		.long	0x1da0
 3143 1d90 19       		.uleb128 0x19
 3144 1d91 9D450000 		.long	0x459d
 3145 1d95 0E       		.uleb128 0xe
 3146 1d96 190A0000 		.long	0xa19
GAS LISTING C:\Users\NJLLMR~1\AppData\Local\Temp\ccqq7oi7.s 			page 91


 3147 1d9a 0E       		.uleb128 0xe
 3148 1d9b 190A0000 		.long	0xa19
 3149 1d9f 00       		.byte	0
 3150 1da0 2F       		.uleb128 0x2f
 3151 1da1 65726173 		.ascii "erase\0"
 3151      6500
 3152 1da7 0D       		.byte	0xd
 3153 1da8 7405     		.word	0x574
 3154 1daa 5F5A4E53 		.ascii "_ZNSs5eraseEN9__gnu_cxx17__normal_iteratorIPcSsEE\0"
 3154      73356572 
 3154      61736545 
 3154      4E395F5F 
 3154      676E755F 
 3155 1ddc 7C0A0000 		.long	0xa7c
 3156 1de0 01       		.byte	0x1
 3157 1de1 E91D0000 		.long	0x1de9
 3158 1de5 F41D0000 		.long	0x1df4
 3159 1de9 19       		.uleb128 0x19
 3160 1dea 9D450000 		.long	0x459d
 3161 1dee 0E       		.uleb128 0xe
 3162 1def 7C0A0000 		.long	0xa7c
 3163 1df3 00       		.byte	0
 3164 1df4 2F       		.uleb128 0x2f
 3165 1df5 65726173 		.ascii "erase\0"
 3165      6500
 3166 1dfb 0E       		.byte	0xe
 3167 1dfc 8601     		.word	0x186
 3168 1dfe 5F5A4E53 		.ascii "_ZNSs5eraseEN9__gnu_cxx17__normal_iteratorIPcSsEES2_\0"
 3168      73356572 
 3168      61736545 
 3168      4E395F5F 
 3168      676E755F 
 3169 1e33 7C0A0000 		.long	0xa7c
 3170 1e37 01       		.byte	0x1
 3171 1e38 401E0000 		.long	0x1e40
 3172 1e3c 501E0000 		.long	0x1e50
 3173 1e40 19       		.uleb128 0x19
 3174 1e41 9D450000 		.long	0x459d
 3175 1e45 0E       		.uleb128 0xe
 3176 1e46 7C0A0000 		.long	0xa7c
 3177 1e4a 0E       		.uleb128 0xe
 3178 1e4b 7C0A0000 		.long	0xa7c
 3179 1e4f 00       		.byte	0
 3180 1e50 2E       		.uleb128 0x2e
 3181 1e51 00000000 		.secrel32	LASF16
 3182 1e55 0D       		.byte	0xd
 3183 1e56 A705     		.word	0x5a7
 3184 1e58 5F5A4E53 		.ascii "_ZNSs7replaceEjjRKSs\0"
 3184      73377265 
 3184      706C6163 
 3184      65456A6A 
 3184      524B5373 
 3185 1e6d B5450000 		.long	0x45b5
 3186 1e71 01       		.byte	0x1
 3187 1e72 7A1E0000 		.long	0x1e7a
 3188 1e76 8F1E0000 		.long	0x1e8f
 3189 1e7a 19       		.uleb128 0x19
GAS LISTING C:\Users\NJLLMR~1\AppData\Local\Temp\ccqq7oi7.s 			page 92


 3190 1e7b 9D450000 		.long	0x459d
 3191 1e7f 0E       		.uleb128 0xe
 3192 1e80 190A0000 		.long	0xa19
 3193 1e84 0E       		.uleb128 0xe
 3194 1e85 190A0000 		.long	0xa19
 3195 1e89 0E       		.uleb128 0xe
 3196 1e8a AF450000 		.long	0x45af
 3197 1e8e 00       		.byte	0
 3198 1e8f 2E       		.uleb128 0x2e
 3199 1e90 00000000 		.secrel32	LASF16
 3200 1e94 0D       		.byte	0xd
 3201 1e95 BD05     		.word	0x5bd
 3202 1e97 5F5A4E53 		.ascii "_ZNSs7replaceEjjRKSsjj\0"
 3202      73377265 
 3202      706C6163 
 3202      65456A6A 
 3202      524B5373 
 3203 1eae B5450000 		.long	0x45b5
 3204 1eb2 01       		.byte	0x1
 3205 1eb3 BB1E0000 		.long	0x1ebb
 3206 1eb7 DA1E0000 		.long	0x1eda
 3207 1ebb 19       		.uleb128 0x19
 3208 1ebc 9D450000 		.long	0x459d
 3209 1ec0 0E       		.uleb128 0xe
 3210 1ec1 190A0000 		.long	0xa19
 3211 1ec5 0E       		.uleb128 0xe
 3212 1ec6 190A0000 		.long	0xa19
 3213 1eca 0E       		.uleb128 0xe
 3214 1ecb AF450000 		.long	0x45af
 3215 1ecf 0E       		.uleb128 0xe
 3216 1ed0 190A0000 		.long	0xa19
 3217 1ed4 0E       		.uleb128 0xe
 3218 1ed5 190A0000 		.long	0xa19
 3219 1ed9 00       		.byte	0
 3220 1eda 2E       		.uleb128 0x2e
 3221 1edb 00000000 		.secrel32	LASF16
 3222 1edf 0E       		.byte	0xe
 3223 1ee0 9D01     		.word	0x19d
 3224 1ee2 5F5A4E53 		.ascii "_ZNSs7replaceEjjPKcj\0"
 3224      73377265 
 3224      706C6163 
 3224      65456A6A 
 3224      504B636A 
 3225 1ef7 B5450000 		.long	0x45b5
 3226 1efb 01       		.byte	0x1
 3227 1efc 041F0000 		.long	0x1f04
 3228 1f00 1E1F0000 		.long	0x1f1e
 3229 1f04 19       		.uleb128 0x19
 3230 1f05 9D450000 		.long	0x459d
 3231 1f09 0E       		.uleb128 0xe
 3232 1f0a 190A0000 		.long	0xa19
 3233 1f0e 0E       		.uleb128 0xe
 3234 1f0f 190A0000 		.long	0xa19
 3235 1f13 0E       		.uleb128 0xe
 3236 1f14 73370000 		.long	0x3773
 3237 1f18 0E       		.uleb128 0xe
 3238 1f19 190A0000 		.long	0xa19
GAS LISTING C:\Users\NJLLMR~1\AppData\Local\Temp\ccqq7oi7.s 			page 93


 3239 1f1d 00       		.byte	0
 3240 1f1e 2E       		.uleb128 0x2e
 3241 1f1f 00000000 		.secrel32	LASF16
 3242 1f23 0D       		.byte	0xd
 3243 1f24 EA05     		.word	0x5ea
 3244 1f26 5F5A4E53 		.ascii "_ZNSs7replaceEjjPKc\0"
 3244      73377265 
 3244      706C6163 
 3244      65456A6A 
 3244      504B6300 
 3245 1f3a B5450000 		.long	0x45b5
 3246 1f3e 01       		.byte	0x1
 3247 1f3f 471F0000 		.long	0x1f47
 3248 1f43 5C1F0000 		.long	0x1f5c
 3249 1f47 19       		.uleb128 0x19
 3250 1f48 9D450000 		.long	0x459d
 3251 1f4c 0E       		.uleb128 0xe
 3252 1f4d 190A0000 		.long	0xa19
 3253 1f51 0E       		.uleb128 0xe
 3254 1f52 190A0000 		.long	0xa19
 3255 1f56 0E       		.uleb128 0xe
 3256 1f57 73370000 		.long	0x3773
 3257 1f5b 00       		.byte	0
 3258 1f5c 2E       		.uleb128 0x2e
 3259 1f5d 00000000 		.secrel32	LASF16
 3260 1f61 0D       		.byte	0xd
 3261 1f62 0206     		.word	0x602
 3262 1f64 5F5A4E53 		.ascii "_ZNSs7replaceEjjjc\0"
 3262      73377265 
 3262      706C6163 
 3262      65456A6A 
 3262      6A6300
 3263 1f77 B5450000 		.long	0x45b5
 3264 1f7b 01       		.byte	0x1
 3265 1f7c 841F0000 		.long	0x1f84
 3266 1f80 9E1F0000 		.long	0x1f9e
 3267 1f84 19       		.uleb128 0x19
 3268 1f85 9D450000 		.long	0x459d
 3269 1f89 0E       		.uleb128 0xe
 3270 1f8a 190A0000 		.long	0xa19
 3271 1f8e 0E       		.uleb128 0xe
 3272 1f8f 190A0000 		.long	0xa19
 3273 1f93 0E       		.uleb128 0xe
 3274 1f94 190A0000 		.long	0xa19
 3275 1f98 0E       		.uleb128 0xe
 3276 1f99 53010000 		.long	0x153
 3277 1f9d 00       		.byte	0
 3278 1f9e 2E       		.uleb128 0x2e
 3279 1f9f 00000000 		.secrel32	LASF16
 3280 1fa3 0D       		.byte	0xd
 3281 1fa4 1406     		.word	0x614
 3282 1fa6 5F5A4E53 		.ascii "_ZNSs7replaceEN9__gnu_cxx17__normal_iteratorIPcSsEES2_RKSs\0"
 3282      73377265 
 3282      706C6163 
 3282      65454E39 
 3282      5F5F676E 
 3283 1fe1 B5450000 		.long	0x45b5
GAS LISTING C:\Users\NJLLMR~1\AppData\Local\Temp\ccqq7oi7.s 			page 94


 3284 1fe5 01       		.byte	0x1
 3285 1fe6 EE1F0000 		.long	0x1fee
 3286 1fea 03200000 		.long	0x2003
 3287 1fee 19       		.uleb128 0x19
 3288 1fef 9D450000 		.long	0x459d
 3289 1ff3 0E       		.uleb128 0xe
 3290 1ff4 7C0A0000 		.long	0xa7c
 3291 1ff8 0E       		.uleb128 0xe
 3292 1ff9 7C0A0000 		.long	0xa7c
 3293 1ffd 0E       		.uleb128 0xe
 3294 1ffe AF450000 		.long	0x45af
 3295 2002 00       		.byte	0
 3296 2003 2E       		.uleb128 0x2e
 3297 2004 00000000 		.secrel32	LASF16
 3298 2008 0D       		.byte	0xd
 3299 2009 2706     		.word	0x627
 3300 200b 5F5A4E53 		.ascii "_ZNSs7replaceEN9__gnu_cxx17__normal_iteratorIPcSsEES2_PKcj\0"
 3300      73377265 
 3300      706C6163 
 3300      65454E39 
 3300      5F5F676E 
 3301 2046 B5450000 		.long	0x45b5
 3302 204a 01       		.byte	0x1
 3303 204b 53200000 		.long	0x2053
 3304 204f 6D200000 		.long	0x206d
 3305 2053 19       		.uleb128 0x19
 3306 2054 9D450000 		.long	0x459d
 3307 2058 0E       		.uleb128 0xe
 3308 2059 7C0A0000 		.long	0xa7c
 3309 205d 0E       		.uleb128 0xe
 3310 205e 7C0A0000 		.long	0xa7c
 3311 2062 0E       		.uleb128 0xe
 3312 2063 73370000 		.long	0x3773
 3313 2067 0E       		.uleb128 0xe
 3314 2068 190A0000 		.long	0xa19
 3315 206c 00       		.byte	0
 3316 206d 2E       		.uleb128 0x2e
 3317 206e 00000000 		.secrel32	LASF16
 3318 2072 0D       		.byte	0xd
 3319 2073 3C06     		.word	0x63c
 3320 2075 5F5A4E53 		.ascii "_ZNSs7replaceEN9__gnu_cxx17__normal_iteratorIPcSsEES2_PKc\0"
 3320      73377265 
 3320      706C6163 
 3320      65454E39 
 3320      5F5F676E 
 3321 20af B5450000 		.long	0x45b5
 3322 20b3 01       		.byte	0x1
 3323 20b4 BC200000 		.long	0x20bc
 3324 20b8 D1200000 		.long	0x20d1
 3325 20bc 19       		.uleb128 0x19
 3326 20bd 9D450000 		.long	0x459d
 3327 20c1 0E       		.uleb128 0xe
 3328 20c2 7C0A0000 		.long	0xa7c
 3329 20c6 0E       		.uleb128 0xe
 3330 20c7 7C0A0000 		.long	0xa7c
 3331 20cb 0E       		.uleb128 0xe
 3332 20cc 73370000 		.long	0x3773
GAS LISTING C:\Users\NJLLMR~1\AppData\Local\Temp\ccqq7oi7.s 			page 95


 3333 20d0 00       		.byte	0
 3334 20d1 2E       		.uleb128 0x2e
 3335 20d2 00000000 		.secrel32	LASF16
 3336 20d6 0D       		.byte	0xd
 3337 20d7 5106     		.word	0x651
 3338 20d9 5F5A4E53 		.ascii "_ZNSs7replaceEN9__gnu_cxx17__normal_iteratorIPcSsEES2_jc\0"
 3338      73377265 
 3338      706C6163 
 3338      65454E39 
 3338      5F5F676E 
 3339 2112 B5450000 		.long	0x45b5
 3340 2116 01       		.byte	0x1
 3341 2117 1F210000 		.long	0x211f
 3342 211b 39210000 		.long	0x2139
 3343 211f 19       		.uleb128 0x19
 3344 2120 9D450000 		.long	0x459d
 3345 2124 0E       		.uleb128 0xe
 3346 2125 7C0A0000 		.long	0xa7c
 3347 2129 0E       		.uleb128 0xe
 3348 212a 7C0A0000 		.long	0xa7c
 3349 212e 0E       		.uleb128 0xe
 3350 212f 190A0000 		.long	0xa19
 3351 2133 0E       		.uleb128 0xe
 3352 2134 53010000 		.long	0x153
 3353 2138 00       		.byte	0
 3354 2139 2E       		.uleb128 0x2e
 3355 213a 00000000 		.secrel32	LASF16
 3356 213e 0D       		.byte	0xd
 3357 213f 7606     		.word	0x676
 3358 2141 5F5A4E53 		.ascii "_ZNSs7replaceEN9__gnu_cxx17__normal_iteratorIPcSsEES2_S1_S1_\0"
 3358      73377265 
 3358      706C6163 
 3358      65454E39 
 3358      5F5F676E 
 3359 217e B5450000 		.long	0x45b5
 3360 2182 01       		.byte	0x1
 3361 2183 8B210000 		.long	0x218b
 3362 2187 A5210000 		.long	0x21a5
 3363 218b 19       		.uleb128 0x19
 3364 218c 9D450000 		.long	0x459d
 3365 2190 0E       		.uleb128 0xe
 3366 2191 7C0A0000 		.long	0xa7c
 3367 2195 0E       		.uleb128 0xe
 3368 2196 7C0A0000 		.long	0xa7c
 3369 219a 0E       		.uleb128 0xe
 3370 219b 3F020000 		.long	0x23f
 3371 219f 0E       		.uleb128 0xe
 3372 21a0 3F020000 		.long	0x23f
 3373 21a4 00       		.byte	0
 3374 21a5 2E       		.uleb128 0x2e
 3375 21a6 00000000 		.secrel32	LASF16
 3376 21aa 0D       		.byte	0xd
 3377 21ab 8006     		.word	0x680
 3378 21ad 5F5A4E53 		.ascii "_ZNSs7replaceEN9__gnu_cxx17__normal_iteratorIPcSsEES2_PKcS4_\0"
 3378      73377265 
 3378      706C6163 
 3378      65454E39 
GAS LISTING C:\Users\NJLLMR~1\AppData\Local\Temp\ccqq7oi7.s 			page 96


 3378      5F5F676E 
 3379 21ea B5450000 		.long	0x45b5
 3380 21ee 01       		.byte	0x1
 3381 21ef F7210000 		.long	0x21f7
 3382 21f3 11220000 		.long	0x2211
 3383 21f7 19       		.uleb128 0x19
 3384 21f8 9D450000 		.long	0x459d
 3385 21fc 0E       		.uleb128 0xe
 3386 21fd 7C0A0000 		.long	0xa7c
 3387 2201 0E       		.uleb128 0xe
 3388 2202 7C0A0000 		.long	0xa7c
 3389 2206 0E       		.uleb128 0xe
 3390 2207 73370000 		.long	0x3773
 3391 220b 0E       		.uleb128 0xe
 3392 220c 73370000 		.long	0x3773
 3393 2210 00       		.byte	0
 3394 2211 2E       		.uleb128 0x2e
 3395 2212 00000000 		.secrel32	LASF16
 3396 2216 0D       		.byte	0xd
 3397 2217 8B06     		.word	0x68b
 3398 2219 5F5A4E53 		.ascii "_ZNSs7replaceEN9__gnu_cxx17__normal_iteratorIPcSsEES2_S2_S2_\0"
 3398      73377265 
 3398      706C6163 
 3398      65454E39 
 3398      5F5F676E 
 3399 2256 B5450000 		.long	0x45b5
 3400 225a 01       		.byte	0x1
 3401 225b 63220000 		.long	0x2263
 3402 225f 7D220000 		.long	0x227d
 3403 2263 19       		.uleb128 0x19
 3404 2264 9D450000 		.long	0x459d
 3405 2268 0E       		.uleb128 0xe
 3406 2269 7C0A0000 		.long	0xa7c
 3407 226d 0E       		.uleb128 0xe
 3408 226e 7C0A0000 		.long	0xa7c
 3409 2272 0E       		.uleb128 0xe
 3410 2273 7C0A0000 		.long	0xa7c
 3411 2277 0E       		.uleb128 0xe
 3412 2278 7C0A0000 		.long	0xa7c
 3413 227c 00       		.byte	0
 3414 227d 2E       		.uleb128 0x2e
 3415 227e 00000000 		.secrel32	LASF16
 3416 2282 0D       		.byte	0xd
 3417 2283 9506     		.word	0x695
 3418 2285 5F5A4E53 		.ascii "_ZNSs7replaceEN9__gnu_cxx17__normal_iteratorIPcSsEES2_NS0_IPKcSsEES5_\0"
 3418      73377265 
 3418      706C6163 
 3418      65454E39 
 3418      5F5F676E 
 3419 22cb B5450000 		.long	0x45b5
 3420 22cf 01       		.byte	0x1
 3421 22d0 D8220000 		.long	0x22d8
 3422 22d4 F2220000 		.long	0x22f2
 3423 22d8 19       		.uleb128 0x19
 3424 22d9 9D450000 		.long	0x459d
 3425 22dd 0E       		.uleb128 0xe
 3426 22de 7C0A0000 		.long	0xa7c
GAS LISTING C:\Users\NJLLMR~1\AppData\Local\Temp\ccqq7oi7.s 			page 97


 3427 22e2 0E       		.uleb128 0xe
 3428 22e3 7C0A0000 		.long	0xa7c
 3429 22e7 0E       		.uleb128 0xe
 3430 22e8 8D0A0000 		.long	0xa8d
 3431 22ec 0E       		.uleb128 0xe
 3432 22ed 8D0A0000 		.long	0xa8d
 3433 22f1 00       		.byte	0
 3434 22f2 26       		.uleb128 0x26
 3435 22f3 5F4D5F72 		.ascii "_M_replace_aux\0"
 3435      65706C61 
 3435      63655F61 
 3435      757800
 3436 2302 0E       		.byte	0xe
 3437 2303 9B02     		.word	0x29b
 3438 2305 5F5A4E53 		.ascii "_ZNSs14_M_replace_auxEjjjc\0"
 3438      7331345F 
 3438      4D5F7265 
 3438      706C6163 
 3438      655F6175 
 3439 2320 B5450000 		.long	0x45b5
 3440 2324 2C230000 		.long	0x232c
 3441 2328 46230000 		.long	0x2346
 3442 232c 19       		.uleb128 0x19
 3443 232d 9D450000 		.long	0x459d
 3444 2331 0E       		.uleb128 0xe
 3445 2332 190A0000 		.long	0xa19
 3446 2336 0E       		.uleb128 0xe
 3447 2337 190A0000 		.long	0xa19
 3448 233b 0E       		.uleb128 0xe
 3449 233c 190A0000 		.long	0xa19
 3450 2340 0E       		.uleb128 0xe
 3451 2341 53010000 		.long	0x153
 3452 2345 00       		.byte	0
 3453 2346 26       		.uleb128 0x26
 3454 2347 5F4D5F72 		.ascii "_M_replace_safe\0"
 3454      65706C61 
 3454      63655F73 
 3454      61666500 
 3455 2357 0E       		.byte	0xe
 3456 2358 A802     		.word	0x2a8
 3457 235a 5F5A4E53 		.ascii "_ZNSs15_M_replace_safeEjjPKcj\0"
 3457      7331355F 
 3457      4D5F7265 
 3457      706C6163 
 3457      655F7361 
 3458 2378 B5450000 		.long	0x45b5
 3459 237c 84230000 		.long	0x2384
 3460 2380 9E230000 		.long	0x239e
 3461 2384 19       		.uleb128 0x19
 3462 2385 9D450000 		.long	0x459d
 3463 2389 0E       		.uleb128 0xe
 3464 238a 190A0000 		.long	0xa19
 3465 238e 0E       		.uleb128 0xe
 3466 238f 190A0000 		.long	0xa19
 3467 2393 0E       		.uleb128 0xe
 3468 2394 73370000 		.long	0x3773
 3469 2398 0E       		.uleb128 0xe
GAS LISTING C:\Users\NJLLMR~1\AppData\Local\Temp\ccqq7oi7.s 			page 98


 3470 2399 190A0000 		.long	0xa19
 3471 239d 00       		.byte	0
 3472 239e 12       		.uleb128 0x12
 3473 239f 5F535F63 		.ascii "_S_construct_aux_2\0"
 3473      6F6E7374 
 3473      72756374 
 3473      5F617578 
 3473      5F3200
 3474 23b2 0D       		.byte	0xd
 3475 23b3 DC06     		.word	0x6dc
 3476 23b5 5F5A4E53 		.ascii "_ZNSs18_S_construct_aux_2EjcRKSaIcE\0"
 3476      7331385F 
 3476      535F636F 
 3476      6E737472 
 3476      7563745F 
 3477 23d9 3F020000 		.long	0x23f
 3478 23dd F1230000 		.long	0x23f1
 3479 23e1 0E       		.uleb128 0xe
 3480 23e2 190A0000 		.long	0xa19
 3481 23e6 0E       		.uleb128 0xe
 3482 23e7 53010000 		.long	0x153
 3483 23eb 0E       		.uleb128 0xe
 3484 23ec 81450000 		.long	0x4581
 3485 23f0 00       		.byte	0
 3486 23f1 10       		.uleb128 0x10
 3487 23f2 5F535F63 		.ascii "_S_construct\0"
 3487      6F6E7374 
 3487      72756374 
 3487      00
 3488 23ff 0E       		.byte	0xe
 3489 2400 98       		.byte	0x98
 3490 2401 5F5A4E53 		.ascii "_ZNSs12_S_constructEjcRKSaIcE\0"
 3490      7331325F 
 3490      535F636F 
 3490      6E737472 
 3490      75637445 
 3491 241f 3F020000 		.long	0x23f
 3492 2423 37240000 		.long	0x2437
 3493 2427 0E       		.uleb128 0xe
 3494 2428 190A0000 		.long	0xa19
 3495 242c 0E       		.uleb128 0xe
 3496 242d 53010000 		.long	0x153
 3497 2431 0E       		.uleb128 0xe
 3498 2432 81450000 		.long	0x4581
 3499 2436 00       		.byte	0
 3500 2437 2F       		.uleb128 0x2f
 3501 2438 636F7079 		.ascii "copy\0"
 3501      00
 3502 243d 0E       		.byte	0xe
 3503 243e D202     		.word	0x2d2
 3504 2440 5F5A4E4B 		.ascii "_ZNKSs4copyEPcjj\0"
 3504      53733463 
 3504      6F707945 
 3504      50636A6A 
 3504      00
 3505 2451 190A0000 		.long	0xa19
 3506 2455 01       		.byte	0x1
GAS LISTING C:\Users\NJLLMR~1\AppData\Local\Temp\ccqq7oi7.s 			page 99


 3507 2456 5E240000 		.long	0x245e
 3508 245a 73240000 		.long	0x2473
 3509 245e 19       		.uleb128 0x19
 3510 245f 97450000 		.long	0x4597
 3511 2463 0E       		.uleb128 0xe
 3512 2464 3F020000 		.long	0x23f
 3513 2468 0E       		.uleb128 0xe
 3514 2469 190A0000 		.long	0xa19
 3515 246d 0E       		.uleb128 0xe
 3516 246e 190A0000 		.long	0xa19
 3517 2472 00       		.byte	0
 3518 2473 30       		.uleb128 0x30
 3519 2474 73776170 		.ascii "swap\0"
 3519      00
 3520 2479 0E       		.byte	0xe
 3521 247a 0602     		.word	0x206
 3522 247c 5F5A4E53 		.ascii "_ZNSs4swapERSs\0"
 3522      73347377 
 3522      61704552 
 3522      537300
 3523 248b 01       		.byte	0x1
 3524 248c 94240000 		.long	0x2494
 3525 2490 9F240000 		.long	0x249f
 3526 2494 19       		.uleb128 0x19
 3527 2495 9D450000 		.long	0x459d
 3528 2499 0E       		.uleb128 0xe
 3529 249a B5450000 		.long	0x45b5
 3530 249e 00       		.byte	0
 3531 249f 2F       		.uleb128 0x2f
 3532 24a0 635F7374 		.ascii "c_str\0"
 3532      7200
 3533 24a6 0D       		.byte	0xd
 3534 24a7 1B07     		.word	0x71b
 3535 24a9 5F5A4E4B 		.ascii "_ZNKSs5c_strEv\0"
 3535      53733563 
 3535      5F737472 
 3535      457600
 3536 24b8 73370000 		.long	0x3773
 3537 24bc 01       		.byte	0x1
 3538 24bd C5240000 		.long	0x24c5
 3539 24c1 CB240000 		.long	0x24cb
 3540 24c5 19       		.uleb128 0x19
 3541 24c6 97450000 		.long	0x4597
 3542 24ca 00       		.byte	0
 3543 24cb 2F       		.uleb128 0x2f
 3544 24cc 64617461 		.ascii "data\0"
 3544      00
 3545 24d1 0D       		.byte	0xd
 3546 24d2 2507     		.word	0x725
 3547 24d4 5F5A4E4B 		.ascii "_ZNKSs4dataEv\0"
 3547      53733464 
 3547      61746145 
 3547      7600
 3548 24e2 73370000 		.long	0x3773
 3549 24e6 01       		.byte	0x1
 3550 24e7 EF240000 		.long	0x24ef
 3551 24eb F5240000 		.long	0x24f5
GAS LISTING C:\Users\NJLLMR~1\AppData\Local\Temp\ccqq7oi7.s 			page 100


 3552 24ef 19       		.uleb128 0x19
 3553 24f0 97450000 		.long	0x4597
 3554 24f4 00       		.byte	0
 3555 24f5 2F       		.uleb128 0x2f
 3556 24f6 6765745F 		.ascii "get_allocator\0"
 3556      616C6C6F 
 3556      6361746F 
 3556      7200
 3557 2504 0D       		.byte	0xd
 3558 2505 2C07     		.word	0x72c
 3559 2507 5F5A4E4B 		.ascii "_ZNKSs13get_allocatorEv\0"
 3559      53733133 
 3559      6765745F 
 3559      616C6C6F 
 3559      6361746F 
 3560 251f 4D0A0000 		.long	0xa4d
 3561 2523 01       		.byte	0x1
 3562 2524 2C250000 		.long	0x252c
 3563 2528 32250000 		.long	0x2532
 3564 252c 19       		.uleb128 0x19
 3565 252d 97450000 		.long	0x4597
 3566 2531 00       		.byte	0
 3567 2532 2F       		.uleb128 0x2f
 3568 2533 66696E64 		.ascii "find\0"
 3568      00
 3569 2538 0E       		.byte	0xe
 3570 2539 E002     		.word	0x2e0
 3571 253b 5F5A4E4B 		.ascii "_ZNKSs4findEPKcjj\0"
 3571      53733466 
 3571      696E6445 
 3571      504B636A 
 3571      6A00
 3572 254d 190A0000 		.long	0xa19
 3573 2551 01       		.byte	0x1
 3574 2552 5A250000 		.long	0x255a
 3575 2556 6F250000 		.long	0x256f
 3576 255a 19       		.uleb128 0x19
 3577 255b 97450000 		.long	0x4597
 3578 255f 0E       		.uleb128 0xe
 3579 2560 73370000 		.long	0x3773
 3580 2564 0E       		.uleb128 0xe
 3581 2565 190A0000 		.long	0xa19
 3582 2569 0E       		.uleb128 0xe
 3583 256a 190A0000 		.long	0xa19
 3584 256e 00       		.byte	0
 3585 256f 2F       		.uleb128 0x2f
 3586 2570 66696E64 		.ascii "find\0"
 3586      00
 3587 2575 0D       		.byte	0xd
 3588 2576 4907     		.word	0x749
 3589 2578 5F5A4E4B 		.ascii "_ZNKSs4findERKSsj\0"
 3589      53733466 
 3589      696E6445 
 3589      524B5373 
 3589      6A00
 3590 258a 190A0000 		.long	0xa19
 3591 258e 01       		.byte	0x1
GAS LISTING C:\Users\NJLLMR~1\AppData\Local\Temp\ccqq7oi7.s 			page 101


 3592 258f 97250000 		.long	0x2597
 3593 2593 A7250000 		.long	0x25a7
 3594 2597 19       		.uleb128 0x19
 3595 2598 97450000 		.long	0x4597
 3596 259c 0E       		.uleb128 0xe
 3597 259d AF450000 		.long	0x45af
 3598 25a1 0E       		.uleb128 0xe
 3599 25a2 190A0000 		.long	0xa19
 3600 25a6 00       		.byte	0
 3601 25a7 2F       		.uleb128 0x2f
 3602 25a8 66696E64 		.ascii "find\0"
 3602      00
 3603 25ad 0D       		.byte	0xd
 3604 25ae 5807     		.word	0x758
 3605 25b0 5F5A4E4B 		.ascii "_ZNKSs4findEPKcj\0"
 3605      53733466 
 3605      696E6445 
 3605      504B636A 
 3605      00
 3606 25c1 190A0000 		.long	0xa19
 3607 25c5 01       		.byte	0x1
 3608 25c6 CE250000 		.long	0x25ce
 3609 25ca DE250000 		.long	0x25de
 3610 25ce 19       		.uleb128 0x19
 3611 25cf 97450000 		.long	0x4597
 3612 25d3 0E       		.uleb128 0xe
 3613 25d4 73370000 		.long	0x3773
 3614 25d8 0E       		.uleb128 0xe
 3615 25d9 190A0000 		.long	0xa19
 3616 25dd 00       		.byte	0
 3617 25de 2F       		.uleb128 0x2f
 3618 25df 66696E64 		.ascii "find\0"
 3618      00
 3619 25e4 0E       		.byte	0xe
 3620 25e5 F702     		.word	0x2f7
 3621 25e7 5F5A4E4B 		.ascii "_ZNKSs4findEcj\0"
 3621      53733466 
 3621      696E6445 
 3621      636A00
 3622 25f6 190A0000 		.long	0xa19
 3623 25fa 01       		.byte	0x1
 3624 25fb 03260000 		.long	0x2603
 3625 25ff 13260000 		.long	0x2613
 3626 2603 19       		.uleb128 0x19
 3627 2604 97450000 		.long	0x4597
 3628 2608 0E       		.uleb128 0xe
 3629 2609 53010000 		.long	0x153
 3630 260d 0E       		.uleb128 0xe
 3631 260e 190A0000 		.long	0xa19
 3632 2612 00       		.byte	0
 3633 2613 2E       		.uleb128 0x2e
 3634 2614 A2000000 		.secrel32	LASF17
 3635 2618 0D       		.byte	0xd
 3636 2619 7607     		.word	0x776
 3637 261b 5F5A4E4B 		.ascii "_ZNKSs5rfindERKSsj\0"
 3637      53733572 
 3637      66696E64 
GAS LISTING C:\Users\NJLLMR~1\AppData\Local\Temp\ccqq7oi7.s 			page 102


 3637      45524B53 
 3637      736A00
 3638 262e 190A0000 		.long	0xa19
 3639 2632 01       		.byte	0x1
 3640 2633 3B260000 		.long	0x263b
 3641 2637 4B260000 		.long	0x264b
 3642 263b 19       		.uleb128 0x19
 3643 263c 97450000 		.long	0x4597
 3644 2640 0E       		.uleb128 0xe
 3645 2641 AF450000 		.long	0x45af
 3646 2645 0E       		.uleb128 0xe
 3647 2646 190A0000 		.long	0xa19
 3648 264a 00       		.byte	0
 3649 264b 2E       		.uleb128 0x2e
 3650 264c A2000000 		.secrel32	LASF17
 3651 2650 0E       		.byte	0xe
 3652 2651 0903     		.word	0x309
 3653 2653 5F5A4E4B 		.ascii "_ZNKSs5rfindEPKcjj\0"
 3653      53733572 
 3653      66696E64 
 3653      45504B63 
 3653      6A6A00
 3654 2666 190A0000 		.long	0xa19
 3655 266a 01       		.byte	0x1
 3656 266b 73260000 		.long	0x2673
 3657 266f 88260000 		.long	0x2688
 3658 2673 19       		.uleb128 0x19
 3659 2674 97450000 		.long	0x4597
 3660 2678 0E       		.uleb128 0xe
 3661 2679 73370000 		.long	0x3773
 3662 267d 0E       		.uleb128 0xe
 3663 267e 190A0000 		.long	0xa19
 3664 2682 0E       		.uleb128 0xe
 3665 2683 190A0000 		.long	0xa19
 3666 2687 00       		.byte	0
 3667 2688 2E       		.uleb128 0x2e
 3668 2689 A2000000 		.secrel32	LASF17
 3669 268d 0D       		.byte	0xd
 3670 268e 9407     		.word	0x794
 3671 2690 5F5A4E4B 		.ascii "_ZNKSs5rfindEPKcj\0"
 3671      53733572 
 3671      66696E64 
 3671      45504B63 
 3671      6A00
 3672 26a2 190A0000 		.long	0xa19
 3673 26a6 01       		.byte	0x1
 3674 26a7 AF260000 		.long	0x26af
 3675 26ab BF260000 		.long	0x26bf
 3676 26af 19       		.uleb128 0x19
 3677 26b0 97450000 		.long	0x4597
 3678 26b4 0E       		.uleb128 0xe
 3679 26b5 73370000 		.long	0x3773
 3680 26b9 0E       		.uleb128 0xe
 3681 26ba 190A0000 		.long	0xa19
 3682 26be 00       		.byte	0
 3683 26bf 2E       		.uleb128 0x2e
 3684 26c0 A2000000 		.secrel32	LASF17
GAS LISTING C:\Users\NJLLMR~1\AppData\Local\Temp\ccqq7oi7.s 			page 103


 3685 26c4 0E       		.byte	0xe
 3686 26c5 1E03     		.word	0x31e
 3687 26c7 5F5A4E4B 		.ascii "_ZNKSs5rfindEcj\0"
 3687      53733572 
 3687      66696E64 
 3687      45636A00 
 3688 26d7 190A0000 		.long	0xa19
 3689 26db 01       		.byte	0x1
 3690 26dc E4260000 		.long	0x26e4
 3691 26e0 F4260000 		.long	0x26f4
 3692 26e4 19       		.uleb128 0x19
 3693 26e5 97450000 		.long	0x4597
 3694 26e9 0E       		.uleb128 0xe
 3695 26ea 53010000 		.long	0x153
 3696 26ee 0E       		.uleb128 0xe
 3697 26ef 190A0000 		.long	0xa19
 3698 26f3 00       		.byte	0
 3699 26f4 2E       		.uleb128 0x2e
 3700 26f5 66000000 		.secrel32	LASF18
 3701 26f9 0D       		.byte	0xd
 3702 26fa B307     		.word	0x7b3
 3703 26fc 5F5A4E4B 		.ascii "_ZNKSs13find_first_ofERKSsj\0"
 3703      53733133 
 3703      66696E64 
 3703      5F666972 
 3703      73745F6F 
 3704 2718 190A0000 		.long	0xa19
 3705 271c 01       		.byte	0x1
 3706 271d 25270000 		.long	0x2725
 3707 2721 35270000 		.long	0x2735
 3708 2725 19       		.uleb128 0x19
 3709 2726 97450000 		.long	0x4597
 3710 272a 0E       		.uleb128 0xe
 3711 272b AF450000 		.long	0x45af
 3712 272f 0E       		.uleb128 0xe
 3713 2730 190A0000 		.long	0xa19
 3714 2734 00       		.byte	0
 3715 2735 2E       		.uleb128 0x2e
 3716 2736 66000000 		.secrel32	LASF18
 3717 273a 0E       		.byte	0xe
 3718 273b 2F03     		.word	0x32f
 3719 273d 5F5A4E4B 		.ascii "_ZNKSs13find_first_ofEPKcjj\0"
 3719      53733133 
 3719      66696E64 
 3719      5F666972 
 3719      73745F6F 
 3720 2759 190A0000 		.long	0xa19
 3721 275d 01       		.byte	0x1
 3722 275e 66270000 		.long	0x2766
 3723 2762 7B270000 		.long	0x277b
 3724 2766 19       		.uleb128 0x19
 3725 2767 97450000 		.long	0x4597
 3726 276b 0E       		.uleb128 0xe
 3727 276c 73370000 		.long	0x3773
 3728 2770 0E       		.uleb128 0xe
 3729 2771 190A0000 		.long	0xa19
 3730 2775 0E       		.uleb128 0xe
GAS LISTING C:\Users\NJLLMR~1\AppData\Local\Temp\ccqq7oi7.s 			page 104


 3731 2776 190A0000 		.long	0xa19
 3732 277a 00       		.byte	0
 3733 277b 2E       		.uleb128 0x2e
 3734 277c 66000000 		.secrel32	LASF18
 3735 2780 0D       		.byte	0xd
 3736 2781 D107     		.word	0x7d1
 3737 2783 5F5A4E4B 		.ascii "_ZNKSs13find_first_ofEPKcj\0"
 3737      53733133 
 3737      66696E64 
 3737      5F666972 
 3737      73745F6F 
 3738 279e 190A0000 		.long	0xa19
 3739 27a2 01       		.byte	0x1
 3740 27a3 AB270000 		.long	0x27ab
 3741 27a7 BB270000 		.long	0x27bb
 3742 27ab 19       		.uleb128 0x19
 3743 27ac 97450000 		.long	0x4597
 3744 27b0 0E       		.uleb128 0xe
 3745 27b1 73370000 		.long	0x3773
 3746 27b5 0E       		.uleb128 0xe
 3747 27b6 190A0000 		.long	0xa19
 3748 27ba 00       		.byte	0
 3749 27bb 2E       		.uleb128 0x2e
 3750 27bc 66000000 		.secrel32	LASF18
 3751 27c0 0D       		.byte	0xd
 3752 27c1 E407     		.word	0x7e4
 3753 27c3 5F5A4E4B 		.ascii "_ZNKSs13find_first_ofEcj\0"
 3753      53733133 
 3753      66696E64 
 3753      5F666972 
 3753      73745F6F 
 3754 27dc 190A0000 		.long	0xa19
 3755 27e0 01       		.byte	0x1
 3756 27e1 E9270000 		.long	0x27e9
 3757 27e5 F9270000 		.long	0x27f9
 3758 27e9 19       		.uleb128 0x19
 3759 27ea 97450000 		.long	0x4597
 3760 27ee 0E       		.uleb128 0xe
 3761 27ef 53010000 		.long	0x153
 3762 27f3 0E       		.uleb128 0xe
 3763 27f4 190A0000 		.long	0xa19
 3764 27f8 00       		.byte	0
 3765 27f9 2E       		.uleb128 0x2e
 3766 27fa 07010000 		.secrel32	LASF19
 3767 27fe 0D       		.byte	0xd
 3768 27ff F307     		.word	0x7f3
 3769 2801 5F5A4E4B 		.ascii "_ZNKSs12find_last_ofERKSsj\0"
 3769      53733132 
 3769      66696E64 
 3769      5F6C6173 
 3769      745F6F66 
 3770 281c 190A0000 		.long	0xa19
 3771 2820 01       		.byte	0x1
 3772 2821 29280000 		.long	0x2829
 3773 2825 39280000 		.long	0x2839
 3774 2829 19       		.uleb128 0x19
 3775 282a 97450000 		.long	0x4597
GAS LISTING C:\Users\NJLLMR~1\AppData\Local\Temp\ccqq7oi7.s 			page 105


 3776 282e 0E       		.uleb128 0xe
 3777 282f AF450000 		.long	0x45af
 3778 2833 0E       		.uleb128 0xe
 3779 2834 190A0000 		.long	0xa19
 3780 2838 00       		.byte	0
 3781 2839 2E       		.uleb128 0x2e
 3782 283a 07010000 		.secrel32	LASF19
 3783 283e 0E       		.byte	0xe
 3784 283f 3E03     		.word	0x33e
 3785 2841 5F5A4E4B 		.ascii "_ZNKSs12find_last_ofEPKcjj\0"
 3785      53733132 
 3785      66696E64 
 3785      5F6C6173 
 3785      745F6F66 
 3786 285c 190A0000 		.long	0xa19
 3787 2860 01       		.byte	0x1
 3788 2861 69280000 		.long	0x2869
 3789 2865 7E280000 		.long	0x287e
 3790 2869 19       		.uleb128 0x19
 3791 286a 97450000 		.long	0x4597
 3792 286e 0E       		.uleb128 0xe
 3793 286f 73370000 		.long	0x3773
 3794 2873 0E       		.uleb128 0xe
 3795 2874 190A0000 		.long	0xa19
 3796 2878 0E       		.uleb128 0xe
 3797 2879 190A0000 		.long	0xa19
 3798 287d 00       		.byte	0
 3799 287e 2E       		.uleb128 0x2e
 3800 287f 07010000 		.secrel32	LASF19
 3801 2883 0D       		.byte	0xd
 3802 2884 1108     		.word	0x811
 3803 2886 5F5A4E4B 		.ascii "_ZNKSs12find_last_ofEPKcj\0"
 3803      53733132 
 3803      66696E64 
 3803      5F6C6173 
 3803      745F6F66 
 3804 28a0 190A0000 		.long	0xa19
 3805 28a4 01       		.byte	0x1
 3806 28a5 AD280000 		.long	0x28ad
 3807 28a9 BD280000 		.long	0x28bd
 3808 28ad 19       		.uleb128 0x19
 3809 28ae 97450000 		.long	0x4597
 3810 28b2 0E       		.uleb128 0xe
 3811 28b3 73370000 		.long	0x3773
 3812 28b7 0E       		.uleb128 0xe
 3813 28b8 190A0000 		.long	0xa19
 3814 28bc 00       		.byte	0
 3815 28bd 2E       		.uleb128 0x2e
 3816 28be 07010000 		.secrel32	LASF19
 3817 28c2 0D       		.byte	0xd
 3818 28c3 2408     		.word	0x824
 3819 28c5 5F5A4E4B 		.ascii "_ZNKSs12find_last_ofEcj\0"
 3819      53733132 
 3819      66696E64 
 3819      5F6C6173 
 3819      745F6F66 
 3820 28dd 190A0000 		.long	0xa19
GAS LISTING C:\Users\NJLLMR~1\AppData\Local\Temp\ccqq7oi7.s 			page 106


 3821 28e1 01       		.byte	0x1
 3822 28e2 EA280000 		.long	0x28ea
 3823 28e6 FA280000 		.long	0x28fa
 3824 28ea 19       		.uleb128 0x19
 3825 28eb 97450000 		.long	0x4597
 3826 28ef 0E       		.uleb128 0xe
 3827 28f0 53010000 		.long	0x153
 3828 28f4 0E       		.uleb128 0xe
 3829 28f5 190A0000 		.long	0xa19
 3830 28f9 00       		.byte	0
 3831 28fa 2E       		.uleb128 0x2e
 3832 28fb CE000000 		.secrel32	LASF20
 3833 28ff 0D       		.byte	0xd
 3834 2900 3208     		.word	0x832
 3835 2902 5F5A4E4B 		.ascii "_ZNKSs17find_first_not_ofERKSsj\0"
 3835      53733137 
 3835      66696E64 
 3835      5F666972 
 3835      73745F6E 
 3836 2922 190A0000 		.long	0xa19
 3837 2926 01       		.byte	0x1
 3838 2927 2F290000 		.long	0x292f
 3839 292b 3F290000 		.long	0x293f
 3840 292f 19       		.uleb128 0x19
 3841 2930 97450000 		.long	0x4597
 3842 2934 0E       		.uleb128 0xe
 3843 2935 AF450000 		.long	0x45af
 3844 2939 0E       		.uleb128 0xe
 3845 293a 190A0000 		.long	0xa19
 3846 293e 00       		.byte	0
 3847 293f 2E       		.uleb128 0x2e
 3848 2940 CE000000 		.secrel32	LASF20
 3849 2944 0E       		.byte	0xe
 3850 2945 5303     		.word	0x353
 3851 2947 5F5A4E4B 		.ascii "_ZNKSs17find_first_not_ofEPKcjj\0"
 3851      53733137 
 3851      66696E64 
 3851      5F666972 
 3851      73745F6E 
 3852 2967 190A0000 		.long	0xa19
 3853 296b 01       		.byte	0x1
 3854 296c 74290000 		.long	0x2974
 3855 2970 89290000 		.long	0x2989
 3856 2974 19       		.uleb128 0x19
 3857 2975 97450000 		.long	0x4597
 3858 2979 0E       		.uleb128 0xe
 3859 297a 73370000 		.long	0x3773
 3860 297e 0E       		.uleb128 0xe
 3861 297f 190A0000 		.long	0xa19
 3862 2983 0E       		.uleb128 0xe
 3863 2984 190A0000 		.long	0xa19
 3864 2988 00       		.byte	0
 3865 2989 2E       		.uleb128 0x2e
 3866 298a CE000000 		.secrel32	LASF20
 3867 298e 0D       		.byte	0xd
 3868 298f 5108     		.word	0x851
 3869 2991 5F5A4E4B 		.ascii "_ZNKSs17find_first_not_ofEPKcj\0"
GAS LISTING C:\Users\NJLLMR~1\AppData\Local\Temp\ccqq7oi7.s 			page 107


 3869      53733137 
 3869      66696E64 
 3869      5F666972 
 3869      73745F6E 
 3870 29b0 190A0000 		.long	0xa19
 3871 29b4 01       		.byte	0x1
 3872 29b5 BD290000 		.long	0x29bd
 3873 29b9 CD290000 		.long	0x29cd
 3874 29bd 19       		.uleb128 0x19
 3875 29be 97450000 		.long	0x4597
 3876 29c2 0E       		.uleb128 0xe
 3877 29c3 73370000 		.long	0x3773
 3878 29c7 0E       		.uleb128 0xe
 3879 29c8 190A0000 		.long	0xa19
 3880 29cc 00       		.byte	0
 3881 29cd 2E       		.uleb128 0x2e
 3882 29ce CE000000 		.secrel32	LASF20
 3883 29d2 0E       		.byte	0xe
 3884 29d3 5F03     		.word	0x35f
 3885 29d5 5F5A4E4B 		.ascii "_ZNKSs17find_first_not_ofEcj\0"
 3885      53733137 
 3885      66696E64 
 3885      5F666972 
 3885      73745F6E 
 3886 29f2 190A0000 		.long	0xa19
 3887 29f6 01       		.byte	0x1
 3888 29f7 FF290000 		.long	0x29ff
 3889 29fb 0F2A0000 		.long	0x2a0f
 3890 29ff 19       		.uleb128 0x19
 3891 2a00 97450000 		.long	0x4597
 3892 2a04 0E       		.uleb128 0xe
 3893 2a05 53010000 		.long	0x153
 3894 2a09 0E       		.uleb128 0xe
 3895 2a0a 190A0000 		.long	0xa19
 3896 2a0e 00       		.byte	0
 3897 2a0f 2E       		.uleb128 0x2e
 3898 2a10 91000000 		.secrel32	LASF21
 3899 2a14 0D       		.byte	0xd
 3900 2a15 7108     		.word	0x871
 3901 2a17 5F5A4E4B 		.ascii "_ZNKSs16find_last_not_ofERKSsj\0"
 3901      53733136 
 3901      66696E64 
 3901      5F6C6173 
 3901      745F6E6F 
 3902 2a36 190A0000 		.long	0xa19
 3903 2a3a 01       		.byte	0x1
 3904 2a3b 432A0000 		.long	0x2a43
 3905 2a3f 532A0000 		.long	0x2a53
 3906 2a43 19       		.uleb128 0x19
 3907 2a44 97450000 		.long	0x4597
 3908 2a48 0E       		.uleb128 0xe
 3909 2a49 AF450000 		.long	0x45af
 3910 2a4d 0E       		.uleb128 0xe
 3911 2a4e 190A0000 		.long	0xa19
 3912 2a52 00       		.byte	0
 3913 2a53 2E       		.uleb128 0x2e
 3914 2a54 91000000 		.secrel32	LASF21
GAS LISTING C:\Users\NJLLMR~1\AppData\Local\Temp\ccqq7oi7.s 			page 108


 3915 2a58 0E       		.byte	0xe
 3916 2a59 6A03     		.word	0x36a
 3917 2a5b 5F5A4E4B 		.ascii "_ZNKSs16find_last_not_ofEPKcjj\0"
 3917      53733136 
 3917      66696E64 
 3917      5F6C6173 
 3917      745F6E6F 
 3918 2a7a 190A0000 		.long	0xa19
 3919 2a7e 01       		.byte	0x1
 3920 2a7f 872A0000 		.long	0x2a87
 3921 2a83 9C2A0000 		.long	0x2a9c
 3922 2a87 19       		.uleb128 0x19
 3923 2a88 97450000 		.long	0x4597
 3924 2a8c 0E       		.uleb128 0xe
 3925 2a8d 73370000 		.long	0x3773
 3926 2a91 0E       		.uleb128 0xe
 3927 2a92 190A0000 		.long	0xa19
 3928 2a96 0E       		.uleb128 0xe
 3929 2a97 190A0000 		.long	0xa19
 3930 2a9b 00       		.byte	0
 3931 2a9c 2E       		.uleb128 0x2e
 3932 2a9d 91000000 		.secrel32	LASF21
 3933 2aa1 0D       		.byte	0xd
 3934 2aa2 9008     		.word	0x890
 3935 2aa4 5F5A4E4B 		.ascii "_ZNKSs16find_last_not_ofEPKcj\0"
 3935      53733136 
 3935      66696E64 
 3935      5F6C6173 
 3935      745F6E6F 
 3936 2ac2 190A0000 		.long	0xa19
 3937 2ac6 01       		.byte	0x1
 3938 2ac7 CF2A0000 		.long	0x2acf
 3939 2acb DF2A0000 		.long	0x2adf
 3940 2acf 19       		.uleb128 0x19
 3941 2ad0 97450000 		.long	0x4597
 3942 2ad4 0E       		.uleb128 0xe
 3943 2ad5 73370000 		.long	0x3773
 3944 2ad9 0E       		.uleb128 0xe
 3945 2ada 190A0000 		.long	0xa19
 3946 2ade 00       		.byte	0
 3947 2adf 2E       		.uleb128 0x2e
 3948 2ae0 91000000 		.secrel32	LASF21
 3949 2ae4 0E       		.byte	0xe
 3950 2ae5 7F03     		.word	0x37f
 3951 2ae7 5F5A4E4B 		.ascii "_ZNKSs16find_last_not_ofEcj\0"
 3951      53733136 
 3951      66696E64 
 3951      5F6C6173 
 3951      745F6E6F 
 3952 2b03 190A0000 		.long	0xa19
 3953 2b07 01       		.byte	0x1
 3954 2b08 102B0000 		.long	0x2b10
 3955 2b0c 202B0000 		.long	0x2b20
 3956 2b10 19       		.uleb128 0x19
 3957 2b11 97450000 		.long	0x4597
 3958 2b15 0E       		.uleb128 0xe
 3959 2b16 53010000 		.long	0x153
GAS LISTING C:\Users\NJLLMR~1\AppData\Local\Temp\ccqq7oi7.s 			page 109


 3960 2b1a 0E       		.uleb128 0xe
 3961 2b1b 190A0000 		.long	0xa19
 3962 2b1f 00       		.byte	0
 3963 2b20 2F       		.uleb128 0x2f
 3964 2b21 73756273 		.ascii "substr\0"
 3964      747200
 3965 2b28 0D       		.byte	0xd
 3966 2b29 B108     		.word	0x8b1
 3967 2b2b 5F5A4E4B 		.ascii "_ZNKSs6substrEjj\0"
 3967      53733673 
 3967      75627374 
 3967      72456A6A 
 3967      00
 3968 2b3c 91090000 		.long	0x991
 3969 2b40 01       		.byte	0x1
 3970 2b41 492B0000 		.long	0x2b49
 3971 2b45 592B0000 		.long	0x2b59
 3972 2b49 19       		.uleb128 0x19
 3973 2b4a 97450000 		.long	0x4597
 3974 2b4e 0E       		.uleb128 0xe
 3975 2b4f 190A0000 		.long	0xa19
 3976 2b53 0E       		.uleb128 0xe
 3977 2b54 190A0000 		.long	0xa19
 3978 2b58 00       		.byte	0
 3979 2b59 2E       		.uleb128 0x2e
 3980 2b5a 38010000 		.secrel32	LASF0
 3981 2b5e 0D       		.byte	0xd
 3982 2b5f C408     		.word	0x8c4
 3983 2b61 5F5A4E4B 		.ascii "_ZNKSs7compareERKSs\0"
 3983      53733763 
 3983      6F6D7061 
 3983      72654552 
 3983      4B537300 
 3984 2b75 87010000 		.long	0x187
 3985 2b79 01       		.byte	0x1
 3986 2b7a 822B0000 		.long	0x2b82
 3987 2b7e 8D2B0000 		.long	0x2b8d
 3988 2b82 19       		.uleb128 0x19
 3989 2b83 97450000 		.long	0x4597
 3990 2b87 0E       		.uleb128 0xe
 3991 2b88 AF450000 		.long	0x45af
 3992 2b8c 00       		.byte	0
 3993 2b8d 2E       		.uleb128 0x2e
 3994 2b8e 38010000 		.secrel32	LASF0
 3995 2b92 0E       		.byte	0xe
 3996 2b93 9303     		.word	0x393
 3997 2b95 5F5A4E4B 		.ascii "_ZNKSs7compareEjjRKSs\0"
 3997      53733763 
 3997      6F6D7061 
 3997      7265456A 
 3997      6A524B53 
 3998 2bab 87010000 		.long	0x187
 3999 2baf 01       		.byte	0x1
 4000 2bb0 B82B0000 		.long	0x2bb8
 4001 2bb4 CD2B0000 		.long	0x2bcd
 4002 2bb8 19       		.uleb128 0x19
 4003 2bb9 97450000 		.long	0x4597
GAS LISTING C:\Users\NJLLMR~1\AppData\Local\Temp\ccqq7oi7.s 			page 110


 4004 2bbd 0E       		.uleb128 0xe
 4005 2bbe 190A0000 		.long	0xa19
 4006 2bc2 0E       		.uleb128 0xe
 4007 2bc3 190A0000 		.long	0xa19
 4008 2bc7 0E       		.uleb128 0xe
 4009 2bc8 AF450000 		.long	0x45af
 4010 2bcc 00       		.byte	0
 4011 2bcd 2E       		.uleb128 0x2e
 4012 2bce 38010000 		.secrel32	LASF0
 4013 2bd2 0E       		.byte	0xe
 4014 2bd3 A203     		.word	0x3a2
 4015 2bd5 5F5A4E4B 		.ascii "_ZNKSs7compareEjjRKSsjj\0"
 4015      53733763 
 4015      6F6D7061 
 4015      7265456A 
 4015      6A524B53 
 4016 2bed 87010000 		.long	0x187
 4017 2bf1 01       		.byte	0x1
 4018 2bf2 FA2B0000 		.long	0x2bfa
 4019 2bf6 192C0000 		.long	0x2c19
 4020 2bfa 19       		.uleb128 0x19
 4021 2bfb 97450000 		.long	0x4597
 4022 2bff 0E       		.uleb128 0xe
 4023 2c00 190A0000 		.long	0xa19
 4024 2c04 0E       		.uleb128 0xe
 4025 2c05 190A0000 		.long	0xa19
 4026 2c09 0E       		.uleb128 0xe
 4027 2c0a AF450000 		.long	0x45af
 4028 2c0e 0E       		.uleb128 0xe
 4029 2c0f 190A0000 		.long	0xa19
 4030 2c13 0E       		.uleb128 0xe
 4031 2c14 190A0000 		.long	0xa19
 4032 2c18 00       		.byte	0
 4033 2c19 2E       		.uleb128 0x2e
 4034 2c1a 38010000 		.secrel32	LASF0
 4035 2c1e 0E       		.byte	0xe
 4036 2c1f B403     		.word	0x3b4
 4037 2c21 5F5A4E4B 		.ascii "_ZNKSs7compareEPKc\0"
 4037      53733763 
 4037      6F6D7061 
 4037      72654550 
 4037      4B6300
 4038 2c34 87010000 		.long	0x187
 4039 2c38 01       		.byte	0x1
 4040 2c39 412C0000 		.long	0x2c41
 4041 2c3d 4C2C0000 		.long	0x2c4c
 4042 2c41 19       		.uleb128 0x19
 4043 2c42 97450000 		.long	0x4597
 4044 2c46 0E       		.uleb128 0xe
 4045 2c47 73370000 		.long	0x3773
 4046 2c4b 00       		.byte	0
 4047 2c4c 2E       		.uleb128 0x2e
 4048 2c4d 38010000 		.secrel32	LASF0
 4049 2c51 0E       		.byte	0xe
 4050 2c52 C303     		.word	0x3c3
 4051 2c54 5F5A4E4B 		.ascii "_ZNKSs7compareEjjPKc\0"
 4051      53733763 
GAS LISTING C:\Users\NJLLMR~1\AppData\Local\Temp\ccqq7oi7.s 			page 111


 4051      6F6D7061 
 4051      7265456A 
 4051      6A504B63 
 4052 2c69 87010000 		.long	0x187
 4053 2c6d 01       		.byte	0x1
 4054 2c6e 762C0000 		.long	0x2c76
 4055 2c72 8B2C0000 		.long	0x2c8b
 4056 2c76 19       		.uleb128 0x19
 4057 2c77 97450000 		.long	0x4597
 4058 2c7b 0E       		.uleb128 0xe
 4059 2c7c 190A0000 		.long	0xa19
 4060 2c80 0E       		.uleb128 0xe
 4061 2c81 190A0000 		.long	0xa19
 4062 2c85 0E       		.uleb128 0xe
 4063 2c86 73370000 		.long	0x3773
 4064 2c8a 00       		.byte	0
 4065 2c8b 2E       		.uleb128 0x2e
 4066 2c8c 38010000 		.secrel32	LASF0
 4067 2c90 0E       		.byte	0xe
 4068 2c91 D303     		.word	0x3d3
 4069 2c93 5F5A4E4B 		.ascii "_ZNKSs7compareEjjPKcj\0"
 4069      53733763 
 4069      6F6D7061 
 4069      7265456A 
 4069      6A504B63 
 4070 2ca9 87010000 		.long	0x187
 4071 2cad 01       		.byte	0x1
 4072 2cae B62C0000 		.long	0x2cb6
 4073 2cb2 D02C0000 		.long	0x2cd0
 4074 2cb6 19       		.uleb128 0x19
 4075 2cb7 97450000 		.long	0x4597
 4076 2cbb 0E       		.uleb128 0xe
 4077 2cbc 190A0000 		.long	0xa19
 4078 2cc0 0E       		.uleb128 0xe
 4079 2cc1 190A0000 		.long	0xa19
 4080 2cc5 0E       		.uleb128 0xe
 4081 2cc6 73370000 		.long	0x3773
 4082 2cca 0E       		.uleb128 0xe
 4083 2ccb 190A0000 		.long	0xa19
 4084 2ccf 00       		.byte	0
 4085 2cd0 0F       		.uleb128 0xf
 4086 2cd1 290B0000 		.long	0xb29
 4087 2cd5 33       		.uleb128 0x33
 4088 2cd6 15000000 		.secrel32	LASF23
 4089 2cda 53010000 		.long	0x153
 4090 2cde 34       		.uleb128 0x34
 4091 2cdf 1C000000 		.secrel32	LASF22
 4092 2ce3 0E050000 		.long	0x50e
 4093 2ce7 35       		.uleb128 0x35
 4094 2ce8 5F416C6C 		.ascii "_Alloc\0"
 4094      6F6300
 4095 2cef F9080000 		.long	0x8f9
 4096 2cf3 00       		.byte	0
 4097 2cf4 36       		.uleb128 0x36
 4098 2cf5 72657665 		.ascii "reverse_iterator<__gnu_cxx::__normal_iterator<char const*, std::basic_string<char, std::ch
 4098      7273655F 
 4098      69746572 
GAS LISTING C:\Users\NJLLMR~1\AppData\Local\Temp\ccqq7oi7.s 			page 112


 4098      61746F72 
 4098      3C5F5F67 
 4099 2d7b 36       		.uleb128 0x36
 4100 2d7c 72657665 		.ascii "reverse_iterator<__gnu_cxx::__normal_iterator<char*, std::basic_string<char, std::char_tra
 4100      7273655F 
 4100      69746572 
 4100      61746F72 
 4100      3C5F5F67 
 4101 2dfc 0F       		.uleb128 0xf
 4102 2dfd 91090000 		.long	0x991
 4103 2e01 02       		.uleb128 0x2
 4104 2e02 73747269 		.ascii "string\0"
 4104      6E6700
 4105 2e09 0F       		.byte	0xf
 4106 2e0a 3E       		.byte	0x3e
 4107 2e0b 91090000 		.long	0x991
 4108 2e0f 37       		.uleb128 0x37
 4109 2e10 5F496F73 		.ascii "_Ios_Fmtflags\0"
 4109      5F466D74 
 4109      666C6167 
 4109      7300
 4110 2e1e 04       		.byte	0x4
 4111 2e1f 01       		.byte	0x1
 4112 2e20 33       		.byte	0x33
 4113 2e21 362F0000 		.long	0x2f36
 4114 2e25 38       		.uleb128 0x38
 4115 2e26 5F535F62 		.ascii "_S_boolalpha\0"
 4115      6F6F6C61 
 4115      6C706861 
 4115      00
 4116 2e33 01       		.sleb128 1
 4117 2e34 38       		.uleb128 0x38
 4118 2e35 5F535F64 		.ascii "_S_dec\0"
 4118      656300
 4119 2e3c 02       		.sleb128 2
 4120 2e3d 38       		.uleb128 0x38
 4121 2e3e 5F535F66 		.ascii "_S_fixed\0"
 4121      69786564 
 4121      00
 4122 2e47 04       		.sleb128 4
 4123 2e48 38       		.uleb128 0x38
 4124 2e49 5F535F68 		.ascii "_S_hex\0"
 4124      657800
 4125 2e50 08       		.sleb128 8
 4126 2e51 38       		.uleb128 0x38
 4127 2e52 5F535F69 		.ascii "_S_internal\0"
 4127      6E746572 
 4127      6E616C00 
 4128 2e5e 10       		.sleb128 16
 4129 2e5f 38       		.uleb128 0x38
 4130 2e60 5F535F6C 		.ascii "_S_left\0"
 4130      65667400 
 4131 2e68 20       		.sleb128 32
 4132 2e69 38       		.uleb128 0x38
 4133 2e6a 5F535F6F 		.ascii "_S_oct\0"
 4133      637400
 4134 2e71 C000     		.sleb128 64
GAS LISTING C:\Users\NJLLMR~1\AppData\Local\Temp\ccqq7oi7.s 			page 113


 4135 2e73 38       		.uleb128 0x38
 4136 2e74 5F535F72 		.ascii "_S_right\0"
 4136      69676874 
 4136      00
 4137 2e7d 8001     		.sleb128 128
 4138 2e7f 38       		.uleb128 0x38
 4139 2e80 5F535F73 		.ascii "_S_scientific\0"
 4139      6369656E 
 4139      74696669 
 4139      6300
 4140 2e8e 8002     		.sleb128 256
 4141 2e90 38       		.uleb128 0x38
 4142 2e91 5F535F73 		.ascii "_S_showbase\0"
 4142      686F7762 
 4142      61736500 
 4143 2e9d 8004     		.sleb128 512
 4144 2e9f 38       		.uleb128 0x38
 4145 2ea0 5F535F73 		.ascii "_S_showpoint\0"
 4145      686F7770 
 4145      6F696E74 
 4145      00
 4146 2ead 8008     		.sleb128 1024
 4147 2eaf 38       		.uleb128 0x38
 4148 2eb0 5F535F73 		.ascii "_S_showpos\0"
 4148      686F7770 
 4148      6F7300
 4149 2ebb 8010     		.sleb128 2048
 4150 2ebd 38       		.uleb128 0x38
 4151 2ebe 5F535F73 		.ascii "_S_skipws\0"
 4151      6B697077 
 4151      7300
 4152 2ec8 8020     		.sleb128 4096
 4153 2eca 38       		.uleb128 0x38
 4154 2ecb 5F535F75 		.ascii "_S_unitbuf\0"
 4154      6E697462 
 4154      756600
 4155 2ed6 80C000   		.sleb128 8192
 4156 2ed9 38       		.uleb128 0x38
 4157 2eda 5F535F75 		.ascii "_S_uppercase\0"
 4157      70706572 
 4157      63617365 
 4157      00
 4158 2ee7 808001   		.sleb128 16384
 4159 2eea 38       		.uleb128 0x38
 4160 2eeb 5F535F61 		.ascii "_S_adjustfield\0"
 4160      646A7573 
 4160      74666965 
 4160      6C6400
 4161 2efa B001     		.sleb128 176
 4162 2efc 38       		.uleb128 0x38
 4163 2efd 5F535F62 		.ascii "_S_basefield\0"
 4163      61736566 
 4163      69656C64 
 4163      00
 4164 2f0a CA00     		.sleb128 74
 4165 2f0c 38       		.uleb128 0x38
 4166 2f0d 5F535F66 		.ascii "_S_floatfield\0"
GAS LISTING C:\Users\NJLLMR~1\AppData\Local\Temp\ccqq7oi7.s 			page 114


 4166      6C6F6174 
 4166      6669656C 
 4166      6400
 4167 2f1b 8402     		.sleb128 260
 4168 2f1d 38       		.uleb128 0x38
 4169 2f1e 5F535F69 		.ascii "_S_ios_fmtflags_end\0"
 4169      6F735F66 
 4169      6D74666C 
 4169      6167735F 
 4169      656E6400 
 4170 2f32 808004   		.sleb128 65536
 4171 2f35 00       		.byte	0
 4172 2f36 37       		.uleb128 0x37
 4173 2f37 5F496F73 		.ascii "_Ios_Openmode\0"
 4173      5F4F7065 
 4173      6E6D6F64 
 4173      6500
 4174 2f45 04       		.byte	0x4
 4175 2f46 01       		.byte	0x1
 4176 2f47 67       		.byte	0x67
 4177 2f48 9C2F0000 		.long	0x2f9c
 4178 2f4c 38       		.uleb128 0x38
 4179 2f4d 5F535F61 		.ascii "_S_app\0"
 4179      707000
 4180 2f54 01       		.sleb128 1
 4181 2f55 38       		.uleb128 0x38
 4182 2f56 5F535F61 		.ascii "_S_ate\0"
 4182      746500
 4183 2f5d 02       		.sleb128 2
 4184 2f5e 38       		.uleb128 0x38
 4185 2f5f 5F535F62 		.ascii "_S_bin\0"
 4185      696E00
 4186 2f66 04       		.sleb128 4
 4187 2f67 38       		.uleb128 0x38
 4188 2f68 5F535F69 		.ascii "_S_in\0"
 4188      6E00
 4189 2f6e 08       		.sleb128 8
 4190 2f6f 38       		.uleb128 0x38
 4191 2f70 5F535F6F 		.ascii "_S_out\0"
 4191      757400
 4192 2f77 10       		.sleb128 16
 4193 2f78 38       		.uleb128 0x38
 4194 2f79 5F535F74 		.ascii "_S_trunc\0"
 4194      72756E63 
 4194      00
 4195 2f82 20       		.sleb128 32
 4196 2f83 38       		.uleb128 0x38
 4197 2f84 5F535F69 		.ascii "_S_ios_openmode_end\0"
 4197      6F735F6F 
 4197      70656E6D 
 4197      6F64655F 
 4197      656E6400 
 4198 2f98 808004   		.sleb128 65536
 4199 2f9b 00       		.byte	0
 4200 2f9c 37       		.uleb128 0x37
 4201 2f9d 5F496F73 		.ascii "_Ios_Iostate\0"
 4201      5F496F73 
GAS LISTING C:\Users\NJLLMR~1\AppData\Local\Temp\ccqq7oi7.s 			page 115


 4201      74617465 
 4201      00
 4202 2faa 04       		.byte	0x4
 4203 2fab 01       		.byte	0x1
 4204 2fac 8F       		.byte	0x8f
 4205 2fad FB2F0000 		.long	0x2ffb
 4206 2fb1 38       		.uleb128 0x38
 4207 2fb2 5F535F67 		.ascii "_S_goodbit\0"
 4207      6F6F6462 
 4207      697400
 4208 2fbd 00       		.sleb128 0
 4209 2fbe 38       		.uleb128 0x38
 4210 2fbf 5F535F62 		.ascii "_S_badbit\0"
 4210      61646269 
 4210      7400
 4211 2fc9 01       		.sleb128 1
 4212 2fca 38       		.uleb128 0x38
 4213 2fcb 5F535F65 		.ascii "_S_eofbit\0"
 4213      6F666269 
 4213      7400
 4214 2fd5 02       		.sleb128 2
 4215 2fd6 38       		.uleb128 0x38
 4216 2fd7 5F535F66 		.ascii "_S_failbit\0"
 4216      61696C62 
 4216      697400
 4217 2fe2 04       		.sleb128 4
 4218 2fe3 38       		.uleb128 0x38
 4219 2fe4 5F535F69 		.ascii "_S_ios_iostate_end\0"
 4219      6F735F69 
 4219      6F737461 
 4219      74655F65 
 4219      6E6400
 4220 2ff7 808004   		.sleb128 65536
 4221 2ffa 00       		.byte	0
 4222 2ffb 37       		.uleb128 0x37
 4223 2ffc 5F496F73 		.ascii "_Ios_Seekdir\0"
 4223      5F536565 
 4223      6B646972 
 4223      00
 4224 3009 04       		.byte	0x4
 4225 300a 01       		.byte	0x1
 4226 300b B5       		.byte	0xb5
 4227 300c 43300000 		.long	0x3043
 4228 3010 38       		.uleb128 0x38
 4229 3011 5F535F62 		.ascii "_S_beg\0"
 4229      656700
 4230 3018 00       		.sleb128 0
 4231 3019 38       		.uleb128 0x38
 4232 301a 5F535F63 		.ascii "_S_cur\0"
 4232      757200
 4233 3021 01       		.sleb128 1
 4234 3022 38       		.uleb128 0x38
 4235 3023 5F535F65 		.ascii "_S_end\0"
 4235      6E6400
 4236 302a 02       		.sleb128 2
 4237 302b 38       		.uleb128 0x38
 4238 302c 5F535F69 		.ascii "_S_ios_seekdir_end\0"
GAS LISTING C:\Users\NJLLMR~1\AppData\Local\Temp\ccqq7oi7.s 			page 116


 4238      6F735F73 
 4238      65656B64 
 4238      69725F65 
 4238      6E6400
 4239 303f 808004   		.sleb128 65536
 4240 3042 00       		.byte	0
 4241 3043 39       		.uleb128 0x39
 4242 3044 696F735F 		.ascii "ios_base\0"
 4242      62617365 
 4242      00
 4243 304d 81330000 		.long	0x3381
 4244 3051 3A       		.uleb128 0x3a
 4245 3052 496E6974 		.ascii "Init\0"
 4245      00
 4246 3057 01       		.byte	0x1
 4247 3058 01       		.byte	0x1
 4248 3059 1502     		.word	0x215
 4249 305b 01       		.byte	0x1
 4250 305c C4300000 		.long	0x30c4
 4251 3060 3B       		.uleb128 0x3b
 4252 3061 5F535F72 		.ascii "_S_refcount\0"
 4252      6566636F 
 4252      756E7400 
 4253 306d 01       		.byte	0x1
 4254 306e 1D02     		.word	0x21d
 4255 3070 42450000 		.long	0x4542
 4256 3074 3B       		.uleb128 0x3b
 4257 3075 5F535F73 		.ascii "_S_synced_with_stdio\0"
 4257      796E6365 
 4257      645F7769 
 4257      74685F73 
 4257      7464696F 
 4258 308a 01       		.byte	0x1
 4259 308b 1E02     		.word	0x21e
 4260 308d 51430000 		.long	0x4351
 4261 3091 2D       		.uleb128 0x2d
 4262 3092 496E6974 		.ascii "Init\0"
 4262      00
 4263 3097 01       		.byte	0x1
 4264 3098 1902     		.word	0x219
 4265 309a 01       		.byte	0x1
 4266 309b A3300000 		.long	0x30a3
 4267 309f A9300000 		.long	0x30a9
 4268 30a3 19       		.uleb128 0x19
 4269 30a4 D7450000 		.long	0x45d7
 4270 30a8 00       		.byte	0
 4271 30a9 3C       		.uleb128 0x3c
 4272 30aa 7E496E69 		.ascii "~Init\0"
 4272      7400
 4273 30b0 01       		.byte	0x1
 4274 30b1 1A02     		.word	0x21a
 4275 30b3 01       		.byte	0x1
 4276 30b4 B8300000 		.long	0x30b8
 4277 30b8 19       		.uleb128 0x19
 4278 30b9 D7450000 		.long	0x45d7
 4279 30bd 19       		.uleb128 0x19
 4280 30be 87010000 		.long	0x187
GAS LISTING C:\Users\NJLLMR~1\AppData\Local\Temp\ccqq7oi7.s 			page 117


 4281 30c2 00       		.byte	0
 4282 30c3 00       		.byte	0
 4283 30c4 20       		.uleb128 0x20
 4284 30c5 666D7466 		.ascii "fmtflags\0"
 4284      6C616773 
 4284      00
 4285 30ce 01       		.byte	0x1
 4286 30cf FF       		.byte	0xff
 4287 30d0 0F2E0000 		.long	0x2e0f
 4288 30d4 01       		.byte	0x1
 4289 30d5 2F       		.uleb128 0x2f
 4290 30d6 73657466 		.ascii "setf\0"
 4290      00
 4291 30db 01       		.byte	0x1
 4292 30dc 5302     		.word	0x253
 4293 30de 5F5A4E53 		.ascii "_ZNSt8ios_base4setfESt13_Ios_FmtflagsS0_\0"
 4293      7438696F 
 4293      735F6261 
 4293      73653473 
 4293      65746645 
 4294 3107 C4300000 		.long	0x30c4
 4295 310b 01       		.byte	0x1
 4296 310c 14310000 		.long	0x3114
 4297 3110 24310000 		.long	0x3124
 4298 3114 19       		.uleb128 0x19
 4299 3115 26490000 		.long	0x4926
 4300 3119 0E       		.uleb128 0xe
 4301 311a C4300000 		.long	0x30c4
 4302 311e 0E       		.uleb128 0xe
 4303 311f C4300000 		.long	0x30c4
 4304 3123 00       		.byte	0
 4305 3124 3D       		.uleb128 0x3d
 4306 3125 626F6F6C 		.ascii "boolalpha\0"
 4306      616C7068 
 4306      6100
 4307 312f 01       		.byte	0x1
 4308 3130 0201     		.word	0x102
 4309 3132 38310000 		.long	0x3138
 4310 3136 01       		.byte	0x1
 4311 3137 01       		.byte	0x1
 4312 3138 0F       		.uleb128 0xf
 4313 3139 C4300000 		.long	0x30c4
 4314 313d 3D       		.uleb128 0x3d
 4315 313e 64656300 		.ascii "dec\0"
 4316 3142 01       		.byte	0x1
 4317 3143 0501     		.word	0x105
 4318 3145 38310000 		.long	0x3138
 4319 3149 01       		.byte	0x1
 4320 314a 02       		.byte	0x2
 4321 314b 3D       		.uleb128 0x3d
 4322 314c 66697865 		.ascii "fixed\0"
 4322      6400
 4323 3152 01       		.byte	0x1
 4324 3153 0801     		.word	0x108
 4325 3155 38310000 		.long	0x3138
 4326 3159 01       		.byte	0x1
 4327 315a 04       		.byte	0x4
GAS LISTING C:\Users\NJLLMR~1\AppData\Local\Temp\ccqq7oi7.s 			page 118


 4328 315b 3D       		.uleb128 0x3d
 4329 315c 68657800 		.ascii "hex\0"
 4330 3160 01       		.byte	0x1
 4331 3161 0B01     		.word	0x10b
 4332 3163 38310000 		.long	0x3138
 4333 3167 01       		.byte	0x1
 4334 3168 08       		.byte	0x8
 4335 3169 3D       		.uleb128 0x3d
 4336 316a 696E7465 		.ascii "internal\0"
 4336      726E616C 
 4336      00
 4337 3173 01       		.byte	0x1
 4338 3174 1001     		.word	0x110
 4339 3176 38310000 		.long	0x3138
 4340 317a 01       		.byte	0x1
 4341 317b 10       		.byte	0x10
 4342 317c 3D       		.uleb128 0x3d
 4343 317d 6C656674 		.ascii "left\0"
 4343      00
 4344 3182 01       		.byte	0x1
 4345 3183 1401     		.word	0x114
 4346 3185 38310000 		.long	0x3138
 4347 3189 01       		.byte	0x1
 4348 318a 20       		.byte	0x20
 4349 318b 3D       		.uleb128 0x3d
 4350 318c 6F637400 		.ascii "oct\0"
 4351 3190 01       		.byte	0x1
 4352 3191 1701     		.word	0x117
 4353 3193 38310000 		.long	0x3138
 4354 3197 01       		.byte	0x1
 4355 3198 40       		.byte	0x40
 4356 3199 3D       		.uleb128 0x3d
 4357 319a 72696768 		.ascii "right\0"
 4357      7400
 4358 31a0 01       		.byte	0x1
 4359 31a1 1B01     		.word	0x11b
 4360 31a3 38310000 		.long	0x3138
 4361 31a7 01       		.byte	0x1
 4362 31a8 80       		.byte	0x80
 4363 31a9 3E       		.uleb128 0x3e
 4364 31aa 73636965 		.ascii "scientific\0"
 4364      6E746966 
 4364      696300
 4365 31b5 01       		.byte	0x1
 4366 31b6 1E01     		.word	0x11e
 4367 31b8 38310000 		.long	0x3138
 4368 31bc 01       		.byte	0x1
 4369 31bd 0001     		.word	0x100
 4370 31bf 3E       		.uleb128 0x3e
 4371 31c0 73686F77 		.ascii "showbase\0"
 4371      62617365 
 4371      00
 4372 31c9 01       		.byte	0x1
 4373 31ca 2201     		.word	0x122
 4374 31cc 38310000 		.long	0x3138
 4375 31d0 01       		.byte	0x1
 4376 31d1 0002     		.word	0x200
GAS LISTING C:\Users\NJLLMR~1\AppData\Local\Temp\ccqq7oi7.s 			page 119


 4377 31d3 3E       		.uleb128 0x3e
 4378 31d4 73686F77 		.ascii "showpoint\0"
 4378      706F696E 
 4378      7400
 4379 31de 01       		.byte	0x1
 4380 31df 2601     		.word	0x126
 4381 31e1 38310000 		.long	0x3138
 4382 31e5 01       		.byte	0x1
 4383 31e6 0004     		.word	0x400
 4384 31e8 3E       		.uleb128 0x3e
 4385 31e9 73686F77 		.ascii "showpos\0"
 4385      706F7300 
 4386 31f1 01       		.byte	0x1
 4387 31f2 2901     		.word	0x129
 4388 31f4 38310000 		.long	0x3138
 4389 31f8 01       		.byte	0x1
 4390 31f9 0008     		.word	0x800
 4391 31fb 3E       		.uleb128 0x3e
 4392 31fc 736B6970 		.ascii "skipws\0"
 4392      777300
 4393 3203 01       		.byte	0x1
 4394 3204 2C01     		.word	0x12c
 4395 3206 38310000 		.long	0x3138
 4396 320a 01       		.byte	0x1
 4397 320b 0010     		.word	0x1000
 4398 320d 3E       		.uleb128 0x3e
 4399 320e 756E6974 		.ascii "unitbuf\0"
 4399      62756600 
 4400 3216 01       		.byte	0x1
 4401 3217 2F01     		.word	0x12f
 4402 3219 38310000 		.long	0x3138
 4403 321d 01       		.byte	0x1
 4404 321e 0020     		.word	0x2000
 4405 3220 3E       		.uleb128 0x3e
 4406 3221 75707065 		.ascii "uppercase\0"
 4406      72636173 
 4406      6500
 4407 322b 01       		.byte	0x1
 4408 322c 3301     		.word	0x133
 4409 322e 38310000 		.long	0x3138
 4410 3232 01       		.byte	0x1
 4411 3233 0040     		.word	0x4000
 4412 3235 3D       		.uleb128 0x3d
 4413 3236 61646A75 		.ascii "adjustfield\0"
 4413      73746669 
 4413      656C6400 
 4414 3242 01       		.byte	0x1
 4415 3243 3601     		.word	0x136
 4416 3245 38310000 		.long	0x3138
 4417 3249 01       		.byte	0x1
 4418 324a B0       		.byte	0xb0
 4419 324b 3D       		.uleb128 0x3d
 4420 324c 62617365 		.ascii "basefield\0"
 4420      6669656C 
 4420      6400
 4421 3256 01       		.byte	0x1
 4422 3257 3901     		.word	0x139
GAS LISTING C:\Users\NJLLMR~1\AppData\Local\Temp\ccqq7oi7.s 			page 120


 4423 3259 38310000 		.long	0x3138
 4424 325d 01       		.byte	0x1
 4425 325e 4A       		.byte	0x4a
 4426 325f 3E       		.uleb128 0x3e
 4427 3260 666C6F61 		.ascii "floatfield\0"
 4427      74666965 
 4427      6C6400
 4428 326b 01       		.byte	0x1
 4429 326c 3C01     		.word	0x13c
 4430 326e 38310000 		.long	0x3138
 4431 3272 01       		.byte	0x1
 4432 3273 0401     		.word	0x104
 4433 3275 3F       		.uleb128 0x3f
 4434 3276 696F7374 		.ascii "iostate\0"
 4434      61746500 
 4435 327e 01       		.byte	0x1
 4436 327f 4A01     		.word	0x14a
 4437 3281 9C2F0000 		.long	0x2f9c
 4438 3285 01       		.byte	0x1
 4439 3286 3D       		.uleb128 0x3d
 4440 3287 62616462 		.ascii "badbit\0"
 4440      697400
 4441 328e 01       		.byte	0x1
 4442 328f 4E01     		.word	0x14e
 4443 3291 97320000 		.long	0x3297
 4444 3295 01       		.byte	0x1
 4445 3296 01       		.byte	0x1
 4446 3297 0F       		.uleb128 0xf
 4447 3298 75320000 		.long	0x3275
 4448 329c 3D       		.uleb128 0x3d
 4449 329d 656F6662 		.ascii "eofbit\0"
 4449      697400
 4450 32a4 01       		.byte	0x1
 4451 32a5 5101     		.word	0x151
 4452 32a7 97320000 		.long	0x3297
 4453 32ab 01       		.byte	0x1
 4454 32ac 02       		.byte	0x2
 4455 32ad 3D       		.uleb128 0x3d
 4456 32ae 6661696C 		.ascii "failbit\0"
 4456      62697400 
 4457 32b6 01       		.byte	0x1
 4458 32b7 5601     		.word	0x156
 4459 32b9 97320000 		.long	0x3297
 4460 32bd 01       		.byte	0x1
 4461 32be 04       		.byte	0x4
 4462 32bf 3D       		.uleb128 0x3d
 4463 32c0 676F6F64 		.ascii "goodbit\0"
 4463      62697400 
 4464 32c8 01       		.byte	0x1
 4465 32c9 5901     		.word	0x159
 4466 32cb 97320000 		.long	0x3297
 4467 32cf 01       		.byte	0x1
 4468 32d0 00       		.byte	0
 4469 32d1 3F       		.uleb128 0x3f
 4470 32d2 6F70656E 		.ascii "openmode\0"
 4470      6D6F6465 
 4470      00
GAS LISTING C:\Users\NJLLMR~1\AppData\Local\Temp\ccqq7oi7.s 			page 121


 4471 32db 01       		.byte	0x1
 4472 32dc 6901     		.word	0x169
 4473 32de 362F0000 		.long	0x2f36
 4474 32e2 01       		.byte	0x1
 4475 32e3 3D       		.uleb128 0x3d
 4476 32e4 61707000 		.ascii "app\0"
 4477 32e8 01       		.byte	0x1
 4478 32e9 6C01     		.word	0x16c
 4479 32eb F1320000 		.long	0x32f1
 4480 32ef 01       		.byte	0x1
 4481 32f0 01       		.byte	0x1
 4482 32f1 0F       		.uleb128 0xf
 4483 32f2 D1320000 		.long	0x32d1
 4484 32f6 3D       		.uleb128 0x3d
 4485 32f7 61746500 		.ascii "ate\0"
 4486 32fb 01       		.byte	0x1
 4487 32fc 6F01     		.word	0x16f
 4488 32fe F1320000 		.long	0x32f1
 4489 3302 01       		.byte	0x1
 4490 3303 02       		.byte	0x2
 4491 3304 3D       		.uleb128 0x3d
 4492 3305 62696E61 		.ascii "binary\0"
 4492      727900
 4493 330c 01       		.byte	0x1
 4494 330d 7401     		.word	0x174
 4495 330f F1320000 		.long	0x32f1
 4496 3313 01       		.byte	0x1
 4497 3314 04       		.byte	0x4
 4498 3315 3D       		.uleb128 0x3d
 4499 3316 696E00   		.ascii "in\0"
 4500 3319 01       		.byte	0x1
 4501 331a 7701     		.word	0x177
 4502 331c F1320000 		.long	0x32f1
 4503 3320 01       		.byte	0x1
 4504 3321 08       		.byte	0x8
 4505 3322 3D       		.uleb128 0x3d
 4506 3323 6F757400 		.ascii "out\0"
 4507 3327 01       		.byte	0x1
 4508 3328 7A01     		.word	0x17a
 4509 332a F1320000 		.long	0x32f1
 4510 332e 01       		.byte	0x1
 4511 332f 10       		.byte	0x10
 4512 3330 3D       		.uleb128 0x3d
 4513 3331 7472756E 		.ascii "trunc\0"
 4513      6300
 4514 3337 01       		.byte	0x1
 4515 3338 7D01     		.word	0x17d
 4516 333a F1320000 		.long	0x32f1
 4517 333e 01       		.byte	0x1
 4518 333f 20       		.byte	0x20
 4519 3340 3F       		.uleb128 0x3f
 4520 3341 7365656B 		.ascii "seekdir\0"
 4520      64697200 
 4521 3349 01       		.byte	0x1
 4522 334a 8901     		.word	0x189
 4523 334c FB2F0000 		.long	0x2ffb
 4524 3350 01       		.byte	0x1
GAS LISTING C:\Users\NJLLMR~1\AppData\Local\Temp\ccqq7oi7.s 			page 122


 4525 3351 3D       		.uleb128 0x3d
 4526 3352 62656700 		.ascii "beg\0"
 4527 3356 01       		.byte	0x1
 4528 3357 8C01     		.word	0x18c
 4529 3359 5F330000 		.long	0x335f
 4530 335d 01       		.byte	0x1
 4531 335e 00       		.byte	0
 4532 335f 0F       		.uleb128 0xf
 4533 3360 40330000 		.long	0x3340
 4534 3364 3D       		.uleb128 0x3d
 4535 3365 63757200 		.ascii "cur\0"
 4536 3369 01       		.byte	0x1
 4537 336a 8F01     		.word	0x18f
 4538 336c 5F330000 		.long	0x335f
 4539 3370 01       		.byte	0x1
 4540 3371 01       		.byte	0x1
 4541 3372 3D       		.uleb128 0x3d
 4542 3373 656E6400 		.ascii "end\0"
 4543 3377 01       		.byte	0x1
 4544 3378 9201     		.word	0x192
 4545 337a 5F330000 		.long	0x335f
 4546 337e 01       		.byte	0x1
 4547 337f 02       		.byte	0x2
 4548 3380 00       		.byte	0
 4549 3381 0A       		.uleb128 0xa
 4550 3382 10       		.byte	0x10
 4551 3383 52       		.byte	0x52
 4552 3384 76010000 		.long	0x176
 4553 3388 0A       		.uleb128 0xa
 4554 3389 10       		.byte	0x10
 4555 338a 53       		.byte	0x53
 4556 338b 5B010000 		.long	0x15b
 4557 338f 0A       		.uleb128 0xa
 4558 3390 10       		.byte	0x10
 4559 3391 54       		.byte	0x54
 4560 3392 16010000 		.long	0x116
 4561 3396 0A       		.uleb128 0xa
 4562 3397 10       		.byte	0x10
 4563 3398 5C       		.byte	0x5c
 4564 3399 DD450000 		.long	0x45dd
 4565 339d 0A       		.uleb128 0xa
 4566 339e 10       		.byte	0x10
 4567 339f 65       		.byte	0x65
 4568 33a0 FC450000 		.long	0x45fc
 4569 33a4 0A       		.uleb128 0xa
 4570 33a5 10       		.byte	0x10
 4571 33a6 68       		.byte	0x68
 4572 33a7 1C460000 		.long	0x461c
 4573 33ab 0A       		.uleb128 0xa
 4574 33ac 10       		.byte	0x10
 4575 33ad 69       		.byte	0x69
 4576 33ae 35460000 		.long	0x4635
 4577 33b2 39       		.uleb128 0x39
 4578 33b3 62617369 		.ascii "basic_ostream<char, std::char_traits<char> >\0"
 4578      635F6F73 
 4578      74726561 
 4578      6D3C6368 
GAS LISTING C:\Users\NJLLMR~1\AppData\Local\Temp\ccqq7oi7.s 			page 123


 4578      61722C20 
 4579 33e0 F7330000 		.long	0x33f7
 4580 33e4 33       		.uleb128 0x33
 4581 33e5 15000000 		.secrel32	LASF23
 4582 33e9 53010000 		.long	0x153
 4583 33ed 34       		.uleb128 0x34
 4584 33ee 1C000000 		.secrel32	LASF22
 4585 33f2 0E050000 		.long	0x50e
 4586 33f6 00       		.byte	0
 4587 33f7 39       		.uleb128 0x39
 4588 33f8 62617369 		.ascii "basic_istream<char, std::char_traits<char> >\0"
 4588      635F6973 
 4588      74726561 
 4588      6D3C6368 
 4588      61722C20 
 4589 3425 3C340000 		.long	0x343c
 4590 3429 33       		.uleb128 0x33
 4591 342a 15000000 		.secrel32	LASF23
 4592 342e 53010000 		.long	0x153
 4593 3432 34       		.uleb128 0x34
 4594 3433 1C000000 		.secrel32	LASF22
 4595 3437 0E050000 		.long	0x50e
 4596 343b 00       		.byte	0
 4597 343c 06       		.uleb128 0x6
 4598 343d 5F536574 		.ascii "_Setprecision\0"
 4598      70726563 
 4598      6973696F 
 4598      6E00
 4599 344b 04       		.byte	0x4
 4600 344c 02       		.byte	0x2
 4601 344d B9       		.byte	0xb9
 4602 344e 60340000 		.long	0x3460
 4603 3452 07       		.uleb128 0x7
 4604 3453 5F4D5F6E 		.ascii "_M_n\0"
 4604      00
 4605 3458 02       		.byte	0x2
 4606 3459 B9       		.byte	0xb9
 4607 345a 87010000 		.long	0x187
 4608 345e 00       		.byte	0
 4609 345f 00       		.byte	0
 4610 3460 10       		.uleb128 0x10
 4611 3461 6F706572 		.ascii "operator&\0"
 4611      61746F72 
 4611      2600
 4612 346b 01       		.byte	0x1
 4613 346c 4B       		.byte	0x4b
 4614 346d 5F5A5374 		.ascii "_ZStanSt13_Ios_FmtflagsS_\0"
 4614      616E5374 
 4614      31335F49 
 4614      6F735F46 
 4614      6D74666C 
 4615 3487 0F2E0000 		.long	0x2e0f
 4616 348b 9A340000 		.long	0x349a
 4617 348f 0E       		.uleb128 0xe
 4618 3490 0F2E0000 		.long	0x2e0f
 4619 3494 0E       		.uleb128 0xe
 4620 3495 0F2E0000 		.long	0x2e0f
GAS LISTING C:\Users\NJLLMR~1\AppData\Local\Temp\ccqq7oi7.s 			page 124


 4621 3499 00       		.byte	0
 4622 349a 10       		.uleb128 0x10
 4623 349b 6F706572 		.ascii "operator|\0"
 4623      61746F72 
 4623      7C00
 4624 34a5 01       		.byte	0x1
 4625 34a6 4F       		.byte	0x4f
 4626 34a7 5F5A5374 		.ascii "_ZStorSt13_Ios_FmtflagsS_\0"
 4626      6F725374 
 4626      31335F49 
 4626      6F735F46 
 4626      6D74666C 
 4627 34c1 0F2E0000 		.long	0x2e0f
 4628 34c5 D4340000 		.long	0x34d4
 4629 34c9 0E       		.uleb128 0xe
 4630 34ca 0F2E0000 		.long	0x2e0f
 4631 34ce 0E       		.uleb128 0xe
 4632 34cf 0F2E0000 		.long	0x2e0f
 4633 34d3 00       		.byte	0
 4634 34d4 10       		.uleb128 0x10
 4635 34d5 6F706572 		.ascii "operator~\0"
 4635      61746F72 
 4635      7E00
 4636 34df 01       		.byte	0x1
 4637 34e0 57       		.byte	0x57
 4638 34e1 5F5A5374 		.ascii "_ZStcoSt13_Ios_Fmtflags\0"
 4638      636F5374 
 4638      31335F49 
 4638      6F735F46 
 4638      6D74666C 
 4639 34f9 0F2E0000 		.long	0x2e0f
 4640 34fd 07350000 		.long	0x3507
 4641 3501 0E       		.uleb128 0xe
 4642 3502 0F2E0000 		.long	0x2e0f
 4643 3506 00       		.byte	0
 4644 3507 10       		.uleb128 0x10
 4645 3508 6F706572 		.ascii "operator|=\0"
 4645      61746F72 
 4645      7C3D00
 4646 3513 01       		.byte	0x1
 4647 3514 5B       		.byte	0x5b
 4648 3515 5F5A5374 		.ascii "_ZStoRRSt13_Ios_FmtflagsS_\0"
 4648      6F525253 
 4648      7431335F 
 4648      496F735F 
 4648      466D7466 
 4649 3530 B0480000 		.long	0x48b0
 4650 3534 43350000 		.long	0x3543
 4651 3538 0E       		.uleb128 0xe
 4652 3539 B6480000 		.long	0x48b6
 4653 353d 0E       		.uleb128 0xe
 4654 353e 0F2E0000 		.long	0x2e0f
 4655 3542 00       		.byte	0
 4656 3543 0F       		.uleb128 0xf
 4657 3544 0F2E0000 		.long	0x2e0f
 4658 3548 10       		.uleb128 0x10
 4659 3549 6F706572 		.ascii "operator&=\0"
GAS LISTING C:\Users\NJLLMR~1\AppData\Local\Temp\ccqq7oi7.s 			page 125


 4659      61746F72 
 4659      263D00
 4660 3554 01       		.byte	0x1
 4661 3555 5F       		.byte	0x5f
 4662 3556 5F5A5374 		.ascii "_ZStaNRSt13_Ios_FmtflagsS_\0"
 4662      614E5253 
 4662      7431335F 
 4662      496F735F 
 4662      466D7466 
 4663 3571 B0480000 		.long	0x48b0
 4664 3575 84350000 		.long	0x3584
 4665 3579 0E       		.uleb128 0xe
 4666 357a B6480000 		.long	0x48b6
 4667 357e 0E       		.uleb128 0xe
 4668 357f 0F2E0000 		.long	0x2e0f
 4669 3583 00       		.byte	0
 4670 3584 12       		.uleb128 0x12
 4671 3585 66697865 		.ascii "fixed\0"
 4671      6400
 4672 358b 01       		.byte	0x1
 4673 358c BE03     		.word	0x3be
 4674 358e 5F5A5374 		.ascii "_ZSt5fixedRSt8ios_base\0"
 4674      35666978 
 4674      65645253 
 4674      7438696F 
 4674      735F6261 
 4675 35a5 D1450000 		.long	0x45d1
 4676 35a9 B3350000 		.long	0x35b3
 4677 35ad 0E       		.uleb128 0xe
 4678 35ae D1450000 		.long	0x45d1
 4679 35b2 00       		.byte	0
 4680 35b3 10       		.uleb128 0x10
 4681 35b4 73657470 		.ascii "setprecision\0"
 4681      72656369 
 4681      73696F6E 
 4681      00
 4682 35c1 02       		.byte	0x2
 4683 35c2 C3       		.byte	0xc3
 4684 35c3 5F5A5374 		.ascii "_ZSt12setprecisioni\0"
 4684      31327365 
 4684      74707265 
 4684      63697369 
 4684      6F6E6900 
 4685 35d7 3C340000 		.long	0x343c
 4686 35db E5350000 		.long	0x35e5
 4687 35df 0E       		.uleb128 0xe
 4688 35e0 87010000 		.long	0x187
 4689 35e4 00       		.byte	0
 4690 35e5 02       		.uleb128 0x2
 4691 35e6 6F737472 		.ascii "ostream\0"
 4691      65616D00 
 4692 35ee 11       		.byte	0x11
 4693 35ef 88       		.byte	0x88
 4694 35f0 B2330000 		.long	0x33b2
 4695 35f4 02       		.uleb128 0x2
 4696 35f5 69737472 		.ascii "istream\0"
 4696      65616D00 
GAS LISTING C:\Users\NJLLMR~1\AppData\Local\Temp\ccqq7oi7.s 			page 126


 4697 35fd 11       		.byte	0x11
 4698 35fe 85       		.byte	0x85
 4699 35ff F7330000 		.long	0x33f7
 4700 3603 40       		.uleb128 0x40
 4701 3604 636F7574 		.ascii "cout\0"
 4701      00
 4702 3609 04       		.byte	0x4
 4703 360a 3D       		.byte	0x3d
 4704 360b 5F5A5374 		.ascii "_ZSt4cout\0"
 4704      34636F75 
 4704      7400
 4705 3615 E5350000 		.long	0x35e5
 4706 3619 41       		.uleb128 0x41
 4707 361a 5F5F696F 		.ascii "__ioinit\0"
 4707      696E6974 
 4707      00
 4708 3623 04       		.byte	0x4
 4709 3624 4A       		.byte	0x4a
 4710 3625 51300000 		.long	0x3051
 4711 3629 00       		.byte	0
 4712 362a 42       		.uleb128 0x42
 4713 362b 62746F77 		.ascii "btowc\0"
 4713      6300
 4714 3631 07       		.byte	0x7
 4715 3632 2901     		.word	0x129
 4716 3634 16010000 		.long	0x116
 4717 3638 42360000 		.long	0x3642
 4718 363c 0E       		.uleb128 0xe
 4719 363d 87010000 		.long	0x187
 4720 3641 00       		.byte	0
 4721 3642 43       		.uleb128 0x43
 4722 3643 66676574 		.ascii "fgetwc\0"
 4722      776300
 4723 364a 07       		.byte	0x7
 4724 364b 70       		.byte	0x70
 4725 364c 16010000 		.long	0x116
 4726 3650 5A360000 		.long	0x365a
 4727 3654 0E       		.uleb128 0xe
 4728 3655 5A360000 		.long	0x365a
 4729 3659 00       		.byte	0
 4730 365a 08       		.uleb128 0x8
 4731 365b 04       		.byte	0x4
 4732 365c 45020000 		.long	0x245
 4733 3660 43       		.uleb128 0x43
 4734 3661 66676574 		.ascii "fgetws\0"
 4734      777300
 4735 3668 07       		.byte	0x7
 4736 3669 7B       		.byte	0x7b
 4737 366a 82360000 		.long	0x3682
 4738 366e 82360000 		.long	0x3682
 4739 3672 0E       		.uleb128 0xe
 4740 3673 82360000 		.long	0x3682
 4741 3677 0E       		.uleb128 0xe
 4742 3678 87010000 		.long	0x187
 4743 367c 0E       		.uleb128 0xe
 4744 367d 5A360000 		.long	0x365a
 4745 3681 00       		.byte	0
GAS LISTING C:\Users\NJLLMR~1\AppData\Local\Temp\ccqq7oi7.s 			page 127


 4746 3682 08       		.uleb128 0x8
 4747 3683 04       		.byte	0x4
 4748 3684 6B010000 		.long	0x16b
 4749 3688 43       		.uleb128 0x43
 4750 3689 66707574 		.ascii "fputwc\0"
 4750      776300
 4751 3690 07       		.byte	0x7
 4752 3691 71       		.byte	0x71
 4753 3692 16010000 		.long	0x116
 4754 3696 A5360000 		.long	0x36a5
 4755 369a 0E       		.uleb128 0xe
 4756 369b 6B010000 		.long	0x16b
 4757 369f 0E       		.uleb128 0xe
 4758 36a0 5A360000 		.long	0x365a
 4759 36a4 00       		.byte	0
 4760 36a5 43       		.uleb128 0x43
 4761 36a6 66707574 		.ascii "fputws\0"
 4761      777300
 4762 36ad 07       		.byte	0x7
 4763 36ae 7C       		.byte	0x7c
 4764 36af 87010000 		.long	0x187
 4765 36b3 C2360000 		.long	0x36c2
 4766 36b7 0E       		.uleb128 0xe
 4767 36b8 C2360000 		.long	0x36c2
 4768 36bc 0E       		.uleb128 0xe
 4769 36bd 5A360000 		.long	0x365a
 4770 36c1 00       		.byte	0
 4771 36c2 08       		.uleb128 0x8
 4772 36c3 04       		.byte	0x4
 4773 36c4 C8360000 		.long	0x36c8
 4774 36c8 0F       		.uleb128 0xf
 4775 36c9 6B010000 		.long	0x16b
 4776 36cd 42       		.uleb128 0x42
 4777 36ce 66776964 		.ascii "fwide\0"
 4777      6500
 4778 36d4 07       		.byte	0x7
 4779 36d5 3701     		.word	0x137
 4780 36d7 87010000 		.long	0x187
 4781 36db EA360000 		.long	0x36ea
 4782 36df 0E       		.uleb128 0xe
 4783 36e0 5A360000 		.long	0x365a
 4784 36e4 0E       		.uleb128 0xe
 4785 36e5 87010000 		.long	0x187
 4786 36e9 00       		.byte	0
 4787 36ea 43       		.uleb128 0x43
 4788 36eb 66777072 		.ascii "fwprintf\0"
 4788      696E7466 
 4788      00
 4789 36f4 07       		.byte	0x7
 4790 36f5 67       		.byte	0x67
 4791 36f6 87010000 		.long	0x187
 4792 36fa 0A370000 		.long	0x370a
 4793 36fe 0E       		.uleb128 0xe
 4794 36ff 5A360000 		.long	0x365a
 4795 3703 0E       		.uleb128 0xe
 4796 3704 C2360000 		.long	0x36c2
 4797 3708 44       		.uleb128 0x44
GAS LISTING C:\Users\NJLLMR~1\AppData\Local\Temp\ccqq7oi7.s 			page 128


 4798 3709 00       		.byte	0
 4799 370a 43       		.uleb128 0x43
 4800 370b 66777363 		.ascii "fwscanf\0"
 4800      616E6600 
 4801 3713 07       		.byte	0x7
 4802 3714 6D       		.byte	0x6d
 4803 3715 87010000 		.long	0x187
 4804 3719 29370000 		.long	0x3729
 4805 371d 0E       		.uleb128 0xe
 4806 371e 5A360000 		.long	0x365a
 4807 3722 0E       		.uleb128 0xe
 4808 3723 C2360000 		.long	0x36c2
 4809 3727 44       		.uleb128 0x44
 4810 3728 00       		.byte	0
 4811 3729 43       		.uleb128 0x43
 4812 372a 67657477 		.ascii "getwc\0"
 4812      6300
 4813 3730 07       		.byte	0x7
 4814 3731 7D       		.byte	0x7d
 4815 3732 16010000 		.long	0x116
 4816 3736 40370000 		.long	0x3740
 4817 373a 0E       		.uleb128 0xe
 4818 373b 5A360000 		.long	0x365a
 4819 373f 00       		.byte	0
 4820 3740 45       		.uleb128 0x45
 4821 3741 67657477 		.ascii "getwchar\0"
 4821      63686172 
 4821      00
 4822 374a 07       		.byte	0x7
 4823 374b 7E       		.byte	0x7e
 4824 374c 16010000 		.long	0x116
 4825 3750 42       		.uleb128 0x42
 4826 3751 6D62726C 		.ascii "mbrlen\0"
 4826      656E00
 4827 3758 07       		.byte	0x7
 4828 3759 2A01     		.word	0x12a
 4829 375b F8000000 		.long	0xf8
 4830 375f 73370000 		.long	0x3773
 4831 3763 0E       		.uleb128 0xe
 4832 3764 73370000 		.long	0x3773
 4833 3768 0E       		.uleb128 0xe
 4834 3769 F8000000 		.long	0xf8
 4835 376d 0E       		.uleb128 0xe
 4836 376e 7E370000 		.long	0x377e
 4837 3772 00       		.byte	0
 4838 3773 08       		.uleb128 0x8
 4839 3774 04       		.byte	0x4
 4840 3775 79370000 		.long	0x3779
 4841 3779 0F       		.uleb128 0xf
 4842 377a 53010000 		.long	0x153
 4843 377e 08       		.uleb128 0x8
 4844 377f 04       		.byte	0x4
 4845 3780 EB020000 		.long	0x2eb
 4846 3784 42       		.uleb128 0x42
 4847 3785 6D627274 		.ascii "mbrtowc\0"
 4847      6F776300 
 4848 378d 07       		.byte	0x7
GAS LISTING C:\Users\NJLLMR~1\AppData\Local\Temp\ccqq7oi7.s 			page 129


 4849 378e 2C01     		.word	0x12c
 4850 3790 F8000000 		.long	0xf8
 4851 3794 AD370000 		.long	0x37ad
 4852 3798 0E       		.uleb128 0xe
 4853 3799 82360000 		.long	0x3682
 4854 379d 0E       		.uleb128 0xe
 4855 379e 73370000 		.long	0x3773
 4856 37a2 0E       		.uleb128 0xe
 4857 37a3 F8000000 		.long	0xf8
 4858 37a7 0E       		.uleb128 0xe
 4859 37a8 7E370000 		.long	0x377e
 4860 37ac 00       		.byte	0
 4861 37ad 42       		.uleb128 0x42
 4862 37ae 6D627369 		.ascii "mbsinit\0"
 4862      6E697400 
 4863 37b6 07       		.byte	0x7
 4864 37b7 3801     		.word	0x138
 4865 37b9 87010000 		.long	0x187
 4866 37bd C7370000 		.long	0x37c7
 4867 37c1 0E       		.uleb128 0xe
 4868 37c2 C7370000 		.long	0x37c7
 4869 37c6 00       		.byte	0
 4870 37c7 08       		.uleb128 0x8
 4871 37c8 04       		.byte	0x4
 4872 37c9 CD370000 		.long	0x37cd
 4873 37cd 0F       		.uleb128 0xf
 4874 37ce EB020000 		.long	0x2eb
 4875 37d2 42       		.uleb128 0x42
 4876 37d3 6D627372 		.ascii "mbsrtowcs\0"
 4876      746F7763 
 4876      7300
 4877 37dd 07       		.byte	0x7
 4878 37de 2E01     		.word	0x12e
 4879 37e0 F8000000 		.long	0xf8
 4880 37e4 FD370000 		.long	0x37fd
 4881 37e8 0E       		.uleb128 0xe
 4882 37e9 82360000 		.long	0x3682
 4883 37ed 0E       		.uleb128 0xe
 4884 37ee FD370000 		.long	0x37fd
 4885 37f2 0E       		.uleb128 0xe
 4886 37f3 F8000000 		.long	0xf8
 4887 37f7 0E       		.uleb128 0xe
 4888 37f8 7E370000 		.long	0x377e
 4889 37fc 00       		.byte	0
 4890 37fd 08       		.uleb128 0x8
 4891 37fe 04       		.byte	0x4
 4892 37ff 73370000 		.long	0x3773
 4893 3803 43       		.uleb128 0x43
 4894 3804 70757477 		.ascii "putwc\0"
 4894      6300
 4895 380a 07       		.byte	0x7
 4896 380b 7F       		.byte	0x7f
 4897 380c 16010000 		.long	0x116
 4898 3810 1F380000 		.long	0x381f
 4899 3814 0E       		.uleb128 0xe
 4900 3815 16010000 		.long	0x116
 4901 3819 0E       		.uleb128 0xe
GAS LISTING C:\Users\NJLLMR~1\AppData\Local\Temp\ccqq7oi7.s 			page 130


 4902 381a 5A360000 		.long	0x365a
 4903 381e 00       		.byte	0
 4904 381f 43       		.uleb128 0x43
 4905 3820 70757477 		.ascii "putwchar\0"
 4905      63686172 
 4905      00
 4906 3829 07       		.byte	0x7
 4907 382a 80       		.byte	0x80
 4908 382b 16010000 		.long	0x116
 4909 382f 39380000 		.long	0x3839
 4910 3833 0E       		.uleb128 0xe
 4911 3834 16010000 		.long	0x116
 4912 3838 00       		.byte	0
 4913 3839 43       		.uleb128 0x43
 4914 383a 73777363 		.ascii "swscanf\0"
 4914      616E6600 
 4915 3842 07       		.byte	0x7
 4916 3843 6F       		.byte	0x6f
 4917 3844 87010000 		.long	0x187
 4918 3848 58380000 		.long	0x3858
 4919 384c 0E       		.uleb128 0xe
 4920 384d C2360000 		.long	0x36c2
 4921 3851 0E       		.uleb128 0xe
 4922 3852 C2360000 		.long	0x36c2
 4923 3856 44       		.uleb128 0x44
 4924 3857 00       		.byte	0
 4925 3858 43       		.uleb128 0x43
 4926 3859 756E6765 		.ascii "ungetwc\0"
 4926      74776300 
 4927 3861 07       		.byte	0x7
 4928 3862 72       		.byte	0x72
 4929 3863 16010000 		.long	0x116
 4930 3867 76380000 		.long	0x3876
 4931 386b 0E       		.uleb128 0xe
 4932 386c 6B010000 		.long	0x16b
 4933 3870 0E       		.uleb128 0xe
 4934 3871 5A360000 		.long	0x365a
 4935 3875 00       		.byte	0
 4936 3876 43       		.uleb128 0x43
 4937 3877 76667770 		.ascii "vfwprintf\0"
 4937      72696E74 
 4937      6600
 4938 3881 07       		.byte	0x7
 4939 3882 6A       		.byte	0x6a
 4940 3883 87010000 		.long	0x187
 4941 3887 9B380000 		.long	0x389b
 4942 388b 0E       		.uleb128 0xe
 4943 388c 5A360000 		.long	0x365a
 4944 3890 0E       		.uleb128 0xe
 4945 3891 C2360000 		.long	0x36c2
 4946 3895 0E       		.uleb128 0xe
 4947 3896 3B010000 		.long	0x13b
 4948 389a 00       		.byte	0
 4949 389b 43       		.uleb128 0x43
 4950 389c 76667773 		.ascii "vfwscanf\0"
 4950      63616E66 
 4950      00
GAS LISTING C:\Users\NJLLMR~1\AppData\Local\Temp\ccqq7oi7.s 			page 131


 4951 38a5 07       		.byte	0x7
 4952 38a6 9A       		.byte	0x9a
 4953 38a7 87010000 		.long	0x187
 4954 38ab BF380000 		.long	0x38bf
 4955 38af 0E       		.uleb128 0xe
 4956 38b0 5A360000 		.long	0x365a
 4957 38b4 0E       		.uleb128 0xe
 4958 38b5 C2360000 		.long	0x36c2
 4959 38b9 0E       		.uleb128 0xe
 4960 38ba 3B010000 		.long	0x13b
 4961 38be 00       		.byte	0
 4962 38bf 43       		.uleb128 0x43
 4963 38c0 76737773 		.ascii "vswscanf\0"
 4963      63616E66 
 4963      00
 4964 38c9 07       		.byte	0x7
 4965 38ca 9C       		.byte	0x9c
 4966 38cb 87010000 		.long	0x187
 4967 38cf E3380000 		.long	0x38e3
 4968 38d3 0E       		.uleb128 0xe
 4969 38d4 C2360000 		.long	0x36c2
 4970 38d8 0E       		.uleb128 0xe
 4971 38d9 C2360000 		.long	0x36c2
 4972 38dd 0E       		.uleb128 0xe
 4973 38de 3B010000 		.long	0x13b
 4974 38e2 00       		.byte	0
 4975 38e3 43       		.uleb128 0x43
 4976 38e4 76777072 		.ascii "vwprintf\0"
 4976      696E7466 
 4976      00
 4977 38ed 07       		.byte	0x7
 4978 38ee 6B       		.byte	0x6b
 4979 38ef 87010000 		.long	0x187
 4980 38f3 02390000 		.long	0x3902
 4981 38f7 0E       		.uleb128 0xe
 4982 38f8 C2360000 		.long	0x36c2
 4983 38fc 0E       		.uleb128 0xe
 4984 38fd 3B010000 		.long	0x13b
 4985 3901 00       		.byte	0
 4986 3902 43       		.uleb128 0x43
 4987 3903 76777363 		.ascii "vwscanf\0"
 4987      616E6600 
 4988 390b 07       		.byte	0x7
 4989 390c 99       		.byte	0x99
 4990 390d 87010000 		.long	0x187
 4991 3911 20390000 		.long	0x3920
 4992 3915 0E       		.uleb128 0xe
 4993 3916 C2360000 		.long	0x36c2
 4994 391a 0E       		.uleb128 0xe
 4995 391b 3B010000 		.long	0x13b
 4996 391f 00       		.byte	0
 4997 3920 42       		.uleb128 0x42
 4998 3921 77637274 		.ascii "wcrtomb\0"
 4998      6F6D6200 
 4999 3929 07       		.byte	0x7
 5000 392a 3001     		.word	0x130
 5001 392c F8000000 		.long	0xf8
GAS LISTING C:\Users\NJLLMR~1\AppData\Local\Temp\ccqq7oi7.s 			page 132


 5002 3930 44390000 		.long	0x3944
 5003 3934 0E       		.uleb128 0xe
 5004 3935 3F020000 		.long	0x23f
 5005 3939 0E       		.uleb128 0xe
 5006 393a 6B010000 		.long	0x16b
 5007 393e 0E       		.uleb128 0xe
 5008 393f 7E370000 		.long	0x377e
 5009 3943 00       		.byte	0
 5010 3944 43       		.uleb128 0x43
 5011 3945 77637363 		.ascii "wcscat\0"
 5011      617400
 5012 394c 07       		.byte	0x7
 5013 394d D9       		.byte	0xd9
 5014 394e 82360000 		.long	0x3682
 5015 3952 61390000 		.long	0x3961
 5016 3956 0E       		.uleb128 0xe
 5017 3957 82360000 		.long	0x3682
 5018 395b 0E       		.uleb128 0xe
 5019 395c C2360000 		.long	0x36c2
 5020 3960 00       		.byte	0
 5021 3961 43       		.uleb128 0x43
 5022 3962 77637363 		.ascii "wcscmp\0"
 5022      6D7000
 5023 3969 07       		.byte	0x7
 5024 396a DB       		.byte	0xdb
 5025 396b 87010000 		.long	0x187
 5026 396f 7E390000 		.long	0x397e
 5027 3973 0E       		.uleb128 0xe
 5028 3974 C2360000 		.long	0x36c2
 5029 3978 0E       		.uleb128 0xe
 5030 3979 C2360000 		.long	0x36c2
 5031 397d 00       		.byte	0
 5032 397e 43       		.uleb128 0x43
 5033 397f 77637363 		.ascii "wcscoll\0"
 5033      6F6C6C00 
 5034 3987 07       		.byte	0x7
 5035 3988 DC       		.byte	0xdc
 5036 3989 87010000 		.long	0x187
 5037 398d 9C390000 		.long	0x399c
 5038 3991 0E       		.uleb128 0xe
 5039 3992 C2360000 		.long	0x36c2
 5040 3996 0E       		.uleb128 0xe
 5041 3997 C2360000 		.long	0x36c2
 5042 399b 00       		.byte	0
 5043 399c 43       		.uleb128 0x43
 5044 399d 77637363 		.ascii "wcscpy\0"
 5044      707900
 5045 39a4 07       		.byte	0x7
 5046 39a5 DD       		.byte	0xdd
 5047 39a6 82360000 		.long	0x3682
 5048 39aa B9390000 		.long	0x39b9
 5049 39ae 0E       		.uleb128 0xe
 5050 39af 82360000 		.long	0x3682
 5051 39b3 0E       		.uleb128 0xe
 5052 39b4 C2360000 		.long	0x36c2
 5053 39b8 00       		.byte	0
 5054 39b9 43       		.uleb128 0x43
GAS LISTING C:\Users\NJLLMR~1\AppData\Local\Temp\ccqq7oi7.s 			page 133


 5055 39ba 77637363 		.ascii "wcscspn\0"
 5055      73706E00 
 5056 39c2 07       		.byte	0x7
 5057 39c3 DE       		.byte	0xde
 5058 39c4 F8000000 		.long	0xf8
 5059 39c8 D7390000 		.long	0x39d7
 5060 39cc 0E       		.uleb128 0xe
 5061 39cd C2360000 		.long	0x36c2
 5062 39d1 0E       		.uleb128 0xe
 5063 39d2 C2360000 		.long	0x36c2
 5064 39d6 00       		.byte	0
 5065 39d7 43       		.uleb128 0x43
 5066 39d8 77637366 		.ascii "wcsftime\0"
 5066      74696D65 
 5066      00
 5067 39e1 07       		.byte	0x7
 5068 39e2 CF       		.byte	0xcf
 5069 39e3 F8000000 		.long	0xf8
 5070 39e7 003A0000 		.long	0x3a00
 5071 39eb 0E       		.uleb128 0xe
 5072 39ec 82360000 		.long	0x3682
 5073 39f0 0E       		.uleb128 0xe
 5074 39f1 F8000000 		.long	0xf8
 5075 39f5 0E       		.uleb128 0xe
 5076 39f6 C2360000 		.long	0x36c2
 5077 39fa 0E       		.uleb128 0xe
 5078 39fb 003A0000 		.long	0x3a00
 5079 39ff 00       		.byte	0
 5080 3a00 08       		.uleb128 0x8
 5081 3a01 04       		.byte	0x4
 5082 3a02 063A0000 		.long	0x3a06
 5083 3a06 0F       		.uleb128 0xf
 5084 3a07 51020000 		.long	0x251
 5085 3a0b 43       		.uleb128 0x43
 5086 3a0c 7763736C 		.ascii "wcslen\0"
 5086      656E00
 5087 3a13 07       		.byte	0x7
 5088 3a14 E0       		.byte	0xe0
 5089 3a15 F8000000 		.long	0xf8
 5090 3a19 233A0000 		.long	0x3a23
 5091 3a1d 0E       		.uleb128 0xe
 5092 3a1e C2360000 		.long	0x36c2
 5093 3a22 00       		.byte	0
 5094 3a23 43       		.uleb128 0x43
 5095 3a24 7763736E 		.ascii "wcsncat\0"
 5095      63617400 
 5096 3a2c 07       		.byte	0x7
 5097 3a2d E1       		.byte	0xe1
 5098 3a2e 82360000 		.long	0x3682
 5099 3a32 463A0000 		.long	0x3a46
 5100 3a36 0E       		.uleb128 0xe
 5101 3a37 82360000 		.long	0x3682
 5102 3a3b 0E       		.uleb128 0xe
 5103 3a3c C2360000 		.long	0x36c2
 5104 3a40 0E       		.uleb128 0xe
 5105 3a41 F8000000 		.long	0xf8
 5106 3a45 00       		.byte	0
GAS LISTING C:\Users\NJLLMR~1\AppData\Local\Temp\ccqq7oi7.s 			page 134


 5107 3a46 43       		.uleb128 0x43
 5108 3a47 7763736E 		.ascii "wcsncmp\0"
 5108      636D7000 
 5109 3a4f 07       		.byte	0x7
 5110 3a50 E2       		.byte	0xe2
 5111 3a51 87010000 		.long	0x187
 5112 3a55 693A0000 		.long	0x3a69
 5113 3a59 0E       		.uleb128 0xe
 5114 3a5a C2360000 		.long	0x36c2
 5115 3a5e 0E       		.uleb128 0xe
 5116 3a5f C2360000 		.long	0x36c2
 5117 3a63 0E       		.uleb128 0xe
 5118 3a64 F8000000 		.long	0xf8
 5119 3a68 00       		.byte	0
 5120 3a69 43       		.uleb128 0x43
 5121 3a6a 7763736E 		.ascii "wcsncpy\0"
 5121      63707900 
 5122 3a72 07       		.byte	0x7
 5123 3a73 E3       		.byte	0xe3
 5124 3a74 82360000 		.long	0x3682
 5125 3a78 8C3A0000 		.long	0x3a8c
 5126 3a7c 0E       		.uleb128 0xe
 5127 3a7d 82360000 		.long	0x3682
 5128 3a81 0E       		.uleb128 0xe
 5129 3a82 C2360000 		.long	0x36c2
 5130 3a86 0E       		.uleb128 0xe
 5131 3a87 F8000000 		.long	0xf8
 5132 3a8b 00       		.byte	0
 5133 3a8c 42       		.uleb128 0x42
 5134 3a8d 77637372 		.ascii "wcsrtombs\0"
 5134      746F6D62 
 5134      7300
 5135 3a97 07       		.byte	0x7
 5136 3a98 3201     		.word	0x132
 5137 3a9a F8000000 		.long	0xf8
 5138 3a9e B73A0000 		.long	0x3ab7
 5139 3aa2 0E       		.uleb128 0xe
 5140 3aa3 3F020000 		.long	0x23f
 5141 3aa7 0E       		.uleb128 0xe
 5142 3aa8 B73A0000 		.long	0x3ab7
 5143 3aac 0E       		.uleb128 0xe
 5144 3aad F8000000 		.long	0xf8
 5145 3ab1 0E       		.uleb128 0xe
 5146 3ab2 7E370000 		.long	0x377e
 5147 3ab6 00       		.byte	0
 5148 3ab7 08       		.uleb128 0x8
 5149 3ab8 04       		.byte	0x4
 5150 3ab9 C2360000 		.long	0x36c2
 5151 3abd 43       		.uleb128 0x43
 5152 3abe 77637373 		.ascii "wcsspn\0"
 5152      706E00
 5153 3ac5 07       		.byte	0x7
 5154 3ac6 E6       		.byte	0xe6
 5155 3ac7 F8000000 		.long	0xf8
 5156 3acb DA3A0000 		.long	0x3ada
 5157 3acf 0E       		.uleb128 0xe
 5158 3ad0 C2360000 		.long	0x36c2
GAS LISTING C:\Users\NJLLMR~1\AppData\Local\Temp\ccqq7oi7.s 			page 135


 5159 3ad4 0E       		.uleb128 0xe
 5160 3ad5 C2360000 		.long	0x36c2
 5161 3ad9 00       		.byte	0
 5162 3ada 43       		.uleb128 0x43
 5163 3adb 77637374 		.ascii "wcstod\0"
 5163      6F6400
 5164 3ae2 07       		.byte	0x7
 5165 3ae3 A6       		.byte	0xa6
 5166 3ae4 F73A0000 		.long	0x3af7
 5167 3ae8 F73A0000 		.long	0x3af7
 5168 3aec 0E       		.uleb128 0xe
 5169 3aed C2360000 		.long	0x36c2
 5170 3af1 0E       		.uleb128 0xe
 5171 3af2 013B0000 		.long	0x3b01
 5172 3af6 00       		.byte	0
 5173 3af7 03       		.uleb128 0x3
 5174 3af8 08       		.byte	0x8
 5175 3af9 04       		.byte	0x4
 5176 3afa 646F7562 		.ascii "double\0"
 5176      6C6500
 5177 3b01 08       		.uleb128 0x8
 5178 3b02 04       		.byte	0x4
 5179 3b03 82360000 		.long	0x3682
 5180 3b07 43       		.uleb128 0x43
 5181 3b08 77637374 		.ascii "wcstof\0"
 5181      6F6600
 5182 3b0f 07       		.byte	0x7
 5183 3b10 A8       		.byte	0xa8
 5184 3b11 243B0000 		.long	0x3b24
 5185 3b15 243B0000 		.long	0x3b24
 5186 3b19 0E       		.uleb128 0xe
 5187 3b1a C2360000 		.long	0x36c2
 5188 3b1e 0E       		.uleb128 0xe
 5189 3b1f 013B0000 		.long	0x3b01
 5190 3b23 00       		.byte	0
 5191 3b24 03       		.uleb128 0x3
 5192 3b25 04       		.byte	0x4
 5193 3b26 04       		.byte	0x4
 5194 3b27 666C6F61 		.ascii "float\0"
 5194      7400
 5195 3b2d 43       		.uleb128 0x43
 5196 3b2e 77637374 		.ascii "wcstok\0"
 5196      6F6B00
 5197 3b35 07       		.byte	0x7
 5198 3b36 E8       		.byte	0xe8
 5199 3b37 82360000 		.long	0x3682
 5200 3b3b 4A3B0000 		.long	0x3b4a
 5201 3b3f 0E       		.uleb128 0xe
 5202 3b40 82360000 		.long	0x3682
 5203 3b44 0E       		.uleb128 0xe
 5204 3b45 C2360000 		.long	0x36c2
 5205 3b49 00       		.byte	0
 5206 3b4a 43       		.uleb128 0x43
 5207 3b4b 77637374 		.ascii "wcstol\0"
 5207      6F6C00
 5208 3b52 07       		.byte	0x7
 5209 3b53 A4       		.byte	0xa4
GAS LISTING C:\Users\NJLLMR~1\AppData\Local\Temp\ccqq7oi7.s 			page 136


 5210 3b54 8E010000 		.long	0x18e
 5211 3b58 6C3B0000 		.long	0x3b6c
 5212 3b5c 0E       		.uleb128 0xe
 5213 3b5d C2360000 		.long	0x36c2
 5214 3b61 0E       		.uleb128 0xe
 5215 3b62 013B0000 		.long	0x3b01
 5216 3b66 0E       		.uleb128 0xe
 5217 3b67 87010000 		.long	0x187
 5218 3b6b 00       		.byte	0
 5219 3b6c 43       		.uleb128 0x43
 5220 3b6d 77637374 		.ascii "wcstoul\0"
 5220      6F756C00 
 5221 3b75 07       		.byte	0x7
 5222 3b76 A5       		.byte	0xa5
 5223 3b77 FD020000 		.long	0x2fd
 5224 3b7b 8F3B0000 		.long	0x3b8f
 5225 3b7f 0E       		.uleb128 0xe
 5226 3b80 C2360000 		.long	0x36c2
 5227 3b84 0E       		.uleb128 0xe
 5228 3b85 013B0000 		.long	0x3b01
 5229 3b89 0E       		.uleb128 0xe
 5230 3b8a 87010000 		.long	0x187
 5231 3b8e 00       		.byte	0
 5232 3b8f 43       		.uleb128 0x43
 5233 3b90 77637378 		.ascii "wcsxfrm\0"
 5233      66726D00 
 5234 3b98 07       		.byte	0x7
 5235 3b99 E9       		.byte	0xe9
 5236 3b9a F8000000 		.long	0xf8
 5237 3b9e B23B0000 		.long	0x3bb2
 5238 3ba2 0E       		.uleb128 0xe
 5239 3ba3 82360000 		.long	0x3682
 5240 3ba7 0E       		.uleb128 0xe
 5241 3ba8 C2360000 		.long	0x36c2
 5242 3bac 0E       		.uleb128 0xe
 5243 3bad F8000000 		.long	0xf8
 5244 3bb1 00       		.byte	0
 5245 3bb2 42       		.uleb128 0x42
 5246 3bb3 7763746F 		.ascii "wctob\0"
 5246      6200
 5247 3bb9 07       		.byte	0x7
 5248 3bba 3401     		.word	0x134
 5249 3bbc 87010000 		.long	0x187
 5250 3bc0 CA3B0000 		.long	0x3bca
 5251 3bc4 0E       		.uleb128 0xe
 5252 3bc5 16010000 		.long	0x116
 5253 3bc9 00       		.byte	0
 5254 3bca 42       		.uleb128 0x42
 5255 3bcb 776D656D 		.ascii "wmemcmp\0"
 5255      636D7000 
 5256 3bd3 07       		.byte	0x7
 5257 3bd4 4201     		.word	0x142
 5258 3bd6 87010000 		.long	0x187
 5259 3bda EE3B0000 		.long	0x3bee
 5260 3bde 0E       		.uleb128 0xe
 5261 3bdf C2360000 		.long	0x36c2
 5262 3be3 0E       		.uleb128 0xe
GAS LISTING C:\Users\NJLLMR~1\AppData\Local\Temp\ccqq7oi7.s 			page 137


 5263 3be4 C2360000 		.long	0x36c2
 5264 3be8 0E       		.uleb128 0xe
 5265 3be9 F8000000 		.long	0xf8
 5266 3bed 00       		.byte	0
 5267 3bee 42       		.uleb128 0x42
 5268 3bef 776D656D 		.ascii "wmemcpy\0"
 5268      63707900 
 5269 3bf7 07       		.byte	0x7
 5270 3bf8 4301     		.word	0x143
 5271 3bfa 82360000 		.long	0x3682
 5272 3bfe 123C0000 		.long	0x3c12
 5273 3c02 0E       		.uleb128 0xe
 5274 3c03 82360000 		.long	0x3682
 5275 3c07 0E       		.uleb128 0xe
 5276 3c08 C2360000 		.long	0x36c2
 5277 3c0c 0E       		.uleb128 0xe
 5278 3c0d F8000000 		.long	0xf8
 5279 3c11 00       		.byte	0
 5280 3c12 42       		.uleb128 0x42
 5281 3c13 776D656D 		.ascii "wmemmove\0"
 5281      6D6F7665 
 5281      00
 5282 3c1c 07       		.byte	0x7
 5283 3c1d 4601     		.word	0x146
 5284 3c1f 82360000 		.long	0x3682
 5285 3c23 373C0000 		.long	0x3c37
 5286 3c27 0E       		.uleb128 0xe
 5287 3c28 82360000 		.long	0x3682
 5288 3c2c 0E       		.uleb128 0xe
 5289 3c2d C2360000 		.long	0x36c2
 5290 3c31 0E       		.uleb128 0xe
 5291 3c32 F8000000 		.long	0xf8
 5292 3c36 00       		.byte	0
 5293 3c37 42       		.uleb128 0x42
 5294 3c38 776D656D 		.ascii "wmemset\0"
 5294      73657400 
 5295 3c40 07       		.byte	0x7
 5296 3c41 4001     		.word	0x140
 5297 3c43 82360000 		.long	0x3682
 5298 3c47 5B3C0000 		.long	0x3c5b
 5299 3c4b 0E       		.uleb128 0xe
 5300 3c4c 82360000 		.long	0x3682
 5301 3c50 0E       		.uleb128 0xe
 5302 3c51 6B010000 		.long	0x16b
 5303 3c55 0E       		.uleb128 0xe
 5304 3c56 F8000000 		.long	0xf8
 5305 3c5a 00       		.byte	0
 5306 3c5b 43       		.uleb128 0x43
 5307 3c5c 77707269 		.ascii "wprintf\0"
 5307      6E746600 
 5308 3c64 07       		.byte	0x7
 5309 3c65 68       		.byte	0x68
 5310 3c66 87010000 		.long	0x187
 5311 3c6a 753C0000 		.long	0x3c75
 5312 3c6e 0E       		.uleb128 0xe
 5313 3c6f C2360000 		.long	0x36c2
 5314 3c73 44       		.uleb128 0x44
GAS LISTING C:\Users\NJLLMR~1\AppData\Local\Temp\ccqq7oi7.s 			page 138


 5315 3c74 00       		.byte	0
 5316 3c75 43       		.uleb128 0x43
 5317 3c76 77736361 		.ascii "wscanf\0"
 5317      6E6600
 5318 3c7d 07       		.byte	0x7
 5319 3c7e 6E       		.byte	0x6e
 5320 3c7f 87010000 		.long	0x187
 5321 3c83 8E3C0000 		.long	0x3c8e
 5322 3c87 0E       		.uleb128 0xe
 5323 3c88 C2360000 		.long	0x36c2
 5324 3c8c 44       		.uleb128 0x44
 5325 3c8d 00       		.byte	0
 5326 3c8e 43       		.uleb128 0x43
 5327 3c8f 77637363 		.ascii "wcschr\0"
 5327      687200
 5328 3c96 07       		.byte	0x7
 5329 3c97 DA       		.byte	0xda
 5330 3c98 82360000 		.long	0x3682
 5331 3c9c AB3C0000 		.long	0x3cab
 5332 3ca0 0E       		.uleb128 0xe
 5333 3ca1 C2360000 		.long	0x36c2
 5334 3ca5 0E       		.uleb128 0xe
 5335 3ca6 6B010000 		.long	0x16b
 5336 3caa 00       		.byte	0
 5337 3cab 43       		.uleb128 0x43
 5338 3cac 77637370 		.ascii "wcspbrk\0"
 5338      62726B00 
 5339 3cb4 07       		.byte	0x7
 5340 3cb5 E4       		.byte	0xe4
 5341 3cb6 82360000 		.long	0x3682
 5342 3cba C93C0000 		.long	0x3cc9
 5343 3cbe 0E       		.uleb128 0xe
 5344 3cbf C2360000 		.long	0x36c2
 5345 3cc3 0E       		.uleb128 0xe
 5346 3cc4 C2360000 		.long	0x36c2
 5347 3cc8 00       		.byte	0
 5348 3cc9 43       		.uleb128 0x43
 5349 3cca 77637372 		.ascii "wcsrchr\0"
 5349      63687200 
 5350 3cd2 07       		.byte	0x7
 5351 3cd3 E5       		.byte	0xe5
 5352 3cd4 82360000 		.long	0x3682
 5353 3cd8 E73C0000 		.long	0x3ce7
 5354 3cdc 0E       		.uleb128 0xe
 5355 3cdd C2360000 		.long	0x36c2
 5356 3ce1 0E       		.uleb128 0xe
 5357 3ce2 6B010000 		.long	0x16b
 5358 3ce6 00       		.byte	0
 5359 3ce7 43       		.uleb128 0x43
 5360 3ce8 77637373 		.ascii "wcsstr\0"
 5360      747200
 5361 3cef 07       		.byte	0x7
 5362 3cf0 E7       		.byte	0xe7
 5363 3cf1 82360000 		.long	0x3682
 5364 3cf5 043D0000 		.long	0x3d04
 5365 3cf9 0E       		.uleb128 0xe
 5366 3cfa C2360000 		.long	0x36c2
GAS LISTING C:\Users\NJLLMR~1\AppData\Local\Temp\ccqq7oi7.s 			page 139


 5367 3cfe 0E       		.uleb128 0xe
 5368 3cff C2360000 		.long	0x36c2
 5369 3d03 00       		.byte	0
 5370 3d04 42       		.uleb128 0x42
 5371 3d05 776D656D 		.ascii "wmemchr\0"
 5371      63687200 
 5372 3d0d 07       		.byte	0x7
 5373 3d0e 4101     		.word	0x141
 5374 3d10 82360000 		.long	0x3682
 5375 3d14 283D0000 		.long	0x3d28
 5376 3d18 0E       		.uleb128 0xe
 5377 3d19 C2360000 		.long	0x36c2
 5378 3d1d 0E       		.uleb128 0xe
 5379 3d1e 6B010000 		.long	0x16b
 5380 3d22 0E       		.uleb128 0xe
 5381 3d23 F8000000 		.long	0xf8
 5382 3d27 00       		.byte	0
 5383 3d28 09       		.uleb128 0x9
 5384 3d29 5F5F676E 		.ascii "__gnu_cxx\0"
 5384      755F6378 
 5384      7800
 5385 3d33 08       		.byte	0x8
 5386 3d34 F2       		.byte	0xf2
 5387 3d35 B4420000 		.long	0x42b4
 5388 3d39 0A       		.uleb128 0xa
 5389 3d3a 08       		.byte	0x8
 5390 3d3b F8       		.byte	0xf8
 5391 3d3c B4420000 		.long	0x42b4
 5392 3d40 0B       		.uleb128 0xb
 5393 3d41 08       		.byte	0x8
 5394 3d42 0101     		.word	0x101
 5395 3d44 E1420000 		.long	0x42e1
 5396 3d48 0B       		.uleb128 0xb
 5397 3d49 08       		.byte	0x8
 5398 3d4a 0201     		.word	0x102
 5399 3d4c 05430000 		.long	0x4305
 5400 3d50 0C       		.uleb128 0xc
 5401 3d51 5F5F6F70 		.ascii "__ops\0"
 5401      7300
 5402 3d57 14       		.byte	0x14
 5403 3d58 24       		.byte	0x24
 5404 3d59 0A       		.uleb128 0xa
 5405 3d5a 15       		.byte	0x15
 5406 3d5b 2C       		.byte	0x2c
 5407 3d5c C5080000 		.long	0x8c5
 5408 3d60 0A       		.uleb128 0xa
 5409 3d61 15       		.byte	0x15
 5410 3d62 2D       		.byte	0x2d
 5411 3d63 E8080000 		.long	0x8e8
 5412 3d67 15       		.uleb128 0x15
 5413 3d68 6E65775F 		.ascii "new_allocator<char>\0"
 5413      616C6C6F 
 5413      6361746F 
 5413      723C6368 
 5413      61723E00 
 5414 3d7c 01       		.byte	0x1
 5415 3d7d 15       		.byte	0x15
GAS LISTING C:\Users\NJLLMR~1\AppData\Local\Temp\ccqq7oi7.s 			page 140


 5416 3d7e 3A       		.byte	0x3a
 5417 3d7f 61400000 		.long	0x4061
 5418 3d83 17       		.uleb128 0x17
 5419 3d84 1D010000 		.secrel32	LASF2
 5420 3d88 15       		.byte	0x15
 5421 3d89 3D       		.byte	0x3d
 5422 3d8a C5080000 		.long	0x8c5
 5423 3d8e 01       		.byte	0x1
 5424 3d8f 20       		.uleb128 0x20
 5425 3d90 706F696E 		.ascii "pointer\0"
 5425      74657200 
 5426 3d98 15       		.byte	0x15
 5427 3d99 3F       		.byte	0x3f
 5428 3d9a 3F020000 		.long	0x23f
 5429 3d9e 01       		.byte	0x1
 5430 3d9f 20       		.uleb128 0x20
 5431 3da0 636F6E73 		.ascii "const_pointer\0"
 5431      745F706F 
 5431      696E7465 
 5431      7200
 5432 3dae 15       		.byte	0x15
 5433 3daf 40       		.byte	0x40
 5434 3db0 73370000 		.long	0x3773
 5435 3db4 01       		.byte	0x1
 5436 3db5 17       		.uleb128 0x17
 5437 3db6 24000000 		.secrel32	LASF3
 5438 3dba 15       		.byte	0x15
 5439 3dbb 41       		.byte	0x41
 5440 3dbc 5D450000 		.long	0x455d
 5441 3dc0 01       		.byte	0x1
 5442 3dc1 17       		.uleb128 0x17
 5443 3dc2 B5000000 		.secrel32	LASF4
 5444 3dc6 15       		.byte	0x15
 5445 3dc7 42       		.byte	0x42
 5446 3dc8 63450000 		.long	0x4563
 5447 3dcc 01       		.byte	0x1
 5448 3dcd 18       		.uleb128 0x18
 5449 3dce 58000000 		.secrel32	LASF24
 5450 3dd2 15       		.byte	0x15
 5451 3dd3 4F       		.byte	0x4f
 5452 3dd4 01       		.byte	0x1
 5453 3dd5 DD3D0000 		.long	0x3ddd
 5454 3dd9 E33D0000 		.long	0x3de3
 5455 3ddd 19       		.uleb128 0x19
 5456 3dde 69450000 		.long	0x4569
 5457 3de2 00       		.byte	0
 5458 3de3 18       		.uleb128 0x18
 5459 3de4 58000000 		.secrel32	LASF24
 5460 3de8 15       		.byte	0x15
 5461 3de9 51       		.byte	0x51
 5462 3dea 01       		.byte	0x1
 5463 3deb F33D0000 		.long	0x3df3
 5464 3def FE3D0000 		.long	0x3dfe
 5465 3df3 19       		.uleb128 0x19
 5466 3df4 69450000 		.long	0x4569
 5467 3df8 0E       		.uleb128 0xe
 5468 3df9 6F450000 		.long	0x456f
GAS LISTING C:\Users\NJLLMR~1\AppData\Local\Temp\ccqq7oi7.s 			page 141


 5469 3dfd 00       		.byte	0
 5470 3dfe 46       		.uleb128 0x46
 5471 3dff 7E6E6577 		.ascii "~new_allocator\0"
 5471      5F616C6C 
 5471      6F636174 
 5471      6F7200
 5472 3e0e 15       		.byte	0x15
 5473 3e0f 56       		.byte	0x56
 5474 3e10 01       		.byte	0x1
 5475 3e11 193E0000 		.long	0x3e19
 5476 3e15 243E0000 		.long	0x3e24
 5477 3e19 19       		.uleb128 0x19
 5478 3e1a 69450000 		.long	0x4569
 5479 3e1e 19       		.uleb128 0x19
 5480 3e1f 87010000 		.long	0x187
 5481 3e23 00       		.byte	0
 5482 3e24 47       		.uleb128 0x47
 5483 3e25 61646472 		.ascii "address\0"
 5483      65737300 
 5484 3e2d 15       		.byte	0x15
 5485 3e2e 59       		.byte	0x59
 5486 3e2f 5F5A4E4B 		.ascii "_ZNK9__gnu_cxx13new_allocatorIcE7addressERc\0"
 5486      395F5F67 
 5486      6E755F63 
 5486      78783133 
 5486      6E65775F 
 5487 3e5b 8F3D0000 		.long	0x3d8f
 5488 3e5f 01       		.byte	0x1
 5489 3e60 683E0000 		.long	0x3e68
 5490 3e64 733E0000 		.long	0x3e73
 5491 3e68 19       		.uleb128 0x19
 5492 3e69 75450000 		.long	0x4575
 5493 3e6d 0E       		.uleb128 0xe
 5494 3e6e B53D0000 		.long	0x3db5
 5495 3e72 00       		.byte	0
 5496 3e73 47       		.uleb128 0x47
 5497 3e74 61646472 		.ascii "address\0"
 5497      65737300 
 5498 3e7c 15       		.byte	0x15
 5499 3e7d 5D       		.byte	0x5d
 5500 3e7e 5F5A4E4B 		.ascii "_ZNK9__gnu_cxx13new_allocatorIcE7addressERKc\0"
 5500      395F5F67 
 5500      6E755F63 
 5500      78783133 
 5500      6E65775F 
 5501 3eab 9F3D0000 		.long	0x3d9f
 5502 3eaf 01       		.byte	0x1
 5503 3eb0 B83E0000 		.long	0x3eb8
 5504 3eb4 C33E0000 		.long	0x3ec3
 5505 3eb8 19       		.uleb128 0x19
 5506 3eb9 75450000 		.long	0x4575
 5507 3ebd 0E       		.uleb128 0xe
 5508 3ebe C13D0000 		.long	0x3dc1
 5509 3ec2 00       		.byte	0
 5510 3ec3 47       		.uleb128 0x47
 5511 3ec4 616C6C6F 		.ascii "allocate\0"
 5511      63617465 
GAS LISTING C:\Users\NJLLMR~1\AppData\Local\Temp\ccqq7oi7.s 			page 142


 5511      00
 5512 3ecd 15       		.byte	0x15
 5513 3ece 63       		.byte	0x63
 5514 3ecf 5F5A4E39 		.ascii "_ZN9__gnu_cxx13new_allocatorIcE8allocateEjPKv\0"
 5514      5F5F676E 
 5514      755F6378 
 5514      7831336E 
 5514      65775F61 
 5515 3efd 8F3D0000 		.long	0x3d8f
 5516 3f01 01       		.byte	0x1
 5517 3f02 0A3F0000 		.long	0x3f0a
 5518 3f06 1A3F0000 		.long	0x3f1a
 5519 3f0a 19       		.uleb128 0x19
 5520 3f0b 69450000 		.long	0x4569
 5521 3f0f 0E       		.uleb128 0xe
 5522 3f10 833D0000 		.long	0x3d83
 5523 3f14 0E       		.uleb128 0xe
 5524 3f15 56450000 		.long	0x4556
 5525 3f19 00       		.byte	0
 5526 3f1a 48       		.uleb128 0x48
 5527 3f1b 6465616C 		.ascii "deallocate\0"
 5527      6C6F6361 
 5527      746500
 5528 3f26 15       		.byte	0x15
 5529 3f27 6D       		.byte	0x6d
 5530 3f28 5F5A4E39 		.ascii "_ZN9__gnu_cxx13new_allocatorIcE10deallocateEPcj\0"
 5530      5F5F676E 
 5530      755F6378 
 5530      7831336E 
 5530      65775F61 
 5531 3f58 01       		.byte	0x1
 5532 3f59 613F0000 		.long	0x3f61
 5533 3f5d 713F0000 		.long	0x3f71
 5534 3f61 19       		.uleb128 0x19
 5535 3f62 69450000 		.long	0x4569
 5536 3f66 0E       		.uleb128 0xe
 5537 3f67 8F3D0000 		.long	0x3d8f
 5538 3f6b 0E       		.uleb128 0xe
 5539 3f6c 833D0000 		.long	0x3d83
 5540 3f70 00       		.byte	0
 5541 3f71 31       		.uleb128 0x31
 5542 3f72 C5000000 		.secrel32	LASF11
 5543 3f76 15       		.byte	0x15
 5544 3f77 71       		.byte	0x71
 5545 3f78 5F5A4E4B 		.ascii "_ZNK9__gnu_cxx13new_allocatorIcE8max_sizeEv\0"
 5545      395F5F67 
 5545      6E755F63 
 5545      78783133 
 5545      6E65775F 
 5546 3fa4 833D0000 		.long	0x3d83
 5547 3fa8 01       		.byte	0x1
 5548 3fa9 B13F0000 		.long	0x3fb1
 5549 3fad B73F0000 		.long	0x3fb7
 5550 3fb1 19       		.uleb128 0x19
 5551 3fb2 75450000 		.long	0x4575
 5552 3fb6 00       		.byte	0
 5553 3fb7 48       		.uleb128 0x48
GAS LISTING C:\Users\NJLLMR~1\AppData\Local\Temp\ccqq7oi7.s 			page 143


 5554 3fb8 636F6E73 		.ascii "construct\0"
 5554      74727563 
 5554      7400
 5555 3fc2 15       		.byte	0x15
 5556 3fc3 81       		.byte	0x81
 5557 3fc4 5F5A4E39 		.ascii "_ZN9__gnu_cxx13new_allocatorIcE9constructEPcRKc\0"
 5557      5F5F676E 
 5557      755F6378 
 5557      7831336E 
 5557      65775F61 
 5558 3ff4 01       		.byte	0x1
 5559 3ff5 FD3F0000 		.long	0x3ffd
 5560 3ff9 0D400000 		.long	0x400d
 5561 3ffd 19       		.uleb128 0x19
 5562 3ffe 69450000 		.long	0x4569
 5563 4002 0E       		.uleb128 0xe
 5564 4003 8F3D0000 		.long	0x3d8f
 5565 4007 0E       		.uleb128 0xe
 5566 4008 63450000 		.long	0x4563
 5567 400c 00       		.byte	0
 5568 400d 48       		.uleb128 0x48
 5569 400e 64657374 		.ascii "destroy\0"
 5569      726F7900 
 5570 4016 15       		.byte	0x15
 5571 4017 85       		.byte	0x85
 5572 4018 5F5A4E39 		.ascii "_ZN9__gnu_cxx13new_allocatorIcE7destroyEPc\0"
 5572      5F5F676E 
 5572      755F6378 
 5572      7831336E 
 5572      65775F61 
 5573 4043 01       		.byte	0x1
 5574 4044 4C400000 		.long	0x404c
 5575 4048 57400000 		.long	0x4057
 5576 404c 19       		.uleb128 0x19
 5577 404d 69450000 		.long	0x4569
 5578 4051 0E       		.uleb128 0xe
 5579 4052 8F3D0000 		.long	0x3d8f
 5580 4056 00       		.byte	0
 5581 4057 49       		.uleb128 0x49
 5582 4058 5F547000 		.ascii "_Tp\0"
 5583 405c 53010000 		.long	0x153
 5584 4060 00       		.byte	0
 5585 4061 0F       		.uleb128 0xf
 5586 4062 673D0000 		.long	0x3d67
 5587 4066 06       		.uleb128 0x6
 5588 4067 5F5F6E75 		.ascii "__numeric_traits_integer<int>\0"
 5588      6D657269 
 5588      635F7472 
 5588      61697473 
 5588      5F696E74 
 5589 4085 01       		.byte	0x1
 5590 4086 16       		.byte	0x16
 5591 4087 37       		.byte	0x37
 5592 4088 C2400000 		.long	0x40c2
 5593 408c 4A       		.uleb128 0x4a
 5594 408d 74000000 		.secrel32	LASF25
 5595 4091 16       		.byte	0x16
GAS LISTING C:\Users\NJLLMR~1\AppData\Local\Temp\ccqq7oi7.s 			page 144


 5596 4092 3A       		.byte	0x3a
 5597 4093 87450000 		.long	0x4587
 5598 4097 4A       		.uleb128 0x4a
 5599 4098 2E000000 		.secrel32	LASF26
 5600 409c 16       		.byte	0x16
 5601 409d 3B       		.byte	0x3b
 5602 409e 87450000 		.long	0x4587
 5603 40a2 4A       		.uleb128 0x4a
 5604 40a3 34000000 		.secrel32	LASF27
 5605 40a7 16       		.byte	0x16
 5606 40a8 3F       		.byte	0x3f
 5607 40a9 8C450000 		.long	0x458c
 5608 40ad 4A       		.uleb128 0x4a
 5609 40ae 14010000 		.secrel32	LASF28
 5610 40b2 16       		.byte	0x16
 5611 40b3 40       		.byte	0x40
 5612 40b4 87450000 		.long	0x4587
 5613 40b8 33       		.uleb128 0x33
 5614 40b9 F2000000 		.secrel32	LASF29
 5615 40bd 87010000 		.long	0x187
 5616 40c1 00       		.byte	0
 5617 40c2 36       		.uleb128 0x36
 5618 40c3 5F5F6E6F 		.ascii "__normal_iterator<char*, std::basic_string<char, std::char_traits<char>, std::allocator<ch
 5618      726D616C 
 5618      5F697465 
 5618      7261746F 
 5618      723C6368 
 5619 4125 36       		.uleb128 0x36
 5620 4126 5F5F6E6F 		.ascii "__normal_iterator<char const*, std::basic_string<char, std::char_traits<char>, std::alloca
 5620      726D616C 
 5620      5F697465 
 5620      7261746F 
 5620      723C6368 
 5621 418e 06       		.uleb128 0x6
 5622 418f 5F5F6E75 		.ascii "__numeric_traits_integer<long unsigned int>\0"
 5622      6D657269 
 5622      635F7472 
 5622      61697473 
 5622      5F696E74 
 5623 41bb 01       		.byte	0x1
 5624 41bc 16       		.byte	0x16
 5625 41bd 37       		.byte	0x37
 5626 41be F8410000 		.long	0x41f8
 5627 41c2 4A       		.uleb128 0x4a
 5628 41c3 74000000 		.secrel32	LASF25
 5629 41c7 16       		.byte	0x16
 5630 41c8 3A       		.byte	0x3a
 5631 41c9 CC450000 		.long	0x45cc
 5632 41cd 4A       		.uleb128 0x4a
 5633 41ce 2E000000 		.secrel32	LASF26
 5634 41d2 16       		.byte	0x16
 5635 41d3 3B       		.byte	0x3b
 5636 41d4 CC450000 		.long	0x45cc
 5637 41d8 4A       		.uleb128 0x4a
 5638 41d9 34000000 		.secrel32	LASF27
 5639 41dd 16       		.byte	0x16
 5640 41de 3F       		.byte	0x3f
GAS LISTING C:\Users\NJLLMR~1\AppData\Local\Temp\ccqq7oi7.s 			page 145


 5641 41df 8C450000 		.long	0x458c
 5642 41e3 4A       		.uleb128 0x4a
 5643 41e4 14010000 		.secrel32	LASF28
 5644 41e8 16       		.byte	0x16
 5645 41e9 40       		.byte	0x40
 5646 41ea 87450000 		.long	0x4587
 5647 41ee 33       		.uleb128 0x33
 5648 41ef F2000000 		.secrel32	LASF29
 5649 41f3 FD020000 		.long	0x2fd
 5650 41f7 00       		.byte	0
 5651 41f8 06       		.uleb128 0x6
 5652 41f9 5F5F6E75 		.ascii "__numeric_traits_integer<char>\0"
 5652      6D657269 
 5652      635F7472 
 5652      61697473 
 5652      5F696E74 
 5653 4218 01       		.byte	0x1
 5654 4219 16       		.byte	0x16
 5655 421a 37       		.byte	0x37
 5656 421b 55420000 		.long	0x4255
 5657 421f 4A       		.uleb128 0x4a
 5658 4220 74000000 		.secrel32	LASF25
 5659 4224 16       		.byte	0x16
 5660 4225 3A       		.byte	0x3a
 5661 4226 79370000 		.long	0x3779
 5662 422a 4A       		.uleb128 0x4a
 5663 422b 2E000000 		.secrel32	LASF26
 5664 422f 16       		.byte	0x16
 5665 4230 3B       		.byte	0x3b
 5666 4231 79370000 		.long	0x3779
 5667 4235 4A       		.uleb128 0x4a
 5668 4236 34000000 		.secrel32	LASF27
 5669 423a 16       		.byte	0x16
 5670 423b 3F       		.byte	0x3f
 5671 423c 8C450000 		.long	0x458c
 5672 4240 4A       		.uleb128 0x4a
 5673 4241 14010000 		.secrel32	LASF28
 5674 4245 16       		.byte	0x16
 5675 4246 40       		.byte	0x40
 5676 4247 87450000 		.long	0x4587
 5677 424b 33       		.uleb128 0x33
 5678 424c F2000000 		.secrel32	LASF29
 5679 4250 53010000 		.long	0x153
 5680 4254 00       		.byte	0
 5681 4255 4B       		.uleb128 0x4b
 5682 4256 5F5F6E75 		.ascii "__numeric_traits_integer<short int>\0"
 5682      6D657269 
 5682      635F7472 
 5682      61697473 
 5682      5F696E74 
 5683 427a 01       		.byte	0x1
 5684 427b 16       		.byte	0x16
 5685 427c 37       		.byte	0x37
 5686 427d 4A       		.uleb128 0x4a
 5687 427e 74000000 		.secrel32	LASF25
 5688 4282 16       		.byte	0x16
 5689 4283 3A       		.byte	0x3a
GAS LISTING C:\Users\NJLLMR~1\AppData\Local\Temp\ccqq7oi7.s 			page 146


 5690 4284 4D460000 		.long	0x464d
 5691 4288 4A       		.uleb128 0x4a
 5692 4289 2E000000 		.secrel32	LASF26
 5693 428d 16       		.byte	0x16
 5694 428e 3B       		.byte	0x3b
 5695 428f 4D460000 		.long	0x464d
 5696 4293 4A       		.uleb128 0x4a
 5697 4294 34000000 		.secrel32	LASF27
 5698 4298 16       		.byte	0x16
 5699 4299 3F       		.byte	0x3f
 5700 429a 8C450000 		.long	0x458c
 5701 429e 4A       		.uleb128 0x4a
 5702 429f 14010000 		.secrel32	LASF28
 5703 42a3 16       		.byte	0x16
 5704 42a4 40       		.byte	0x40
 5705 42a5 87450000 		.long	0x4587
 5706 42a9 33       		.uleb128 0x33
 5707 42aa F2000000 		.secrel32	LASF29
 5708 42ae AB010000 		.long	0x1ab
 5709 42b2 00       		.byte	0
 5710 42b3 00       		.byte	0
 5711 42b4 43       		.uleb128 0x43
 5712 42b5 77637374 		.ascii "wcstold\0"
 5712      6F6C6400 
 5713 42bd 07       		.byte	0x7
 5714 42be A9       		.byte	0xa9
 5715 42bf D2420000 		.long	0x42d2
 5716 42c3 D2420000 		.long	0x42d2
 5717 42c7 0E       		.uleb128 0xe
 5718 42c8 C2360000 		.long	0x36c2
 5719 42cc 0E       		.uleb128 0xe
 5720 42cd 013B0000 		.long	0x3b01
 5721 42d1 00       		.byte	0
 5722 42d2 03       		.uleb128 0x3
 5723 42d3 0C       		.byte	0xc
 5724 42d4 04       		.byte	0x4
 5725 42d5 6C6F6E67 		.ascii "long double\0"
 5725      20646F75 
 5725      626C6500 
 5726 42e1 42       		.uleb128 0x42
 5727 42e2 77637374 		.ascii "wcstoll\0"
 5727      6F6C6C00 
 5728 42ea 07       		.byte	0x7
 5729 42eb 4701     		.word	0x147
 5730 42ed 9A010000 		.long	0x19a
 5731 42f1 05430000 		.long	0x4305
 5732 42f5 0E       		.uleb128 0xe
 5733 42f6 C2360000 		.long	0x36c2
 5734 42fa 0E       		.uleb128 0xe
 5735 42fb 013B0000 		.long	0x3b01
 5736 42ff 0E       		.uleb128 0xe
 5737 4300 87010000 		.long	0x187
 5738 4304 00       		.byte	0
 5739 4305 42       		.uleb128 0x42
 5740 4306 77637374 		.ascii "wcstoull\0"
 5740      6F756C6C 
 5740      00
GAS LISTING C:\Users\NJLLMR~1\AppData\Local\Temp\ccqq7oi7.s 			page 147


 5741 430f 07       		.byte	0x7
 5742 4310 4901     		.word	0x149
 5743 4312 3E030000 		.long	0x33e
 5744 4316 2A430000 		.long	0x432a
 5745 431a 0E       		.uleb128 0xe
 5746 431b C2360000 		.long	0x36c2
 5747 431f 0E       		.uleb128 0xe
 5748 4320 013B0000 		.long	0x3b01
 5749 4324 0E       		.uleb128 0xe
 5750 4325 87010000 		.long	0x187
 5751 4329 00       		.byte	0
 5752 432a 09       		.uleb128 0x9
 5753 432b 5F5F676E 		.ascii "__gnu_debug\0"
 5753      755F6465 
 5753      62756700 
 5754 4337 13       		.byte	0x13
 5755 4338 37       		.byte	0x37
 5756 4339 45430000 		.long	0x4345
 5757 433d 4C       		.uleb128 0x4c
 5758 433e 13       		.byte	0x13
 5759 433f 38       		.byte	0x38
 5760 4340 03050000 		.long	0x503
 5761 4344 00       		.byte	0
 5762 4345 4D       		.uleb128 0x4d
 5763 4346 04       		.byte	0x4
 5764 4347 28050000 		.long	0x528
 5765 434b 4D       		.uleb128 0x4d
 5766 434c 04       		.byte	0x4
 5767 434d 82050000 		.long	0x582
 5768 4351 03       		.uleb128 0x3
 5769 4352 01       		.byte	0x1
 5770 4353 02       		.byte	0x2
 5771 4354 626F6F6C 		.ascii "bool\0"
 5771      00
 5772 4359 08       		.uleb128 0x8
 5773 435a 04       		.byte	0x4
 5774 435b 82050000 		.long	0x582
 5775 435f 08       		.uleb128 0x8
 5776 4360 04       		.byte	0x4
 5777 4361 28050000 		.long	0x528
 5778 4365 4D       		.uleb128 0x4d
 5779 4366 04       		.byte	0x4
 5780 4367 CD070000 		.long	0x7cd
 5781 436b 06       		.uleb128 0x6
 5782 436c 6C636F6E 		.ascii "lconv\0"
 5782      7600
 5783 4372 30       		.byte	0x30
 5784 4373 17       		.byte	0x17
 5785 4374 2D       		.byte	0x2d
 5786 4375 0A450000 		.long	0x450a
 5787 4379 07       		.uleb128 0x7
 5788 437a 64656369 		.ascii "decimal_point\0"
 5788      6D616C5F 
 5788      706F696E 
 5788      7400
 5789 4388 17       		.byte	0x17
 5790 4389 2F       		.byte	0x2f
GAS LISTING C:\Users\NJLLMR~1\AppData\Local\Temp\ccqq7oi7.s 			page 148


 5791 438a 3F020000 		.long	0x23f
 5792 438e 00       		.byte	0
 5793 438f 07       		.uleb128 0x7
 5794 4390 74686F75 		.ascii "thousands_sep\0"
 5794      73616E64 
 5794      735F7365 
 5794      7000
 5795 439e 17       		.byte	0x17
 5796 439f 30       		.byte	0x30
 5797 43a0 3F020000 		.long	0x23f
 5798 43a4 04       		.byte	0x4
 5799 43a5 07       		.uleb128 0x7
 5800 43a6 67726F75 		.ascii "grouping\0"
 5800      70696E67 
 5800      00
 5801 43af 17       		.byte	0x17
 5802 43b0 31       		.byte	0x31
 5803 43b1 3F020000 		.long	0x23f
 5804 43b5 08       		.byte	0x8
 5805 43b6 07       		.uleb128 0x7
 5806 43b7 696E745F 		.ascii "int_curr_symbol\0"
 5806      63757272 
 5806      5F73796D 
 5806      626F6C00 
 5807 43c7 17       		.byte	0x17
 5808 43c8 32       		.byte	0x32
 5809 43c9 3F020000 		.long	0x23f
 5810 43cd 0C       		.byte	0xc
 5811 43ce 07       		.uleb128 0x7
 5812 43cf 63757272 		.ascii "currency_symbol\0"
 5812      656E6379 
 5812      5F73796D 
 5812      626F6C00 
 5813 43df 17       		.byte	0x17
 5814 43e0 33       		.byte	0x33
 5815 43e1 3F020000 		.long	0x23f
 5816 43e5 10       		.byte	0x10
 5817 43e6 07       		.uleb128 0x7
 5818 43e7 6D6F6E5F 		.ascii "mon_decimal_point\0"
 5818      64656369 
 5818      6D616C5F 
 5818      706F696E 
 5818      7400
 5819 43f9 17       		.byte	0x17
 5820 43fa 34       		.byte	0x34
 5821 43fb 3F020000 		.long	0x23f
 5822 43ff 14       		.byte	0x14
 5823 4400 07       		.uleb128 0x7
 5824 4401 6D6F6E5F 		.ascii "mon_thousands_sep\0"
 5824      74686F75 
 5824      73616E64 
 5824      735F7365 
 5824      7000
 5825 4413 17       		.byte	0x17
 5826 4414 35       		.byte	0x35
 5827 4415 3F020000 		.long	0x23f
 5828 4419 18       		.byte	0x18
GAS LISTING C:\Users\NJLLMR~1\AppData\Local\Temp\ccqq7oi7.s 			page 149


 5829 441a 07       		.uleb128 0x7
 5830 441b 6D6F6E5F 		.ascii "mon_grouping\0"
 5830      67726F75 
 5830      70696E67 
 5830      00
 5831 4428 17       		.byte	0x17
 5832 4429 36       		.byte	0x36
 5833 442a 3F020000 		.long	0x23f
 5834 442e 1C       		.byte	0x1c
 5835 442f 07       		.uleb128 0x7
 5836 4430 706F7369 		.ascii "positive_sign\0"
 5836      74697665 
 5836      5F736967 
 5836      6E00
 5837 443e 17       		.byte	0x17
 5838 443f 37       		.byte	0x37
 5839 4440 3F020000 		.long	0x23f
 5840 4444 20       		.byte	0x20
 5841 4445 07       		.uleb128 0x7
 5842 4446 6E656761 		.ascii "negative_sign\0"
 5842      74697665 
 5842      5F736967 
 5842      6E00
 5843 4454 17       		.byte	0x17
 5844 4455 38       		.byte	0x38
 5845 4456 3F020000 		.long	0x23f
 5846 445a 24       		.byte	0x24
 5847 445b 07       		.uleb128 0x7
 5848 445c 696E745F 		.ascii "int_frac_digits\0"
 5848      66726163 
 5848      5F646967 
 5848      69747300 
 5849 446c 17       		.byte	0x17
 5850 446d 39       		.byte	0x39
 5851 446e 53010000 		.long	0x153
 5852 4472 28       		.byte	0x28
 5853 4473 07       		.uleb128 0x7
 5854 4474 66726163 		.ascii "frac_digits\0"
 5854      5F646967 
 5854      69747300 
 5855 4480 17       		.byte	0x17
 5856 4481 3A       		.byte	0x3a
 5857 4482 53010000 		.long	0x153
 5858 4486 29       		.byte	0x29
 5859 4487 07       		.uleb128 0x7
 5860 4488 705F6373 		.ascii "p_cs_precedes\0"
 5860      5F707265 
 5860      63656465 
 5860      7300
 5861 4496 17       		.byte	0x17
 5862 4497 3B       		.byte	0x3b
 5863 4498 53010000 		.long	0x153
 5864 449c 2A       		.byte	0x2a
 5865 449d 07       		.uleb128 0x7
 5866 449e 705F7365 		.ascii "p_sep_by_space\0"
 5866      705F6279 
 5866      5F737061 
GAS LISTING C:\Users\NJLLMR~1\AppData\Local\Temp\ccqq7oi7.s 			page 150


 5866      636500
 5867 44ad 17       		.byte	0x17
 5868 44ae 3C       		.byte	0x3c
 5869 44af 53010000 		.long	0x153
 5870 44b3 2B       		.byte	0x2b
 5871 44b4 07       		.uleb128 0x7
 5872 44b5 6E5F6373 		.ascii "n_cs_precedes\0"
 5872      5F707265 
 5872      63656465 
 5872      7300
 5873 44c3 17       		.byte	0x17
 5874 44c4 3D       		.byte	0x3d
 5875 44c5 53010000 		.long	0x153
 5876 44c9 2C       		.byte	0x2c
 5877 44ca 07       		.uleb128 0x7
 5878 44cb 6E5F7365 		.ascii "n_sep_by_space\0"
 5878      705F6279 
 5878      5F737061 
 5878      636500
 5879 44da 17       		.byte	0x17
 5880 44db 3E       		.byte	0x3e
 5881 44dc 53010000 		.long	0x153
 5882 44e0 2D       		.byte	0x2d
 5883 44e1 07       		.uleb128 0x7
 5884 44e2 705F7369 		.ascii "p_sign_posn\0"
 5884      676E5F70 
 5884      6F736E00 
 5885 44ee 17       		.byte	0x17
 5886 44ef 3F       		.byte	0x3f
 5887 44f0 53010000 		.long	0x153
 5888 44f4 2E       		.byte	0x2e
 5889 44f5 07       		.uleb128 0x7
 5890 44f6 6E5F7369 		.ascii "n_sign_posn\0"
 5890      676E5F70 
 5890      6F736E00 
 5891 4502 17       		.byte	0x17
 5892 4503 40       		.byte	0x40
 5893 4504 53010000 		.long	0x153
 5894 4508 2F       		.byte	0x2f
 5895 4509 00       		.byte	0
 5896 450a 43       		.uleb128 0x43
 5897 450b 7365746C 		.ascii "setlocale\0"
 5897      6F63616C 
 5897      6500
 5898 4515 17       		.byte	0x17
 5899 4516 47       		.byte	0x47
 5900 4517 3F020000 		.long	0x23f
 5901 451b 2A450000 		.long	0x452a
 5902 451f 0E       		.uleb128 0xe
 5903 4520 87010000 		.long	0x187
 5904 4524 0E       		.uleb128 0xe
 5905 4525 73370000 		.long	0x3773
 5906 4529 00       		.byte	0
 5907 452a 45       		.uleb128 0x45
 5908 452b 6C6F6361 		.ascii "localeconv\0"
 5908      6C65636F 
 5908      6E7600
GAS LISTING C:\Users\NJLLMR~1\AppData\Local\Temp\ccqq7oi7.s 			page 151


 5909 4536 17       		.byte	0x17
 5910 4537 48       		.byte	0x48
 5911 4538 3C450000 		.long	0x453c
 5912 453c 08       		.uleb128 0x8
 5913 453d 04       		.byte	0x4
 5914 453e 6B430000 		.long	0x436b
 5915 4542 02       		.uleb128 0x2
 5916 4543 5F41746F 		.ascii "_Atomic_word\0"
 5916      6D69635F 
 5916      776F7264 
 5916      00
 5917 4550 18       		.byte	0x18
 5918 4551 20       		.byte	0x20
 5919 4552 87010000 		.long	0x187
 5920 4556 08       		.uleb128 0x8
 5921 4557 04       		.byte	0x4
 5922 4558 5C450000 		.long	0x455c
 5923 455c 4E       		.uleb128 0x4e
 5924 455d 4D       		.uleb128 0x4d
 5925 455e 04       		.byte	0x4
 5926 455f 53010000 		.long	0x153
 5927 4563 4D       		.uleb128 0x4d
 5928 4564 04       		.byte	0x4
 5929 4565 79370000 		.long	0x3779
 5930 4569 08       		.uleb128 0x8
 5931 456a 04       		.byte	0x4
 5932 456b 673D0000 		.long	0x3d67
 5933 456f 4D       		.uleb128 0x4d
 5934 4570 04       		.byte	0x4
 5935 4571 61400000 		.long	0x4061
 5936 4575 08       		.uleb128 0x8
 5937 4576 04       		.byte	0x4
 5938 4577 61400000 		.long	0x4061
 5939 457b 08       		.uleb128 0x8
 5940 457c 04       		.byte	0x4
 5941 457d F9080000 		.long	0x8f9
 5942 4581 4D       		.uleb128 0x4d
 5943 4582 04       		.byte	0x4
 5944 4583 8C090000 		.long	0x98c
 5945 4587 0F       		.uleb128 0xf
 5946 4588 87010000 		.long	0x187
 5947 458c 0F       		.uleb128 0xf
 5948 458d 51430000 		.long	0x4351
 5949 4591 08       		.uleb128 0x8
 5950 4592 04       		.byte	0x4
 5951 4593 DB090000 		.long	0x9db
 5952 4597 08       		.uleb128 0x8
 5953 4598 04       		.byte	0x4
 5954 4599 FC2D0000 		.long	0x2dfc
 5955 459d 08       		.uleb128 0x8
 5956 459e 04       		.byte	0x4
 5957 459f 91090000 		.long	0x991
 5958 45a3 08       		.uleb128 0x8
 5959 45a4 04       		.byte	0x4
 5960 45a5 290B0000 		.long	0xb29
 5961 45a9 4D       		.uleb128 0x4d
 5962 45aa 04       		.byte	0x4
GAS LISTING C:\Users\NJLLMR~1\AppData\Local\Temp\ccqq7oi7.s 			page 152


 5963 45ab 290B0000 		.long	0xb29
 5964 45af 4D       		.uleb128 0x4d
 5965 45b0 04       		.byte	0x4
 5966 45b1 FC2D0000 		.long	0x2dfc
 5967 45b5 4D       		.uleb128 0x4d
 5968 45b6 04       		.byte	0x4
 5969 45b7 91090000 		.long	0x991
 5970 45bb 4F       		.uleb128 0x4f
 5971 45bc 06010000 		.long	0x106
 5972 45c0 C6450000 		.long	0x45c6
 5973 45c4 50       		.uleb128 0x50
 5974 45c5 00       		.byte	0
 5975 45c6 08       		.uleb128 0x8
 5976 45c7 04       		.byte	0x4
 5977 45c8 D02C0000 		.long	0x2cd0
 5978 45cc 0F       		.uleb128 0xf
 5979 45cd FD020000 		.long	0x2fd
 5980 45d1 4D       		.uleb128 0x4d
 5981 45d2 04       		.byte	0x4
 5982 45d3 43300000 		.long	0x3043
 5983 45d7 08       		.uleb128 0x8
 5984 45d8 04       		.byte	0x4
 5985 45d9 51300000 		.long	0x3051
 5986 45dd 43       		.uleb128 0x43
 5987 45de 69737763 		.ascii "iswctype\0"
 5987      74797065 
 5987      00
 5988 45e7 19       		.byte	0x19
 5989 45e8 C4       		.byte	0xc4
 5990 45e9 87010000 		.long	0x187
 5991 45ed FC450000 		.long	0x45fc
 5992 45f1 0E       		.uleb128 0xe
 5993 45f2 16010000 		.long	0x116
 5994 45f6 0E       		.uleb128 0xe
 5995 45f7 5B010000 		.long	0x15b
 5996 45fb 00       		.byte	0
 5997 45fc 43       		.uleb128 0x43
 5998 45fd 746F7763 		.ascii "towctrans\0"
 5998      7472616E 
 5998      7300
 5999 4607 06       		.byte	0x6
 6000 4608 9D       		.byte	0x9d
 6001 4609 16010000 		.long	0x116
 6002 460d 1C460000 		.long	0x461c
 6003 4611 0E       		.uleb128 0xe
 6004 4612 16010000 		.long	0x116
 6005 4616 0E       		.uleb128 0xe
 6006 4617 76010000 		.long	0x176
 6007 461b 00       		.byte	0
 6008 461c 43       		.uleb128 0x43
 6009 461d 77637472 		.ascii "wctrans\0"
 6009      616E7300 
 6010 4625 06       		.byte	0x6
 6011 4626 9E       		.byte	0x9e
 6012 4627 76010000 		.long	0x176
 6013 462b 35460000 		.long	0x4635
 6014 462f 0E       		.uleb128 0xe
GAS LISTING C:\Users\NJLLMR~1\AppData\Local\Temp\ccqq7oi7.s 			page 153


 6015 4630 73370000 		.long	0x3773
 6016 4634 00       		.byte	0
 6017 4635 43       		.uleb128 0x43
 6018 4636 77637479 		.ascii "wctype\0"
 6018      706500
 6019 463d 06       		.byte	0x6
 6020 463e 9F       		.byte	0x9f
 6021 463f 5B010000 		.long	0x15b
 6022 4643 4D460000 		.long	0x464d
 6023 4647 0E       		.uleb128 0xe
 6024 4648 73370000 		.long	0x3773
 6025 464c 00       		.byte	0
 6026 464d 0F       		.uleb128 0xf
 6027 464e AB010000 		.long	0x1ab
 6028 4652 4C       		.uleb128 0x4c
 6029 4653 1A       		.byte	0x1a
 6030 4654 08       		.byte	0x8
 6031 4655 58030000 		.long	0x358
 6032 4659 51       		.uleb128 0x51
 6033 465a 7F000000 		.secrel32	LASF30
 6034 465e 14       		.byte	0x14
 6035 465f 1A       		.byte	0x1a
 6036 4660 0A       		.byte	0xa
 6037 4661 28480000 		.long	0x4828
 6038 4665 07       		.uleb128 0x7
 6039 4666 5F6E616D 		.ascii "_name\0"
 6039      6500
 6040 466c 1A       		.byte	0x1a
 6041 466d 19       		.byte	0x19
 6042 466e 012E0000 		.long	0x2e01
 6043 4672 00       		.byte	0
 6044 4673 07       		.uleb128 0x7
 6045 4674 5F73736E 		.ascii "_ssn\0"
 6045      00
 6046 4679 1A       		.byte	0x1a
 6047 467a 1A       		.byte	0x1a
 6048 467b 012E0000 		.long	0x2e01
 6049 467f 04       		.byte	0x4
 6050 4680 07       		.uleb128 0x7
 6051 4681 5F73616C 		.ascii "_salary\0"
 6051      61727900 
 6052 4689 1A       		.byte	0x1a
 6053 468a 1B       		.byte	0x1b
 6054 468b 87010000 		.long	0x187
 6055 468f 08       		.byte	0x8
 6056 4690 07       		.uleb128 0x7
 6057 4691 5F6D6F6E 		.ascii "_month\0"
 6057      746800
 6058 4698 1A       		.byte	0x1a
 6059 4699 1C       		.byte	0x1c
 6060 469a 87010000 		.long	0x187
 6061 469e 0C       		.byte	0xc
 6062 469f 07       		.uleb128 0x7
 6063 46a0 5F796561 		.ascii "_year\0"
 6063      7200
 6064 46a6 1A       		.byte	0x1a
 6065 46a7 1D       		.byte	0x1d
GAS LISTING C:\Users\NJLLMR~1\AppData\Local\Temp\ccqq7oi7.s 			page 154


 6066 46a8 87010000 		.long	0x187
 6067 46ac 10       		.byte	0x10
 6068 46ad 18       		.uleb128 0x18
 6069 46ae 7F000000 		.secrel32	LASF30
 6070 46b2 1A       		.byte	0x1a
 6071 46b3 0D       		.byte	0xd
 6072 46b4 01       		.byte	0x1
 6073 46b5 BD460000 		.long	0x46bd
 6074 46b9 C3460000 		.long	0x46c3
 6075 46bd 19       		.uleb128 0x19
 6076 46be 28480000 		.long	0x4828
 6077 46c2 00       		.byte	0
 6078 46c3 18       		.uleb128 0x18
 6079 46c4 7F000000 		.secrel32	LASF30
 6080 46c8 1A       		.byte	0x1a
 6081 46c9 0E       		.byte	0xe
 6082 46ca 01       		.byte	0x1
 6083 46cb D3460000 		.long	0x46d3
 6084 46cf F2460000 		.long	0x46f2
 6085 46d3 19       		.uleb128 0x19
 6086 46d4 28480000 		.long	0x4828
 6087 46d8 0E       		.uleb128 0xe
 6088 46d9 012E0000 		.long	0x2e01
 6089 46dd 0E       		.uleb128 0xe
 6090 46de 012E0000 		.long	0x2e01
 6091 46e2 0E       		.uleb128 0xe
 6092 46e3 87010000 		.long	0x187
 6093 46e7 0E       		.uleb128 0xe
 6094 46e8 87010000 		.long	0x187
 6095 46ec 0E       		.uleb128 0xe
 6096 46ed 87010000 		.long	0x187
 6097 46f1 00       		.byte	0
 6098 46f2 46       		.uleb128 0x46
 6099 46f3 7E456D70 		.ascii "~Employee\0"
 6099      6C6F7965 
 6099      6500
 6100 46fd 1A       		.byte	0x1a
 6101 46fe 0F       		.byte	0xf
 6102 46ff 01       		.byte	0x1
 6103 4700 08470000 		.long	0x4708
 6104 4704 13470000 		.long	0x4713
 6105 4708 19       		.uleb128 0x19
 6106 4709 28480000 		.long	0x4828
 6107 470d 19       		.uleb128 0x19
 6108 470e 87010000 		.long	0x187
 6109 4712 00       		.byte	0
 6110 4713 47       		.uleb128 0x47
 6111 4714 6765745F 		.ascii "get_name\0"
 6111      6E616D65 
 6111      00
 6112 471d 1A       		.byte	0x1a
 6113 471e 10       		.byte	0x10
 6114 471f 5F5A4E38 		.ascii "_ZN8Employee8get_nameEv\0"
 6114      456D706C 
 6114      6F796565 
 6114      38676574 
 6114      5F6E616D 
GAS LISTING C:\Users\NJLLMR~1\AppData\Local\Temp\ccqq7oi7.s 			page 155


 6115 4737 012E0000 		.long	0x2e01
 6116 473b 01       		.byte	0x1
 6117 473c 44470000 		.long	0x4744
 6118 4740 4A470000 		.long	0x474a
 6119 4744 19       		.uleb128 0x19
 6120 4745 28480000 		.long	0x4828
 6121 4749 00       		.byte	0
 6122 474a 47       		.uleb128 0x47
 6123 474b 6765745F 		.ascii "get_ssn\0"
 6123      73736E00 
 6124 4753 1A       		.byte	0x1a
 6125 4754 11       		.byte	0x11
 6126 4755 5F5A4E38 		.ascii "_ZN8Employee7get_ssnEv\0"
 6126      456D706C 
 6126      6F796565 
 6126      37676574 
 6126      5F73736E 
 6127 476c 012E0000 		.long	0x2e01
 6128 4770 01       		.byte	0x1
 6129 4771 79470000 		.long	0x4779
 6130 4775 7F470000 		.long	0x477f
 6131 4779 19       		.uleb128 0x19
 6132 477a 28480000 		.long	0x4828
 6133 477e 00       		.byte	0
 6134 477f 47       		.uleb128 0x47
 6135 4780 6765745F 		.ascii "get_salary\0"
 6135      73616C61 
 6135      727900
 6136 478b 1A       		.byte	0x1a
 6137 478c 12       		.byte	0x12
 6138 478d 5F5A4E38 		.ascii "_ZN8Employee10get_salaryEv\0"
 6138      456D706C 
 6138      6F796565 
 6138      31306765 
 6138      745F7361 
 6139 47a8 87010000 		.long	0x187
 6140 47ac 01       		.byte	0x1
 6141 47ad B5470000 		.long	0x47b5
 6142 47b1 BB470000 		.long	0x47bb
 6143 47b5 19       		.uleb128 0x19
 6144 47b6 28480000 		.long	0x4828
 6145 47ba 00       		.byte	0
 6146 47bb 47       		.uleb128 0x47
 6147 47bc 6765745F 		.ascii "get_month\0"
 6147      6D6F6E74 
 6147      6800
 6148 47c6 1A       		.byte	0x1a
 6149 47c7 13       		.byte	0x13
 6150 47c8 5F5A4E38 		.ascii "_ZN8Employee9get_monthEv\0"
 6150      456D706C 
 6150      6F796565 
 6150      39676574 
 6150      5F6D6F6E 
 6151 47e1 87010000 		.long	0x187
 6152 47e5 01       		.byte	0x1
 6153 47e6 EE470000 		.long	0x47ee
 6154 47ea F4470000 		.long	0x47f4
GAS LISTING C:\Users\NJLLMR~1\AppData\Local\Temp\ccqq7oi7.s 			page 156


 6155 47ee 19       		.uleb128 0x19
 6156 47ef 28480000 		.long	0x4828
 6157 47f3 00       		.byte	0
 6158 47f4 52       		.uleb128 0x52
 6159 47f5 6765745F 		.ascii "get_year\0"
 6159      79656172 
 6159      00
 6160 47fe 1A       		.byte	0x1a
 6161 47ff 14       		.byte	0x14
 6162 4800 5F5A4E38 		.ascii "_ZN8Employee8get_yearEv\0"
 6162      456D706C 
 6162      6F796565 
 6162      38676574 
 6162      5F796561 
 6163 4818 87010000 		.long	0x187
 6164 481c 01       		.byte	0x1
 6165 481d 21480000 		.long	0x4821
 6166 4821 19       		.uleb128 0x19
 6167 4822 28480000 		.long	0x4828
 6168 4826 00       		.byte	0
 6169 4827 00       		.byte	0
 6170 4828 08       		.uleb128 0x8
 6171 4829 04       		.byte	0x4
 6172 482a 59460000 		.long	0x4659
 6173 482e 53       		.uleb128 0x53
 6174 482f 60340000 		.long	0x3460
 6175 4833 00000000 		.long	LFB629
 6176 4837 0D000000 		.long	LFE629-LFB629
 6177 483b 01       		.uleb128 0x1
 6178 483c 9C       		.byte	0x9c
 6179 483d 5E480000 		.long	0x485e
 6180 4841 54       		.uleb128 0x54
 6181 4842 5F5F6100 		.ascii "__a\0"
 6182 4846 01       		.byte	0x1
 6183 4847 4B       		.byte	0x4b
 6184 4848 0F2E0000 		.long	0x2e0f
 6185 484c 02       		.uleb128 0x2
 6186 484d 91       		.byte	0x91
 6187 484e 00       		.sleb128 0
 6188 484f 54       		.uleb128 0x54
 6189 4850 5F5F6200 		.ascii "__b\0"
 6190 4854 01       		.byte	0x1
 6191 4855 4B       		.byte	0x4b
 6192 4856 0F2E0000 		.long	0x2e0f
 6193 485a 02       		.uleb128 0x2
 6194 485b 91       		.byte	0x91
 6195 485c 04       		.sleb128 4
 6196 485d 00       		.byte	0
 6197 485e 53       		.uleb128 0x53
 6198 485f 9A340000 		.long	0x349a
 6199 4863 00000000 		.long	LFB630
 6200 4867 0D000000 		.long	LFE630-LFB630
 6201 486b 01       		.uleb128 0x1
 6202 486c 9C       		.byte	0x9c
 6203 486d 8E480000 		.long	0x488e
 6204 4871 54       		.uleb128 0x54
 6205 4872 5F5F6100 		.ascii "__a\0"
GAS LISTING C:\Users\NJLLMR~1\AppData\Local\Temp\ccqq7oi7.s 			page 157


 6206 4876 01       		.byte	0x1
 6207 4877 4F       		.byte	0x4f
 6208 4878 0F2E0000 		.long	0x2e0f
 6209 487c 02       		.uleb128 0x2
 6210 487d 91       		.byte	0x91
 6211 487e 00       		.sleb128 0
 6212 487f 54       		.uleb128 0x54
 6213 4880 5F5F6200 		.ascii "__b\0"
 6214 4884 01       		.byte	0x1
 6215 4885 4F       		.byte	0x4f
 6216 4886 0F2E0000 		.long	0x2e0f
 6217 488a 02       		.uleb128 0x2
 6218 488b 91       		.byte	0x91
 6219 488c 04       		.sleb128 4
 6220 488d 00       		.byte	0
 6221 488e 53       		.uleb128 0x53
 6222 488f D4340000 		.long	0x34d4
 6223 4893 00000000 		.long	LFB632
 6224 4897 0A000000 		.long	LFE632-LFB632
 6225 489b 01       		.uleb128 0x1
 6226 489c 9C       		.byte	0x9c
 6227 489d B0480000 		.long	0x48b0
 6228 48a1 54       		.uleb128 0x54
 6229 48a2 5F5F6100 		.ascii "__a\0"
 6230 48a6 01       		.byte	0x1
 6231 48a7 57       		.byte	0x57
 6232 48a8 0F2E0000 		.long	0x2e0f
 6233 48ac 02       		.uleb128 0x2
 6234 48ad 91       		.byte	0x91
 6235 48ae 00       		.sleb128 0
 6236 48af 00       		.byte	0
 6237 48b0 4D       		.uleb128 0x4d
 6238 48b1 04       		.byte	0x4
 6239 48b2 43350000 		.long	0x3543
 6240 48b6 4D       		.uleb128 0x4d
 6241 48b7 04       		.byte	0x4
 6242 48b8 0F2E0000 		.long	0x2e0f
 6243 48bc 55       		.uleb128 0x55
 6244 48bd 07350000 		.long	0x3507
 6245 48c1 00000000 		.long	LFB633
 6246 48c5 26000000 		.long	LFE633-LFB633
 6247 48c9 01       		.uleb128 0x1
 6248 48ca 9C       		.byte	0x9c
 6249 48cb EC480000 		.long	0x48ec
 6250 48cf 54       		.uleb128 0x54
 6251 48d0 5F5F6100 		.ascii "__a\0"
 6252 48d4 01       		.byte	0x1
 6253 48d5 5B       		.byte	0x5b
 6254 48d6 EC480000 		.long	0x48ec
 6255 48da 02       		.uleb128 0x2
 6256 48db 91       		.byte	0x91
 6257 48dc 00       		.sleb128 0
 6258 48dd 54       		.uleb128 0x54
 6259 48de 5F5F6200 		.ascii "__b\0"
 6260 48e2 01       		.byte	0x1
 6261 48e3 5B       		.byte	0x5b
 6262 48e4 0F2E0000 		.long	0x2e0f
GAS LISTING C:\Users\NJLLMR~1\AppData\Local\Temp\ccqq7oi7.s 			page 158


 6263 48e8 02       		.uleb128 0x2
 6264 48e9 91       		.byte	0x91
 6265 48ea 04       		.sleb128 4
 6266 48eb 00       		.byte	0
 6267 48ec 0F       		.uleb128 0xf
 6268 48ed B6480000 		.long	0x48b6
 6269 48f1 55       		.uleb128 0x55
 6270 48f2 48350000 		.long	0x3548
 6271 48f6 00000000 		.long	LFB634
 6272 48fa 26000000 		.long	LFE634-LFB634
 6273 48fe 01       		.uleb128 0x1
 6274 48ff 9C       		.byte	0x9c
 6275 4900 21490000 		.long	0x4921
 6276 4904 54       		.uleb128 0x54
 6277 4905 5F5F6100 		.ascii "__a\0"
 6278 4909 01       		.byte	0x1
 6279 490a 5F       		.byte	0x5f
 6280 490b 21490000 		.long	0x4921
 6281 490f 02       		.uleb128 0x2
 6282 4910 91       		.byte	0x91
 6283 4911 00       		.sleb128 0
 6284 4912 54       		.uleb128 0x54
 6285 4913 5F5F6200 		.ascii "__b\0"
 6286 4917 01       		.byte	0x1
 6287 4918 5F       		.byte	0x5f
 6288 4919 0F2E0000 		.long	0x2e0f
 6289 491d 02       		.uleb128 0x2
 6290 491e 91       		.byte	0x91
 6291 491f 04       		.sleb128 4
 6292 4920 00       		.byte	0
 6293 4921 0F       		.uleb128 0xf
 6294 4922 B6480000 		.long	0x48b6
 6295 4926 08       		.uleb128 0x8
 6296 4927 04       		.byte	0x4
 6297 4928 43300000 		.long	0x3043
 6298 492c 56       		.uleb128 0x56
 6299 492d D5300000 		.long	0x30d5
 6300 4931 00000000 		.long	LFB661
 6301 4935 5E000000 		.long	LFE661-LFB661
 6302 4939 01       		.uleb128 0x1
 6303 493a 9C       		.byte	0x9c
 6304 493b 43490000 		.long	0x4943
 6305 493f 90490000 		.long	0x4990
 6306 4943 57       		.uleb128 0x57
 6307 4944 7A000000 		.secrel32	LASF31
 6308 4948 90490000 		.long	0x4990
 6309 494c 02       		.uleb128 0x2
 6310 494d 91       		.byte	0x91
 6311 494e 64       		.sleb128 -28
 6312 494f 58       		.uleb128 0x58
 6313 4950 5F5F666D 		.ascii "__fmtfl\0"
 6313      74666C00 
 6314 4958 01       		.byte	0x1
 6315 4959 5302     		.word	0x253
 6316 495b C4300000 		.long	0x30c4
 6317 495f 02       		.uleb128 0x2
 6318 4960 91       		.byte	0x91
GAS LISTING C:\Users\NJLLMR~1\AppData\Local\Temp\ccqq7oi7.s 			page 159


 6319 4961 00       		.sleb128 0
 6320 4962 58       		.uleb128 0x58
 6321 4963 5F5F6D61 		.ascii "__mask\0"
 6321      736B00
 6322 496a 01       		.byte	0x1
 6323 496b 5302     		.word	0x253
 6324 496d C4300000 		.long	0x30c4
 6325 4971 02       		.uleb128 0x2
 6326 4972 91       		.byte	0x91
 6327 4973 04       		.sleb128 4
 6328 4974 59       		.uleb128 0x59
 6329 4975 09000000 		.long	LBB2
 6330 4979 51000000 		.long	LBE2-LBB2
 6331 497d 5A       		.uleb128 0x5a
 6332 497e 5F5F6F6C 		.ascii "__old\0"
 6332      6400
 6333 4984 01       		.byte	0x1
 6334 4985 5502     		.word	0x255
 6335 4987 C4300000 		.long	0x30c4
 6336 498b 02       		.uleb128 0x2
 6337 498c 91       		.byte	0x91
 6338 498d 74       		.sleb128 -12
 6339 498e 00       		.byte	0
 6340 498f 00       		.byte	0
 6341 4990 0F       		.uleb128 0xf
 6342 4991 26490000 		.long	0x4926
 6343 4995 55       		.uleb128 0x55
 6344 4996 84350000 		.long	0x3584
 6345 499a 00000000 		.long	LFB691
 6346 499e 25000000 		.long	LFE691-LFB691
 6347 49a2 01       		.uleb128 0x1
 6348 49a3 9C       		.byte	0x9c
 6349 49a4 BB490000 		.long	0x49bb
 6350 49a8 58       		.uleb128 0x58
 6351 49a9 5F5F6261 		.ascii "__base\0"
 6351      736500
 6352 49b0 01       		.byte	0x1
 6353 49b1 BE03     		.word	0x3be
 6354 49b3 BB490000 		.long	0x49bb
 6355 49b7 02       		.uleb128 0x2
 6356 49b8 91       		.byte	0x91
 6357 49b9 00       		.sleb128 0
 6358 49ba 00       		.byte	0
 6359 49bb 0F       		.uleb128 0xf
 6360 49bc D1450000 		.long	0x45d1
 6361 49c0 53       		.uleb128 0x53
 6362 49c1 B3350000 		.long	0x35b3
 6363 49c5 00000000 		.long	LFB1025
 6364 49c9 08000000 		.long	LFE1025-LFB1025
 6365 49cd 01       		.uleb128 0x1
 6366 49ce 9C       		.byte	0x9c
 6367 49cf E2490000 		.long	0x49e2
 6368 49d3 54       		.uleb128 0x54
 6369 49d4 5F5F6E00 		.ascii "__n\0"
 6370 49d8 02       		.byte	0x2
 6371 49d9 C3       		.byte	0xc3
 6372 49da 87010000 		.long	0x187
GAS LISTING C:\Users\NJLLMR~1\AppData\Local\Temp\ccqq7oi7.s 			page 160


 6373 49de 02       		.uleb128 0x2
 6374 49df 91       		.byte	0x91
 6375 49e0 00       		.sleb128 0
 6376 49e1 00       		.byte	0
 6377 49e2 5B       		.uleb128 0x5b
 6378 49e3 AD460000 		.long	0x46ad
 6379 49e7 03       		.byte	0x3
 6380 49e8 03       		.byte	0x3
 6381 49e9 00       		.byte	0
 6382 49ea F2490000 		.long	0x49f2
 6383 49ee FC490000 		.long	0x49fc
 6384 49f2 5C       		.uleb128 0x5c
 6385 49f3 7A000000 		.secrel32	LASF31
 6386 49f7 FC490000 		.long	0x49fc
 6387 49fb 00       		.byte	0
 6388 49fc 0F       		.uleb128 0xf
 6389 49fd 28480000 		.long	0x4828
 6390 4a01 5D       		.uleb128 0x5d
 6391 4a02 E2490000 		.long	0x49e2
 6392 4a06 5F5A4E38 		.ascii "_ZN8EmployeeC2Ev\0"
 6392      456D706C 
 6392      6F796565 
 6392      43324576 
 6392      00
 6393 4a17 00000000 		.long	LFB1032
 6394 4a1b 20010000 		.long	LFE1032-LFB1032
 6395 4a1f 01       		.uleb128 0x1
 6396 4a20 9C       		.byte	0x9c
 6397 4a21 294A0000 		.long	0x4a29
 6398 4a25 324A0000 		.long	0x4a32
 6399 4a29 5E       		.uleb128 0x5e
 6400 4a2a F2490000 		.long	0x49f2
 6401 4a2e 02       		.uleb128 0x2
 6402 4a2f 91       		.byte	0x91
 6403 4a30 5C       		.sleb128 -36
 6404 4a31 00       		.byte	0
 6405 4a32 5B       		.uleb128 0x5b
 6406 4a33 C3460000 		.long	0x46c3
 6407 4a37 03       		.byte	0x3
 6408 4a38 0B       		.byte	0xb
 6409 4a39 00       		.byte	0
 6410 4a3a 424A0000 		.long	0x4a42
 6411 4a3e 8A4A0000 		.long	0x4a8a
 6412 4a42 5C       		.uleb128 0x5c
 6413 4a43 7A000000 		.secrel32	LASF31
 6414 4a47 FC490000 		.long	0x49fc
 6415 4a4b 5F       		.uleb128 0x5f
 6416 4a4c 6E616D65 		.ascii "name\0"
 6416      00
 6417 4a51 03       		.byte	0x3
 6418 4a52 0B       		.byte	0xb
 6419 4a53 012E0000 		.long	0x2e01
 6420 4a57 5F       		.uleb128 0x5f
 6421 4a58 73736E00 		.ascii "ssn\0"
 6422 4a5c 03       		.byte	0x3
 6423 4a5d 0B       		.byte	0xb
 6424 4a5e 012E0000 		.long	0x2e01
GAS LISTING C:\Users\NJLLMR~1\AppData\Local\Temp\ccqq7oi7.s 			page 161


 6425 4a62 5F       		.uleb128 0x5f
 6426 4a63 73616C61 		.ascii "salary\0"
 6426      727900
 6427 4a6a 03       		.byte	0x3
 6428 4a6b 0B       		.byte	0xb
 6429 4a6c 87010000 		.long	0x187
 6430 4a70 5F       		.uleb128 0x5f
 6431 4a71 6D6F6E74 		.ascii "month\0"
 6431      6800
 6432 4a77 03       		.byte	0x3
 6433 4a78 0B       		.byte	0xb
 6434 4a79 87010000 		.long	0x187
 6435 4a7d 5F       		.uleb128 0x5f
 6436 4a7e 79656172 		.ascii "year\0"
 6436      00
 6437 4a83 03       		.byte	0x3
 6438 4a84 0B       		.byte	0xb
 6439 4a85 87010000 		.long	0x187
 6440 4a89 00       		.byte	0
 6441 4a8a 5D       		.uleb128 0x5d
 6442 4a8b 324A0000 		.long	0x4a32
 6443 4a8f 5F5A4E38 		.ascii "_ZN8EmployeeC2ESsSsiii\0"
 6443      456D706C 
 6443      6F796565 
 6443      43324553 
 6443      73537369 
 6444 4aa6 20010000 		.long	LFB1035
 6445 4aaa 1D010000 		.long	LFE1035-LFB1035
 6446 4aae 01       		.uleb128 0x1
 6447 4aaf 9C       		.byte	0x9c
 6448 4ab0 B84A0000 		.long	0x4ab8
 6449 4ab4 E94A0000 		.long	0x4ae9
 6450 4ab8 5E       		.uleb128 0x5e
 6451 4ab9 424A0000 		.long	0x4a42
 6452 4abd 02       		.uleb128 0x2
 6453 4abe 91       		.byte	0x91
 6454 4abf 5C       		.sleb128 -36
 6455 4ac0 5E       		.uleb128 0x5e
 6456 4ac1 4B4A0000 		.long	0x4a4b
 6457 4ac5 02       		.uleb128 0x2
 6458 4ac6 91       		.byte	0x91
 6459 4ac7 00       		.sleb128 0
 6460 4ac8 5E       		.uleb128 0x5e
 6461 4ac9 574A0000 		.long	0x4a57
 6462 4acd 02       		.uleb128 0x2
 6463 4ace 91       		.byte	0x91
 6464 4acf 04       		.sleb128 4
 6465 4ad0 5E       		.uleb128 0x5e
 6466 4ad1 624A0000 		.long	0x4a62
 6467 4ad5 02       		.uleb128 0x2
 6468 4ad6 91       		.byte	0x91
 6469 4ad7 08       		.sleb128 8
 6470 4ad8 5E       		.uleb128 0x5e
 6471 4ad9 704A0000 		.long	0x4a70
 6472 4add 02       		.uleb128 0x2
 6473 4ade 91       		.byte	0x91
 6474 4adf 0C       		.sleb128 12
GAS LISTING C:\Users\NJLLMR~1\AppData\Local\Temp\ccqq7oi7.s 			page 162


 6475 4ae0 5E       		.uleb128 0x5e
 6476 4ae1 7D4A0000 		.long	0x4a7d
 6477 4ae5 02       		.uleb128 0x2
 6478 4ae6 91       		.byte	0x91
 6479 4ae7 10       		.sleb128 16
 6480 4ae8 00       		.byte	0
 6481 4ae9 5B       		.uleb128 0x5b
 6482 4aea F2460000 		.long	0x46f2
 6483 4aee 03       		.byte	0x3
 6484 4aef 13       		.byte	0x13
 6485 4af0 00       		.byte	0
 6486 4af1 F94A0000 		.long	0x4af9
 6487 4af5 124B0000 		.long	0x4b12
 6488 4af9 5C       		.uleb128 0x5c
 6489 4afa 7A000000 		.secrel32	LASF31
 6490 4afe FC490000 		.long	0x49fc
 6491 4b02 60       		.uleb128 0x60
 6492 4b03 5F5F696E 		.ascii "__in_chrg\0"
 6492      5F636872 
 6492      6700
 6493 4b0d 87450000 		.long	0x4587
 6494 4b11 00       		.byte	0
 6495 4b12 5D       		.uleb128 0x5d
 6496 4b13 E94A0000 		.long	0x4ae9
 6497 4b17 5F5A4E38 		.ascii "_ZN8EmployeeD2Ev\0"
 6497      456D706C 
 6497      6F796565 
 6497      44324576 
 6497      00
 6498 4b28 3E020000 		.long	LFB1038
 6499 4b2c 9E000000 		.long	LFE1038-LFB1038
 6500 4b30 01       		.uleb128 0x1
 6501 4b31 9C       		.byte	0x9c
 6502 4b32 3A4B0000 		.long	0x4b3a
 6503 4b36 434B0000 		.long	0x4b43
 6504 4b3a 5E       		.uleb128 0x5e
 6505 4b3b F94A0000 		.long	0x4af9
 6506 4b3f 02       		.uleb128 0x2
 6507 4b40 91       		.byte	0x91
 6508 4b41 5C       		.sleb128 -36
 6509 4b42 00       		.byte	0
 6510 4b43 61       		.uleb128 0x61
 6511 4b44 13470000 		.long	0x4713
 6512 4b48 03       		.byte	0x3
 6513 4b49 17       		.byte	0x17
 6514 4b4a DC020000 		.long	LFB1040
 6515 4b4e 23000000 		.long	LFE1040-LFB1040
 6516 4b52 01       		.uleb128 0x1
 6517 4b53 9C       		.byte	0x9c
 6518 4b54 5C4B0000 		.long	0x4b5c
 6519 4b58 694B0000 		.long	0x4b69
 6520 4b5c 57       		.uleb128 0x57
 6521 4b5d 7A000000 		.secrel32	LASF31
 6522 4b61 FC490000 		.long	0x49fc
 6523 4b65 02       		.uleb128 0x2
 6524 4b66 91       		.byte	0x91
 6525 4b67 00       		.sleb128 0
GAS LISTING C:\Users\NJLLMR~1\AppData\Local\Temp\ccqq7oi7.s 			page 163


 6526 4b68 00       		.byte	0
 6527 4b69 61       		.uleb128 0x61
 6528 4b6a 4A470000 		.long	0x474a
 6529 4b6e 03       		.byte	0x3
 6530 4b6f 1B       		.byte	0x1b
 6531 4b70 00030000 		.long	LFB1041
 6532 4b74 26000000 		.long	LFE1041-LFB1041
 6533 4b78 01       		.uleb128 0x1
 6534 4b79 9C       		.byte	0x9c
 6535 4b7a 824B0000 		.long	0x4b82
 6536 4b7e 8F4B0000 		.long	0x4b8f
 6537 4b82 57       		.uleb128 0x57
 6538 4b83 7A000000 		.secrel32	LASF31
 6539 4b87 FC490000 		.long	0x49fc
 6540 4b8b 02       		.uleb128 0x2
 6541 4b8c 91       		.byte	0x91
 6542 4b8d 00       		.sleb128 0
 6543 4b8e 00       		.byte	0
 6544 4b8f 62       		.uleb128 0x62
 6545 4b90 7F470000 		.long	0x477f
 6546 4b94 03       		.byte	0x3
 6547 4b95 1F       		.byte	0x1f
 6548 4b96 26030000 		.long	LFB1042
 6549 4b9a 11000000 		.long	LFE1042-LFB1042
 6550 4b9e 01       		.uleb128 0x1
 6551 4b9f 9C       		.byte	0x9c
 6552 4ba0 A84B0000 		.long	0x4ba8
 6553 4ba4 B54B0000 		.long	0x4bb5
 6554 4ba8 57       		.uleb128 0x57
 6555 4ba9 7A000000 		.secrel32	LASF31
 6556 4bad FC490000 		.long	0x49fc
 6557 4bb1 02       		.uleb128 0x2
 6558 4bb2 91       		.byte	0x91
 6559 4bb3 74       		.sleb128 -12
 6560 4bb4 00       		.byte	0
 6561 4bb5 62       		.uleb128 0x62
 6562 4bb6 BB470000 		.long	0x47bb
 6563 4bba 03       		.byte	0x3
 6564 4bbb 23       		.byte	0x23
 6565 4bbc 38030000 		.long	LFB1043
 6566 4bc0 11000000 		.long	LFE1043-LFB1043
 6567 4bc4 01       		.uleb128 0x1
 6568 4bc5 9C       		.byte	0x9c
 6569 4bc6 CE4B0000 		.long	0x4bce
 6570 4bca DB4B0000 		.long	0x4bdb
 6571 4bce 57       		.uleb128 0x57
 6572 4bcf 7A000000 		.secrel32	LASF31
 6573 4bd3 FC490000 		.long	0x49fc
 6574 4bd7 02       		.uleb128 0x2
 6575 4bd8 91       		.byte	0x91
 6576 4bd9 74       		.sleb128 -12
 6577 4bda 00       		.byte	0
 6578 4bdb 62       		.uleb128 0x62
 6579 4bdc F4470000 		.long	0x47f4
 6580 4be0 03       		.byte	0x3
 6581 4be1 27       		.byte	0x27
 6582 4be2 4A030000 		.long	LFB1044
GAS LISTING C:\Users\NJLLMR~1\AppData\Local\Temp\ccqq7oi7.s 			page 164


 6583 4be6 11000000 		.long	LFE1044-LFB1044
 6584 4bea 01       		.uleb128 0x1
 6585 4beb 9C       		.byte	0x9c
 6586 4bec F44B0000 		.long	0x4bf4
 6587 4bf0 014C0000 		.long	0x4c01
 6588 4bf4 57       		.uleb128 0x57
 6589 4bf5 7A000000 		.secrel32	LASF31
 6590 4bf9 FC490000 		.long	0x49fc
 6591 4bfd 02       		.uleb128 0x2
 6592 4bfe 91       		.byte	0x91
 6593 4bff 74       		.sleb128 -12
 6594 4c00 00       		.byte	0
 6595 4c01 63       		.uleb128 0x63
 6596 4c02 6F706572 		.ascii "operator<<\0"
 6596      61746F72 
 6596      3C3C00
 6597 4c0d 03       		.byte	0x3
 6598 4c0e 2B       		.byte	0x2b
 6599 4c0f 5F5A6C73 		.ascii "_ZlsRSoR8Employee\0"
 6599      52536F52 
 6599      38456D70 
 6599      6C6F7965 
 6599      6500
 6600 4c21 504C0000 		.long	0x4c50
 6601 4c25 5B030000 		.long	LFB1045
 6602 4c29 AD010000 		.long	LFE1045-LFB1045
 6603 4c2d 01       		.uleb128 0x1
 6604 4c2e 9C       		.byte	0x9c
 6605 4c2f 504C0000 		.long	0x4c50
 6606 4c33 54       		.uleb128 0x54
 6607 4c34 6F757400 		.ascii "out\0"
 6608 4c38 03       		.byte	0x3
 6609 4c39 2B       		.byte	0x2b
 6610 4c3a 564C0000 		.long	0x4c56
 6611 4c3e 02       		.uleb128 0x2
 6612 4c3f 91       		.byte	0x91
 6613 4c40 00       		.sleb128 0
 6614 4c41 64       		.uleb128 0x64
 6615 4c42 88000000 		.secrel32	LASF32
 6616 4c46 03       		.byte	0x3
 6617 4c47 2B       		.byte	0x2b
 6618 4c48 5B4C0000 		.long	0x4c5b
 6619 4c4c 02       		.uleb128 0x2
 6620 4c4d 91       		.byte	0x91
 6621 4c4e 04       		.sleb128 4
 6622 4c4f 00       		.byte	0
 6623 4c50 4D       		.uleb128 0x4d
 6624 4c51 04       		.byte	0x4
 6625 4c52 E5350000 		.long	0x35e5
 6626 4c56 0F       		.uleb128 0xf
 6627 4c57 504C0000 		.long	0x4c50
 6628 4c5b 0F       		.uleb128 0xf
 6629 4c5c 604C0000 		.long	0x4c60
 6630 4c60 4D       		.uleb128 0x4d
 6631 4c61 04       		.byte	0x4
 6632 4c62 59460000 		.long	0x4659
 6633 4c66 63       		.uleb128 0x63
GAS LISTING C:\Users\NJLLMR~1\AppData\Local\Temp\ccqq7oi7.s 			page 165


 6634 4c67 6F706572 		.ascii "operator>>\0"
 6634      61746F72 
 6634      3E3E00
 6635 4c72 03       		.byte	0x3
 6636 4c73 3A       		.byte	0x3a
 6637 4c74 5F5A7273 		.ascii "_ZrsRSiR8Employee\0"
 6637      52536952 
 6637      38456D70 
 6637      6C6F7965 
 6637      6500
 6638 4c86 B44C0000 		.long	0x4cb4
 6639 4c8a 08050000 		.long	LFB1046
 6640 4c8e D2000000 		.long	LFE1046-LFB1046
 6641 4c92 01       		.uleb128 0x1
 6642 4c93 9C       		.byte	0x9c
 6643 4c94 B44C0000 		.long	0x4cb4
 6644 4c98 54       		.uleb128 0x54
 6645 4c99 696E00   		.ascii "in\0"
 6646 4c9c 03       		.byte	0x3
 6647 4c9d 3A       		.byte	0x3a
 6648 4c9e BA4C0000 		.long	0x4cba
 6649 4ca2 02       		.uleb128 0x2
 6650 4ca3 91       		.byte	0x91
 6651 4ca4 00       		.sleb128 0
 6652 4ca5 64       		.uleb128 0x64
 6653 4ca6 88000000 		.secrel32	LASF32
 6654 4caa 03       		.byte	0x3
 6655 4cab 3A       		.byte	0x3a
 6656 4cac BF4C0000 		.long	0x4cbf
 6657 4cb0 02       		.uleb128 0x2
 6658 4cb1 91       		.byte	0x91
 6659 4cb2 04       		.sleb128 4
 6660 4cb3 00       		.byte	0
 6661 4cb4 4D       		.uleb128 0x4d
 6662 4cb5 04       		.byte	0x4
 6663 4cb6 F4350000 		.long	0x35f4
 6664 4cba 0F       		.uleb128 0xf
 6665 4cbb B44C0000 		.long	0x4cb4
 6666 4cbf 0F       		.uleb128 0xf
 6667 4cc0 604C0000 		.long	0x4c60
 6668 4cc4 65       		.uleb128 0x65
 6669 4cc5 5F5F7463 		.ascii "__tcf_0\0"
 6669      665F3000 
 6670 4ccd DA050000 		.long	LFB1098
 6671 4cd1 12000000 		.long	LFE1098-LFB1098
 6672 4cd5 01       		.uleb128 0x1
 6673 4cd6 9C       		.byte	0x9c
 6674 4cd7 66       		.uleb128 0x66
 6675 4cd8 5F5F7374 		.ascii "__static_initialization_and_destruction_0\0"
 6675      61746963 
 6675      5F696E69 
 6675      7469616C 
 6675      697A6174 
 6676 4d02 EC050000 		.long	LFB1097
 6677 4d06 2D000000 		.long	LFE1097-LFB1097
 6678 4d0a 01       		.uleb128 0x1
 6679 4d0b 9C       		.byte	0x9c
GAS LISTING C:\Users\NJLLMR~1\AppData\Local\Temp\ccqq7oi7.s 			page 166


 6680 4d0c 3F4D0000 		.long	0x4d3f
 6681 4d10 54       		.uleb128 0x54
 6682 4d11 5F5F696E 		.ascii "__initialize_p\0"
 6682      69746961 
 6682      6C697A65 
 6682      5F7000
 6683 4d20 03       		.byte	0x3
 6684 4d21 47       		.byte	0x47
 6685 4d22 87010000 		.long	0x187
 6686 4d26 02       		.uleb128 0x2
 6687 4d27 91       		.byte	0x91
 6688 4d28 00       		.sleb128 0
 6689 4d29 54       		.uleb128 0x54
 6690 4d2a 5F5F7072 		.ascii "__priority\0"
 6690      696F7269 
 6690      747900
 6691 4d35 03       		.byte	0x3
 6692 4d36 47       		.byte	0x47
 6693 4d37 87010000 		.long	0x187
 6694 4d3b 02       		.uleb128 0x2
 6695 4d3c 91       		.byte	0x91
 6696 4d3d 04       		.sleb128 4
 6697 4d3e 00       		.byte	0
 6698 4d3f 65       		.uleb128 0x65
 6699 4d40 5F474C4F 		.ascii "_GLOBAL__sub_I__ZN8EmployeeC2Ev\0"
 6699      42414C5F 
 6699      5F737562 
 6699      5F495F5F 
 6699      5A4E3845 
 6700 4d60 19060000 		.long	LFB1099
 6701 4d64 1C000000 		.long	LFE1099-LFB1099
 6702 4d68 01       		.uleb128 0x1
 6703 4d69 9C       		.byte	0x9c
 6704 4d6a 67       		.uleb128 0x67
 6705 4d6b 19360000 		.long	0x3619
 6706 4d6f 05       		.uleb128 0x5
 6707 4d70 03       		.byte	0x3
 6708 4d71 00000000 		.long	__ZStL8__ioinit
 6709 4d75 68       		.uleb128 0x68
 6710 4d76 8C400000 		.long	0x408c
 6711 4d7a 5F5A4E39 		.ascii "_ZN9__gnu_cxx24__numeric_traits_integerIiE5__minE\0"
 6711      5F5F676E 
 6711      755F6378 
 6711      7832345F 
 6711      5F6E756D 
 6712 4dac 80808080 		.sleb128 -2147483648
 6712      78
 6713 4db1 69       		.uleb128 0x69
 6714 4db2 97400000 		.long	0x4097
 6715 4db6 5F5A4E39 		.ascii "_ZN9__gnu_cxx24__numeric_traits_integerIiE5__maxE\0"
 6715      5F5F676E 
 6715      755F6378 
 6715      7832345F 
 6715      5F6E756D 
 6716 4de8 FFFFFF7F 		.long	0x7fffffff
 6717 4dec 6A       		.uleb128 0x6a
 6718 4ded E3410000 		.long	0x41e3
GAS LISTING C:\Users\NJLLMR~1\AppData\Local\Temp\ccqq7oi7.s 			page 167


 6719 4df1 5F5A4E39 		.ascii "_ZN9__gnu_cxx24__numeric_traits_integerImE8__digitsE\0"
 6719      5F5F676E 
 6719      755F6378 
 6719      7832345F 
 6719      5F6E756D 
 6720 4e26 20       		.byte	0x20
 6721 4e27 6A       		.uleb128 0x6a
 6722 4e28 2A420000 		.long	0x422a
 6723 4e2c 5F5A4E39 		.ascii "_ZN9__gnu_cxx24__numeric_traits_integerIcE5__maxE\0"
 6723      5F5F676E 
 6723      755F6378 
 6723      7832345F 
 6723      5F6E756D 
 6724 4e5e 7F       		.byte	0x7f
 6725 4e5f 68       		.uleb128 0x68
 6726 4e60 7D420000 		.long	0x427d
 6727 4e64 5F5A4E39 		.ascii "_ZN9__gnu_cxx24__numeric_traits_integerIsE5__minE\0"
 6727      5F5F676E 
 6727      755F6378 
 6727      7832345F 
 6727      5F6E756D 
 6728 4e96 80807E   		.sleb128 -32768
 6729 4e99 6B       		.uleb128 0x6b
 6730 4e9a 88420000 		.long	0x4288
 6731 4e9e 5F5A4E39 		.ascii "_ZN9__gnu_cxx24__numeric_traits_integerIsE5__maxE\0"
 6731      5F5F676E 
 6731      755F6378 
 6731      7832345F 
 6731      5F6E756D 
 6732 4ed0 FF7F     		.word	0x7fff
 6733 4ed2 00       		.byte	0
 6734              		.section	.debug_abbrev,"dr"
 6735              	Ldebug_abbrev0:
 6736 0000 01       		.uleb128 0x1
 6737 0001 11       		.uleb128 0x11
 6738 0002 01       		.byte	0x1
 6739 0003 25       		.uleb128 0x25
 6740 0004 08       		.uleb128 0x8
 6741 0005 13       		.uleb128 0x13
 6742 0006 0B       		.uleb128 0xb
 6743 0007 03       		.uleb128 0x3
 6744 0008 08       		.uleb128 0x8
 6745 0009 1B       		.uleb128 0x1b
 6746 000a 08       		.uleb128 0x8
 6747 000b 55       		.uleb128 0x55
 6748 000c 17       		.uleb128 0x17
 6749 000d 11       		.uleb128 0x11
 6750 000e 01       		.uleb128 0x1
 6751 000f 10       		.uleb128 0x10
 6752 0010 17       		.uleb128 0x17
 6753 0011 00       		.byte	0
 6754 0012 00       		.byte	0
 6755 0013 02       		.uleb128 0x2
 6756 0014 16       		.uleb128 0x16
 6757 0015 00       		.byte	0
 6758 0016 03       		.uleb128 0x3
 6759 0017 08       		.uleb128 0x8
GAS LISTING C:\Users\NJLLMR~1\AppData\Local\Temp\ccqq7oi7.s 			page 168


 6760 0018 3A       		.uleb128 0x3a
 6761 0019 0B       		.uleb128 0xb
 6762 001a 3B       		.uleb128 0x3b
 6763 001b 0B       		.uleb128 0xb
 6764 001c 49       		.uleb128 0x49
 6765 001d 13       		.uleb128 0x13
 6766 001e 00       		.byte	0
 6767 001f 00       		.byte	0
 6768 0020 03       		.uleb128 0x3
 6769 0021 24       		.uleb128 0x24
 6770 0022 00       		.byte	0
 6771 0023 0B       		.uleb128 0xb
 6772 0024 0B       		.uleb128 0xb
 6773 0025 3E       		.uleb128 0x3e
 6774 0026 0B       		.uleb128 0xb
 6775 0027 03       		.uleb128 0x3
 6776 0028 08       		.uleb128 0x8
 6777 0029 00       		.byte	0
 6778 002a 00       		.byte	0
 6779 002b 04       		.uleb128 0x4
 6780 002c 16       		.uleb128 0x16
 6781 002d 00       		.byte	0
 6782 002e 03       		.uleb128 0x3
 6783 002f 08       		.uleb128 0x8
 6784 0030 3A       		.uleb128 0x3a
 6785 0031 0B       		.uleb128 0xb
 6786 0032 3B       		.uleb128 0x3b
 6787 0033 05       		.uleb128 0x5
 6788 0034 49       		.uleb128 0x49
 6789 0035 13       		.uleb128 0x13
 6790 0036 00       		.byte	0
 6791 0037 00       		.byte	0
 6792 0038 05       		.uleb128 0x5
 6793 0039 0F       		.uleb128 0xf
 6794 003a 00       		.byte	0
 6795 003b 0B       		.uleb128 0xb
 6796 003c 0B       		.uleb128 0xb
 6797 003d 03       		.uleb128 0x3
 6798 003e 08       		.uleb128 0x8
 6799 003f 49       		.uleb128 0x49
 6800 0040 13       		.uleb128 0x13
 6801 0041 00       		.byte	0
 6802 0042 00       		.byte	0
 6803 0043 06       		.uleb128 0x6
 6804 0044 13       		.uleb128 0x13
 6805 0045 01       		.byte	0x1
 6806 0046 03       		.uleb128 0x3
 6807 0047 08       		.uleb128 0x8
 6808 0048 0B       		.uleb128 0xb
 6809 0049 0B       		.uleb128 0xb
 6810 004a 3A       		.uleb128 0x3a
 6811 004b 0B       		.uleb128 0xb
 6812 004c 3B       		.uleb128 0x3b
 6813 004d 0B       		.uleb128 0xb
 6814 004e 01       		.uleb128 0x1
 6815 004f 13       		.uleb128 0x13
 6816 0050 00       		.byte	0
GAS LISTING C:\Users\NJLLMR~1\AppData\Local\Temp\ccqq7oi7.s 			page 169


 6817 0051 00       		.byte	0
 6818 0052 07       		.uleb128 0x7
 6819 0053 0D       		.uleb128 0xd
 6820 0054 00       		.byte	0
 6821 0055 03       		.uleb128 0x3
 6822 0056 08       		.uleb128 0x8
 6823 0057 3A       		.uleb128 0x3a
 6824 0058 0B       		.uleb128 0xb
 6825 0059 3B       		.uleb128 0x3b
 6826 005a 0B       		.uleb128 0xb
 6827 005b 49       		.uleb128 0x49
 6828 005c 13       		.uleb128 0x13
 6829 005d 38       		.uleb128 0x38
 6830 005e 0B       		.uleb128 0xb
 6831 005f 00       		.byte	0
 6832 0060 00       		.byte	0
 6833 0061 08       		.uleb128 0x8
 6834 0062 0F       		.uleb128 0xf
 6835 0063 00       		.byte	0
 6836 0064 0B       		.uleb128 0xb
 6837 0065 0B       		.uleb128 0xb
 6838 0066 49       		.uleb128 0x49
 6839 0067 13       		.uleb128 0x13
 6840 0068 00       		.byte	0
 6841 0069 00       		.byte	0
 6842 006a 09       		.uleb128 0x9
 6843 006b 39       		.uleb128 0x39
 6844 006c 01       		.byte	0x1
 6845 006d 03       		.uleb128 0x3
 6846 006e 08       		.uleb128 0x8
 6847 006f 3A       		.uleb128 0x3a
 6848 0070 0B       		.uleb128 0xb
 6849 0071 3B       		.uleb128 0x3b
 6850 0072 0B       		.uleb128 0xb
 6851 0073 01       		.uleb128 0x1
 6852 0074 13       		.uleb128 0x13
 6853 0075 00       		.byte	0
 6854 0076 00       		.byte	0
 6855 0077 0A       		.uleb128 0xa
 6856 0078 08       		.uleb128 0x8
 6857 0079 00       		.byte	0
 6858 007a 3A       		.uleb128 0x3a
 6859 007b 0B       		.uleb128 0xb
 6860 007c 3B       		.uleb128 0x3b
 6861 007d 0B       		.uleb128 0xb
 6862 007e 18       		.uleb128 0x18
 6863 007f 13       		.uleb128 0x13
 6864 0080 00       		.byte	0
 6865 0081 00       		.byte	0
 6866 0082 0B       		.uleb128 0xb
 6867 0083 08       		.uleb128 0x8
 6868 0084 00       		.byte	0
 6869 0085 3A       		.uleb128 0x3a
 6870 0086 0B       		.uleb128 0xb
 6871 0087 3B       		.uleb128 0x3b
 6872 0088 05       		.uleb128 0x5
 6873 0089 18       		.uleb128 0x18
GAS LISTING C:\Users\NJLLMR~1\AppData\Local\Temp\ccqq7oi7.s 			page 170


 6874 008a 13       		.uleb128 0x13
 6875 008b 00       		.byte	0
 6876 008c 00       		.byte	0
 6877 008d 0C       		.uleb128 0xc
 6878 008e 39       		.uleb128 0x39
 6879 008f 00       		.byte	0
 6880 0090 03       		.uleb128 0x3
 6881 0091 08       		.uleb128 0x8
 6882 0092 3A       		.uleb128 0x3a
 6883 0093 0B       		.uleb128 0xb
 6884 0094 3B       		.uleb128 0x3b
 6885 0095 0B       		.uleb128 0xb
 6886 0096 00       		.byte	0
 6887 0097 00       		.byte	0
 6888 0098 0D       		.uleb128 0xd
 6889 0099 2E       		.uleb128 0x2e
 6890 009a 01       		.byte	0x1
 6891 009b 3F       		.uleb128 0x3f
 6892 009c 19       		.uleb128 0x19
 6893 009d 03       		.uleb128 0x3
 6894 009e 0E       		.uleb128 0xe
 6895 009f 3A       		.uleb128 0x3a
 6896 00a0 0B       		.uleb128 0xb
 6897 00a1 3B       		.uleb128 0x3b
 6898 00a2 0B       		.uleb128 0xb
 6899 00a3 6E       		.uleb128 0x6e
 6900 00a4 08       		.uleb128 0x8
 6901 00a5 3C       		.uleb128 0x3c
 6902 00a6 19       		.uleb128 0x19
 6903 00a7 01       		.uleb128 0x1
 6904 00a8 13       		.uleb128 0x13
 6905 00a9 00       		.byte	0
 6906 00aa 00       		.byte	0
 6907 00ab 0E       		.uleb128 0xe
 6908 00ac 05       		.uleb128 0x5
 6909 00ad 00       		.byte	0
 6910 00ae 49       		.uleb128 0x49
 6911 00af 13       		.uleb128 0x13
 6912 00b0 00       		.byte	0
 6913 00b1 00       		.byte	0
 6914 00b2 0F       		.uleb128 0xf
 6915 00b3 26       		.uleb128 0x26
 6916 00b4 00       		.byte	0
 6917 00b5 49       		.uleb128 0x49
 6918 00b6 13       		.uleb128 0x13
 6919 00b7 00       		.byte	0
 6920 00b8 00       		.byte	0
 6921 00b9 10       		.uleb128 0x10
 6922 00ba 2E       		.uleb128 0x2e
 6923 00bb 01       		.byte	0x1
 6924 00bc 3F       		.uleb128 0x3f
 6925 00bd 19       		.uleb128 0x19
 6926 00be 03       		.uleb128 0x3
 6927 00bf 08       		.uleb128 0x8
 6928 00c0 3A       		.uleb128 0x3a
 6929 00c1 0B       		.uleb128 0xb
 6930 00c2 3B       		.uleb128 0x3b
GAS LISTING C:\Users\NJLLMR~1\AppData\Local\Temp\ccqq7oi7.s 			page 171


 6931 00c3 0B       		.uleb128 0xb
 6932 00c4 6E       		.uleb128 0x6e
 6933 00c5 08       		.uleb128 0x8
 6934 00c6 49       		.uleb128 0x49
 6935 00c7 13       		.uleb128 0x13
 6936 00c8 3C       		.uleb128 0x3c
 6937 00c9 19       		.uleb128 0x19
 6938 00ca 01       		.uleb128 0x1
 6939 00cb 13       		.uleb128 0x13
 6940 00cc 00       		.byte	0
 6941 00cd 00       		.byte	0
 6942 00ce 11       		.uleb128 0x11
 6943 00cf 2E       		.uleb128 0x2e
 6944 00d0 01       		.byte	0x1
 6945 00d1 3F       		.uleb128 0x3f
 6946 00d2 19       		.uleb128 0x19
 6947 00d3 03       		.uleb128 0x3
 6948 00d4 0E       		.uleb128 0xe
 6949 00d5 3A       		.uleb128 0x3a
 6950 00d6 0B       		.uleb128 0xb
 6951 00d7 3B       		.uleb128 0x3b
 6952 00d8 05       		.uleb128 0x5
 6953 00d9 6E       		.uleb128 0x6e
 6954 00da 08       		.uleb128 0x8
 6955 00db 49       		.uleb128 0x49
 6956 00dc 13       		.uleb128 0x13
 6957 00dd 3C       		.uleb128 0x3c
 6958 00de 19       		.uleb128 0x19
 6959 00df 01       		.uleb128 0x1
 6960 00e0 13       		.uleb128 0x13
 6961 00e1 00       		.byte	0
 6962 00e2 00       		.byte	0
 6963 00e3 12       		.uleb128 0x12
 6964 00e4 2E       		.uleb128 0x2e
 6965 00e5 01       		.byte	0x1
 6966 00e6 3F       		.uleb128 0x3f
 6967 00e7 19       		.uleb128 0x19
 6968 00e8 03       		.uleb128 0x3
 6969 00e9 08       		.uleb128 0x8
 6970 00ea 3A       		.uleb128 0x3a
 6971 00eb 0B       		.uleb128 0xb
 6972 00ec 3B       		.uleb128 0x3b
 6973 00ed 05       		.uleb128 0x5
 6974 00ee 6E       		.uleb128 0x6e
 6975 00ef 08       		.uleb128 0x8
 6976 00f0 49       		.uleb128 0x49
 6977 00f1 13       		.uleb128 0x13
 6978 00f2 3C       		.uleb128 0x3c
 6979 00f3 19       		.uleb128 0x19
 6980 00f4 01       		.uleb128 0x1
 6981 00f5 13       		.uleb128 0x13
 6982 00f6 00       		.byte	0
 6983 00f7 00       		.byte	0
 6984 00f8 13       		.uleb128 0x13
 6985 00f9 2E       		.uleb128 0x2e
 6986 00fa 00       		.byte	0
 6987 00fb 3F       		.uleb128 0x3f
GAS LISTING C:\Users\NJLLMR~1\AppData\Local\Temp\ccqq7oi7.s 			page 172


 6988 00fc 19       		.uleb128 0x19
 6989 00fd 03       		.uleb128 0x3
 6990 00fe 08       		.uleb128 0x8
 6991 00ff 3A       		.uleb128 0x3a
 6992 0100 0B       		.uleb128 0xb
 6993 0101 3B       		.uleb128 0x3b
 6994 0102 05       		.uleb128 0x5
 6995 0103 6E       		.uleb128 0x6e
 6996 0104 08       		.uleb128 0x8
 6997 0105 49       		.uleb128 0x49
 6998 0106 13       		.uleb128 0x13
 6999 0107 3C       		.uleb128 0x3c
 7000 0108 19       		.uleb128 0x19
 7001 0109 00       		.byte	0
 7002 010a 00       		.byte	0
 7003 010b 14       		.uleb128 0x14
 7004 010c 2E       		.uleb128 0x2e
 7005 010d 01       		.byte	0x1
 7006 010e 3F       		.uleb128 0x3f
 7007 010f 19       		.uleb128 0x19
 7008 0110 03       		.uleb128 0x3
 7009 0111 08       		.uleb128 0x8
 7010 0112 3A       		.uleb128 0x3a
 7011 0113 0B       		.uleb128 0xb
 7012 0114 3B       		.uleb128 0x3b
 7013 0115 05       		.uleb128 0x5
 7014 0116 6E       		.uleb128 0x6e
 7015 0117 08       		.uleb128 0x8
 7016 0118 49       		.uleb128 0x49
 7017 0119 13       		.uleb128 0x13
 7018 011a 3C       		.uleb128 0x3c
 7019 011b 19       		.uleb128 0x19
 7020 011c 00       		.byte	0
 7021 011d 00       		.byte	0
 7022 011e 15       		.uleb128 0x15
 7023 011f 02       		.uleb128 0x2
 7024 0120 01       		.byte	0x1
 7025 0121 03       		.uleb128 0x3
 7026 0122 08       		.uleb128 0x8
 7027 0123 0B       		.uleb128 0xb
 7028 0124 0B       		.uleb128 0xb
 7029 0125 3A       		.uleb128 0x3a
 7030 0126 0B       		.uleb128 0xb
 7031 0127 3B       		.uleb128 0x3b
 7032 0128 0B       		.uleb128 0xb
 7033 0129 01       		.uleb128 0x1
 7034 012a 13       		.uleb128 0x13
 7035 012b 00       		.byte	0
 7036 012c 00       		.byte	0
 7037 012d 16       		.uleb128 0x16
 7038 012e 1C       		.uleb128 0x1c
 7039 012f 00       		.byte	0
 7040 0130 49       		.uleb128 0x49
 7041 0131 13       		.uleb128 0x13
 7042 0132 38       		.uleb128 0x38
 7043 0133 0B       		.uleb128 0xb
 7044 0134 32       		.uleb128 0x32
GAS LISTING C:\Users\NJLLMR~1\AppData\Local\Temp\ccqq7oi7.s 			page 173


 7045 0135 0B       		.uleb128 0xb
 7046 0136 00       		.byte	0
 7047 0137 00       		.byte	0
 7048 0138 17       		.uleb128 0x17
 7049 0139 16       		.uleb128 0x16
 7050 013a 00       		.byte	0
 7051 013b 03       		.uleb128 0x3
 7052 013c 0E       		.uleb128 0xe
 7053 013d 3A       		.uleb128 0x3a
 7054 013e 0B       		.uleb128 0xb
 7055 013f 3B       		.uleb128 0x3b
 7056 0140 0B       		.uleb128 0xb
 7057 0141 49       		.uleb128 0x49
 7058 0142 13       		.uleb128 0x13
 7059 0143 32       		.uleb128 0x32
 7060 0144 0B       		.uleb128 0xb
 7061 0145 00       		.byte	0
 7062 0146 00       		.byte	0
 7063 0147 18       		.uleb128 0x18
 7064 0148 2E       		.uleb128 0x2e
 7065 0149 01       		.byte	0x1
 7066 014a 3F       		.uleb128 0x3f
 7067 014b 19       		.uleb128 0x19
 7068 014c 03       		.uleb128 0x3
 7069 014d 0E       		.uleb128 0xe
 7070 014e 3A       		.uleb128 0x3a
 7071 014f 0B       		.uleb128 0xb
 7072 0150 3B       		.uleb128 0x3b
 7073 0151 0B       		.uleb128 0xb
 7074 0152 32       		.uleb128 0x32
 7075 0153 0B       		.uleb128 0xb
 7076 0154 3C       		.uleb128 0x3c
 7077 0155 19       		.uleb128 0x19
 7078 0156 64       		.uleb128 0x64
 7079 0157 13       		.uleb128 0x13
 7080 0158 01       		.uleb128 0x1
 7081 0159 13       		.uleb128 0x13
 7082 015a 00       		.byte	0
 7083 015b 00       		.byte	0
 7084 015c 19       		.uleb128 0x19
 7085 015d 05       		.uleb128 0x5
 7086 015e 00       		.byte	0
 7087 015f 49       		.uleb128 0x49
 7088 0160 13       		.uleb128 0x13
 7089 0161 34       		.uleb128 0x34
 7090 0162 19       		.uleb128 0x19
 7091 0163 00       		.byte	0
 7092 0164 00       		.byte	0
 7093 0165 1A       		.uleb128 0x1a
 7094 0166 2E       		.uleb128 0x2e
 7095 0167 01       		.byte	0x1
 7096 0168 3F       		.uleb128 0x3f
 7097 0169 19       		.uleb128 0x19
 7098 016a 03       		.uleb128 0x3
 7099 016b 08       		.uleb128 0x8
 7100 016c 3A       		.uleb128 0x3a
 7101 016d 0B       		.uleb128 0xb
GAS LISTING C:\Users\NJLLMR~1\AppData\Local\Temp\ccqq7oi7.s 			page 174


 7102 016e 3B       		.uleb128 0x3b
 7103 016f 0B       		.uleb128 0xb
 7104 0170 32       		.uleb128 0x32
 7105 0171 0B       		.uleb128 0xb
 7106 0172 3C       		.uleb128 0x3c
 7107 0173 19       		.uleb128 0x19
 7108 0174 64       		.uleb128 0x64
 7109 0175 13       		.uleb128 0x13
 7110 0176 00       		.byte	0
 7111 0177 00       		.byte	0
 7112 0178 1B       		.uleb128 0x1b
 7113 0179 13       		.uleb128 0x13
 7114 017a 01       		.byte	0x1
 7115 017b 03       		.uleb128 0x3
 7116 017c 0E       		.uleb128 0xe
 7117 017d 0B       		.uleb128 0xb
 7118 017e 0B       		.uleb128 0xb
 7119 017f 3A       		.uleb128 0x3a
 7120 0180 0B       		.uleb128 0xb
 7121 0181 3B       		.uleb128 0x3b
 7122 0182 05       		.uleb128 0x5
 7123 0183 01       		.uleb128 0x1
 7124 0184 13       		.uleb128 0x13
 7125 0185 00       		.byte	0
 7126 0186 00       		.byte	0
 7127 0187 1C       		.uleb128 0x1c
 7128 0188 1C       		.uleb128 0x1c
 7129 0189 00       		.byte	0
 7130 018a 49       		.uleb128 0x49
 7131 018b 13       		.uleb128 0x13
 7132 018c 38       		.uleb128 0x38
 7133 018d 0B       		.uleb128 0xb
 7134 018e 00       		.byte	0
 7135 018f 00       		.byte	0
 7136 0190 1D       		.uleb128 0x1d
 7137 0191 0D       		.uleb128 0xd
 7138 0192 00       		.byte	0
 7139 0193 03       		.uleb128 0x3
 7140 0194 08       		.uleb128 0x8
 7141 0195 3A       		.uleb128 0x3a
 7142 0196 0B       		.uleb128 0xb
 7143 0197 3B       		.uleb128 0x3b
 7144 0198 05       		.uleb128 0x5
 7145 0199 49       		.uleb128 0x49
 7146 019a 13       		.uleb128 0x13
 7147 019b 38       		.uleb128 0x38
 7148 019c 0B       		.uleb128 0xb
 7149 019d 00       		.byte	0
 7150 019e 00       		.byte	0
 7151 019f 1E       		.uleb128 0x1e
 7152 01a0 2E       		.uleb128 0x2e
 7153 01a1 01       		.byte	0x1
 7154 01a2 3F       		.uleb128 0x3f
 7155 01a3 19       		.uleb128 0x19
 7156 01a4 03       		.uleb128 0x3
 7157 01a5 0E       		.uleb128 0xe
 7158 01a6 3A       		.uleb128 0x3a
GAS LISTING C:\Users\NJLLMR~1\AppData\Local\Temp\ccqq7oi7.s 			page 175


 7159 01a7 0B       		.uleb128 0xb
 7160 01a8 3B       		.uleb128 0x3b
 7161 01a9 05       		.uleb128 0x5
 7162 01aa 3C       		.uleb128 0x3c
 7163 01ab 19       		.uleb128 0x19
 7164 01ac 64       		.uleb128 0x64
 7165 01ad 13       		.uleb128 0x13
 7166 01ae 00       		.byte	0
 7167 01af 00       		.byte	0
 7168 01b0 1F       		.uleb128 0x1f
 7169 01b1 0D       		.uleb128 0xd
 7170 01b2 00       		.byte	0
 7171 01b3 03       		.uleb128 0x3
 7172 01b4 08       		.uleb128 0x8
 7173 01b5 3A       		.uleb128 0x3a
 7174 01b6 0B       		.uleb128 0xb
 7175 01b7 3B       		.uleb128 0x3b
 7176 01b8 05       		.uleb128 0x5
 7177 01b9 49       		.uleb128 0x49
 7178 01ba 13       		.uleb128 0x13
 7179 01bb 3F       		.uleb128 0x3f
 7180 01bc 19       		.uleb128 0x19
 7181 01bd 32       		.uleb128 0x32
 7182 01be 0B       		.uleb128 0xb
 7183 01bf 3C       		.uleb128 0x3c
 7184 01c0 19       		.uleb128 0x19
 7185 01c1 00       		.byte	0
 7186 01c2 00       		.byte	0
 7187 01c3 20       		.uleb128 0x20
 7188 01c4 16       		.uleb128 0x16
 7189 01c5 00       		.byte	0
 7190 01c6 03       		.uleb128 0x3
 7191 01c7 08       		.uleb128 0x8
 7192 01c8 3A       		.uleb128 0x3a
 7193 01c9 0B       		.uleb128 0xb
 7194 01ca 3B       		.uleb128 0x3b
 7195 01cb 0B       		.uleb128 0xb
 7196 01cc 49       		.uleb128 0x49
 7197 01cd 13       		.uleb128 0x13
 7198 01ce 32       		.uleb128 0x32
 7199 01cf 0B       		.uleb128 0xb
 7200 01d0 00       		.byte	0
 7201 01d1 00       		.byte	0
 7202 01d2 21       		.uleb128 0x21
 7203 01d3 0D       		.uleb128 0xd
 7204 01d4 00       		.byte	0
 7205 01d5 03       		.uleb128 0x3
 7206 01d6 08       		.uleb128 0x8
 7207 01d7 3A       		.uleb128 0x3a
 7208 01d8 0B       		.uleb128 0xb
 7209 01d9 3B       		.uleb128 0x3b
 7210 01da 0B       		.uleb128 0xb
 7211 01db 49       		.uleb128 0x49
 7212 01dc 13       		.uleb128 0x13
 7213 01dd 3F       		.uleb128 0x3f
 7214 01de 19       		.uleb128 0x19
 7215 01df 3C       		.uleb128 0x3c
GAS LISTING C:\Users\NJLLMR~1\AppData\Local\Temp\ccqq7oi7.s 			page 176


 7216 01e0 19       		.uleb128 0x19
 7217 01e1 00       		.byte	0
 7218 01e2 00       		.byte	0
 7219 01e3 22       		.uleb128 0x22
 7220 01e4 2E       		.uleb128 0x2e
 7221 01e5 00       		.byte	0
 7222 01e6 3F       		.uleb128 0x3f
 7223 01e7 19       		.uleb128 0x19
 7224 01e8 03       		.uleb128 0x3
 7225 01e9 0E       		.uleb128 0xe
 7226 01ea 3A       		.uleb128 0x3a
 7227 01eb 0B       		.uleb128 0xb
 7228 01ec 3B       		.uleb128 0x3b
 7229 01ed 0B       		.uleb128 0xb
 7230 01ee 6E       		.uleb128 0x6e
 7231 01ef 08       		.uleb128 0x8
 7232 01f0 49       		.uleb128 0x49
 7233 01f1 13       		.uleb128 0x13
 7234 01f2 3C       		.uleb128 0x3c
 7235 01f3 19       		.uleb128 0x19
 7236 01f4 00       		.byte	0
 7237 01f5 00       		.byte	0
 7238 01f6 23       		.uleb128 0x23
 7239 01f7 2E       		.uleb128 0x2e
 7240 01f8 01       		.byte	0x1
 7241 01f9 3F       		.uleb128 0x3f
 7242 01fa 19       		.uleb128 0x19
 7243 01fb 03       		.uleb128 0x3
 7244 01fc 08       		.uleb128 0x8
 7245 01fd 3A       		.uleb128 0x3a
 7246 01fe 0B       		.uleb128 0xb
 7247 01ff 3B       		.uleb128 0x3b
 7248 0200 0B       		.uleb128 0xb
 7249 0201 6E       		.uleb128 0x6e
 7250 0202 08       		.uleb128 0x8
 7251 0203 49       		.uleb128 0x49
 7252 0204 13       		.uleb128 0x13
 7253 0205 3C       		.uleb128 0x3c
 7254 0206 19       		.uleb128 0x19
 7255 0207 64       		.uleb128 0x64
 7256 0208 13       		.uleb128 0x13
 7257 0209 01       		.uleb128 0x1
 7258 020a 13       		.uleb128 0x13
 7259 020b 00       		.byte	0
 7260 020c 00       		.byte	0
 7261 020d 24       		.uleb128 0x24
 7262 020e 2E       		.uleb128 0x2e
 7263 020f 01       		.byte	0x1
 7264 0210 3F       		.uleb128 0x3f
 7265 0211 19       		.uleb128 0x19
 7266 0212 03       		.uleb128 0x3
 7267 0213 08       		.uleb128 0x8
 7268 0214 3A       		.uleb128 0x3a
 7269 0215 0B       		.uleb128 0xb
 7270 0216 3B       		.uleb128 0x3b
 7271 0217 0B       		.uleb128 0xb
 7272 0218 6E       		.uleb128 0x6e
GAS LISTING C:\Users\NJLLMR~1\AppData\Local\Temp\ccqq7oi7.s 			page 177


 7273 0219 08       		.uleb128 0x8
 7274 021a 3C       		.uleb128 0x3c
 7275 021b 19       		.uleb128 0x19
 7276 021c 64       		.uleb128 0x64
 7277 021d 13       		.uleb128 0x13
 7278 021e 01       		.uleb128 0x1
 7279 021f 13       		.uleb128 0x13
 7280 0220 00       		.byte	0
 7281 0221 00       		.byte	0
 7282 0222 25       		.uleb128 0x25
 7283 0223 2E       		.uleb128 0x2e
 7284 0224 01       		.byte	0x1
 7285 0225 3F       		.uleb128 0x3f
 7286 0226 19       		.uleb128 0x19
 7287 0227 03       		.uleb128 0x3
 7288 0228 08       		.uleb128 0x8
 7289 0229 3A       		.uleb128 0x3a
 7290 022a 0B       		.uleb128 0xb
 7291 022b 3B       		.uleb128 0x3b
 7292 022c 05       		.uleb128 0x5
 7293 022d 6E       		.uleb128 0x6e
 7294 022e 08       		.uleb128 0x8
 7295 022f 3C       		.uleb128 0x3c
 7296 0230 19       		.uleb128 0x19
 7297 0231 64       		.uleb128 0x64
 7298 0232 13       		.uleb128 0x13
 7299 0233 01       		.uleb128 0x1
 7300 0234 13       		.uleb128 0x13
 7301 0235 00       		.byte	0
 7302 0236 00       		.byte	0
 7303 0237 26       		.uleb128 0x26
 7304 0238 2E       		.uleb128 0x2e
 7305 0239 01       		.byte	0x1
 7306 023a 3F       		.uleb128 0x3f
 7307 023b 19       		.uleb128 0x19
 7308 023c 03       		.uleb128 0x3
 7309 023d 08       		.uleb128 0x8
 7310 023e 3A       		.uleb128 0x3a
 7311 023f 0B       		.uleb128 0xb
 7312 0240 3B       		.uleb128 0x3b
 7313 0241 05       		.uleb128 0x5
 7314 0242 6E       		.uleb128 0x6e
 7315 0243 08       		.uleb128 0x8
 7316 0244 49       		.uleb128 0x49
 7317 0245 13       		.uleb128 0x13
 7318 0246 3C       		.uleb128 0x3c
 7319 0247 19       		.uleb128 0x19
 7320 0248 64       		.uleb128 0x64
 7321 0249 13       		.uleb128 0x13
 7322 024a 01       		.uleb128 0x1
 7323 024b 13       		.uleb128 0x13
 7324 024c 00       		.byte	0
 7325 024d 00       		.byte	0
 7326 024e 27       		.uleb128 0x27
 7327 024f 2E       		.uleb128 0x2e
 7328 0250 01       		.byte	0x1
 7329 0251 3F       		.uleb128 0x3f
GAS LISTING C:\Users\NJLLMR~1\AppData\Local\Temp\ccqq7oi7.s 			page 178


 7330 0252 19       		.uleb128 0x19
 7331 0253 03       		.uleb128 0x3
 7332 0254 08       		.uleb128 0x8
 7333 0255 3A       		.uleb128 0x3a
 7334 0256 0B       		.uleb128 0xb
 7335 0257 3B       		.uleb128 0x3b
 7336 0258 05       		.uleb128 0x5
 7337 0259 6E       		.uleb128 0x6e
 7338 025a 08       		.uleb128 0x8
 7339 025b 49       		.uleb128 0x49
 7340 025c 13       		.uleb128 0x13
 7341 025d 3C       		.uleb128 0x3c
 7342 025e 19       		.uleb128 0x19
 7343 025f 64       		.uleb128 0x64
 7344 0260 13       		.uleb128 0x13
 7345 0261 00       		.byte	0
 7346 0262 00       		.byte	0
 7347 0263 28       		.uleb128 0x28
 7348 0264 2E       		.uleb128 0x2e
 7349 0265 01       		.byte	0x1
 7350 0266 3F       		.uleb128 0x3f
 7351 0267 19       		.uleb128 0x19
 7352 0268 03       		.uleb128 0x3
 7353 0269 08       		.uleb128 0x8
 7354 026a 3A       		.uleb128 0x3a
 7355 026b 0B       		.uleb128 0xb
 7356 026c 3B       		.uleb128 0x3b
 7357 026d 05       		.uleb128 0x5
 7358 026e 6E       		.uleb128 0x6e
 7359 026f 08       		.uleb128 0x8
 7360 0270 3C       		.uleb128 0x3c
 7361 0271 19       		.uleb128 0x19
 7362 0272 01       		.uleb128 0x1
 7363 0273 13       		.uleb128 0x13
 7364 0274 00       		.byte	0
 7365 0275 00       		.byte	0
 7366 0276 29       		.uleb128 0x29
 7367 0277 2E       		.uleb128 0x2e
 7368 0278 01       		.byte	0x1
 7369 0279 3F       		.uleb128 0x3f
 7370 027a 19       		.uleb128 0x19
 7371 027b 03       		.uleb128 0x3
 7372 027c 0E       		.uleb128 0xe
 7373 027d 3A       		.uleb128 0x3a
 7374 027e 0B       		.uleb128 0xb
 7375 027f 3B       		.uleb128 0x3b
 7376 0280 05       		.uleb128 0x5
 7377 0281 6E       		.uleb128 0x6e
 7378 0282 08       		.uleb128 0x8
 7379 0283 3C       		.uleb128 0x3c
 7380 0284 19       		.uleb128 0x19
 7381 0285 01       		.uleb128 0x1
 7382 0286 13       		.uleb128 0x13
 7383 0287 00       		.byte	0
 7384 0288 00       		.byte	0
 7385 0289 2A       		.uleb128 0x2a
 7386 028a 2E       		.uleb128 0x2e
GAS LISTING C:\Users\NJLLMR~1\AppData\Local\Temp\ccqq7oi7.s 			page 179


 7387 028b 00       		.byte	0
 7388 028c 3F       		.uleb128 0x3f
 7389 028d 19       		.uleb128 0x19
 7390 028e 03       		.uleb128 0x3
 7391 028f 0E       		.uleb128 0xe
 7392 0290 3A       		.uleb128 0x3a
 7393 0291 0B       		.uleb128 0xb
 7394 0292 3B       		.uleb128 0x3b
 7395 0293 05       		.uleb128 0x5
 7396 0294 6E       		.uleb128 0x6e
 7397 0295 08       		.uleb128 0x8
 7398 0296 49       		.uleb128 0x49
 7399 0297 13       		.uleb128 0x13
 7400 0298 3C       		.uleb128 0x3c
 7401 0299 19       		.uleb128 0x19
 7402 029a 00       		.byte	0
 7403 029b 00       		.byte	0
 7404 029c 2B       		.uleb128 0x2b
 7405 029d 2E       		.uleb128 0x2e
 7406 029e 01       		.byte	0x1
 7407 029f 3F       		.uleb128 0x3f
 7408 02a0 19       		.uleb128 0x19
 7409 02a1 03       		.uleb128 0x3
 7410 02a2 0E       		.uleb128 0xe
 7411 02a3 3A       		.uleb128 0x3a
 7412 02a4 0B       		.uleb128 0xb
 7413 02a5 3B       		.uleb128 0x3b
 7414 02a6 05       		.uleb128 0x5
 7415 02a7 32       		.uleb128 0x32
 7416 02a8 0B       		.uleb128 0xb
 7417 02a9 3C       		.uleb128 0x3c
 7418 02aa 19       		.uleb128 0x19
 7419 02ab 64       		.uleb128 0x64
 7420 02ac 13       		.uleb128 0x13
 7421 02ad 01       		.uleb128 0x1
 7422 02ae 13       		.uleb128 0x13
 7423 02af 00       		.byte	0
 7424 02b0 00       		.byte	0
 7425 02b1 2C       		.uleb128 0x2c
 7426 02b2 2E       		.uleb128 0x2e
 7427 02b3 01       		.byte	0x1
 7428 02b4 3F       		.uleb128 0x3f
 7429 02b5 19       		.uleb128 0x19
 7430 02b6 03       		.uleb128 0x3
 7431 02b7 0E       		.uleb128 0xe
 7432 02b8 3A       		.uleb128 0x3a
 7433 02b9 0B       		.uleb128 0xb
 7434 02ba 3B       		.uleb128 0x3b
 7435 02bb 0B       		.uleb128 0xb
 7436 02bc 32       		.uleb128 0x32
 7437 02bd 0B       		.uleb128 0xb
 7438 02be 3C       		.uleb128 0x3c
 7439 02bf 19       		.uleb128 0x19
 7440 02c0 63       		.uleb128 0x63
 7441 02c1 19       		.uleb128 0x19
 7442 02c2 64       		.uleb128 0x64
 7443 02c3 13       		.uleb128 0x13
GAS LISTING C:\Users\NJLLMR~1\AppData\Local\Temp\ccqq7oi7.s 			page 180


 7444 02c4 01       		.uleb128 0x1
 7445 02c5 13       		.uleb128 0x13
 7446 02c6 00       		.byte	0
 7447 02c7 00       		.byte	0
 7448 02c8 2D       		.uleb128 0x2d
 7449 02c9 2E       		.uleb128 0x2e
 7450 02ca 01       		.byte	0x1
 7451 02cb 3F       		.uleb128 0x3f
 7452 02cc 19       		.uleb128 0x19
 7453 02cd 03       		.uleb128 0x3
 7454 02ce 08       		.uleb128 0x8
 7455 02cf 3A       		.uleb128 0x3a
 7456 02d0 0B       		.uleb128 0xb
 7457 02d1 3B       		.uleb128 0x3b
 7458 02d2 05       		.uleb128 0x5
 7459 02d3 32       		.uleb128 0x32
 7460 02d4 0B       		.uleb128 0xb
 7461 02d5 3C       		.uleb128 0x3c
 7462 02d6 19       		.uleb128 0x19
 7463 02d7 64       		.uleb128 0x64
 7464 02d8 13       		.uleb128 0x13
 7465 02d9 01       		.uleb128 0x1
 7466 02da 13       		.uleb128 0x13
 7467 02db 00       		.byte	0
 7468 02dc 00       		.byte	0
 7469 02dd 2E       		.uleb128 0x2e
 7470 02de 2E       		.uleb128 0x2e
 7471 02df 01       		.byte	0x1
 7472 02e0 3F       		.uleb128 0x3f
 7473 02e1 19       		.uleb128 0x19
 7474 02e2 03       		.uleb128 0x3
 7475 02e3 0E       		.uleb128 0xe
 7476 02e4 3A       		.uleb128 0x3a
 7477 02e5 0B       		.uleb128 0xb
 7478 02e6 3B       		.uleb128 0x3b
 7479 02e7 05       		.uleb128 0x5
 7480 02e8 6E       		.uleb128 0x6e
 7481 02e9 08       		.uleb128 0x8
 7482 02ea 49       		.uleb128 0x49
 7483 02eb 13       		.uleb128 0x13
 7484 02ec 32       		.uleb128 0x32
 7485 02ed 0B       		.uleb128 0xb
 7486 02ee 3C       		.uleb128 0x3c
 7487 02ef 19       		.uleb128 0x19
 7488 02f0 64       		.uleb128 0x64
 7489 02f1 13       		.uleb128 0x13
 7490 02f2 01       		.uleb128 0x1
 7491 02f3 13       		.uleb128 0x13
 7492 02f4 00       		.byte	0
 7493 02f5 00       		.byte	0
 7494 02f6 2F       		.uleb128 0x2f
 7495 02f7 2E       		.uleb128 0x2e
 7496 02f8 01       		.byte	0x1
 7497 02f9 3F       		.uleb128 0x3f
 7498 02fa 19       		.uleb128 0x19
 7499 02fb 03       		.uleb128 0x3
 7500 02fc 08       		.uleb128 0x8
GAS LISTING C:\Users\NJLLMR~1\AppData\Local\Temp\ccqq7oi7.s 			page 181


 7501 02fd 3A       		.uleb128 0x3a
 7502 02fe 0B       		.uleb128 0xb
 7503 02ff 3B       		.uleb128 0x3b
 7504 0300 05       		.uleb128 0x5
 7505 0301 6E       		.uleb128 0x6e
 7506 0302 08       		.uleb128 0x8
 7507 0303 49       		.uleb128 0x49
 7508 0304 13       		.uleb128 0x13
 7509 0305 32       		.uleb128 0x32
 7510 0306 0B       		.uleb128 0xb
 7511 0307 3C       		.uleb128 0x3c
 7512 0308 19       		.uleb128 0x19
 7513 0309 64       		.uleb128 0x64
 7514 030a 13       		.uleb128 0x13
 7515 030b 01       		.uleb128 0x1
 7516 030c 13       		.uleb128 0x13
 7517 030d 00       		.byte	0
 7518 030e 00       		.byte	0
 7519 030f 30       		.uleb128 0x30
 7520 0310 2E       		.uleb128 0x2e
 7521 0311 01       		.byte	0x1
 7522 0312 3F       		.uleb128 0x3f
 7523 0313 19       		.uleb128 0x19
 7524 0314 03       		.uleb128 0x3
 7525 0315 08       		.uleb128 0x8
 7526 0316 3A       		.uleb128 0x3a
 7527 0317 0B       		.uleb128 0xb
 7528 0318 3B       		.uleb128 0x3b
 7529 0319 05       		.uleb128 0x5
 7530 031a 6E       		.uleb128 0x6e
 7531 031b 08       		.uleb128 0x8
 7532 031c 32       		.uleb128 0x32
 7533 031d 0B       		.uleb128 0xb
 7534 031e 3C       		.uleb128 0x3c
 7535 031f 19       		.uleb128 0x19
 7536 0320 64       		.uleb128 0x64
 7537 0321 13       		.uleb128 0x13
 7538 0322 01       		.uleb128 0x1
 7539 0323 13       		.uleb128 0x13
 7540 0324 00       		.byte	0
 7541 0325 00       		.byte	0
 7542 0326 31       		.uleb128 0x31
 7543 0327 2E       		.uleb128 0x2e
 7544 0328 01       		.byte	0x1
 7545 0329 3F       		.uleb128 0x3f
 7546 032a 19       		.uleb128 0x19
 7547 032b 03       		.uleb128 0x3
 7548 032c 0E       		.uleb128 0xe
 7549 032d 3A       		.uleb128 0x3a
 7550 032e 0B       		.uleb128 0xb
 7551 032f 3B       		.uleb128 0x3b
 7552 0330 0B       		.uleb128 0xb
 7553 0331 6E       		.uleb128 0x6e
 7554 0332 08       		.uleb128 0x8
 7555 0333 49       		.uleb128 0x49
 7556 0334 13       		.uleb128 0x13
 7557 0335 32       		.uleb128 0x32
GAS LISTING C:\Users\NJLLMR~1\AppData\Local\Temp\ccqq7oi7.s 			page 182


 7558 0336 0B       		.uleb128 0xb
 7559 0337 3C       		.uleb128 0x3c
 7560 0338 19       		.uleb128 0x19
 7561 0339 64       		.uleb128 0x64
 7562 033a 13       		.uleb128 0x13
 7563 033b 01       		.uleb128 0x1
 7564 033c 13       		.uleb128 0x13
 7565 033d 00       		.byte	0
 7566 033e 00       		.byte	0
 7567 033f 32       		.uleb128 0x32
 7568 0340 2E       		.uleb128 0x2e
 7569 0341 01       		.byte	0x1
 7570 0342 3F       		.uleb128 0x3f
 7571 0343 19       		.uleb128 0x19
 7572 0344 03       		.uleb128 0x3
 7573 0345 0E       		.uleb128 0xe
 7574 0346 3A       		.uleb128 0x3a
 7575 0347 0B       		.uleb128 0xb
 7576 0348 3B       		.uleb128 0x3b
 7577 0349 05       		.uleb128 0x5
 7578 034a 6E       		.uleb128 0x6e
 7579 034b 08       		.uleb128 0x8
 7580 034c 32       		.uleb128 0x32
 7581 034d 0B       		.uleb128 0xb
 7582 034e 3C       		.uleb128 0x3c
 7583 034f 19       		.uleb128 0x19
 7584 0350 64       		.uleb128 0x64
 7585 0351 13       		.uleb128 0x13
 7586 0352 01       		.uleb128 0x1
 7587 0353 13       		.uleb128 0x13
 7588 0354 00       		.byte	0
 7589 0355 00       		.byte	0
 7590 0356 33       		.uleb128 0x33
 7591 0357 2F       		.uleb128 0x2f
 7592 0358 00       		.byte	0
 7593 0359 03       		.uleb128 0x3
 7594 035a 0E       		.uleb128 0xe
 7595 035b 49       		.uleb128 0x49
 7596 035c 13       		.uleb128 0x13
 7597 035d 00       		.byte	0
 7598 035e 00       		.byte	0
 7599 035f 34       		.uleb128 0x34
 7600 0360 2F       		.uleb128 0x2f
 7601 0361 00       		.byte	0
 7602 0362 03       		.uleb128 0x3
 7603 0363 0E       		.uleb128 0xe
 7604 0364 49       		.uleb128 0x49
 7605 0365 13       		.uleb128 0x13
 7606 0366 1E       		.uleb128 0x1e
 7607 0367 19       		.uleb128 0x19
 7608 0368 00       		.byte	0
 7609 0369 00       		.byte	0
 7610 036a 35       		.uleb128 0x35
 7611 036b 2F       		.uleb128 0x2f
 7612 036c 00       		.byte	0
 7613 036d 03       		.uleb128 0x3
 7614 036e 08       		.uleb128 0x8
GAS LISTING C:\Users\NJLLMR~1\AppData\Local\Temp\ccqq7oi7.s 			page 183


 7615 036f 49       		.uleb128 0x49
 7616 0370 13       		.uleb128 0x13
 7617 0371 1E       		.uleb128 0x1e
 7618 0372 19       		.uleb128 0x19
 7619 0373 00       		.byte	0
 7620 0374 00       		.byte	0
 7621 0375 36       		.uleb128 0x36
 7622 0376 02       		.uleb128 0x2
 7623 0377 00       		.byte	0
 7624 0378 03       		.uleb128 0x3
 7625 0379 08       		.uleb128 0x8
 7626 037a 3C       		.uleb128 0x3c
 7627 037b 19       		.uleb128 0x19
 7628 037c 00       		.byte	0
 7629 037d 00       		.byte	0
 7630 037e 37       		.uleb128 0x37
 7631 037f 04       		.uleb128 0x4
 7632 0380 01       		.byte	0x1
 7633 0381 03       		.uleb128 0x3
 7634 0382 08       		.uleb128 0x8
 7635 0383 0B       		.uleb128 0xb
 7636 0384 0B       		.uleb128 0xb
 7637 0385 3A       		.uleb128 0x3a
 7638 0386 0B       		.uleb128 0xb
 7639 0387 3B       		.uleb128 0x3b
 7640 0388 0B       		.uleb128 0xb
 7641 0389 01       		.uleb128 0x1
 7642 038a 13       		.uleb128 0x13
 7643 038b 00       		.byte	0
 7644 038c 00       		.byte	0
 7645 038d 38       		.uleb128 0x38
 7646 038e 28       		.uleb128 0x28
 7647 038f 00       		.byte	0
 7648 0390 03       		.uleb128 0x3
 7649 0391 08       		.uleb128 0x8
 7650 0392 1C       		.uleb128 0x1c
 7651 0393 0D       		.uleb128 0xd
 7652 0394 00       		.byte	0
 7653 0395 00       		.byte	0
 7654 0396 39       		.uleb128 0x39
 7655 0397 02       		.uleb128 0x2
 7656 0398 01       		.byte	0x1
 7657 0399 03       		.uleb128 0x3
 7658 039a 08       		.uleb128 0x8
 7659 039b 3C       		.uleb128 0x3c
 7660 039c 19       		.uleb128 0x19
 7661 039d 01       		.uleb128 0x1
 7662 039e 13       		.uleb128 0x13
 7663 039f 00       		.byte	0
 7664 03a0 00       		.byte	0
 7665 03a1 3A       		.uleb128 0x3a
 7666 03a2 02       		.uleb128 0x2
 7667 03a3 01       		.byte	0x1
 7668 03a4 03       		.uleb128 0x3
 7669 03a5 08       		.uleb128 0x8
 7670 03a6 0B       		.uleb128 0xb
 7671 03a7 0B       		.uleb128 0xb
GAS LISTING C:\Users\NJLLMR~1\AppData\Local\Temp\ccqq7oi7.s 			page 184


 7672 03a8 3A       		.uleb128 0x3a
 7673 03a9 0B       		.uleb128 0xb
 7674 03aa 3B       		.uleb128 0x3b
 7675 03ab 05       		.uleb128 0x5
 7676 03ac 32       		.uleb128 0x32
 7677 03ad 0B       		.uleb128 0xb
 7678 03ae 01       		.uleb128 0x1
 7679 03af 13       		.uleb128 0x13
 7680 03b0 00       		.byte	0
 7681 03b1 00       		.byte	0
 7682 03b2 3B       		.uleb128 0x3b
 7683 03b3 0D       		.uleb128 0xd
 7684 03b4 00       		.byte	0
 7685 03b5 03       		.uleb128 0x3
 7686 03b6 08       		.uleb128 0x8
 7687 03b7 3A       		.uleb128 0x3a
 7688 03b8 0B       		.uleb128 0xb
 7689 03b9 3B       		.uleb128 0x3b
 7690 03ba 05       		.uleb128 0x5
 7691 03bb 49       		.uleb128 0x49
 7692 03bc 13       		.uleb128 0x13
 7693 03bd 3F       		.uleb128 0x3f
 7694 03be 19       		.uleb128 0x19
 7695 03bf 3C       		.uleb128 0x3c
 7696 03c0 19       		.uleb128 0x19
 7697 03c1 00       		.byte	0
 7698 03c2 00       		.byte	0
 7699 03c3 3C       		.uleb128 0x3c
 7700 03c4 2E       		.uleb128 0x2e
 7701 03c5 01       		.byte	0x1
 7702 03c6 3F       		.uleb128 0x3f
 7703 03c7 19       		.uleb128 0x19
 7704 03c8 03       		.uleb128 0x3
 7705 03c9 08       		.uleb128 0x8
 7706 03ca 3A       		.uleb128 0x3a
 7707 03cb 0B       		.uleb128 0xb
 7708 03cc 3B       		.uleb128 0x3b
 7709 03cd 05       		.uleb128 0x5
 7710 03ce 32       		.uleb128 0x32
 7711 03cf 0B       		.uleb128 0xb
 7712 03d0 3C       		.uleb128 0x3c
 7713 03d1 19       		.uleb128 0x19
 7714 03d2 64       		.uleb128 0x64
 7715 03d3 13       		.uleb128 0x13
 7716 03d4 00       		.byte	0
 7717 03d5 00       		.byte	0
 7718 03d6 3D       		.uleb128 0x3d
 7719 03d7 0D       		.uleb128 0xd
 7720 03d8 00       		.byte	0
 7721 03d9 03       		.uleb128 0x3
 7722 03da 08       		.uleb128 0x8
 7723 03db 3A       		.uleb128 0x3a
 7724 03dc 0B       		.uleb128 0xb
 7725 03dd 3B       		.uleb128 0x3b
 7726 03de 05       		.uleb128 0x5
 7727 03df 49       		.uleb128 0x49
 7728 03e0 13       		.uleb128 0x13
GAS LISTING C:\Users\NJLLMR~1\AppData\Local\Temp\ccqq7oi7.s 			page 185


 7729 03e1 3F       		.uleb128 0x3f
 7730 03e2 19       		.uleb128 0x19
 7731 03e3 32       		.uleb128 0x32
 7732 03e4 0B       		.uleb128 0xb
 7733 03e5 3C       		.uleb128 0x3c
 7734 03e6 19       		.uleb128 0x19
 7735 03e7 1C       		.uleb128 0x1c
 7736 03e8 0B       		.uleb128 0xb
 7737 03e9 00       		.byte	0
 7738 03ea 00       		.byte	0
 7739 03eb 3E       		.uleb128 0x3e
 7740 03ec 0D       		.uleb128 0xd
 7741 03ed 00       		.byte	0
 7742 03ee 03       		.uleb128 0x3
 7743 03ef 08       		.uleb128 0x8
 7744 03f0 3A       		.uleb128 0x3a
 7745 03f1 0B       		.uleb128 0xb
 7746 03f2 3B       		.uleb128 0x3b
 7747 03f3 05       		.uleb128 0x5
 7748 03f4 49       		.uleb128 0x49
 7749 03f5 13       		.uleb128 0x13
 7750 03f6 3F       		.uleb128 0x3f
 7751 03f7 19       		.uleb128 0x19
 7752 03f8 32       		.uleb128 0x32
 7753 03f9 0B       		.uleb128 0xb
 7754 03fa 3C       		.uleb128 0x3c
 7755 03fb 19       		.uleb128 0x19
 7756 03fc 1C       		.uleb128 0x1c
 7757 03fd 05       		.uleb128 0x5
 7758 03fe 00       		.byte	0
 7759 03ff 00       		.byte	0
 7760 0400 3F       		.uleb128 0x3f
 7761 0401 16       		.uleb128 0x16
 7762 0402 00       		.byte	0
 7763 0403 03       		.uleb128 0x3
 7764 0404 08       		.uleb128 0x8
 7765 0405 3A       		.uleb128 0x3a
 7766 0406 0B       		.uleb128 0xb
 7767 0407 3B       		.uleb128 0x3b
 7768 0408 05       		.uleb128 0x5
 7769 0409 49       		.uleb128 0x49
 7770 040a 13       		.uleb128 0x13
 7771 040b 32       		.uleb128 0x32
 7772 040c 0B       		.uleb128 0xb
 7773 040d 00       		.byte	0
 7774 040e 00       		.byte	0
 7775 040f 40       		.uleb128 0x40
 7776 0410 34       		.uleb128 0x34
 7777 0411 00       		.byte	0
 7778 0412 03       		.uleb128 0x3
 7779 0413 08       		.uleb128 0x8
 7780 0414 3A       		.uleb128 0x3a
 7781 0415 0B       		.uleb128 0xb
 7782 0416 3B       		.uleb128 0x3b
 7783 0417 0B       		.uleb128 0xb
 7784 0418 6E       		.uleb128 0x6e
 7785 0419 08       		.uleb128 0x8
GAS LISTING C:\Users\NJLLMR~1\AppData\Local\Temp\ccqq7oi7.s 			page 186


 7786 041a 49       		.uleb128 0x49
 7787 041b 13       		.uleb128 0x13
 7788 041c 3F       		.uleb128 0x3f
 7789 041d 19       		.uleb128 0x19
 7790 041e 3C       		.uleb128 0x3c
 7791 041f 19       		.uleb128 0x19
 7792 0420 00       		.byte	0
 7793 0421 00       		.byte	0
 7794 0422 41       		.uleb128 0x41
 7795 0423 34       		.uleb128 0x34
 7796 0424 00       		.byte	0
 7797 0425 03       		.uleb128 0x3
 7798 0426 08       		.uleb128 0x8
 7799 0427 3A       		.uleb128 0x3a
 7800 0428 0B       		.uleb128 0xb
 7801 0429 3B       		.uleb128 0x3b
 7802 042a 0B       		.uleb128 0xb
 7803 042b 49       		.uleb128 0x49
 7804 042c 13       		.uleb128 0x13
 7805 042d 3C       		.uleb128 0x3c
 7806 042e 19       		.uleb128 0x19
 7807 042f 00       		.byte	0
 7808 0430 00       		.byte	0
 7809 0431 42       		.uleb128 0x42
 7810 0432 2E       		.uleb128 0x2e
 7811 0433 01       		.byte	0x1
 7812 0434 3F       		.uleb128 0x3f
 7813 0435 19       		.uleb128 0x19
 7814 0436 03       		.uleb128 0x3
 7815 0437 08       		.uleb128 0x8
 7816 0438 3A       		.uleb128 0x3a
 7817 0439 0B       		.uleb128 0xb
 7818 043a 3B       		.uleb128 0x3b
 7819 043b 05       		.uleb128 0x5
 7820 043c 49       		.uleb128 0x49
 7821 043d 13       		.uleb128 0x13
 7822 043e 3C       		.uleb128 0x3c
 7823 043f 19       		.uleb128 0x19
 7824 0440 01       		.uleb128 0x1
 7825 0441 13       		.uleb128 0x13
 7826 0442 00       		.byte	0
 7827 0443 00       		.byte	0
 7828 0444 43       		.uleb128 0x43
 7829 0445 2E       		.uleb128 0x2e
 7830 0446 01       		.byte	0x1
 7831 0447 3F       		.uleb128 0x3f
 7832 0448 19       		.uleb128 0x19
 7833 0449 03       		.uleb128 0x3
 7834 044a 08       		.uleb128 0x8
 7835 044b 3A       		.uleb128 0x3a
 7836 044c 0B       		.uleb128 0xb
 7837 044d 3B       		.uleb128 0x3b
 7838 044e 0B       		.uleb128 0xb
 7839 044f 49       		.uleb128 0x49
 7840 0450 13       		.uleb128 0x13
 7841 0451 3C       		.uleb128 0x3c
 7842 0452 19       		.uleb128 0x19
GAS LISTING C:\Users\NJLLMR~1\AppData\Local\Temp\ccqq7oi7.s 			page 187


 7843 0453 01       		.uleb128 0x1
 7844 0454 13       		.uleb128 0x13
 7845 0455 00       		.byte	0
 7846 0456 00       		.byte	0
 7847 0457 44       		.uleb128 0x44
 7848 0458 18       		.uleb128 0x18
 7849 0459 00       		.byte	0
 7850 045a 00       		.byte	0
 7851 045b 00       		.byte	0
 7852 045c 45       		.uleb128 0x45
 7853 045d 2E       		.uleb128 0x2e
 7854 045e 00       		.byte	0
 7855 045f 3F       		.uleb128 0x3f
 7856 0460 19       		.uleb128 0x19
 7857 0461 03       		.uleb128 0x3
 7858 0462 08       		.uleb128 0x8
 7859 0463 3A       		.uleb128 0x3a
 7860 0464 0B       		.uleb128 0xb
 7861 0465 3B       		.uleb128 0x3b
 7862 0466 0B       		.uleb128 0xb
 7863 0467 49       		.uleb128 0x49
 7864 0468 13       		.uleb128 0x13
 7865 0469 3C       		.uleb128 0x3c
 7866 046a 19       		.uleb128 0x19
 7867 046b 00       		.byte	0
 7868 046c 00       		.byte	0
 7869 046d 46       		.uleb128 0x46
 7870 046e 2E       		.uleb128 0x2e
 7871 046f 01       		.byte	0x1
 7872 0470 3F       		.uleb128 0x3f
 7873 0471 19       		.uleb128 0x19
 7874 0472 03       		.uleb128 0x3
 7875 0473 08       		.uleb128 0x8
 7876 0474 3A       		.uleb128 0x3a
 7877 0475 0B       		.uleb128 0xb
 7878 0476 3B       		.uleb128 0x3b
 7879 0477 0B       		.uleb128 0xb
 7880 0478 32       		.uleb128 0x32
 7881 0479 0B       		.uleb128 0xb
 7882 047a 3C       		.uleb128 0x3c
 7883 047b 19       		.uleb128 0x19
 7884 047c 64       		.uleb128 0x64
 7885 047d 13       		.uleb128 0x13
 7886 047e 01       		.uleb128 0x1
 7887 047f 13       		.uleb128 0x13
 7888 0480 00       		.byte	0
 7889 0481 00       		.byte	0
 7890 0482 47       		.uleb128 0x47
 7891 0483 2E       		.uleb128 0x2e
 7892 0484 01       		.byte	0x1
 7893 0485 3F       		.uleb128 0x3f
 7894 0486 19       		.uleb128 0x19
 7895 0487 03       		.uleb128 0x3
 7896 0488 08       		.uleb128 0x8
 7897 0489 3A       		.uleb128 0x3a
 7898 048a 0B       		.uleb128 0xb
 7899 048b 3B       		.uleb128 0x3b
GAS LISTING C:\Users\NJLLMR~1\AppData\Local\Temp\ccqq7oi7.s 			page 188


 7900 048c 0B       		.uleb128 0xb
 7901 048d 6E       		.uleb128 0x6e
 7902 048e 08       		.uleb128 0x8
 7903 048f 49       		.uleb128 0x49
 7904 0490 13       		.uleb128 0x13
 7905 0491 32       		.uleb128 0x32
 7906 0492 0B       		.uleb128 0xb
 7907 0493 3C       		.uleb128 0x3c
 7908 0494 19       		.uleb128 0x19
 7909 0495 64       		.uleb128 0x64
 7910 0496 13       		.uleb128 0x13
 7911 0497 01       		.uleb128 0x1
 7912 0498 13       		.uleb128 0x13
 7913 0499 00       		.byte	0
 7914 049a 00       		.byte	0
 7915 049b 48       		.uleb128 0x48
 7916 049c 2E       		.uleb128 0x2e
 7917 049d 01       		.byte	0x1
 7918 049e 3F       		.uleb128 0x3f
 7919 049f 19       		.uleb128 0x19
 7920 04a0 03       		.uleb128 0x3
 7921 04a1 08       		.uleb128 0x8
 7922 04a2 3A       		.uleb128 0x3a
 7923 04a3 0B       		.uleb128 0xb
 7924 04a4 3B       		.uleb128 0x3b
 7925 04a5 0B       		.uleb128 0xb
 7926 04a6 6E       		.uleb128 0x6e
 7927 04a7 08       		.uleb128 0x8
 7928 04a8 32       		.uleb128 0x32
 7929 04a9 0B       		.uleb128 0xb
 7930 04aa 3C       		.uleb128 0x3c
 7931 04ab 19       		.uleb128 0x19
 7932 04ac 64       		.uleb128 0x64
 7933 04ad 13       		.uleb128 0x13
 7934 04ae 01       		.uleb128 0x1
 7935 04af 13       		.uleb128 0x13
 7936 04b0 00       		.byte	0
 7937 04b1 00       		.byte	0
 7938 04b2 49       		.uleb128 0x49
 7939 04b3 2F       		.uleb128 0x2f
 7940 04b4 00       		.byte	0
 7941 04b5 03       		.uleb128 0x3
 7942 04b6 08       		.uleb128 0x8
 7943 04b7 49       		.uleb128 0x49
 7944 04b8 13       		.uleb128 0x13
 7945 04b9 00       		.byte	0
 7946 04ba 00       		.byte	0
 7947 04bb 4A       		.uleb128 0x4a
 7948 04bc 0D       		.uleb128 0xd
 7949 04bd 00       		.byte	0
 7950 04be 03       		.uleb128 0x3
 7951 04bf 0E       		.uleb128 0xe
 7952 04c0 3A       		.uleb128 0x3a
 7953 04c1 0B       		.uleb128 0xb
 7954 04c2 3B       		.uleb128 0x3b
 7955 04c3 0B       		.uleb128 0xb
 7956 04c4 49       		.uleb128 0x49
GAS LISTING C:\Users\NJLLMR~1\AppData\Local\Temp\ccqq7oi7.s 			page 189


 7957 04c5 13       		.uleb128 0x13
 7958 04c6 3F       		.uleb128 0x3f
 7959 04c7 19       		.uleb128 0x19
 7960 04c8 3C       		.uleb128 0x3c
 7961 04c9 19       		.uleb128 0x19
 7962 04ca 00       		.byte	0
 7963 04cb 00       		.byte	0
 7964 04cc 4B       		.uleb128 0x4b
 7965 04cd 13       		.uleb128 0x13
 7966 04ce 01       		.byte	0x1
 7967 04cf 03       		.uleb128 0x3
 7968 04d0 08       		.uleb128 0x8
 7969 04d1 0B       		.uleb128 0xb
 7970 04d2 0B       		.uleb128 0xb
 7971 04d3 3A       		.uleb128 0x3a
 7972 04d4 0B       		.uleb128 0xb
 7973 04d5 3B       		.uleb128 0x3b
 7974 04d6 0B       		.uleb128 0xb
 7975 04d7 00       		.byte	0
 7976 04d8 00       		.byte	0
 7977 04d9 4C       		.uleb128 0x4c
 7978 04da 3A       		.uleb128 0x3a
 7979 04db 00       		.byte	0
 7980 04dc 3A       		.uleb128 0x3a
 7981 04dd 0B       		.uleb128 0xb
 7982 04de 3B       		.uleb128 0x3b
 7983 04df 0B       		.uleb128 0xb
 7984 04e0 18       		.uleb128 0x18
 7985 04e1 13       		.uleb128 0x13
 7986 04e2 00       		.byte	0
 7987 04e3 00       		.byte	0
 7988 04e4 4D       		.uleb128 0x4d
 7989 04e5 10       		.uleb128 0x10
 7990 04e6 00       		.byte	0
 7991 04e7 0B       		.uleb128 0xb
 7992 04e8 0B       		.uleb128 0xb
 7993 04e9 49       		.uleb128 0x49
 7994 04ea 13       		.uleb128 0x13
 7995 04eb 00       		.byte	0
 7996 04ec 00       		.byte	0
 7997 04ed 4E       		.uleb128 0x4e
 7998 04ee 26       		.uleb128 0x26
 7999 04ef 00       		.byte	0
 8000 04f0 00       		.byte	0
 8001 04f1 00       		.byte	0
 8002 04f2 4F       		.uleb128 0x4f
 8003 04f3 01       		.uleb128 0x1
 8004 04f4 01       		.byte	0x1
 8005 04f5 49       		.uleb128 0x49
 8006 04f6 13       		.uleb128 0x13
 8007 04f7 01       		.uleb128 0x1
 8008 04f8 13       		.uleb128 0x13
 8009 04f9 00       		.byte	0
 8010 04fa 00       		.byte	0
 8011 04fb 50       		.uleb128 0x50
 8012 04fc 21       		.uleb128 0x21
 8013 04fd 00       		.byte	0
GAS LISTING C:\Users\NJLLMR~1\AppData\Local\Temp\ccqq7oi7.s 			page 190


 8014 04fe 00       		.byte	0
 8015 04ff 00       		.byte	0
 8016 0500 51       		.uleb128 0x51
 8017 0501 02       		.uleb128 0x2
 8018 0502 01       		.byte	0x1
 8019 0503 03       		.uleb128 0x3
 8020 0504 0E       		.uleb128 0xe
 8021 0505 0B       		.uleb128 0xb
 8022 0506 0B       		.uleb128 0xb
 8023 0507 3A       		.uleb128 0x3a
 8024 0508 0B       		.uleb128 0xb
 8025 0509 3B       		.uleb128 0x3b
 8026 050a 0B       		.uleb128 0xb
 8027 050b 01       		.uleb128 0x1
 8028 050c 13       		.uleb128 0x13
 8029 050d 00       		.byte	0
 8030 050e 00       		.byte	0
 8031 050f 52       		.uleb128 0x52
 8032 0510 2E       		.uleb128 0x2e
 8033 0511 01       		.byte	0x1
 8034 0512 3F       		.uleb128 0x3f
 8035 0513 19       		.uleb128 0x19
 8036 0514 03       		.uleb128 0x3
 8037 0515 08       		.uleb128 0x8
 8038 0516 3A       		.uleb128 0x3a
 8039 0517 0B       		.uleb128 0xb
 8040 0518 3B       		.uleb128 0x3b
 8041 0519 0B       		.uleb128 0xb
 8042 051a 6E       		.uleb128 0x6e
 8043 051b 08       		.uleb128 0x8
 8044 051c 49       		.uleb128 0x49
 8045 051d 13       		.uleb128 0x13
 8046 051e 32       		.uleb128 0x32
 8047 051f 0B       		.uleb128 0xb
 8048 0520 3C       		.uleb128 0x3c
 8049 0521 19       		.uleb128 0x19
 8050 0522 64       		.uleb128 0x64
 8051 0523 13       		.uleb128 0x13
 8052 0524 00       		.byte	0
 8053 0525 00       		.byte	0
 8054 0526 53       		.uleb128 0x53
 8055 0527 2E       		.uleb128 0x2e
 8056 0528 01       		.byte	0x1
 8057 0529 47       		.uleb128 0x47
 8058 052a 13       		.uleb128 0x13
 8059 052b 11       		.uleb128 0x11
 8060 052c 01       		.uleb128 0x1
 8061 052d 12       		.uleb128 0x12
 8062 052e 06       		.uleb128 0x6
 8063 052f 40       		.uleb128 0x40
 8064 0530 18       		.uleb128 0x18
 8065 0531 9742     		.uleb128 0x2117
 8066 0533 19       		.uleb128 0x19
 8067 0534 01       		.uleb128 0x1
 8068 0535 13       		.uleb128 0x13
 8069 0536 00       		.byte	0
 8070 0537 00       		.byte	0
GAS LISTING C:\Users\NJLLMR~1\AppData\Local\Temp\ccqq7oi7.s 			page 191


 8071 0538 54       		.uleb128 0x54
 8072 0539 05       		.uleb128 0x5
 8073 053a 00       		.byte	0
 8074 053b 03       		.uleb128 0x3
 8075 053c 08       		.uleb128 0x8
 8076 053d 3A       		.uleb128 0x3a
 8077 053e 0B       		.uleb128 0xb
 8078 053f 3B       		.uleb128 0x3b
 8079 0540 0B       		.uleb128 0xb
 8080 0541 49       		.uleb128 0x49
 8081 0542 13       		.uleb128 0x13
 8082 0543 02       		.uleb128 0x2
 8083 0544 18       		.uleb128 0x18
 8084 0545 00       		.byte	0
 8085 0546 00       		.byte	0
 8086 0547 55       		.uleb128 0x55
 8087 0548 2E       		.uleb128 0x2e
 8088 0549 01       		.byte	0x1
 8089 054a 47       		.uleb128 0x47
 8090 054b 13       		.uleb128 0x13
 8091 054c 11       		.uleb128 0x11
 8092 054d 01       		.uleb128 0x1
 8093 054e 12       		.uleb128 0x12
 8094 054f 06       		.uleb128 0x6
 8095 0550 40       		.uleb128 0x40
 8096 0551 18       		.uleb128 0x18
 8097 0552 9642     		.uleb128 0x2116
 8098 0554 19       		.uleb128 0x19
 8099 0555 01       		.uleb128 0x1
 8100 0556 13       		.uleb128 0x13
 8101 0557 00       		.byte	0
 8102 0558 00       		.byte	0
 8103 0559 56       		.uleb128 0x56
 8104 055a 2E       		.uleb128 0x2e
 8105 055b 01       		.byte	0x1
 8106 055c 47       		.uleb128 0x47
 8107 055d 13       		.uleb128 0x13
 8108 055e 11       		.uleb128 0x11
 8109 055f 01       		.uleb128 0x1
 8110 0560 12       		.uleb128 0x12
 8111 0561 06       		.uleb128 0x6
 8112 0562 40       		.uleb128 0x40
 8113 0563 18       		.uleb128 0x18
 8114 0564 64       		.uleb128 0x64
 8115 0565 13       		.uleb128 0x13
 8116 0566 9642     		.uleb128 0x2116
 8117 0568 19       		.uleb128 0x19
 8118 0569 01       		.uleb128 0x1
 8119 056a 13       		.uleb128 0x13
 8120 056b 00       		.byte	0
 8121 056c 00       		.byte	0
 8122 056d 57       		.uleb128 0x57
 8123 056e 05       		.uleb128 0x5
 8124 056f 00       		.byte	0
 8125 0570 03       		.uleb128 0x3
 8126 0571 0E       		.uleb128 0xe
 8127 0572 49       		.uleb128 0x49
GAS LISTING C:\Users\NJLLMR~1\AppData\Local\Temp\ccqq7oi7.s 			page 192


 8128 0573 13       		.uleb128 0x13
 8129 0574 34       		.uleb128 0x34
 8130 0575 19       		.uleb128 0x19
 8131 0576 02       		.uleb128 0x2
 8132 0577 18       		.uleb128 0x18
 8133 0578 00       		.byte	0
 8134 0579 00       		.byte	0
 8135 057a 58       		.uleb128 0x58
 8136 057b 05       		.uleb128 0x5
 8137 057c 00       		.byte	0
 8138 057d 03       		.uleb128 0x3
 8139 057e 08       		.uleb128 0x8
 8140 057f 3A       		.uleb128 0x3a
 8141 0580 0B       		.uleb128 0xb
 8142 0581 3B       		.uleb128 0x3b
 8143 0582 05       		.uleb128 0x5
 8144 0583 49       		.uleb128 0x49
 8145 0584 13       		.uleb128 0x13
 8146 0585 02       		.uleb128 0x2
 8147 0586 18       		.uleb128 0x18
 8148 0587 00       		.byte	0
 8149 0588 00       		.byte	0
 8150 0589 59       		.uleb128 0x59
 8151 058a 0B       		.uleb128 0xb
 8152 058b 01       		.byte	0x1
 8153 058c 11       		.uleb128 0x11
 8154 058d 01       		.uleb128 0x1
 8155 058e 12       		.uleb128 0x12
 8156 058f 06       		.uleb128 0x6
 8157 0590 00       		.byte	0
 8158 0591 00       		.byte	0
 8159 0592 5A       		.uleb128 0x5a
 8160 0593 34       		.uleb128 0x34
 8161 0594 00       		.byte	0
 8162 0595 03       		.uleb128 0x3
 8163 0596 08       		.uleb128 0x8
 8164 0597 3A       		.uleb128 0x3a
 8165 0598 0B       		.uleb128 0xb
 8166 0599 3B       		.uleb128 0x3b
 8167 059a 05       		.uleb128 0x5
 8168 059b 49       		.uleb128 0x49
 8169 059c 13       		.uleb128 0x13
 8170 059d 02       		.uleb128 0x2
 8171 059e 18       		.uleb128 0x18
 8172 059f 00       		.byte	0
 8173 05a0 00       		.byte	0
 8174 05a1 5B       		.uleb128 0x5b
 8175 05a2 2E       		.uleb128 0x2e
 8176 05a3 01       		.byte	0x1
 8177 05a4 47       		.uleb128 0x47
 8178 05a5 13       		.uleb128 0x13
 8179 05a6 3A       		.uleb128 0x3a
 8180 05a7 0B       		.uleb128 0xb
 8181 05a8 3B       		.uleb128 0x3b
 8182 05a9 0B       		.uleb128 0xb
 8183 05aa 20       		.uleb128 0x20
 8184 05ab 0B       		.uleb128 0xb
GAS LISTING C:\Users\NJLLMR~1\AppData\Local\Temp\ccqq7oi7.s 			page 193


 8185 05ac 64       		.uleb128 0x64
 8186 05ad 13       		.uleb128 0x13
 8187 05ae 01       		.uleb128 0x1
 8188 05af 13       		.uleb128 0x13
 8189 05b0 00       		.byte	0
 8190 05b1 00       		.byte	0
 8191 05b2 5C       		.uleb128 0x5c
 8192 05b3 05       		.uleb128 0x5
 8193 05b4 00       		.byte	0
 8194 05b5 03       		.uleb128 0x3
 8195 05b6 0E       		.uleb128 0xe
 8196 05b7 49       		.uleb128 0x49
 8197 05b8 13       		.uleb128 0x13
 8198 05b9 34       		.uleb128 0x34
 8199 05ba 19       		.uleb128 0x19
 8200 05bb 00       		.byte	0
 8201 05bc 00       		.byte	0
 8202 05bd 5D       		.uleb128 0x5d
 8203 05be 2E       		.uleb128 0x2e
 8204 05bf 01       		.byte	0x1
 8205 05c0 31       		.uleb128 0x31
 8206 05c1 13       		.uleb128 0x13
 8207 05c2 6E       		.uleb128 0x6e
 8208 05c3 08       		.uleb128 0x8
 8209 05c4 11       		.uleb128 0x11
 8210 05c5 01       		.uleb128 0x1
 8211 05c6 12       		.uleb128 0x12
 8212 05c7 06       		.uleb128 0x6
 8213 05c8 40       		.uleb128 0x40
 8214 05c9 18       		.uleb128 0x18
 8215 05ca 64       		.uleb128 0x64
 8216 05cb 13       		.uleb128 0x13
 8217 05cc 9642     		.uleb128 0x2116
 8218 05ce 19       		.uleb128 0x19
 8219 05cf 01       		.uleb128 0x1
 8220 05d0 13       		.uleb128 0x13
 8221 05d1 00       		.byte	0
 8222 05d2 00       		.byte	0
 8223 05d3 5E       		.uleb128 0x5e
 8224 05d4 05       		.uleb128 0x5
 8225 05d5 00       		.byte	0
 8226 05d6 31       		.uleb128 0x31
 8227 05d7 13       		.uleb128 0x13
 8228 05d8 02       		.uleb128 0x2
 8229 05d9 18       		.uleb128 0x18
 8230 05da 00       		.byte	0
 8231 05db 00       		.byte	0
 8232 05dc 5F       		.uleb128 0x5f
 8233 05dd 05       		.uleb128 0x5
 8234 05de 00       		.byte	0
 8235 05df 03       		.uleb128 0x3
 8236 05e0 08       		.uleb128 0x8
 8237 05e1 3A       		.uleb128 0x3a
 8238 05e2 0B       		.uleb128 0xb
 8239 05e3 3B       		.uleb128 0x3b
 8240 05e4 0B       		.uleb128 0xb
 8241 05e5 49       		.uleb128 0x49
GAS LISTING C:\Users\NJLLMR~1\AppData\Local\Temp\ccqq7oi7.s 			page 194


 8242 05e6 13       		.uleb128 0x13
 8243 05e7 00       		.byte	0
 8244 05e8 00       		.byte	0
 8245 05e9 60       		.uleb128 0x60
 8246 05ea 05       		.uleb128 0x5
 8247 05eb 00       		.byte	0
 8248 05ec 03       		.uleb128 0x3
 8249 05ed 08       		.uleb128 0x8
 8250 05ee 49       		.uleb128 0x49
 8251 05ef 13       		.uleb128 0x13
 8252 05f0 34       		.uleb128 0x34
 8253 05f1 19       		.uleb128 0x19
 8254 05f2 00       		.byte	0
 8255 05f3 00       		.byte	0
 8256 05f4 61       		.uleb128 0x61
 8257 05f5 2E       		.uleb128 0x2e
 8258 05f6 01       		.byte	0x1
 8259 05f7 47       		.uleb128 0x47
 8260 05f8 13       		.uleb128 0x13
 8261 05f9 3A       		.uleb128 0x3a
 8262 05fa 0B       		.uleb128 0xb
 8263 05fb 3B       		.uleb128 0x3b
 8264 05fc 0B       		.uleb128 0xb
 8265 05fd 11       		.uleb128 0x11
 8266 05fe 01       		.uleb128 0x1
 8267 05ff 12       		.uleb128 0x12
 8268 0600 06       		.uleb128 0x6
 8269 0601 40       		.uleb128 0x40
 8270 0602 18       		.uleb128 0x18
 8271 0603 64       		.uleb128 0x64
 8272 0604 13       		.uleb128 0x13
 8273 0605 9642     		.uleb128 0x2116
 8274 0607 19       		.uleb128 0x19
 8275 0608 01       		.uleb128 0x1
 8276 0609 13       		.uleb128 0x13
 8277 060a 00       		.byte	0
 8278 060b 00       		.byte	0
 8279 060c 62       		.uleb128 0x62
 8280 060d 2E       		.uleb128 0x2e
 8281 060e 01       		.byte	0x1
 8282 060f 47       		.uleb128 0x47
 8283 0610 13       		.uleb128 0x13
 8284 0611 3A       		.uleb128 0x3a
 8285 0612 0B       		.uleb128 0xb
 8286 0613 3B       		.uleb128 0x3b
 8287 0614 0B       		.uleb128 0xb
 8288 0615 11       		.uleb128 0x11
 8289 0616 01       		.uleb128 0x1
 8290 0617 12       		.uleb128 0x12
 8291 0618 06       		.uleb128 0x6
 8292 0619 40       		.uleb128 0x40
 8293 061a 18       		.uleb128 0x18
 8294 061b 64       		.uleb128 0x64
 8295 061c 13       		.uleb128 0x13
 8296 061d 9742     		.uleb128 0x2117
 8297 061f 19       		.uleb128 0x19
 8298 0620 01       		.uleb128 0x1
GAS LISTING C:\Users\NJLLMR~1\AppData\Local\Temp\ccqq7oi7.s 			page 195


 8299 0621 13       		.uleb128 0x13
 8300 0622 00       		.byte	0
 8301 0623 00       		.byte	0
 8302 0624 63       		.uleb128 0x63
 8303 0625 2E       		.uleb128 0x2e
 8304 0626 01       		.byte	0x1
 8305 0627 3F       		.uleb128 0x3f
 8306 0628 19       		.uleb128 0x19
 8307 0629 03       		.uleb128 0x3
 8308 062a 08       		.uleb128 0x8
 8309 062b 3A       		.uleb128 0x3a
 8310 062c 0B       		.uleb128 0xb
 8311 062d 3B       		.uleb128 0x3b
 8312 062e 0B       		.uleb128 0xb
 8313 062f 6E       		.uleb128 0x6e
 8314 0630 08       		.uleb128 0x8
 8315 0631 49       		.uleb128 0x49
 8316 0632 13       		.uleb128 0x13
 8317 0633 11       		.uleb128 0x11
 8318 0634 01       		.uleb128 0x1
 8319 0635 12       		.uleb128 0x12
 8320 0636 06       		.uleb128 0x6
 8321 0637 40       		.uleb128 0x40
 8322 0638 18       		.uleb128 0x18
 8323 0639 9642     		.uleb128 0x2116
 8324 063b 19       		.uleb128 0x19
 8325 063c 01       		.uleb128 0x1
 8326 063d 13       		.uleb128 0x13
 8327 063e 00       		.byte	0
 8328 063f 00       		.byte	0
 8329 0640 64       		.uleb128 0x64
 8330 0641 05       		.uleb128 0x5
 8331 0642 00       		.byte	0
 8332 0643 03       		.uleb128 0x3
 8333 0644 0E       		.uleb128 0xe
 8334 0645 3A       		.uleb128 0x3a
 8335 0646 0B       		.uleb128 0xb
 8336 0647 3B       		.uleb128 0x3b
 8337 0648 0B       		.uleb128 0xb
 8338 0649 49       		.uleb128 0x49
 8339 064a 13       		.uleb128 0x13
 8340 064b 02       		.uleb128 0x2
 8341 064c 18       		.uleb128 0x18
 8342 064d 00       		.byte	0
 8343 064e 00       		.byte	0
 8344 064f 65       		.uleb128 0x65
 8345 0650 2E       		.uleb128 0x2e
 8346 0651 00       		.byte	0
 8347 0652 03       		.uleb128 0x3
 8348 0653 08       		.uleb128 0x8
 8349 0654 34       		.uleb128 0x34
 8350 0655 19       		.uleb128 0x19
 8351 0656 11       		.uleb128 0x11
 8352 0657 01       		.uleb128 0x1
 8353 0658 12       		.uleb128 0x12
 8354 0659 06       		.uleb128 0x6
 8355 065a 40       		.uleb128 0x40
GAS LISTING C:\Users\NJLLMR~1\AppData\Local\Temp\ccqq7oi7.s 			page 196


 8356 065b 18       		.uleb128 0x18
 8357 065c 9642     		.uleb128 0x2116
 8358 065e 19       		.uleb128 0x19
 8359 065f 00       		.byte	0
 8360 0660 00       		.byte	0
 8361 0661 66       		.uleb128 0x66
 8362 0662 2E       		.uleb128 0x2e
 8363 0663 01       		.byte	0x1
 8364 0664 03       		.uleb128 0x3
 8365 0665 08       		.uleb128 0x8
 8366 0666 34       		.uleb128 0x34
 8367 0667 19       		.uleb128 0x19
 8368 0668 11       		.uleb128 0x11
 8369 0669 01       		.uleb128 0x1
 8370 066a 12       		.uleb128 0x12
 8371 066b 06       		.uleb128 0x6
 8372 066c 40       		.uleb128 0x40
 8373 066d 18       		.uleb128 0x18
 8374 066e 9642     		.uleb128 0x2116
 8375 0670 19       		.uleb128 0x19
 8376 0671 01       		.uleb128 0x1
 8377 0672 13       		.uleb128 0x13
 8378 0673 00       		.byte	0
 8379 0674 00       		.byte	0
 8380 0675 67       		.uleb128 0x67
 8381 0676 34       		.uleb128 0x34
 8382 0677 00       		.byte	0
 8383 0678 47       		.uleb128 0x47
 8384 0679 13       		.uleb128 0x13
 8385 067a 02       		.uleb128 0x2
 8386 067b 18       		.uleb128 0x18
 8387 067c 00       		.byte	0
 8388 067d 00       		.byte	0
 8389 067e 68       		.uleb128 0x68
 8390 067f 34       		.uleb128 0x34
 8391 0680 00       		.byte	0
 8392 0681 47       		.uleb128 0x47
 8393 0682 13       		.uleb128 0x13
 8394 0683 6E       		.uleb128 0x6e
 8395 0684 08       		.uleb128 0x8
 8396 0685 1C       		.uleb128 0x1c
 8397 0686 0D       		.uleb128 0xd
 8398 0687 00       		.byte	0
 8399 0688 00       		.byte	0
 8400 0689 69       		.uleb128 0x69
 8401 068a 34       		.uleb128 0x34
 8402 068b 00       		.byte	0
 8403 068c 47       		.uleb128 0x47
 8404 068d 13       		.uleb128 0x13
 8405 068e 6E       		.uleb128 0x6e
 8406 068f 08       		.uleb128 0x8
 8407 0690 1C       		.uleb128 0x1c
 8408 0691 06       		.uleb128 0x6
 8409 0692 00       		.byte	0
 8410 0693 00       		.byte	0
 8411 0694 6A       		.uleb128 0x6a
 8412 0695 34       		.uleb128 0x34
GAS LISTING C:\Users\NJLLMR~1\AppData\Local\Temp\ccqq7oi7.s 			page 197


 8413 0696 00       		.byte	0
 8414 0697 47       		.uleb128 0x47
 8415 0698 13       		.uleb128 0x13
 8416 0699 6E       		.uleb128 0x6e
 8417 069a 08       		.uleb128 0x8
 8418 069b 1C       		.uleb128 0x1c
 8419 069c 0B       		.uleb128 0xb
 8420 069d 00       		.byte	0
 8421 069e 00       		.byte	0
 8422 069f 6B       		.uleb128 0x6b
 8423 06a0 34       		.uleb128 0x34
 8424 06a1 00       		.byte	0
 8425 06a2 47       		.uleb128 0x47
 8426 06a3 13       		.uleb128 0x13
 8427 06a4 6E       		.uleb128 0x6e
 8428 06a5 08       		.uleb128 0x8
 8429 06a6 1C       		.uleb128 0x1c
 8430 06a7 05       		.uleb128 0x5
 8431 06a8 00       		.byte	0
 8432 06a9 00       		.byte	0
 8433 06aa 00       		.byte	0
 8434              		.section	.debug_aranges,"dr"
 8435 0000 5C000000 		.long	0x5c
 8436 0004 0200     		.word	0x2
 8437 0006 00000000 		.secrel32	Ldebug_info0
 8438 000a 04       		.byte	0x4
 8439 000b 00       		.byte	0
 8440 000c 0000     		.word	0
 8441 000e 0000     		.word	0
 8442 0010 00000000 		.long	Ltext0
 8443 0014 35060000 		.long	Letext0-Ltext0
 8444 0018 00000000 		.long	LFB629
 8445 001c 0D000000 		.long	LFE629-LFB629
 8446 0020 00000000 		.long	LFB630
 8447 0024 0D000000 		.long	LFE630-LFB630
 8448 0028 00000000 		.long	LFB632
 8449 002c 0A000000 		.long	LFE632-LFB632
 8450 0030 00000000 		.long	LFB633
 8451 0034 26000000 		.long	LFE633-LFB633
 8452 0038 00000000 		.long	LFB634
 8453 003c 26000000 		.long	LFE634-LFB634
 8454 0040 00000000 		.long	LFB661
 8455 0044 5E000000 		.long	LFE661-LFB661
 8456 0048 00000000 		.long	LFB691
 8457 004c 25000000 		.long	LFE691-LFB691
 8458 0050 00000000 		.long	LFB1025
 8459 0054 08000000 		.long	LFE1025-LFB1025
 8460 0058 00000000 		.long	0
 8461 005c 00000000 		.long	0
 8462              		.section	.debug_ranges,"dr"
 8463              	Ldebug_ranges0:
 8464 0000 00000000 		.long	Ltext0
 8465 0004 35060000 		.long	Letext0
 8466 0008 00000000 		.long	LFB629
 8467 000c 0D000000 		.long	LFE629
 8468 0010 00000000 		.long	LFB630
 8469 0014 0D000000 		.long	LFE630
GAS LISTING C:\Users\NJLLMR~1\AppData\Local\Temp\ccqq7oi7.s 			page 198


 8470 0018 00000000 		.long	LFB632
 8471 001c 0A000000 		.long	LFE632
 8472 0020 00000000 		.long	LFB633
 8473 0024 26000000 		.long	LFE633
 8474 0028 00000000 		.long	LFB634
 8475 002c 26000000 		.long	LFE634
 8476 0030 00000000 		.long	LFB661
 8477 0034 5E000000 		.long	LFE661
 8478 0038 00000000 		.long	LFB691
 8479 003c 25000000 		.long	LFE691
 8480 0040 00000000 		.long	LFB1025
 8481 0044 08000000 		.long	LFE1025
 8482 0048 00000000 		.long	0
 8483 004c 00000000 		.long	0
 8484              		.section	.debug_line,"dr"
 8485              	Ldebug_line0:
 8486 0000 28050000 		.section	.debug_str,"dr"
 8486      0200E503 
 8486      00000101 
 8486      FB0E0D00 
 8486      01010101 
 8487              	LASF16:
 8488 0000 7265706C 		.ascii "replace\0"
 8488      61636500 
 8489              	LASF7:
 8490 0008 5F535F65 		.ascii "_S_empty_rep\0"
 8490      6D707479 
 8490      5F726570 
 8490      00
 8491              	LASF23:
 8492 0015 5F436861 		.ascii "_CharT\0"
 8492      725400
 8493              	LASF22:
 8494 001c 5F547261 		.ascii "_Traits\0"
 8494      69747300 
 8495              	LASF3:
 8496 0024 72656665 		.ascii "reference\0"
 8496      72656E63 
 8496      6500
 8497              	LASF26:
 8498 002e 5F5F6D61 		.ascii "__max\0"
 8498      7800
 8499              	LASF27:
 8500 0034 5F5F6973 		.ascii "__is_signed\0"
 8500      5F736967 
 8500      6E656400 
 8501              	LASF9:
 8502 0040 62617369 		.ascii "basic_string\0"
 8502      635F7374 
 8502      72696E67 
 8502      00
 8503              	LASF12:
 8504 004d 6F706572 		.ascii "operator[]\0"
 8504      61746F72 
 8504      5B5D00
 8505              	LASF24:
 8506 0058 6E65775F 		.ascii "new_allocator\0"
GAS LISTING C:\Users\NJLLMR~1\AppData\Local\Temp\ccqq7oi7.s 			page 199


 8506      616C6C6F 
 8506      6361746F 
 8506      7200
 8507              	LASF18:
 8508 0066 66696E64 		.ascii "find_first_of\0"
 8508      5F666972 
 8508      73745F6F 
 8508      6600
 8509              	LASF25:
 8510 0074 5F5F6D69 		.ascii "__min\0"
 8510      6E00
 8511              	LASF31:
 8512 007a 74686973 		.ascii "this\0"
 8512      00
 8513              	LASF30:
 8514 007f 456D706C 		.ascii "Employee\0"
 8514      6F796565 
 8514      00
 8515              	LASF32:
 8516 0088 656D706C 		.ascii "employee\0"
 8516      6F796565 
 8516      00
 8517              	LASF21:
 8518 0091 66696E64 		.ascii "find_last_not_of\0"
 8518      5F6C6173 
 8518      745F6E6F 
 8518      745F6F66 
 8518      00
 8519              	LASF17:
 8520 00a2 7266696E 		.ascii "rfind\0"
 8520      6400
 8521              	LASF6:
 8522 00a8 5F416C6C 		.ascii "_Alloc_hider\0"
 8522      6F635F68 
 8522      69646572 
 8522      00
 8523              	LASF4:
 8524 00b5 636F6E73 		.ascii "const_reference\0"
 8524      745F7265 
 8524      66657265 
 8524      6E636500 
 8525              	LASF11:
 8526 00c5 6D61785F 		.ascii "max_size\0"
 8526      73697A65 
 8526      00
 8527              	LASF20:
 8528 00ce 66696E64 		.ascii "find_first_not_of\0"
 8528      5F666972 
 8528      73745F6E 
 8528      6F745F6F 
 8528      6600
 8529              	LASF13:
 8530 00e0 6F706572 		.ascii "operator+=\0"
 8530      61746F72 
 8530      2B3D00
 8531              	LASF15:
 8532 00eb 696E7365 		.ascii "insert\0"
GAS LISTING C:\Users\NJLLMR~1\AppData\Local\Temp\ccqq7oi7.s 			page 200


 8532      727400
 8533              	LASF29:
 8534 00f2 5F56616C 		.ascii "_Value\0"
 8534      756500
 8535              	LASF8:
 8536 00f9 5F535F63 		.ascii "_S_copy_chars\0"
 8536      6F70795F 
 8536      63686172 
 8536      7300
 8537              	LASF19:
 8538 0107 66696E64 		.ascii "find_last_of\0"
 8538      5F6C6173 
 8538      745F6F66 
 8538      00
 8539              	LASF28:
 8540 0114 5F5F6469 		.ascii "__digits\0"
 8540      67697473 
 8540      00
 8541              	LASF2:
 8542 011d 73697A65 		.ascii "size_type\0"
 8542      5F747970 
 8542      6500
 8543              	LASF14:
 8544 0127 61707065 		.ascii "append\0"
 8544      6E6400
 8545              	LASF10:
 8546 012e 6F706572 		.ascii "operator=\0"
 8546      61746F72 
 8546      3D00
 8547              	LASF0:
 8548 0138 636F6D70 		.ascii "compare\0"
 8548      61726500 
 8549              	LASF1:
 8550 0140 61737369 		.ascii "assign\0"
 8550      676E00
 8551              	LASF5:
 8552 0147 616C6C6F 		.ascii "allocator\0"
 8552      6361746F 
 8552      7200
 8553              		.ident	"GCC: (tdm-1) 4.9.2"
GAS LISTING C:\Users\NJLLMR~1\AppData\Local\Temp\ccqq7oi7.s 			page 201


DEFINED SYMBOLS
                            *ABS*:00000000 Employee.cpp
C:\Users\NJLLMR~1\AppData\Local\Temp\ccqq7oi7.s:9      .text$_ZStanSt13_Ios_FmtflagsS_:00000000 __ZStanSt13_Ios_FmtflagsS_
C:\Users\NJLLMR~1\AppData\Local\Temp\ccqq7oi7.s:33     .text$_ZStorSt13_Ios_FmtflagsS_:00000000 __ZStorSt13_Ios_FmtflagsS_
C:\Users\NJLLMR~1\AppData\Local\Temp\ccqq7oi7.s:56     .text$_ZStcoSt13_Ios_Fmtflags:00000000 __ZStcoSt13_Ios_Fmtflags
C:\Users\NJLLMR~1\AppData\Local\Temp\ccqq7oi7.s:78     .text$_ZStoRRSt13_Ios_FmtflagsS_:00000000 __ZStoRRSt13_Ios_FmtflagsS_
C:\Users\NJLLMR~1\AppData\Local\Temp\ccqq7oi7.s:109    .text$_ZStaNRSt13_Ios_FmtflagsS_:00000000 __ZStaNRSt13_Ios_FmtflagsS_
C:\Users\NJLLMR~1\AppData\Local\Temp\ccqq7oi7.s:141    .text$_ZNSt8ios_base4setfESt13_Ios_FmtflagsS0_:00000000 __ZNSt8ios_base4setfESt13_Ios_FmtflagsS0_
C:\Users\NJLLMR~1\AppData\Local\Temp\ccqq7oi7.s:193    .text$_ZSt5fixedRSt8ios_base:00000000 __ZSt5fixedRSt8ios_base
                             .bss:00000000 __ZStL8__ioinit
C:\Users\NJLLMR~1\AppData\Local\Temp\ccqq7oi7.s:223    .text$_ZSt12setprecisioni:00000000 __ZSt12setprecisioni
C:\Users\NJLLMR~1\AppData\Local\Temp\ccqq7oi7.s:251    .text:00000000 __ZN8EmployeeC2Ev
C:\Users\NJLLMR~1\AppData\Local\Temp\ccqq7oi7.s:251    .text:00000000 __ZN8EmployeeC1Ev
C:\Users\NJLLMR~1\AppData\Local\Temp\ccqq7oi7.s:389    .text:00000120 __ZN8EmployeeC2ESsSsiii
C:\Users\NJLLMR~1\AppData\Local\Temp\ccqq7oi7.s:389    .text:00000120 __ZN8EmployeeC1ESsSsiii
C:\Users\NJLLMR~1\AppData\Local\Temp\ccqq7oi7.s:531    .text:0000023e __ZN8EmployeeD2Ev
C:\Users\NJLLMR~1\AppData\Local\Temp\ccqq7oi7.s:531    .text:0000023e __ZN8EmployeeD1Ev
C:\Users\NJLLMR~1\AppData\Local\Temp\ccqq7oi7.s:623    .text:000002dc __ZN8Employee8get_nameEv
C:\Users\NJLLMR~1\AppData\Local\Temp\ccqq7oi7.s:652    .text:00000300 __ZN8Employee7get_ssnEv
C:\Users\NJLLMR~1\AppData\Local\Temp\ccqq7oi7.s:682    .text:00000326 __ZN8Employee10get_salaryEv
C:\Users\NJLLMR~1\AppData\Local\Temp\ccqq7oi7.s:706    .text:00000338 __ZN8Employee9get_monthEv
C:\Users\NJLLMR~1\AppData\Local\Temp\ccqq7oi7.s:730    .text:0000034a __ZN8Employee8get_yearEv
C:\Users\NJLLMR~1\AppData\Local\Temp\ccqq7oi7.s:769    .text:0000035b __ZlsRSoR8Employee
C:\Users\NJLLMR~1\AppData\Local\Temp\ccqq7oi7.s:909    .text:00000508 __ZrsRSiR8Employee
C:\Users\NJLLMR~1\AppData\Local\Temp\ccqq7oi7.s:983    .text:000005da ___tcf_0
C:\Users\NJLLMR~1\AppData\Local\Temp\ccqq7oi7.s:1004   .text:000005ec __Z41__static_initialization_and_destruction_0ii
C:\Users\NJLLMR~1\AppData\Local\Temp\ccqq7oi7.s:1034   .text:00000619 __GLOBAL__sub_I__ZN8EmployeeC2Ev

UNDEFINED SYMBOLS
___gxx_personality_sj0
__Unwind_SjLj_Register
__Unwind_SjLj_Unregister
__ZSt4cout
__ZNSsC1Ev
__ZNSsaSEPKc
__ZNSsD1Ev
__Unwind_SjLj_Resume
__ZNSsaSERKSs
__ZNSsC1ERKSs
__ZStlsISt11char_traitsIcEERSt13basic_ostreamIcT_ES5_PKc
__ZStlsIcSt11char_traitsIcESaIcEERSt13basic_ostreamIT_T0_ES7_RKSbIS4_S5_T1_E
__ZSt4endlIcSt11char_traitsIcEERSt13basic_ostreamIT_T0_ES6_
__ZNSolsEPFRSoS_E
__ZNSolsEPFRSt8ios_baseS0_E
__ZStlsIcSt11char_traitsIcEERSt13basic_ostreamIT_T0_ES6_St13_Setprecision
__ZNSolsEi
__ZStrsIcSt11char_traitsIcESaIcEERSt13basic_istreamIT_T0_ES7_RSbIS4_S5_T1_E
__ZNSirsERi
__ZNSt8ios_base4InitD1Ev
__ZNSt8ios_base4InitC1Ev
_atexit
