GAS LISTING C:\Users\NJLLMR~1\AppData\Local\Temp\cc5gZH1j.s 			page 1


   1              		.file	"Main_ui.cpp"
   2              		.text
   3              	Ltext0:
   4              		.cfi_sections	.debug_frame
   5              	.lcomm __ZStL8__ioinit,1,1
   6              		.align 2
   7              		.globl	__ZN7Main_uiC2Ev
   9              	__ZN7Main_uiC2Ev:
  10              	LFB1137:
  11              		.file 1 "C:/Users/Nj\341ll M\375rdal/3viknanamskeid/LitidVerk1/Verkefni2/Vikuverk2/src/ui/Main_ui.
   1:C:/Users/Njáll Mýrdal/3viknanamskeid/LitidVerk1/Verkefni2/Vikuverk2/src/ui\Main_ui.cpp **** #include "Main_ui.h"
   2:C:/Users/Njáll Mýrdal/3viknanamskeid/LitidVerk1/Verkefni2/Vikuverk2/src/ui\Main_ui.cpp **** #include "Service.h"
   3:C:/Users/Njáll Mýrdal/3viknanamskeid/LitidVerk1/Verkefni2/Vikuverk2/src/ui\Main_ui.cpp **** #include "Validate.h"
   4:C:/Users/Njáll Mýrdal/3viknanamskeid/LitidVerk1/Verkefni2/Vikuverk2/src/ui\Main_ui.cpp **** #include <string>
   5:C:/Users/Njáll Mýrdal/3viknanamskeid/LitidVerk1/Verkefni2/Vikuverk2/src/ui\Main_ui.cpp **** 
   6:C:/Users/Njáll Mýrdal/3viknanamskeid/LitidVerk1/Verkefni2/Vikuverk2/src/ui\Main_ui.cpp **** #include <iostream>
   7:C:/Users/Njáll Mýrdal/3viknanamskeid/LitidVerk1/Verkefni2/Vikuverk2/src/ui\Main_ui.cpp **** 
   8:C:/Users/Njáll Mýrdal/3viknanamskeid/LitidVerk1/Verkefni2/Vikuverk2/src/ui\Main_ui.cpp **** using namespace std;
   9:C:/Users/Njáll Mýrdal/3viknanamskeid/LitidVerk1/Verkefni2/Vikuverk2/src/ui\Main_ui.cpp **** 
  10:C:/Users/Njáll Mýrdal/3viknanamskeid/LitidVerk1/Verkefni2/Vikuverk2/src/ui\Main_ui.cpp **** Main_ui::Main_ui()
  12              		.loc 1 10 0
  13              		.cfi_startproc
  14 0000 55       		pushl	%ebp
  15              		.cfi_def_cfa_offset 8
  16              		.cfi_offset 5, -8
  17 0001 89E5     		movl	%esp, %ebp
  18              		.cfi_def_cfa_register 5
  19 0003 83EC04   		subl	$4, %esp
  20 0006 894DFC   		movl	%ecx, -4(%ebp)
  11:C:/Users/Njáll Mýrdal/3viknanamskeid/LitidVerk1/Verkefni2/Vikuverk2/src/ui\Main_ui.cpp **** {
  12:C:/Users/Njáll Mýrdal/3viknanamskeid/LitidVerk1/Verkefni2/Vikuverk2/src/ui\Main_ui.cpp ****     //ctor
  13:C:/Users/Njáll Mýrdal/3viknanamskeid/LitidVerk1/Verkefni2/Vikuverk2/src/ui\Main_ui.cpp **** }
  21              		.loc 1 13 0
  22 0009 C9       		leave
  23              		.cfi_restore 5
  24              		.cfi_def_cfa 4, 4
  25 000a C3       		ret
  26              		.cfi_endproc
  27              	LFE1137:
  28              		.globl	__ZN7Main_uiC1Ev
  30              		.set	__ZN7Main_uiC1Ev,__ZN7Main_uiC2Ev
  31              		.section .rdata,"dr"
  32              		.align 4
  33              	LC0:
  34 0000 20202020 		.ascii "        This is a salary registry menu             \0"
  34      20202020 
  34      54686973 
  34      20697320 
  34      61207361 
  35              		.align 4
  36              	LC1:
  37 0034 20202020 		.ascii "           Choose following things                 \0"
  37      20202020 
  37      20202043 
  37      686F6F73 
  37      6520666F 
  38              		.align 4
GAS LISTING C:\Users\NJLLMR~1\AppData\Local\Temp\cc5gZH1j.s 			page 2


  39              	LC2:
  40 0068 2D2D2D2D 		.ascii "---------------------------------------------------\0"
  40      2D2D2D2D 
  40      2D2D2D2D 
  40      2D2D2D2D 
  40      2D2D2D2D 
  41              		.align 4
  42              	LC3:
  43 009c 7C20312E 		.ascii "| 1. Add an employee to the salary registry       |\0"
  43      20416464 
  43      20616E20 
  43      656D706C 
  43      6F796565 
  44              		.align 4
  45              	LC4:
  46 00d0 7C202020 		.ascii "|                                                 |\0"
  46      20202020 
  46      20202020 
  46      20202020 
  46      20202020 
  47              		.align 4
  48              	LC5:
  49 0104 7C20322E 		.ascii "| 2. Get salary records from an employee          |\0"
  49      20476574 
  49      2073616C 
  49      61727920 
  49      7265636F 
  50              		.align 4
  51              	LC6:
  52 0138 7C20332E 		.ascii "| 3. Get yearly salary from an employee           |\0"
  52      20476574 
  52      20796561 
  52      726C7920 
  52      73616C61 
  53              		.align 4
  54              	LC7:
  55 016c 7C20342E 		.ascii "| 4. Get the highest paid employee by year        |\0"
  55      20476574 
  55      20746865 
  55      20686967 
  55      68657374 
  56              		.align 4
  57              	LC8:
  58 01a0 7C20352E 		.ascii "| 5. quit the program                             |\0"
  58      20717569 
  58      74207468 
  58      65207072 
  58      6F677261 
  59              	LC9:
  60 01d4 496E7661 		.ascii "Invalid input -- try again\0"
  60      6C696420 
  60      696E7075 
  60      74202D2D 
  60      20747279 
  61              		.text
  62 000b 90       		.align 2
  63              		.globl	__ZN7Main_ui9main_menuEv
GAS LISTING C:\Users\NJLLMR~1\AppData\Local\Temp\cc5gZH1j.s 			page 3


  65              	__ZN7Main_ui9main_menuEv:
  66              	LFB1139:
  14:C:/Users/Njáll Mýrdal/3viknanamskeid/LitidVerk1/Verkefni2/Vikuverk2/src/ui\Main_ui.cpp **** 
  15:C:/Users/Njáll Mýrdal/3viknanamskeid/LitidVerk1/Verkefni2/Vikuverk2/src/ui\Main_ui.cpp **** void Main_ui::main_menu(){
  67              		.loc 1 15 0
  68              		.cfi_startproc
  69 000c 55       		pushl	%ebp
  70              		.cfi_def_cfa_offset 8
  71              		.cfi_offset 5, -8
  72 000d 89E5     		movl	%esp, %ebp
  73              		.cfi_def_cfa_register 5
  74 000f 83EC38   		subl	$56, %esp
  75 0012 894DE4   		movl	%ecx, -28(%ebp)
  76              	LBB2:
  16:C:/Users/Njáll Mýrdal/3viknanamskeid/LitidVerk1/Verkefni2/Vikuverk2/src/ui\Main_ui.cpp ****     char input = '\0';
  77              		.loc 1 16 0
  78 0015 C645F700 		movb	$0, -9(%ebp)
  79              	L10:
  17:C:/Users/Njáll Mýrdal/3viknanamskeid/LitidVerk1/Verkefni2/Vikuverk2/src/ui\Main_ui.cpp ****     
  18:C:/Users/Njáll Mýrdal/3viknanamskeid/LitidVerk1/Verkefni2/Vikuverk2/src/ui\Main_ui.cpp ****     while(true) {
  19:C:/Users/Njáll Mýrdal/3viknanamskeid/LitidVerk1/Verkefni2/Vikuverk2/src/ui\Main_ui.cpp ****         cout << "        This is a salary registry menu             " << endl;
  80              		.loc 1 19 0
  81 0019 C7442404 		movl	$LC0, 4(%esp)
  81      00000000 
  82 0021 C7042400 		movl	$__ZSt4cout, (%esp)
  82      000000
  83 0028 E8000000 		call	__ZStlsISt11char_traitsIcEERSt13basic_ostreamIcT_ES5_PKc
  83      00
  84 002d C7042400 		movl	$__ZSt4endlIcSt11char_traitsIcEERSt13basic_ostreamIT_T0_ES6_, (%esp)
  84      000000
  85 0034 89C1     		movl	%eax, %ecx
  86 0036 E8000000 		call	__ZNSolsEPFRSoS_E
  86      00
  87 003b 83EC04   		subl	$4, %esp
  20:C:/Users/Njáll Mýrdal/3viknanamskeid/LitidVerk1/Verkefni2/Vikuverk2/src/ui\Main_ui.cpp ****         cout << "           Choose following things                 " << endl;
  88              		.loc 1 20 0
  89 003e C7442404 		movl	$LC1, 4(%esp)
  89      34000000 
  90 0046 C7042400 		movl	$__ZSt4cout, (%esp)
  90      000000
  91 004d E8000000 		call	__ZStlsISt11char_traitsIcEERSt13basic_ostreamIcT_ES5_PKc
  91      00
  92 0052 C7042400 		movl	$__ZSt4endlIcSt11char_traitsIcEERSt13basic_ostreamIT_T0_ES6_, (%esp)
  92      000000
  93 0059 89C1     		movl	%eax, %ecx
  94 005b E8000000 		call	__ZNSolsEPFRSoS_E
  94      00
  95 0060 83EC04   		subl	$4, %esp
  21:C:/Users/Njáll Mýrdal/3viknanamskeid/LitidVerk1/Verkefni2/Vikuverk2/src/ui\Main_ui.cpp ****         cout << "---------------------------------------------------" << endl;
  96              		.loc 1 21 0
  97 0063 C7442404 		movl	$LC2, 4(%esp)
  97      68000000 
  98 006b C7042400 		movl	$__ZSt4cout, (%esp)
  98      000000
  99 0072 E8000000 		call	__ZStlsISt11char_traitsIcEERSt13basic_ostreamIcT_ES5_PKc
  99      00
 100 0077 C7042400 		movl	$__ZSt4endlIcSt11char_traitsIcEERSt13basic_ostreamIT_T0_ES6_, (%esp)
GAS LISTING C:\Users\NJLLMR~1\AppData\Local\Temp\cc5gZH1j.s 			page 4


 100      000000
 101 007e 89C1     		movl	%eax, %ecx
 102 0080 E8000000 		call	__ZNSolsEPFRSoS_E
 102      00
 103 0085 83EC04   		subl	$4, %esp
  22:C:/Users/Njáll Mýrdal/3viknanamskeid/LitidVerk1/Verkefni2/Vikuverk2/src/ui\Main_ui.cpp ****         cout << "| 1. Add an employee to the salary registry       |" << endl;
 104              		.loc 1 22 0
 105 0088 C7442404 		movl	$LC3, 4(%esp)
 105      9C000000 
 106 0090 C7042400 		movl	$__ZSt4cout, (%esp)
 106      000000
 107 0097 E8000000 		call	__ZStlsISt11char_traitsIcEERSt13basic_ostreamIcT_ES5_PKc
 107      00
 108 009c C7042400 		movl	$__ZSt4endlIcSt11char_traitsIcEERSt13basic_ostreamIT_T0_ES6_, (%esp)
 108      000000
 109 00a3 89C1     		movl	%eax, %ecx
 110 00a5 E8000000 		call	__ZNSolsEPFRSoS_E
 110      00
 111 00aa 83EC04   		subl	$4, %esp
  23:C:/Users/Njáll Mýrdal/3viknanamskeid/LitidVerk1/Verkefni2/Vikuverk2/src/ui\Main_ui.cpp ****         cout << "|                                                 |" << endl;
 112              		.loc 1 23 0
 113 00ad C7442404 		movl	$LC4, 4(%esp)
 113      D0000000 
 114 00b5 C7042400 		movl	$__ZSt4cout, (%esp)
 114      000000
 115 00bc E8000000 		call	__ZStlsISt11char_traitsIcEERSt13basic_ostreamIcT_ES5_PKc
 115      00
 116 00c1 C7042400 		movl	$__ZSt4endlIcSt11char_traitsIcEERSt13basic_ostreamIT_T0_ES6_, (%esp)
 116      000000
 117 00c8 89C1     		movl	%eax, %ecx
 118 00ca E8000000 		call	__ZNSolsEPFRSoS_E
 118      00
 119 00cf 83EC04   		subl	$4, %esp
  24:C:/Users/Njáll Mýrdal/3viknanamskeid/LitidVerk1/Verkefni2/Vikuverk2/src/ui\Main_ui.cpp ****         cout << "| 2. Get salary records from an employee          |" << endl;
 120              		.loc 1 24 0
 121 00d2 C7442404 		movl	$LC5, 4(%esp)
 121      04010000 
 122 00da C7042400 		movl	$__ZSt4cout, (%esp)
 122      000000
 123 00e1 E8000000 		call	__ZStlsISt11char_traitsIcEERSt13basic_ostreamIcT_ES5_PKc
 123      00
 124 00e6 C7042400 		movl	$__ZSt4endlIcSt11char_traitsIcEERSt13basic_ostreamIT_T0_ES6_, (%esp)
 124      000000
 125 00ed 89C1     		movl	%eax, %ecx
 126 00ef E8000000 		call	__ZNSolsEPFRSoS_E
 126      00
 127 00f4 83EC04   		subl	$4, %esp
  25:C:/Users/Njáll Mýrdal/3viknanamskeid/LitidVerk1/Verkefni2/Vikuverk2/src/ui\Main_ui.cpp ****         cout << "|                                                 |" << endl;
 128              		.loc 1 25 0
 129 00f7 C7442404 		movl	$LC4, 4(%esp)
 129      D0000000 
 130 00ff C7042400 		movl	$__ZSt4cout, (%esp)
 130      000000
 131 0106 E8000000 		call	__ZStlsISt11char_traitsIcEERSt13basic_ostreamIcT_ES5_PKc
 131      00
 132 010b C7042400 		movl	$__ZSt4endlIcSt11char_traitsIcEERSt13basic_ostreamIT_T0_ES6_, (%esp)
 132      000000
GAS LISTING C:\Users\NJLLMR~1\AppData\Local\Temp\cc5gZH1j.s 			page 5


 133 0112 89C1     		movl	%eax, %ecx
 134 0114 E8000000 		call	__ZNSolsEPFRSoS_E
 134      00
 135 0119 83EC04   		subl	$4, %esp
  26:C:/Users/Njáll Mýrdal/3viknanamskeid/LitidVerk1/Verkefni2/Vikuverk2/src/ui\Main_ui.cpp ****         cout << "| 3. Get yearly salary from an employee           |" << endl;
 136              		.loc 1 26 0
 137 011c C7442404 		movl	$LC6, 4(%esp)
 137      38010000 
 138 0124 C7042400 		movl	$__ZSt4cout, (%esp)
 138      000000
 139 012b E8000000 		call	__ZStlsISt11char_traitsIcEERSt13basic_ostreamIcT_ES5_PKc
 139      00
 140 0130 C7042400 		movl	$__ZSt4endlIcSt11char_traitsIcEERSt13basic_ostreamIT_T0_ES6_, (%esp)
 140      000000
 141 0137 89C1     		movl	%eax, %ecx
 142 0139 E8000000 		call	__ZNSolsEPFRSoS_E
 142      00
 143 013e 83EC04   		subl	$4, %esp
  27:C:/Users/Njáll Mýrdal/3viknanamskeid/LitidVerk1/Verkefni2/Vikuverk2/src/ui\Main_ui.cpp ****         cout << "|                                                 |" << endl;
 144              		.loc 1 27 0
 145 0141 C7442404 		movl	$LC4, 4(%esp)
 145      D0000000 
 146 0149 C7042400 		movl	$__ZSt4cout, (%esp)
 146      000000
 147 0150 E8000000 		call	__ZStlsISt11char_traitsIcEERSt13basic_ostreamIcT_ES5_PKc
 147      00
 148 0155 C7042400 		movl	$__ZSt4endlIcSt11char_traitsIcEERSt13basic_ostreamIT_T0_ES6_, (%esp)
 148      000000
 149 015c 89C1     		movl	%eax, %ecx
 150 015e E8000000 		call	__ZNSolsEPFRSoS_E
 150      00
 151 0163 83EC04   		subl	$4, %esp
  28:C:/Users/Njáll Mýrdal/3viknanamskeid/LitidVerk1/Verkefni2/Vikuverk2/src/ui\Main_ui.cpp ****         cout << "| 4. Get the highest paid employee by year        |" << endl;
 152              		.loc 1 28 0
 153 0166 C7442404 		movl	$LC7, 4(%esp)
 153      6C010000 
 154 016e C7042400 		movl	$__ZSt4cout, (%esp)
 154      000000
 155 0175 E8000000 		call	__ZStlsISt11char_traitsIcEERSt13basic_ostreamIcT_ES5_PKc
 155      00
 156 017a C7042400 		movl	$__ZSt4endlIcSt11char_traitsIcEERSt13basic_ostreamIT_T0_ES6_, (%esp)
 156      000000
 157 0181 89C1     		movl	%eax, %ecx
 158 0183 E8000000 		call	__ZNSolsEPFRSoS_E
 158      00
 159 0188 83EC04   		subl	$4, %esp
  29:C:/Users/Njáll Mýrdal/3viknanamskeid/LitidVerk1/Verkefni2/Vikuverk2/src/ui\Main_ui.cpp ****         cout << "|                                                 |" << endl;
 160              		.loc 1 29 0
 161 018b C7442404 		movl	$LC4, 4(%esp)
 161      D0000000 
 162 0193 C7042400 		movl	$__ZSt4cout, (%esp)
 162      000000
 163 019a E8000000 		call	__ZStlsISt11char_traitsIcEERSt13basic_ostreamIcT_ES5_PKc
 163      00
 164 019f C7042400 		movl	$__ZSt4endlIcSt11char_traitsIcEERSt13basic_ostreamIT_T0_ES6_, (%esp)
 164      000000
 165 01a6 89C1     		movl	%eax, %ecx
GAS LISTING C:\Users\NJLLMR~1\AppData\Local\Temp\cc5gZH1j.s 			page 6


 166 01a8 E8000000 		call	__ZNSolsEPFRSoS_E
 166      00
 167 01ad 83EC04   		subl	$4, %esp
  30:C:/Users/Njáll Mýrdal/3viknanamskeid/LitidVerk1/Verkefni2/Vikuverk2/src/ui\Main_ui.cpp ****         cout << "| 5. quit the program                             |" << endl;
 168              		.loc 1 30 0
 169 01b0 C7442404 		movl	$LC8, 4(%esp)
 169      A0010000 
 170 01b8 C7042400 		movl	$__ZSt4cout, (%esp)
 170      000000
 171 01bf E8000000 		call	__ZStlsISt11char_traitsIcEERSt13basic_ostreamIcT_ES5_PKc
 171      00
 172 01c4 C7042400 		movl	$__ZSt4endlIcSt11char_traitsIcEERSt13basic_ostreamIT_T0_ES6_, (%esp)
 172      000000
 173 01cb 89C1     		movl	%eax, %ecx
 174 01cd E8000000 		call	__ZNSolsEPFRSoS_E
 174      00
 175 01d2 83EC04   		subl	$4, %esp
  31:C:/Users/Njáll Mýrdal/3viknanamskeid/LitidVerk1/Verkefni2/Vikuverk2/src/ui\Main_ui.cpp ****         cout << "|                                                 |" << endl;
 176              		.loc 1 31 0
 177 01d5 C7442404 		movl	$LC4, 4(%esp)
 177      D0000000 
 178 01dd C7042400 		movl	$__ZSt4cout, (%esp)
 178      000000
 179 01e4 E8000000 		call	__ZStlsISt11char_traitsIcEERSt13basic_ostreamIcT_ES5_PKc
 179      00
 180 01e9 C7042400 		movl	$__ZSt4endlIcSt11char_traitsIcEERSt13basic_ostreamIT_T0_ES6_, (%esp)
 180      000000
 181 01f0 89C1     		movl	%eax, %ecx
 182 01f2 E8000000 		call	__ZNSolsEPFRSoS_E
 182      00
 183 01f7 83EC04   		subl	$4, %esp
  32:C:/Users/Njáll Mýrdal/3viknanamskeid/LitidVerk1/Verkefni2/Vikuverk2/src/ui\Main_ui.cpp ****         cout << "---------------------------------------------------" << endl;
 184              		.loc 1 32 0
 185 01fa C7442404 		movl	$LC2, 4(%esp)
 185      68000000 
 186 0202 C7042400 		movl	$__ZSt4cout, (%esp)
 186      000000
 187 0209 E8000000 		call	__ZStlsISt11char_traitsIcEERSt13basic_ostreamIcT_ES5_PKc
 187      00
 188 020e C7042400 		movl	$__ZSt4endlIcSt11char_traitsIcEERSt13basic_ostreamIT_T0_ES6_, (%esp)
 188      000000
 189 0215 89C1     		movl	%eax, %ecx
 190 0217 E8000000 		call	__ZNSolsEPFRSoS_E
 190      00
 191 021c 83EC04   		subl	$4, %esp
  33:C:/Users/Njáll Mýrdal/3viknanamskeid/LitidVerk1/Verkefni2/Vikuverk2/src/ui\Main_ui.cpp ****         cin >> input;
 192              		.loc 1 33 0
 193 021f 8D45F7   		leal	-9(%ebp), %eax
 194 0222 89442404 		movl	%eax, 4(%esp)
 195 0226 C7042400 		movl	$__ZSt3cin, (%esp)
 195      000000
 196 022d E8000000 		call	__ZStrsIcSt11char_traitsIcEERSt13basic_istreamIT_T0_ES6_RS3_
 196      00
  34:C:/Users/Njáll Mýrdal/3viknanamskeid/LitidVerk1/Verkefni2/Vikuverk2/src/ui\Main_ui.cpp ****         if (input == '1') {
 197              		.loc 1 34 0
 198 0232 0FB645F7 		movzbl	-9(%ebp), %eax
 199 0236 3C31     		cmpb	$49, %al
GAS LISTING C:\Users\NJLLMR~1\AppData\Local\Temp\cc5gZH1j.s 			page 7


 200 0238 750C     		jne	L3
  35:C:/Users/Njáll Mýrdal/3viknanamskeid/LitidVerk1/Verkefni2/Vikuverk2/src/ui\Main_ui.cpp ****             addEmplMenu();
 201              		.loc 1 35 0
 202 023a 8B45E4   		movl	-28(%ebp), %eax
 203 023d 89C1     		movl	%eax, %ecx
 204 023f E8740000 		call	__ZN7Main_ui11addEmplMenuEv
 204      00
 205 0244 EB6B     		jmp	L4
 206              	L3:
  36:C:/Users/Njáll Mýrdal/3viknanamskeid/LitidVerk1/Verkefni2/Vikuverk2/src/ui\Main_ui.cpp ****         }
  37:C:/Users/Njáll Mýrdal/3viknanamskeid/LitidVerk1/Verkefni2/Vikuverk2/src/ui\Main_ui.cpp ****         else if(input == '2') {
 207              		.loc 1 37 0
 208 0246 0FB645F7 		movzbl	-9(%ebp), %eax
 209 024a 3C32     		cmpb	$50, %al
 210 024c 750C     		jne	L5
  38:C:/Users/Njáll Mýrdal/3viknanamskeid/LitidVerk1/Verkefni2/Vikuverk2/src/ui\Main_ui.cpp ****             getRcrdMenu();
 211              		.loc 1 38 0
 212 024e 8B45E4   		movl	-28(%ebp), %eax
 213 0251 89C1     		movl	%eax, %ecx
 214 0253 E8FA0900 		call	__ZN7Main_ui11getRcrdMenuEv
 214      00
 215 0258 EB57     		jmp	L4
 216              	L5:
  39:C:/Users/Njáll Mýrdal/3viknanamskeid/LitidVerk1/Verkefni2/Vikuverk2/src/ui\Main_ui.cpp ****         }
  40:C:/Users/Njáll Mýrdal/3viknanamskeid/LitidVerk1/Verkefni2/Vikuverk2/src/ui\Main_ui.cpp ****         else if(input == '3'){
 217              		.loc 1 40 0
 218 025a 0FB645F7 		movzbl	-9(%ebp), %eax
 219 025e 3C33     		cmpb	$51, %al
 220 0260 750C     		jne	L6
  41:C:/Users/Njáll Mýrdal/3viknanamskeid/LitidVerk1/Verkefni2/Vikuverk2/src/ui\Main_ui.cpp ****             getYrPayMenu();
 221              		.loc 1 41 0
 222 0262 8B45E4   		movl	-28(%ebp), %eax
 223 0265 89C1     		movl	%eax, %ecx
 224 0267 E8F20900 		call	__ZN7Main_ui12getYrPayMenuEv
 224      00
 225 026c EB43     		jmp	L4
 226              	L6:
  42:C:/Users/Njáll Mýrdal/3viknanamskeid/LitidVerk1/Verkefni2/Vikuverk2/src/ui\Main_ui.cpp ****         }
  43:C:/Users/Njáll Mýrdal/3viknanamskeid/LitidVerk1/Verkefni2/Vikuverk2/src/ui\Main_ui.cpp ****         else if(input == '4') {
 227              		.loc 1 43 0
 228 026e 0FB645F7 		movzbl	-9(%ebp), %eax
 229 0272 3C34     		cmpb	$52, %al
 230 0274 750C     		jne	L7
  44:C:/Users/Njáll Mýrdal/3viknanamskeid/LitidVerk1/Verkefni2/Vikuverk2/src/ui\Main_ui.cpp ****             getHiPayMenu();
 231              		.loc 1 44 0
 232 0276 8B45E4   		movl	-28(%ebp), %eax
 233 0279 89C1     		movl	%eax, %ecx
 234 027b E8EA0900 		call	__ZN7Main_ui12getHiPayMenuEv
 234      00
 235 0280 EB2F     		jmp	L4
 236              	L7:
  45:C:/Users/Njáll Mýrdal/3viknanamskeid/LitidVerk1/Verkefni2/Vikuverk2/src/ui\Main_ui.cpp ****         }
  46:C:/Users/Njáll Mýrdal/3viknanamskeid/LitidVerk1/Verkefni2/Vikuverk2/src/ui\Main_ui.cpp ****         else if (input == '5') {
 237              		.loc 1 46 0
 238 0282 0FB645F7 		movzbl	-9(%ebp), %eax
 239 0286 3C35     		cmpb	$53, %al
 240 0288 7502     		jne	L8
GAS LISTING C:\Users\NJLLMR~1\AppData\Local\Temp\cc5gZH1j.s 			page 8


  47:C:/Users/Njáll Mýrdal/3viknanamskeid/LitidVerk1/Verkefni2/Vikuverk2/src/ui\Main_ui.cpp ****             break;
 241              		.loc 1 47 0
 242 028a EB2A     		jmp	L11
 243              	L8:
  48:C:/Users/Njáll Mýrdal/3viknanamskeid/LitidVerk1/Verkefni2/Vikuverk2/src/ui\Main_ui.cpp ****         }
  49:C:/Users/Njáll Mýrdal/3viknanamskeid/LitidVerk1/Verkefni2/Vikuverk2/src/ui\Main_ui.cpp ****         else {
  50:C:/Users/Njáll Mýrdal/3viknanamskeid/LitidVerk1/Verkefni2/Vikuverk2/src/ui\Main_ui.cpp ****             cout << "Invalid input -- try again" << endl;
 244              		.loc 1 50 0
 245 028c C7442404 		movl	$LC9, 4(%esp)
 245      D4010000 
 246 0294 C7042400 		movl	$__ZSt4cout, (%esp)
 246      000000
 247 029b E8000000 		call	__ZStlsISt11char_traitsIcEERSt13basic_ostreamIcT_ES5_PKc
 247      00
 248 02a0 C7042400 		movl	$__ZSt4endlIcSt11char_traitsIcEERSt13basic_ostreamIT_T0_ES6_, (%esp)
 248      000000
 249 02a7 89C1     		movl	%eax, %ecx
 250 02a9 E8000000 		call	__ZNSolsEPFRSoS_E
 250      00
 251 02ae 83EC04   		subl	$4, %esp
 252              	L4:
  51:C:/Users/Njáll Mýrdal/3viknanamskeid/LitidVerk1/Verkefni2/Vikuverk2/src/ui\Main_ui.cpp ****         }
  52:C:/Users/Njáll Mýrdal/3viknanamskeid/LitidVerk1/Verkefni2/Vikuverk2/src/ui\Main_ui.cpp ****         
  53:C:/Users/Njáll Mýrdal/3viknanamskeid/LitidVerk1/Verkefni2/Vikuverk2/src/ui\Main_ui.cpp ****     }
 253              		.loc 1 53 0
 254 02b1 E963FDFF 		jmp	L10
 254      FF
 255              	L11:
 256              	LBE2:
  54:C:/Users/Njáll Mýrdal/3viknanamskeid/LitidVerk1/Verkefni2/Vikuverk2/src/ui\Main_ui.cpp ****     
  55:C:/Users/Njáll Mýrdal/3viknanamskeid/LitidVerk1/Verkefni2/Vikuverk2/src/ui\Main_ui.cpp ****     
  56:C:/Users/Njáll Mýrdal/3viknanamskeid/LitidVerk1/Verkefni2/Vikuverk2/src/ui\Main_ui.cpp **** }
 257              		.loc 1 56 0
 258 02b6 C9       		leave
 259              		.cfi_restore 5
 260              		.cfi_def_cfa 4, 4
 261 02b7 C3       		ret
 262              		.cfi_endproc
 263              	LFE1139:
 264              		.section .rdata,"dr"
 265 01ef 00       		.align 4
 266              	LC10:
 267 01f0 486F7720 		.ascii "How many employees do you wan't to add? :\0"
 267      6D616E79 
 267      20656D70 
 267      6C6F7965 
 267      65732064 
 268              	LC11:
 269 021a 456E7465 		.ascii "Enter a name: \0"
 269      72206120 
 269      6E616D65 
 269      3A2000
 270              	LC12:
 271 0229 696E7661 		.ascii "invalid input -- try again\0"
 271      6C696420 
 271      696E7075 
 271      74202D2D 
GAS LISTING C:\Users\NJLLMR~1\AppData\Local\Temp\cc5gZH1j.s 			page 9


 271      20747279 
 272              		.align 4
 273              	LC13:
 274 0244 536F6369 		.ascii "Social Security Number (10 digits only): \0"
 274      616C2053 
 274      65637572 
 274      69747920 
 274      4E756D62 
 275              	LC14:
 276 026e 456E7465 		.ascii "Enter monthly salary: \0"
 276      72206D6F 
 276      6E74686C 
 276      79207361 
 276      6C617279 
 277              	LC15:
 278 0285 456E7465 		.ascii "Enter a mont and a year: \0"
 278      72206120 
 278      6D6F6E74 
 278      20616E64 
 278      20612079 
 279 029f 00       		.align 4
 280              	LC16:
 281 02a0 696E7661 		.ascii "invalid input -- Month (1 - 12) Year (2017)\0"
 281      6C696420 
 281      696E7075 
 281      74202D2D 
 281      204D6F6E 
 285              		.text
 286              		.align 2
 287              		.globl	__ZN7Main_ui11addEmplMenuEv
 289              	__ZN7Main_ui11addEmplMenuEv:
 290              	LFB1140:
  57:C:/Users/Njáll Mýrdal/3viknanamskeid/LitidVerk1/Verkefni2/Vikuverk2/src/ui\Main_ui.cpp **** 
  58:C:/Users/Njáll Mýrdal/3viknanamskeid/LitidVerk1/Verkefni2/Vikuverk2/src/ui\Main_ui.cpp **** void Main_ui::addEmplMenu(){
 291              		.loc 1 58 0
 292              		.cfi_startproc
 293              		.cfi_personality 0,___gxx_personality_sj0
 294              		.cfi_lsda 0,LLSDA1140
 295 02b8 55       		pushl	%ebp
 296              		.cfi_def_cfa_offset 8
 297              		.cfi_offset 5, -8
 298 02b9 89E5     		movl	%esp, %ebp
 299              		.cfi_def_cfa_register 5
 300 02bb 57       		pushl	%edi
 301 02bc 56       		pushl	%esi
 302 02bd 53       		pushl	%ebx
 303 02be 81ECCC00 		subl	$204, %esp
 303      0000
 304              		.cfi_offset 7, -12
 305              		.cfi_offset 6, -16
 306              		.cfi_offset 3, -20
 307 02c4 894D94   		movl	%ecx, -108(%ebp)
 308 02c7 C78578FF 		movl	$___gxx_personality_sj0, -136(%ebp)
 308      FFFF0000 
 308      0000
 309 02d1 C7857CFF 		movl	$LLSDA1140, -132(%ebp)
 309      FFFF0000 
GAS LISTING C:\Users\NJLLMR~1\AppData\Local\Temp\cc5gZH1j.s 			page 10


 309      0000
 310 02db 8D4580   		leal	-128(%ebp), %eax
 311 02de 8D5DE8   		leal	-24(%ebp), %ebx
 312 02e1 8918     		movl	%ebx, (%eax)
 313 02e3 BAE30B00 		movl	$L50, %edx
 313      00
 314 02e8 895004   		movl	%edx, 4(%eax)
 315 02eb 896008   		movl	%esp, 8(%eax)
 316 02ee 8D8560FF 		leal	-160(%ebp), %eax
 316      FFFF
 317 02f4 890424   		movl	%eax, (%esp)
 318 02f7 E8000000 		call	__Unwind_SjLj_Register
 318      00
 319              	LBB3:
  59:C:/Users/Njáll Mýrdal/3viknanamskeid/LitidVerk1/Verkefni2/Vikuverk2/src/ui\Main_ui.cpp **** 
  60:C:/Users/Njáll Mýrdal/3viknanamskeid/LitidVerk1/Verkefni2/Vikuverk2/src/ui\Main_ui.cpp ****     Validate validate;
 320              		.loc 1 60 0
 321 02fc 8D45BB   		leal	-69(%ebp), %eax
 322 02ff C78564FF 		movl	$-1, -156(%ebp)
 322      FFFFFFFF 
 322      FFFF
 323 0309 89C1     		movl	%eax, %ecx
 324 030b E8000000 		call	__ZN8ValidateC1Ev
 324      00
  61:C:/Users/Njáll Mýrdal/3viknanamskeid/LitidVerk1/Verkefni2/Vikuverk2/src/ui\Main_ui.cpp ****     int input;
  62:C:/Users/Njáll Mýrdal/3viknanamskeid/LitidVerk1/Verkefni2/Vikuverk2/src/ui\Main_ui.cpp ****     string tmpName;
 325              		.loc 1 62 0
 326 0310 8D45B0   		leal	-80(%ebp), %eax
 327 0313 89C1     		movl	%eax, %ecx
 328 0315 E8000000 		call	__ZNSsC1Ev
 328      00
  63:C:/Users/Njáll Mýrdal/3viknanamskeid/LitidVerk1/Verkefni2/Vikuverk2/src/ui\Main_ui.cpp ****     string tmpSSN;
 329              		.loc 1 63 0
 330 031a 8D45AC   		leal	-84(%ebp), %eax
 331 031d C78564FF 		movl	$1, -156(%ebp)
 331      FFFF0100 
 331      0000
 332 0327 89C1     		movl	%eax, %ecx
 333 0329 E8000000 		call	__ZNSsC1Ev
 333      00
  64:C:/Users/Njáll Mýrdal/3viknanamskeid/LitidVerk1/Verkefni2/Vikuverk2/src/ui\Main_ui.cpp ****     string tmpSalary;
 334              		.loc 1 64 0
 335 032e 8D45A8   		leal	-88(%ebp), %eax
 336 0331 C78564FF 		movl	$2, -156(%ebp)
 336      FFFF0200 
 336      0000
 337 033b 89C1     		movl	%eax, %ecx
 338 033d E8000000 		call	__ZNSsC1Ev
 338      00
  65:C:/Users/Njáll Mýrdal/3viknanamskeid/LitidVerk1/Verkefni2/Vikuverk2/src/ui\Main_ui.cpp ****     string tmpMonth, tmpYear;
 339              		.loc 1 65 0
 340 0342 8D45A4   		leal	-92(%ebp), %eax
 341 0345 C78564FF 		movl	$3, -156(%ebp)
 341      FFFF0300 
 341      0000
 342 034f 89C1     		movl	%eax, %ecx
 343 0351 E8000000 		call	__ZNSsC1Ev
GAS LISTING C:\Users\NJLLMR~1\AppData\Local\Temp\cc5gZH1j.s 			page 11


 343      00
 344              		.loc 1 65 0 is_stmt 0 discriminator 1
 345 0356 8D45A0   		leal	-96(%ebp), %eax
 346 0359 C78564FF 		movl	$4, -156(%ebp)
 346      FFFF0400 
 346      0000
 347 0363 89C1     		movl	%eax, %ecx
 348 0365 E8000000 		call	__ZNSsC1Ev
 348      00
  66:C:/Users/Njáll Mýrdal/3viknanamskeid/LitidVerk1/Verkefni2/Vikuverk2/src/ui\Main_ui.cpp ****     cout << "How many employees do you wan't to add? :";
 349              		.loc 1 66 0 is_stmt 1
 350 036a C7442404 		movl	$LC10, 4(%esp)
 350      F0010000 
 351 0372 C7042400 		movl	$__ZSt4cout, (%esp)
 351      000000
 352 0379 C78564FF 		movl	$5, -156(%ebp)
 352      FFFF0500 
 352      0000
 353 0383 E8000000 		call	__ZStlsISt11char_traitsIcEERSt13basic_ostreamIcT_ES5_PKc
 353      00
  67:C:/Users/Njáll Mýrdal/3viknanamskeid/LitidVerk1/Verkefni2/Vikuverk2/src/ui\Main_ui.cpp ****     cin >> input;
 354              		.loc 1 67 0
 355 0388 8D45B4   		leal	-76(%ebp), %eax
 356 038b 890424   		movl	%eax, (%esp)
 357 038e B9000000 		movl	$__ZSt3cin, %ecx
 357      00
 358 0393 E8000000 		call	__ZNSirsERi
 358      00
 359 0398 83EC04   		subl	$4, %esp
 360              	LBB4:
  68:C:/Users/Njáll Mýrdal/3viknanamskeid/LitidVerk1/Verkefni2/Vikuverk2/src/ui\Main_ui.cpp ****     for(int i = 0; i < input; i++){
 361              		.loc 1 68 0
 362 039b C745E400 		movl	$0, -28(%ebp)
 362      000000
 363 03a2 E94D0500 		jmp	L13
 363      00
 364              	L17:
 365              	LBB5:
  69:C:/Users/Njáll Mýrdal/3viknanamskeid/LitidVerk1/Verkefni2/Vikuverk2/src/ui\Main_ui.cpp ****             
  70:C:/Users/Njáll Mýrdal/3viknanamskeid/LitidVerk1/Verkefni2/Vikuverk2/src/ui\Main_ui.cpp ****         while(true){
  71:C:/Users/Njáll Mýrdal/3viknanamskeid/LitidVerk1/Verkefni2/Vikuverk2/src/ui\Main_ui.cpp ****             cout << "Enter a name: ";
 366              		.loc 1 71 0
 367 03a7 C7442404 		movl	$LC11, 4(%esp)
 367      1A020000 
 368 03af C7042400 		movl	$__ZSt4cout, (%esp)
 368      000000
 369 03b6 C78564FF 		movl	$5, -156(%ebp)
 369      FFFF0500 
 369      0000
 370 03c0 E8000000 		call	__ZStlsISt11char_traitsIcEERSt13basic_ostreamIcT_ES5_PKc
 370      00
  72:C:/Users/Njáll Mýrdal/3viknanamskeid/LitidVerk1/Verkefni2/Vikuverk2/src/ui\Main_ui.cpp ****             cin.ignore();
 371              		.loc 1 72 0
 372 03c5 B9000000 		movl	$__ZSt3cin, %ecx
 372      00
 373 03ca E8000000 		call	__ZNSi6ignoreEv
 373      00
GAS LISTING C:\Users\NJLLMR~1\AppData\Local\Temp\cc5gZH1j.s 			page 12


  73:C:/Users/Njáll Mýrdal/3viknanamskeid/LitidVerk1/Verkefni2/Vikuverk2/src/ui\Main_ui.cpp ****             getline(cin, tmpName);
 374              		.loc 1 73 0
 375 03cf 8D45B0   		leal	-80(%ebp), %eax
 376 03d2 89442404 		movl	%eax, 4(%esp)
 377 03d6 C7042400 		movl	$__ZSt3cin, (%esp)
 377      000000
 378 03dd E8000000 		call	__ZSt7getlineIcSt11char_traitsIcESaIcEERSt13basic_istreamIT_T0_ES7_RSbIS4_S5_T1_E
 378      00
  74:C:/Users/Njáll Mýrdal/3viknanamskeid/LitidVerk1/Verkefni2/Vikuverk2/src/ui\Main_ui.cpp ****             cout << tmpName;
 379              		.loc 1 74 0
 380 03e2 8D45B0   		leal	-80(%ebp), %eax
 381 03e5 89442404 		movl	%eax, 4(%esp)
 382 03e9 C7042400 		movl	$__ZSt4cout, (%esp)
 382      000000
 383 03f0 E8000000 		call	__ZStlsIcSt11char_traitsIcESaIcEERSt13basic_ostreamIT_T0_ES7_RKSbIS4_S5_T1_E
 383      00
  75:C:/Users/Njáll Mýrdal/3viknanamskeid/LitidVerk1/Verkefni2/Vikuverk2/src/ui\Main_ui.cpp ****             if (!validate.validateName(tmpName)){
 384              		.loc 1 75 0
 385 03f5 8D45BC   		leal	-68(%ebp), %eax
 386 03f8 8D55B0   		leal	-80(%ebp), %edx
 387 03fb 891424   		movl	%edx, (%esp)
 388 03fe 89C1     		movl	%eax, %ecx
 389 0400 E8000000 		call	__ZNSsC1ERKSs
 389      00
 390 0405 83EC04   		subl	$4, %esp
 391 0408 8D45BB   		leal	-69(%ebp), %eax
 392 040b 8D55BC   		leal	-68(%ebp), %edx
 393 040e 891424   		movl	%edx, (%esp)
 394 0411 C78564FF 		movl	$6, -156(%ebp)
 394      FFFF0600 
 394      0000
 395 041b 89C1     		movl	%eax, %ecx
 396 041d E8000000 		call	__ZN8Validate12validateNameESs
 396      00
 397              		.loc 1 75 0 is_stmt 0 discriminator 1
 398 0422 83EC04   		subl	$4, %esp
 399 0425 83F001   		xorl	$1, %eax
 400 0428 888554FF 		movb	%al, -172(%ebp)
 400      FFFF
 401 042e 8D45BC   		leal	-68(%ebp), %eax
 402 0431 C78564FF 		movl	$5, -156(%ebp)
 402      FFFF0500 
 402      0000
 403 043b 89C1     		movl	%eax, %ecx
 404 043d E8000000 		call	__ZNSsD1Ev
 404      00
 405              		.loc 1 75 0 discriminator 4
 406 0442 80BD54FF 		cmpb	$0, -172(%ebp)
 406      FFFF00
 407 0449 742A     		je	L14
  76:C:/Users/Njáll Mýrdal/3viknanamskeid/LitidVerk1/Verkefni2/Vikuverk2/src/ui\Main_ui.cpp ****                 cout << "invalid input -- try again" << endl;
 408              		.loc 1 76 0 is_stmt 1
 409 044b C7442404 		movl	$LC12, 4(%esp)
 409      29020000 
 410 0453 C7042400 		movl	$__ZSt4cout, (%esp)
 410      000000
 411 045a E8000000 		call	__ZStlsISt11char_traitsIcEERSt13basic_ostreamIcT_ES5_PKc
GAS LISTING C:\Users\NJLLMR~1\AppData\Local\Temp\cc5gZH1j.s 			page 13


 411      00
 412 045f C7042400 		movl	$__ZSt4endlIcSt11char_traitsIcEERSt13basic_ostreamIT_T0_ES6_, (%esp)
 412      000000
 413 0466 89C1     		movl	%eax, %ecx
 414 0468 E8000000 		call	__ZNSolsEPFRSoS_E
 414      00
 415              		.loc 1 76 0 is_stmt 0 discriminator 1
 416 046d 83EC04   		subl	$4, %esp
 417 0470 E932FFFF 		jmp	L17
 417      FF
 418              	L14:
  77:C:/Users/Njáll Mýrdal/3viknanamskeid/LitidVerk1/Verkefni2/Vikuverk2/src/ui\Main_ui.cpp ****             }
  78:C:/Users/Njáll Mýrdal/3viknanamskeid/LitidVerk1/Verkefni2/Vikuverk2/src/ui\Main_ui.cpp ****             else{
  79:C:/Users/Njáll Mýrdal/3viknanamskeid/LitidVerk1/Verkefni2/Vikuverk2/src/ui\Main_ui.cpp ****                 cout << endl;
 419              		.loc 1 79 0 is_stmt 1
 420 0475 C7042400 		movl	$__ZSt4endlIcSt11char_traitsIcEERSt13basic_ostreamIT_T0_ES6_, (%esp)
 420      000000
 421 047c C78564FF 		movl	$5, -156(%ebp)
 421      FFFF0500 
 421      0000
 422 0486 B9000000 		movl	$__ZSt4cout, %ecx
 422      00
 423 048b E8000000 		call	__ZNSolsEPFRSoS_E
 423      00
 424 0490 83EC04   		subl	$4, %esp
 425              	L16:
  80:C:/Users/Njáll Mýrdal/3viknanamskeid/LitidVerk1/Verkefni2/Vikuverk2/src/ui\Main_ui.cpp ****                 break;
  81:C:/Users/Njáll Mýrdal/3viknanamskeid/LitidVerk1/Verkefni2/Vikuverk2/src/ui\Main_ui.cpp ****             }
  82:C:/Users/Njáll Mýrdal/3viknanamskeid/LitidVerk1/Verkefni2/Vikuverk2/src/ui\Main_ui.cpp ****         }
  83:C:/Users/Njáll Mýrdal/3viknanamskeid/LitidVerk1/Verkefni2/Vikuverk2/src/ui\Main_ui.cpp ****         while(true) {
  84:C:/Users/Njáll Mýrdal/3viknanamskeid/LitidVerk1/Verkefni2/Vikuverk2/src/ui\Main_ui.cpp ****             cout << "Social Security Number (10 digits only): ";
 426              		.loc 1 84 0
 427 0493 C7442404 		movl	$LC13, 4(%esp)
 427      44020000 
 428 049b C7042400 		movl	$__ZSt4cout, (%esp)
 428      000000
 429 04a2 C78564FF 		movl	$5, -156(%ebp)
 429      FFFF0500 
 429      0000
 430 04ac E8000000 		call	__ZStlsISt11char_traitsIcEERSt13basic_ostreamIcT_ES5_PKc
 430      00
  85:C:/Users/Njáll Mýrdal/3viknanamskeid/LitidVerk1/Verkefni2/Vikuverk2/src/ui\Main_ui.cpp ****             cin >> tmpSSN;
 431              		.loc 1 85 0
 432 04b1 8D45AC   		leal	-84(%ebp), %eax
 433 04b4 89442404 		movl	%eax, 4(%esp)
 434 04b8 C7042400 		movl	$__ZSt3cin, (%esp)
 434      000000
 435 04bf E8000000 		call	__ZStrsIcSt11char_traitsIcESaIcEERSt13basic_istreamIT_T0_ES7_RSbIS4_S5_T1_E
 435      00
  86:C:/Users/Njáll Mýrdal/3viknanamskeid/LitidVerk1/Verkefni2/Vikuverk2/src/ui\Main_ui.cpp ****             if(!validate.validateSSN(tmpSSN)) {
 436              		.loc 1 86 0
 437 04c4 8D45C0   		leal	-64(%ebp), %eax
 438 04c7 8D55AC   		leal	-84(%ebp), %edx
 439 04ca 891424   		movl	%edx, (%esp)
 440 04cd 89C1     		movl	%eax, %ecx
 441 04cf E8000000 		call	__ZNSsC1ERKSs
 441      00
GAS LISTING C:\Users\NJLLMR~1\AppData\Local\Temp\cc5gZH1j.s 			page 14


 442 04d4 83EC04   		subl	$4, %esp
 443 04d7 8D45BB   		leal	-69(%ebp), %eax
 444 04da 8D55C0   		leal	-64(%ebp), %edx
 445 04dd 891424   		movl	%edx, (%esp)
 446 04e0 C78564FF 		movl	$7, -156(%ebp)
 446      FFFF0700 
 446      0000
 447 04ea 89C1     		movl	%eax, %ecx
 448 04ec E8000000 		call	__ZN8Validate11validateSSNESs
 448      00
 449              		.loc 1 86 0 is_stmt 0 discriminator 1
 450 04f1 83EC04   		subl	$4, %esp
 451 04f4 83F001   		xorl	$1, %eax
 452 04f7 888554FF 		movb	%al, -172(%ebp)
 452      FFFF
 453 04fd 8D45C0   		leal	-64(%ebp), %eax
 454 0500 C78564FF 		movl	$5, -156(%ebp)
 454      FFFF0500 
 454      0000
 455 050a 89C1     		movl	%eax, %ecx
 456 050c E8000000 		call	__ZNSsD1Ev
 456      00
 457              		.loc 1 86 0 discriminator 4
 458 0511 80BD54FF 		cmpb	$0, -172(%ebp)
 458      FFFF00
 459 0518 742A     		je	L18
  87:C:/Users/Njáll Mýrdal/3viknanamskeid/LitidVerk1/Verkefni2/Vikuverk2/src/ui\Main_ui.cpp ****                 cout << "invalid input -- try again" << endl;
 460              		.loc 1 87 0 is_stmt 1
 461 051a C7442404 		movl	$LC12, 4(%esp)
 461      29020000 
 462 0522 C7042400 		movl	$__ZSt4cout, (%esp)
 462      000000
 463 0529 E8000000 		call	__ZStlsISt11char_traitsIcEERSt13basic_ostreamIcT_ES5_PKc
 463      00
 464 052e C7042400 		movl	$__ZSt4endlIcSt11char_traitsIcEERSt13basic_ostreamIT_T0_ES6_, (%esp)
 464      000000
 465 0535 89C1     		movl	%eax, %ecx
 466 0537 E8000000 		call	__ZNSolsEPFRSoS_E
 466      00
 467              		.loc 1 87 0 is_stmt 0 discriminator 1
 468 053c 83EC04   		subl	$4, %esp
 469 053f E94FFFFF 		jmp	L16
 469      FF
 470              	L18:
  88:C:/Users/Njáll Mýrdal/3viknanamskeid/LitidVerk1/Verkefni2/Vikuverk2/src/ui\Main_ui.cpp ****             }
  89:C:/Users/Njáll Mýrdal/3viknanamskeid/LitidVerk1/Verkefni2/Vikuverk2/src/ui\Main_ui.cpp ****             else {
  90:C:/Users/Njáll Mýrdal/3viknanamskeid/LitidVerk1/Verkefni2/Vikuverk2/src/ui\Main_ui.cpp ****                 cout << endl;
 471              		.loc 1 90 0 is_stmt 1
 472 0544 C7042400 		movl	$__ZSt4endlIcSt11char_traitsIcEERSt13basic_ostreamIT_T0_ES6_, (%esp)
 472      000000
 473 054b C78564FF 		movl	$5, -156(%ebp)
 473      FFFF0500 
 473      0000
 474 0555 B9000000 		movl	$__ZSt4cout, %ecx
 474      00
 475 055a E8000000 		call	__ZNSolsEPFRSoS_E
 475      00
GAS LISTING C:\Users\NJLLMR~1\AppData\Local\Temp\cc5gZH1j.s 			page 15


 476 055f 83EC04   		subl	$4, %esp
 477              	L20:
  91:C:/Users/Njáll Mýrdal/3viknanamskeid/LitidVerk1/Verkefni2/Vikuverk2/src/ui\Main_ui.cpp ****                 break;
  92:C:/Users/Njáll Mýrdal/3viknanamskeid/LitidVerk1/Verkefni2/Vikuverk2/src/ui\Main_ui.cpp ****             }
  93:C:/Users/Njáll Mýrdal/3viknanamskeid/LitidVerk1/Verkefni2/Vikuverk2/src/ui\Main_ui.cpp ****         }
  94:C:/Users/Njáll Mýrdal/3viknanamskeid/LitidVerk1/Verkefni2/Vikuverk2/src/ui\Main_ui.cpp ****         while(true) {
  95:C:/Users/Njáll Mýrdal/3viknanamskeid/LitidVerk1/Verkefni2/Vikuverk2/src/ui\Main_ui.cpp ****             cout << "Enter monthly salary: ";
 478              		.loc 1 95 0
 479 0562 C7442404 		movl	$LC14, 4(%esp)
 479      6E020000 
 480 056a C7042400 		movl	$__ZSt4cout, (%esp)
 480      000000
 481 0571 C78564FF 		movl	$5, -156(%ebp)
 481      FFFF0500 
 481      0000
 482 057b E8000000 		call	__ZStlsISt11char_traitsIcEERSt13basic_ostreamIcT_ES5_PKc
 482      00
  96:C:/Users/Njáll Mýrdal/3viknanamskeid/LitidVerk1/Verkefni2/Vikuverk2/src/ui\Main_ui.cpp ****                 cin >> tmpSalary;
 483              		.loc 1 96 0
 484 0580 8D45A8   		leal	-88(%ebp), %eax
 485 0583 89442404 		movl	%eax, 4(%esp)
 486 0587 C7042400 		movl	$__ZSt3cin, (%esp)
 486      000000
 487 058e E8000000 		call	__ZStrsIcSt11char_traitsIcESaIcEERSt13basic_istreamIT_T0_ES7_RSbIS4_S5_T1_E
 487      00
  97:C:/Users/Njáll Mýrdal/3viknanamskeid/LitidVerk1/Verkefni2/Vikuverk2/src/ui\Main_ui.cpp ****             if(!validate.validateSalary(tmpSalary)) {
 488              		.loc 1 97 0
 489 0593 8D45C4   		leal	-60(%ebp), %eax
 490 0596 8D55A8   		leal	-88(%ebp), %edx
 491 0599 891424   		movl	%edx, (%esp)
 492 059c 89C1     		movl	%eax, %ecx
 493 059e E8000000 		call	__ZNSsC1ERKSs
 493      00
 494 05a3 83EC04   		subl	$4, %esp
 495 05a6 8D45BB   		leal	-69(%ebp), %eax
 496 05a9 8D55C4   		leal	-60(%ebp), %edx
 497 05ac 891424   		movl	%edx, (%esp)
 498 05af C78564FF 		movl	$8, -156(%ebp)
 498      FFFF0800 
 498      0000
 499 05b9 89C1     		movl	%eax, %ecx
 500 05bb E8000000 		call	__ZN8Validate14validateSalaryESs
 500      00
 501              		.loc 1 97 0 is_stmt 0 discriminator 1
 502 05c0 83EC04   		subl	$4, %esp
 503 05c3 83F001   		xorl	$1, %eax
 504 05c6 888554FF 		movb	%al, -172(%ebp)
 504      FFFF
 505 05cc 8D45C4   		leal	-60(%ebp), %eax
 506 05cf C78564FF 		movl	$5, -156(%ebp)
 506      FFFF0500 
 506      0000
 507 05d9 89C1     		movl	%eax, %ecx
 508 05db E8000000 		call	__ZNSsD1Ev
 508      00
 509              		.loc 1 97 0 discriminator 4
 510 05e0 80BD54FF 		cmpb	$0, -172(%ebp)
GAS LISTING C:\Users\NJLLMR~1\AppData\Local\Temp\cc5gZH1j.s 			page 16


 510      FFFF00
 511 05e7 742A     		je	L21
  98:C:/Users/Njáll Mýrdal/3viknanamskeid/LitidVerk1/Verkefni2/Vikuverk2/src/ui\Main_ui.cpp ****                 cout << "invalid input -- try again" << endl;
 512              		.loc 1 98 0 is_stmt 1
 513 05e9 C7442404 		movl	$LC12, 4(%esp)
 513      29020000 
 514 05f1 C7042400 		movl	$__ZSt4cout, (%esp)
 514      000000
 515 05f8 E8000000 		call	__ZStlsISt11char_traitsIcEERSt13basic_ostreamIcT_ES5_PKc
 515      00
 516 05fd C7042400 		movl	$__ZSt4endlIcSt11char_traitsIcEERSt13basic_ostreamIT_T0_ES6_, (%esp)
 516      000000
 517 0604 89C1     		movl	%eax, %ecx
 518 0606 E8000000 		call	__ZNSolsEPFRSoS_E
 518      00
 519              		.loc 1 98 0 is_stmt 0 discriminator 1
 520 060b 83EC04   		subl	$4, %esp
 521 060e E94FFFFF 		jmp	L20
 521      FF
 522              	L21:
  99:C:/Users/Njáll Mýrdal/3viknanamskeid/LitidVerk1/Verkefni2/Vikuverk2/src/ui\Main_ui.cpp ****             }
 100:C:/Users/Njáll Mýrdal/3viknanamskeid/LitidVerk1/Verkefni2/Vikuverk2/src/ui\Main_ui.cpp ****             else {
 101:C:/Users/Njáll Mýrdal/3viknanamskeid/LitidVerk1/Verkefni2/Vikuverk2/src/ui\Main_ui.cpp ****                 cout << endl;
 523              		.loc 1 101 0 is_stmt 1
 524 0613 C7042400 		movl	$__ZSt4endlIcSt11char_traitsIcEERSt13basic_ostreamIT_T0_ES6_, (%esp)
 524      000000
 525 061a C78564FF 		movl	$5, -156(%ebp)
 525      FFFF0500 
 525      0000
 526 0624 B9000000 		movl	$__ZSt4cout, %ecx
 526      00
 527 0629 E8000000 		call	__ZNSolsEPFRSoS_E
 527      00
 528 062e 83EC04   		subl	$4, %esp
 529              	L23:
 102:C:/Users/Njáll Mýrdal/3viknanamskeid/LitidVerk1/Verkefni2/Vikuverk2/src/ui\Main_ui.cpp ****                 break;
 103:C:/Users/Njáll Mýrdal/3viknanamskeid/LitidVerk1/Verkefni2/Vikuverk2/src/ui\Main_ui.cpp ****             }
 104:C:/Users/Njáll Mýrdal/3viknanamskeid/LitidVerk1/Verkefni2/Vikuverk2/src/ui\Main_ui.cpp ****         }
 105:C:/Users/Njáll Mýrdal/3viknanamskeid/LitidVerk1/Verkefni2/Vikuverk2/src/ui\Main_ui.cpp ****         while(true) {
 106:C:/Users/Njáll Mýrdal/3viknanamskeid/LitidVerk1/Verkefni2/Vikuverk2/src/ui\Main_ui.cpp ****             cout << "Enter a mont and a year: ";
 530              		.loc 1 106 0
 531 0631 C7442404 		movl	$LC15, 4(%esp)
 531      85020000 
 532 0639 C7042400 		movl	$__ZSt4cout, (%esp)
 532      000000
 533 0640 C78564FF 		movl	$5, -156(%ebp)
 533      FFFF0500 
 533      0000
 534 064a E8000000 		call	__ZStlsISt11char_traitsIcEERSt13basic_ostreamIcT_ES5_PKc
 534      00
 107:C:/Users/Njáll Mýrdal/3viknanamskeid/LitidVerk1/Verkefni2/Vikuverk2/src/ui\Main_ui.cpp ****                 cin >> tmpMonth >> tmpYear;
 535              		.loc 1 107 0
 536 064f 8D45A4   		leal	-92(%ebp), %eax
 537 0652 89442404 		movl	%eax, 4(%esp)
 538 0656 C7042400 		movl	$__ZSt3cin, (%esp)
 538      000000
 539 065d E8000000 		call	__ZStrsIcSt11char_traitsIcESaIcEERSt13basic_istreamIT_T0_ES7_RSbIS4_S5_T1_E
GAS LISTING C:\Users\NJLLMR~1\AppData\Local\Temp\cc5gZH1j.s 			page 17


 539      00
 540 0662 89C2     		movl	%eax, %edx
 541 0664 8D45A0   		leal	-96(%ebp), %eax
 542 0667 89442404 		movl	%eax, 4(%esp)
 543 066b 891424   		movl	%edx, (%esp)
 544 066e E8000000 		call	__ZStrsIcSt11char_traitsIcESaIcEERSt13basic_istreamIT_T0_ES7_RSbIS4_S5_T1_E
 544      00
 108:C:/Users/Njáll Mýrdal/3viknanamskeid/LitidVerk1/Verkefni2/Vikuverk2/src/ui\Main_ui.cpp ****             if(!validate.validateMonth(tmpMonth) || !validate.validateYear(tmpYear)) {
 545              		.loc 1 108 0
 546 0673 C6855CFF 		movb	$0, -164(%ebp)
 546      FFFF00
 547 067a C68558FF 		movb	$0, -168(%ebp)
 547      FFFF00
 548 0681 8D45C8   		leal	-56(%ebp), %eax
 549 0684 8D55A4   		leal	-92(%ebp), %edx
 550 0687 891424   		movl	%edx, (%esp)
 551 068a C78564FF 		movl	$9, -156(%ebp)
 551      FFFF0900 
 551      0000
 552 0694 89C1     		movl	%eax, %ecx
 553 0696 E8000000 		call	__ZNSsC1ERKSs
 553      00
 554 069b 83EC04   		subl	$4, %esp
 555 069e C6855CFF 		movb	$1, -164(%ebp)
 555      FFFF01
 556 06a5 8D45BB   		leal	-69(%ebp), %eax
 557 06a8 8D55C8   		leal	-56(%ebp), %edx
 558 06ab 891424   		movl	%edx, (%esp)
 559 06ae 89C1     		movl	%eax, %ecx
 560 06b0 E8000000 		call	__ZN8Validate13validateMonthESs
 560      00
 561              		.loc 1 108 0 is_stmt 0 discriminator 2
 562 06b5 83EC04   		subl	$4, %esp
 563 06b8 83F001   		xorl	$1, %eax
 564 06bb 84C0     		testb	%al, %al
 565 06bd 7534     		jne	L24
 566              		.loc 1 108 0 discriminator 6
 567 06bf 8D45CC   		leal	-52(%ebp), %eax
 568 06c2 8D55A0   		leal	-96(%ebp), %edx
 569 06c5 891424   		movl	%edx, (%esp)
 570 06c8 89C1     		movl	%eax, %ecx
 571 06ca E8000000 		call	__ZNSsC1ERKSs
 571      00
 572 06cf 83EC04   		subl	$4, %esp
 573 06d2 C68558FF 		movb	$1, -168(%ebp)
 573      FFFF01
 574 06d9 8D45BB   		leal	-69(%ebp), %eax
 575 06dc 8D55CC   		leal	-52(%ebp), %edx
 576 06df 891424   		movl	%edx, (%esp)
 577 06e2 89C1     		movl	%eax, %ecx
 578 06e4 E8000000 		call	__ZN8Validate12validateYearESs
 578      00
 579              		.loc 1 108 0 discriminator 8
 580 06e9 83EC04   		subl	$4, %esp
 581 06ec 83F001   		xorl	$1, %eax
 582 06ef 84C0     		testb	%al, %al
 583 06f1 7409     		je	L25
GAS LISTING C:\Users\NJLLMR~1\AppData\Local\Temp\cc5gZH1j.s 			page 18


 584              	L24:
 585              		.loc 1 108 0 discriminator 11
 586 06f3 C68554FF 		movb	$1, -172(%ebp)
 586      FFFF01
 587 06fa EB07     		jmp	L26
 588              	L25:
 589              		.loc 1 108 0 discriminator 12
 590 06fc C68554FF 		movb	$0, -172(%ebp)
 590      FFFF00
 591              	L26:
 592              		.loc 1 108 0 discriminator 14
 593 0703 80BD58FF 		cmpb	$0, -168(%ebp)
 593      FFFF00
 594 070a 7414     		je	L27
 595              		.loc 1 108 0 discriminator 15
 596 070c 8D45CC   		leal	-52(%ebp), %eax
 597 070f C78564FF 		movl	$10, -156(%ebp)
 597      FFFF0A00 
 597      0000
 598 0719 89C1     		movl	%eax, %ecx
 599 071b E8000000 		call	__ZNSsD1Ev
 599      00
 600              	L27:
 601              		.loc 1 108 0 discriminator 19
 602 0720 80BD5CFF 		cmpb	$0, -164(%ebp)
 602      FFFF00
 603 0727 7415     		je	L28
 604              		.loc 1 108 0
 605 0729 90       		nop
 606 072a 8D45C8   		leal	-56(%ebp), %eax
 607 072d C78564FF 		movl	$5, -156(%ebp)
 607      FFFF0500 
 607      0000
 608 0737 89C1     		movl	%eax, %ecx
 609 0739 E8000000 		call	__ZNSsD1Ev
 609      00
 610              	L28:
 611              		.loc 1 108 0 discriminator 23
 612 073e 80BD54FF 		cmpb	$0, -172(%ebp)
 612      FFFF00
 613 0745 7434     		je	L29
 109:C:/Users/Njáll Mýrdal/3viknanamskeid/LitidVerk1/Verkefni2/Vikuverk2/src/ui\Main_ui.cpp ****                 cout << "invalid input -- Month (1 - 12) Year (2017)"  << endl;
 614              		.loc 1 109 0 is_stmt 1
 615 0747 C7442404 		movl	$LC16, 4(%esp)
 615      A0020000 
 616 074f C7042400 		movl	$__ZSt4cout, (%esp)
 616      000000
 617 0756 C78564FF 		movl	$5, -156(%ebp)
 617      FFFF0500 
 617      0000
 618 0760 E8000000 		call	__ZStlsISt11char_traitsIcEERSt13basic_ostreamIcT_ES5_PKc
 618      00
 619 0765 C7042400 		movl	$__ZSt4endlIcSt11char_traitsIcEERSt13basic_ostreamIT_T0_ES6_, (%esp)
 619      000000
 620 076c 89C1     		movl	%eax, %ecx
 621 076e E8000000 		call	__ZNSolsEPFRSoS_E
 621      00
GAS LISTING C:\Users\NJLLMR~1\AppData\Local\Temp\cc5gZH1j.s 			page 19


 622              		.loc 1 109 0 is_stmt 0 discriminator 1
 623 0773 83EC04   		subl	$4, %esp
 624 0776 E9B6FEFF 		jmp	L23
 624      FF
 625              	L29:
 110:C:/Users/Njáll Mýrdal/3viknanamskeid/LitidVerk1/Verkefni2/Vikuverk2/src/ui\Main_ui.cpp ****             }
 111:C:/Users/Njáll Mýrdal/3viknanamskeid/LitidVerk1/Verkefni2/Vikuverk2/src/ui\Main_ui.cpp ****             else {
 112:C:/Users/Njáll Mýrdal/3viknanamskeid/LitidVerk1/Verkefni2/Vikuverk2/src/ui\Main_ui.cpp ****                 cout << endl;
 626              		.loc 1 112 0 is_stmt 1
 627 077b C7042400 		movl	$__ZSt4endlIcSt11char_traitsIcEERSt13basic_ostreamIT_T0_ES6_, (%esp)
 627      000000
 628 0782 C78564FF 		movl	$5, -156(%ebp)
 628      FFFF0500 
 628      0000
 629 078c B9000000 		movl	$__ZSt4cout, %ecx
 629      00
 630 0791 E8000000 		call	__ZNSolsEPFRSoS_E
 630      00
 631 0796 83EC04   		subl	$4, %esp
 113:C:/Users/Njáll Mýrdal/3viknanamskeid/LitidVerk1/Verkefni2/Vikuverk2/src/ui\Main_ui.cpp ****                 break;
 632              		.loc 1 113 0
 633 0799 90       		nop
 114:C:/Users/Njáll Mýrdal/3viknanamskeid/LitidVerk1/Verkefni2/Vikuverk2/src/ui\Main_ui.cpp ****             }
 115:C:/Users/Njáll Mýrdal/3viknanamskeid/LitidVerk1/Verkefni2/Vikuverk2/src/ui\Main_ui.cpp ****         }
 116:C:/Users/Njáll Mýrdal/3viknanamskeid/LitidVerk1/Verkefni2/Vikuverk2/src/ui\Main_ui.cpp ****     Service newEmployee;
 634              		.loc 1 116 0
 635 079a 8D459F   		leal	-97(%ebp), %eax
 636 079d C78564FF 		movl	$5, -156(%ebp)
 636      FFFF0500 
 636      0000
 637 07a7 89C1     		movl	%eax, %ecx
 638 07a9 E8000000 		call	__ZN7ServiceC1Ev
 638      00
 117:C:/Users/Njáll Mýrdal/3viknanamskeid/LitidVerk1/Verkefni2/Vikuverk2/src/ui\Main_ui.cpp ****     newEmployee.writeEmployeeInFile(tmpName, tmpSSN, tmpSalary, tmpMonth, tmpYear);
 639              		.loc 1 117 0
 640 07ae 8D45D0   		leal	-48(%ebp), %eax
 641 07b1 8D55A0   		leal	-96(%ebp), %edx
 642 07b4 891424   		movl	%edx, (%esp)
 643 07b7 C78564FF 		movl	$11, -156(%ebp)
 643      FFFF0B00 
 643      0000
 644 07c1 89C1     		movl	%eax, %ecx
 645 07c3 E8000000 		call	__ZNSsC1ERKSs
 645      00
 646 07c8 83EC04   		subl	$4, %esp
 647 07cb 8D45D4   		leal	-44(%ebp), %eax
 648 07ce 8D55A4   		leal	-92(%ebp), %edx
 649 07d1 891424   		movl	%edx, (%esp)
 650 07d4 C78564FF 		movl	$12, -156(%ebp)
 650      FFFF0C00 
 650      0000
 651 07de 89C1     		movl	%eax, %ecx
 652 07e0 E8000000 		call	__ZNSsC1ERKSs
 652      00
 653              		.loc 1 117 0 is_stmt 0 discriminator 1
 654 07e5 83EC04   		subl	$4, %esp
 655 07e8 8D45D8   		leal	-40(%ebp), %eax
GAS LISTING C:\Users\NJLLMR~1\AppData\Local\Temp\cc5gZH1j.s 			page 20


 656 07eb 8D55A8   		leal	-88(%ebp), %edx
 657 07ee 891424   		movl	%edx, (%esp)
 658 07f1 C78564FF 		movl	$13, -156(%ebp)
 658      FFFF0D00 
 658      0000
 659 07fb 89C1     		movl	%eax, %ecx
 660 07fd E8000000 		call	__ZNSsC1ERKSs
 660      00
 661              		.loc 1 117 0 discriminator 3
 662 0802 83EC04   		subl	$4, %esp
 663 0805 8D45DC   		leal	-36(%ebp), %eax
 664 0808 8D55AC   		leal	-84(%ebp), %edx
 665 080b 891424   		movl	%edx, (%esp)
 666 080e C78564FF 		movl	$14, -156(%ebp)
 666      FFFF0E00 
 666      0000
 667 0818 89C1     		movl	%eax, %ecx
 668 081a E8000000 		call	__ZNSsC1ERKSs
 668      00
 669              		.loc 1 117 0 discriminator 5
 670 081f 83EC04   		subl	$4, %esp
 671 0822 8D45E0   		leal	-32(%ebp), %eax
 672 0825 8D55B0   		leal	-80(%ebp), %edx
 673 0828 891424   		movl	%edx, (%esp)
 674 082b C78564FF 		movl	$15, -156(%ebp)
 674      FFFF0F00 
 674      0000
 675 0835 89C1     		movl	%eax, %ecx
 676 0837 E8000000 		call	__ZNSsC1ERKSs
 676      00
 677              		.loc 1 117 0 discriminator 7
 678 083c 83EC04   		subl	$4, %esp
 679 083f 8D459F   		leal	-97(%ebp), %eax
 680 0842 8D55D0   		leal	-48(%ebp), %edx
 681 0845 89542410 		movl	%edx, 16(%esp)
 682 0849 8D55D4   		leal	-44(%ebp), %edx
 683 084c 8954240C 		movl	%edx, 12(%esp)
 684 0850 8D55D8   		leal	-40(%ebp), %edx
 685 0853 89542408 		movl	%edx, 8(%esp)
 686 0857 8D55DC   		leal	-36(%ebp), %edx
 687 085a 89542404 		movl	%edx, 4(%esp)
 688 085e 8D55E0   		leal	-32(%ebp), %edx
 689 0861 891424   		movl	%edx, (%esp)
 690 0864 C78564FF 		movl	$16, -156(%ebp)
 690      FFFF1000 
 690      0000
 691 086e 89C1     		movl	%eax, %ecx
 692 0870 E8000000 		call	__ZN7Service19writeEmployeeInFileESsSsSsSsSs
 692      00
 693              		.loc 1 117 0 discriminator 9
 694 0875 83EC14   		subl	$20, %esp
 695 0878 8D45E0   		leal	-32(%ebp), %eax
 696 087b C78564FF 		movl	$15, -156(%ebp)
 696      FFFF0F00 
 696      0000
 697 0885 89C1     		movl	%eax, %ecx
 698 0887 E8000000 		call	__ZNSsD1Ev
GAS LISTING C:\Users\NJLLMR~1\AppData\Local\Temp\cc5gZH1j.s 			page 21


 698      00
 699              		.loc 1 117 0 discriminator 13
 700 088c 8D45DC   		leal	-36(%ebp), %eax
 701 088f C78564FF 		movl	$14, -156(%ebp)
 701      FFFF0E00 
 701      0000
 702 0899 89C1     		movl	%eax, %ecx
 703 089b E8000000 		call	__ZNSsD1Ev
 703      00
 704              		.loc 1 117 0 discriminator 15
 705 08a0 8D45D8   		leal	-40(%ebp), %eax
 706 08a3 C78564FF 		movl	$13, -156(%ebp)
 706      FFFF0D00 
 706      0000
 707 08ad 89C1     		movl	%eax, %ecx
 708 08af E8000000 		call	__ZNSsD1Ev
 708      00
 709              		.loc 1 117 0 discriminator 17
 710 08b4 8D45D4   		leal	-44(%ebp), %eax
 711 08b7 C78564FF 		movl	$12, -156(%ebp)
 711      FFFF0C00 
 711      0000
 712 08c1 89C1     		movl	%eax, %ecx
 713 08c3 E8000000 		call	__ZNSsD1Ev
 713      00
 714              		.loc 1 117 0 discriminator 19
 715 08c8 8D45D0   		leal	-48(%ebp), %eax
 716 08cb C78564FF 		movl	$11, -156(%ebp)
 716      FFFF0B00 
 716      0000
 717 08d5 89C1     		movl	%eax, %ecx
 718 08d7 E8000000 		call	__ZNSsD1Ev
 718      00
 118:C:/Users/Njáll Mýrdal/3viknanamskeid/LitidVerk1/Verkefni2/Vikuverk2/src/ui\Main_ui.cpp ****     }
 719              		.loc 1 118 0 is_stmt 1 discriminator 20
 720 08dc 8D459F   		leal	-97(%ebp), %eax
 721 08df C78564FF 		movl	$5, -156(%ebp)
 721      FFFF0500 
 721      0000
 722 08e9 89C1     		movl	%eax, %ecx
 723 08eb E8000000 		call	__ZN7ServiceD1Ev
 723      00
 724              	LBE5:
  68:C:/Users/Njáll Mýrdal/3viknanamskeid/LitidVerk1/Verkefni2/Vikuverk2/src/ui\Main_ui.cpp ****             
 725              		.loc 1 68 0 discriminator 2
 726 08f0 8345E401 		addl	$1, -28(%ebp)
 727              	L13:
  68:C:/Users/Njáll Mýrdal/3viknanamskeid/LitidVerk1/Verkefni2/Vikuverk2/src/ui\Main_ui.cpp ****             
 728              		.loc 1 68 0 is_stmt 0 discriminator 1
 729 08f4 8B45B4   		movl	-76(%ebp), %eax
 730 08f7 3945E4   		cmpl	%eax, -28(%ebp)
 731 08fa 0F8CA7FA 		jl	L17
 731      FFFF
 732              	LBE4:
  65:C:/Users/Njáll Mýrdal/3viknanamskeid/LitidVerk1/Verkefni2/Vikuverk2/src/ui\Main_ui.cpp ****     cout << "How many employees do you wan't to add? :";
 733              		.loc 1 65 0 is_stmt 1 discriminator 3
 734 0900 8D45A0   		leal	-96(%ebp), %eax
GAS LISTING C:\Users\NJLLMR~1\AppData\Local\Temp\cc5gZH1j.s 			page 22


 735 0903 C78564FF 		movl	$4, -156(%ebp)
 735      FFFF0400 
 735      0000
 736 090d 89C1     		movl	%eax, %ecx
 737 090f E8000000 		call	__ZNSsD1Ev
 737      00
  65:C:/Users/Njáll Mýrdal/3viknanamskeid/LitidVerk1/Verkefni2/Vikuverk2/src/ui\Main_ui.cpp ****     cout << "How many employees do you wan't to add? :";
 738              		.loc 1 65 0 is_stmt 0 discriminator 4
 739 0914 8D45A4   		leal	-92(%ebp), %eax
 740 0917 C78564FF 		movl	$3, -156(%ebp)
 740      FFFF0300 
 740      0000
 741 0921 89C1     		movl	%eax, %ecx
 742 0923 E8000000 		call	__ZNSsD1Ev
 742      00
  64:C:/Users/Njáll Mýrdal/3viknanamskeid/LitidVerk1/Verkefni2/Vikuverk2/src/ui\Main_ui.cpp ****     string tmpMonth, tmpYear;
 743              		.loc 1 64 0 is_stmt 1
 744 0928 8D45A8   		leal	-88(%ebp), %eax
 745 092b C78564FF 		movl	$2, -156(%ebp)
 745      FFFF0200 
 745      0000
 746 0935 89C1     		movl	%eax, %ecx
 747 0937 E8000000 		call	__ZNSsD1Ev
 747      00
  63:C:/Users/Njáll Mýrdal/3viknanamskeid/LitidVerk1/Verkefni2/Vikuverk2/src/ui\Main_ui.cpp ****     string tmpSalary;
 748              		.loc 1 63 0
 749 093c 8D45AC   		leal	-84(%ebp), %eax
 750 093f C78564FF 		movl	$1, -156(%ebp)
 750      FFFF0100 
 750      0000
 751 0949 89C1     		movl	%eax, %ecx
 752 094b E8000000 		call	__ZNSsD1Ev
 752      00
 753              		.loc 1 118 0
 754 0950 8D45B0   		leal	-80(%ebp), %eax
 755 0953 C78564FF 		movl	$-1, -156(%ebp)
 755      FFFFFFFF 
 755      FFFF
 756 095d 89C1     		movl	%eax, %ecx
 757 095f E8000000 		call	__ZNSsD1Ev
 757      00
 758 0964 E9D30200 		jmp	L74
 758      00
 759              	L56:
 760 0969 89855CFF 		movl	%eax, -164(%ebp)
 760      FFFF
 761              	LBB7:
 762              	LBB6:
  75:C:/Users/Njáll Mýrdal/3viknanamskeid/LitidVerk1/Verkefni2/Vikuverk2/src/ui\Main_ui.cpp ****                 cout << "invalid input -- try again" << endl;
 763              		.loc 1 75 0
 764 096f 8D45BC   		leal	-68(%ebp), %eax
 765 0972 C78564FF 		movl	$0, -156(%ebp)
 765      FFFF0000 
 765      0000
 766 097c 89C1     		movl	%eax, %ecx
 767 097e E8000000 		call	__ZNSsD1Ev
 767      00
GAS LISTING C:\Users\NJLLMR~1\AppData\Local\Temp\cc5gZH1j.s 			page 23


 768 0983 8B855CFF 		movl	-164(%ebp), %eax
 768      FFFF
 769 0989 89855CFF 		movl	%eax, -164(%ebp)
 769      FFFF
 770 098f E9B50100 		jmp	L33
 770      00
 771              	L57:
 772 0994 89855CFF 		movl	%eax, -164(%ebp)
 772      FFFF
  86:C:/Users/Njáll Mýrdal/3viknanamskeid/LitidVerk1/Verkefni2/Vikuverk2/src/ui\Main_ui.cpp ****                 cout << "invalid input -- try again" << endl;
 773              		.loc 1 86 0
 774 099a 8D45C0   		leal	-64(%ebp), %eax
 775 099d C78564FF 		movl	$0, -156(%ebp)
 775      FFFF0000 
 775      0000
 776 09a7 89C1     		movl	%eax, %ecx
 777 09a9 E8000000 		call	__ZNSsD1Ev
 777      00
 778 09ae 8B855CFF 		movl	-164(%ebp), %eax
 778      FFFF
 779 09b4 89855CFF 		movl	%eax, -164(%ebp)
 779      FFFF
 780 09ba E98A0100 		jmp	L33
 780      00
 781              	L58:
 782 09bf 89855CFF 		movl	%eax, -164(%ebp)
 782      FFFF
  97:C:/Users/Njáll Mýrdal/3viknanamskeid/LitidVerk1/Verkefni2/Vikuverk2/src/ui\Main_ui.cpp ****                 cout << "invalid input -- try again" << endl;
 783              		.loc 1 97 0
 784 09c5 8D45C4   		leal	-60(%ebp), %eax
 785 09c8 C78564FF 		movl	$0, -156(%ebp)
 785      FFFF0000 
 785      0000
 786 09d2 89C1     		movl	%eax, %ecx
 787 09d4 E8000000 		call	__ZNSsD1Ev
 787      00
 788 09d9 8B855CFF 		movl	-164(%ebp), %eax
 788      FFFF
 789 09df 89855CFF 		movl	%eax, -164(%ebp)
 789      FFFF
 790 09e5 E95F0100 		jmp	L33
 790      00
 791              	L59:
 792 09ea 898554FF 		movl	%eax, -172(%ebp)
 792      FFFF
 108:C:/Users/Njáll Mýrdal/3viknanamskeid/LitidVerk1/Verkefni2/Vikuverk2/src/ui\Main_ui.cpp ****                 cout << "invalid input -- Month (1 - 12) Year (2017)"  << endl;
 793              		.loc 1 108 0
 794 09f0 80BD58FF 		cmpb	$0, -168(%ebp)
 794      FFFF00
 795 09f7 7414     		je	L37
 108:C:/Users/Njáll Mýrdal/3viknanamskeid/LitidVerk1/Verkefni2/Vikuverk2/src/ui\Main_ui.cpp ****                 cout << "invalid input -- Month (1 - 12) Year (2017)"  << endl;
 796              		.loc 1 108 0 is_stmt 0 discriminator 24
 797 09f9 8D45CC   		leal	-52(%ebp), %eax
 798 09fc C78564FF 		movl	$0, -156(%ebp)
 798      FFFF0000 
 798      0000
 799 0a06 89C1     		movl	%eax, %ecx
GAS LISTING C:\Users\NJLLMR~1\AppData\Local\Temp\cc5gZH1j.s 			page 24


 800 0a08 E8000000 		call	__ZNSsD1Ev
 800      00
 801              	L37:
 802 0a0d 8B8554FF 		movl	-172(%ebp), %eax
 802      FFFF
 803 0a13 898558FF 		movl	%eax, -168(%ebp)
 803      FFFF
 804 0a19 EB06     		jmp	L38
 805              	L60:
 806 0a1b 898558FF 		movl	%eax, -168(%ebp)
 806      FFFF
 807              	L38:
 108:C:/Users/Njáll Mýrdal/3viknanamskeid/LitidVerk1/Verkefni2/Vikuverk2/src/ui\Main_ui.cpp ****                 cout << "invalid input -- Month (1 - 12) Year (2017)"  << endl;
 808              		.loc 1 108 0 discriminator 17
 809 0a21 80BD5CFF 		cmpb	$0, -164(%ebp)
 809      FFFF00
 810 0a28 7417     		je	L75
 108:C:/Users/Njáll Mýrdal/3viknanamskeid/LitidVerk1/Verkefni2/Vikuverk2/src/ui\Main_ui.cpp ****                 cout << "invalid input -- Month (1 - 12) Year (2017)"  << endl;
 811              		.loc 1 108 0
 812 0a2a 90       		nop
 813 0a2b 8D45C8   		leal	-56(%ebp), %eax
 814 0a2e C78564FF 		movl	$0, -156(%ebp)
 814      FFFF0000 
 814      0000
 815 0a38 89C1     		movl	%eax, %ecx
 816 0a3a E8000000 		call	__ZNSsD1Ev
 816      00
 817 0a3f EB01     		jmp	L39
 818              	L75:
 819 0a41 90       		nop
 820              	L39:
 821 0a42 8B8558FF 		movl	-168(%ebp), %eax
 821      FFFF
 822 0a48 89855CFF 		movl	%eax, -164(%ebp)
 822      FFFF
 823 0a4e E9F60000 		jmp	L33
 823      00
 824              	L66:
 825 0a53 89855CFF 		movl	%eax, -164(%ebp)
 825      FFFF
 117:C:/Users/Njáll Mýrdal/3viknanamskeid/LitidVerk1/Verkefni2/Vikuverk2/src/ui\Main_ui.cpp ****     }
 826              		.loc 1 117 0 is_stmt 1
 827 0a59 8D45E0   		leal	-32(%ebp), %eax
 828 0a5c C78564FF 		movl	$0, -156(%ebp)
 828      FFFF0000 
 828      0000
 829 0a66 89C1     		movl	%eax, %ecx
 830 0a68 E8000000 		call	__ZNSsD1Ev
 830      00
 831 0a6d 8B855CFF 		movl	-164(%ebp), %eax
 831      FFFF
 832 0a73 89855CFF 		movl	%eax, -164(%ebp)
 832      FFFF
 833 0a79 EB06     		jmp	L41
 834              	L65:
 835 0a7b 89855CFF 		movl	%eax, -164(%ebp)
 835      FFFF
GAS LISTING C:\Users\NJLLMR~1\AppData\Local\Temp\cc5gZH1j.s 			page 25


 836              	L41:
 117:C:/Users/Njáll Mýrdal/3viknanamskeid/LitidVerk1/Verkefni2/Vikuverk2/src/ui\Main_ui.cpp ****     }
 837              		.loc 1 117 0 is_stmt 0 discriminator 12
 838 0a81 8D45DC   		leal	-36(%ebp), %eax
 839 0a84 C78564FF 		movl	$0, -156(%ebp)
 839      FFFF0000 
 839      0000
 840 0a8e 89C1     		movl	%eax, %ecx
 841 0a90 E8000000 		call	__ZNSsD1Ev
 841      00
 842 0a95 8B855CFF 		movl	-164(%ebp), %eax
 842      FFFF
 843 0a9b 89855CFF 		movl	%eax, -164(%ebp)
 843      FFFF
 844 0aa1 EB06     		jmp	L42
 845              	L64:
 846 0aa3 89855CFF 		movl	%eax, -164(%ebp)
 846      FFFF
 847              	L42:
 117:C:/Users/Njáll Mýrdal/3viknanamskeid/LitidVerk1/Verkefni2/Vikuverk2/src/ui\Main_ui.cpp ****     }
 848              		.loc 1 117 0 discriminator 14
 849 0aa9 8D45D8   		leal	-40(%ebp), %eax
 850 0aac C78564FF 		movl	$0, -156(%ebp)
 850      FFFF0000 
 850      0000
 851 0ab6 89C1     		movl	%eax, %ecx
 852 0ab8 E8000000 		call	__ZNSsD1Ev
 852      00
 853 0abd 8B855CFF 		movl	-164(%ebp), %eax
 853      FFFF
 854 0ac3 89855CFF 		movl	%eax, -164(%ebp)
 854      FFFF
 855 0ac9 EB06     		jmp	L43
 856              	L63:
 857 0acb 89855CFF 		movl	%eax, -164(%ebp)
 857      FFFF
 858              	L43:
 117:C:/Users/Njáll Mýrdal/3viknanamskeid/LitidVerk1/Verkefni2/Vikuverk2/src/ui\Main_ui.cpp ****     }
 859              		.loc 1 117 0 discriminator 16
 860 0ad1 8D45D4   		leal	-44(%ebp), %eax
 861 0ad4 C78564FF 		movl	$0, -156(%ebp)
 861      FFFF0000 
 861      0000
 862 0ade 89C1     		movl	%eax, %ecx
 863 0ae0 E8000000 		call	__ZNSsD1Ev
 863      00
 864 0ae5 8B855CFF 		movl	-164(%ebp), %eax
 864      FFFF
 865 0aeb 89855CFF 		movl	%eax, -164(%ebp)
 865      FFFF
 866 0af1 EB06     		jmp	L44
 867              	L62:
 868 0af3 89855CFF 		movl	%eax, -164(%ebp)
 868      FFFF
 869              	L44:
 117:C:/Users/Njáll Mýrdal/3viknanamskeid/LitidVerk1/Verkefni2/Vikuverk2/src/ui\Main_ui.cpp ****     }
 870              		.loc 1 117 0 discriminator 18
GAS LISTING C:\Users\NJLLMR~1\AppData\Local\Temp\cc5gZH1j.s 			page 26


 871 0af9 8D45D0   		leal	-48(%ebp), %eax
 872 0afc C78564FF 		movl	$0, -156(%ebp)
 872      FFFF0000 
 872      0000
 873 0b06 89C1     		movl	%eax, %ecx
 874 0b08 E8000000 		call	__ZNSsD1Ev
 874      00
 875 0b0d 8B855CFF 		movl	-164(%ebp), %eax
 875      FFFF
 876 0b13 89855CFF 		movl	%eax, -164(%ebp)
 876      FFFF
 877 0b19 EB06     		jmp	L45
 878              	L61:
 879 0b1b 89855CFF 		movl	%eax, -164(%ebp)
 879      FFFF
 880              	L45:
 881              		.loc 1 118 0 is_stmt 1
 882 0b21 8D459F   		leal	-97(%ebp), %eax
 883 0b24 C78564FF 		movl	$0, -156(%ebp)
 883      FFFF0000 
 883      0000
 884 0b2e 89C1     		movl	%eax, %ecx
 885 0b30 E8000000 		call	__ZN7ServiceD1Ev
 885      00
 886 0b35 8B855CFF 		movl	-164(%ebp), %eax
 886      FFFF
 887 0b3b 89855CFF 		movl	%eax, -164(%ebp)
 887      FFFF
 888 0b41 EB06     		jmp	L33
 889              	L55:
 890 0b43 89855CFF 		movl	%eax, -164(%ebp)
 890      FFFF
 891              	L33:
 892              	LBE6:
 893              	LBE7:
  65:C:/Users/Njáll Mýrdal/3viknanamskeid/LitidVerk1/Verkefni2/Vikuverk2/src/ui\Main_ui.cpp ****     cout << "How many employees do you wan't to add? :";
 894              		.loc 1 65 0
 895 0b49 8D45A0   		leal	-96(%ebp), %eax
 896 0b4c C78564FF 		movl	$0, -156(%ebp)
 896      FFFF0000 
 896      0000
 897 0b56 89C1     		movl	%eax, %ecx
 898 0b58 E8000000 		call	__ZNSsD1Ev
 898      00
 899 0b5d 8B855CFF 		movl	-164(%ebp), %eax
 899      FFFF
 900 0b63 89855CFF 		movl	%eax, -164(%ebp)
 900      FFFF
 901 0b69 EB06     		jmp	L46
 902              	L54:
 903 0b6b 89855CFF 		movl	%eax, -164(%ebp)
 903      FFFF
 904              	L46:
  65:C:/Users/Njáll Mýrdal/3viknanamskeid/LitidVerk1/Verkefni2/Vikuverk2/src/ui\Main_ui.cpp ****     cout << "How many employees do you wan't to add? :";
 905              		.loc 1 65 0 is_stmt 0 discriminator 2
 906 0b71 8D45A4   		leal	-92(%ebp), %eax
 907 0b74 C78564FF 		movl	$0, -156(%ebp)
GAS LISTING C:\Users\NJLLMR~1\AppData\Local\Temp\cc5gZH1j.s 			page 27


 907      FFFF0000 
 907      0000
 908 0b7e 89C1     		movl	%eax, %ecx
 909 0b80 E8000000 		call	__ZNSsD1Ev
 909      00
 910 0b85 8B855CFF 		movl	-164(%ebp), %eax
 910      FFFF
 911 0b8b 89855CFF 		movl	%eax, -164(%ebp)
 911      FFFF
 912 0b91 EB06     		jmp	L47
 913              	L53:
 914 0b93 89855CFF 		movl	%eax, -164(%ebp)
 914      FFFF
 915              	L47:
  64:C:/Users/Njáll Mýrdal/3viknanamskeid/LitidVerk1/Verkefni2/Vikuverk2/src/ui\Main_ui.cpp ****     string tmpMonth, tmpYear;
 916              		.loc 1 64 0 is_stmt 1
 917 0b99 8D45A8   		leal	-88(%ebp), %eax
 918 0b9c C78564FF 		movl	$0, -156(%ebp)
 918      FFFF0000 
 918      0000
 919 0ba6 89C1     		movl	%eax, %ecx
 920 0ba8 E8000000 		call	__ZNSsD1Ev
 920      00
 921 0bad 8B855CFF 		movl	-164(%ebp), %eax
 921      FFFF
 922 0bb3 89855CFF 		movl	%eax, -164(%ebp)
 922      FFFF
 923 0bb9 EB06     		jmp	L48
 924              	L52:
 925 0bbb 89855CFF 		movl	%eax, -164(%ebp)
 925      FFFF
 926              	L48:
  63:C:/Users/Njáll Mýrdal/3viknanamskeid/LitidVerk1/Verkefni2/Vikuverk2/src/ui\Main_ui.cpp ****     string tmpSalary;
 927              		.loc 1 63 0
 928 0bc1 8D45AC   		leal	-84(%ebp), %eax
 929 0bc4 C78564FF 		movl	$0, -156(%ebp)
 929      FFFF0000 
 929      0000
 930 0bce 89C1     		movl	%eax, %ecx
 931 0bd0 E8000000 		call	__ZNSsD1Ev
 931      00
 932 0bd5 8B855CFF 		movl	-164(%ebp), %eax
 932      FFFF
 933 0bdb 89855CFF 		movl	%eax, -164(%ebp)
 933      FFFF
 934 0be1 EB2D     		jmp	L49
 935              	L50:
 936 0be3 8D6D18   		leal	24(%ebp), %ebp
 937 0be6 8B8568FF 		movl	-152(%ebp), %eax
 937      FFFF
 938 0bec 83BD64FF 		cmpl	$15, -156(%ebp)
 938      FFFF0F
 939 0bf3 7713     		ja	L67
 940 0bf5 8B9564FF 		movl	-156(%ebp), %edx
 940      FFFF
 941 0bfb C1E202   		sall	$2, %edx
 942 0bfe 81C2CC02 		addl	$L68, %edx
GAS LISTING C:\Users\NJLLMR~1\AppData\Local\Temp\cc5gZH1j.s 			page 28


 942      0000
 943 0c04 8B12     		movl	(%edx), %edx
 944 0c06 FFE2     		jmp	*%edx
 945              		.section .rdata,"dr"
 946              		.align 4
 947              	L68:
 948 02cc 0A0C0000 		.long	L51
 949 02d0 BB0B0000 		.long	L52
 950 02d4 930B0000 		.long	L53
 951 02d8 6B0B0000 		.long	L54
 952 02dc 430B0000 		.long	L55
 953 02e0 69090000 		.long	L56
 954 02e4 94090000 		.long	L57
 955 02e8 BF090000 		.long	L58
 956 02ec EA090000 		.long	L59
 957 02f0 1B0A0000 		.long	L60
 958 02f4 1B0B0000 		.long	L61
 959 02f8 F30A0000 		.long	L62
 960 02fc CB0A0000 		.long	L63
 961 0300 A30A0000 		.long	L64
 962 0304 7B0A0000 		.long	L65
 963 0308 530A0000 		.long	L66
 964              		.text
 965              	L67:
 966 0c08 0F0B     		ud2
 967              	L51:
 968 0c0a 89855CFF 		movl	%eax, -164(%ebp)
 968      FFFF
 969              	L49:
 970              		.loc 1 118 0
 971 0c10 8D45B0   		leal	-80(%ebp), %eax
 972 0c13 C78564FF 		movl	$0, -156(%ebp)
 972      FFFF0000 
 972      0000
 973 0c1d 89C1     		movl	%eax, %ecx
 974 0c1f E8000000 		call	__ZNSsD1Ev
 974      00
 975 0c24 8B855CFF 		movl	-164(%ebp), %eax
 975      FFFF
 976 0c2a 890424   		movl	%eax, (%esp)
 977 0c2d C78564FF 		movl	$-1, -156(%ebp)
 977      FFFFFFFF 
 977      FFFF
 978 0c37 E8000000 		call	__Unwind_SjLj_Resume
 978      00
 979              	L74:
 980 0c3c 8D8560FF 		leal	-160(%ebp), %eax
 980      FFFF
 981 0c42 890424   		movl	%eax, (%esp)
 982 0c45 E8000000 		call	__Unwind_SjLj_Unregister
 982      00
 983              	LBE3:
 119:C:/Users/Njáll Mýrdal/3viknanamskeid/LitidVerk1/Verkefni2/Vikuverk2/src/ui\Main_ui.cpp **** 
 120:C:/Users/Njáll Mýrdal/3viknanamskeid/LitidVerk1/Verkefni2/Vikuverk2/src/ui\Main_ui.cpp **** }
 984              		.loc 1 120 0
 985 0c4a 8D65F4   		leal	-12(%ebp), %esp
 986 0c4d 5B       		popl	%ebx
GAS LISTING C:\Users\NJLLMR~1\AppData\Local\Temp\cc5gZH1j.s 			page 29


 987              		.cfi_restore 3
 988 0c4e 5E       		popl	%esi
 989              		.cfi_restore 6
 990 0c4f 5F       		popl	%edi
 991              		.cfi_restore 7
 992 0c50 5D       		popl	%ebp
 993              		.cfi_restore 5
 994              		.cfi_def_cfa 4, 4
 995 0c51 C3       		ret
 996              		.cfi_endproc
 997              	LFE1140:
 998              		.section	.gcc_except_table,"w"
 999              	LLSDA1140:
 1000 0000 FF       		.byte	0xff
 1001 0001 FF       		.byte	0xff
 1002 0002 01       		.byte	0x1
 1003 0003 20       		.uleb128 LLSDACSE1140-LLSDACSB1140
 1004              	LLSDACSB1140:
 1005 0004 00       		.uleb128 0
 1006 0005 00       		.uleb128 0
 1007 0006 01       		.uleb128 0x1
 1008 0007 00       		.uleb128 0
 1009 0008 02       		.uleb128 0x2
 1010 0009 00       		.uleb128 0
 1011 000a 03       		.uleb128 0x3
 1012 000b 00       		.uleb128 0
 1013 000c 04       		.uleb128 0x4
 1014 000d 00       		.uleb128 0
 1015 000e 05       		.uleb128 0x5
 1016 000f 00       		.uleb128 0
 1017 0010 06       		.uleb128 0x6
 1018 0011 00       		.uleb128 0
 1019 0012 07       		.uleb128 0x7
 1020 0013 00       		.uleb128 0
 1021 0014 08       		.uleb128 0x8
 1022 0015 00       		.uleb128 0
 1023 0016 09       		.uleb128 0x9
 1024 0017 00       		.uleb128 0
 1025 0018 0A       		.uleb128 0xa
 1026 0019 00       		.uleb128 0
 1027 001a 0B       		.uleb128 0xb
 1028 001b 00       		.uleb128 0
 1029 001c 0C       		.uleb128 0xc
 1030 001d 00       		.uleb128 0
 1031 001e 0D       		.uleb128 0xd
 1032 001f 00       		.uleb128 0
 1033 0020 0E       		.uleb128 0xe
 1034 0021 00       		.uleb128 0
 1035 0022 0F       		.uleb128 0xf
 1036 0023 00       		.uleb128 0
 1037              	LLSDACSE1140:
 1038              		.text
 1039              		.align 2
 1040              		.globl	__ZN7Main_ui11getRcrdMenuEv
 1042              	__ZN7Main_ui11getRcrdMenuEv:
 1043              	LFB1141:
 121:C:/Users/Njáll Mýrdal/3viknanamskeid/LitidVerk1/Verkefni2/Vikuverk2/src/ui\Main_ui.cpp **** 
GAS LISTING C:\Users\NJLLMR~1\AppData\Local\Temp\cc5gZH1j.s 			page 30


 122:C:/Users/Njáll Mýrdal/3viknanamskeid/LitidVerk1/Verkefni2/Vikuverk2/src/ui\Main_ui.cpp **** void Main_ui::getRcrdMenu() {
 1044              		.loc 1 122 0
 1045              		.cfi_startproc
 1046 0c52 55       		pushl	%ebp
 1047              		.cfi_def_cfa_offset 8
 1048              		.cfi_offset 5, -8
 1049 0c53 89E5     		movl	%esp, %ebp
 1050              		.cfi_def_cfa_register 5
 1051 0c55 83EC04   		subl	$4, %esp
 1052 0c58 894DFC   		movl	%ecx, -4(%ebp)
 123:C:/Users/Njáll Mýrdal/3viknanamskeid/LitidVerk1/Verkefni2/Vikuverk2/src/ui\Main_ui.cpp **** 
 124:C:/Users/Njáll Mýrdal/3viknanamskeid/LitidVerk1/Verkefni2/Vikuverk2/src/ui\Main_ui.cpp **** }
 1053              		.loc 1 124 0
 1054 0c5b C9       		leave
 1055              		.cfi_restore 5
 1056              		.cfi_def_cfa 4, 4
 1057 0c5c C3       		ret
 1058              		.cfi_endproc
 1059              	LFE1141:
 1060 0c5d 90       		.align 2
 1061              		.globl	__ZN7Main_ui12getYrPayMenuEv
 1063              	__ZN7Main_ui12getYrPayMenuEv:
 1064              	LFB1142:
 125:C:/Users/Njáll Mýrdal/3viknanamskeid/LitidVerk1/Verkefni2/Vikuverk2/src/ui\Main_ui.cpp **** 
 126:C:/Users/Njáll Mýrdal/3viknanamskeid/LitidVerk1/Verkefni2/Vikuverk2/src/ui\Main_ui.cpp **** void Main_ui::getYrPayMenu(){
 1065              		.loc 1 126 0
 1066              		.cfi_startproc
 1067 0c5e 55       		pushl	%ebp
 1068              		.cfi_def_cfa_offset 8
 1069              		.cfi_offset 5, -8
 1070 0c5f 89E5     		movl	%esp, %ebp
 1071              		.cfi_def_cfa_register 5
 1072 0c61 83EC04   		subl	$4, %esp
 1073 0c64 894DFC   		movl	%ecx, -4(%ebp)
 127:C:/Users/Njáll Mýrdal/3viknanamskeid/LitidVerk1/Verkefni2/Vikuverk2/src/ui\Main_ui.cpp **** 
 128:C:/Users/Njáll Mýrdal/3viknanamskeid/LitidVerk1/Verkefni2/Vikuverk2/src/ui\Main_ui.cpp **** }
 1074              		.loc 1 128 0
 1075 0c67 C9       		leave
 1076              		.cfi_restore 5
 1077              		.cfi_def_cfa 4, 4
 1078 0c68 C3       		ret
 1079              		.cfi_endproc
 1080              	LFE1142:
 1081 0c69 90       		.align 2
 1082              		.globl	__ZN7Main_ui12getHiPayMenuEv
 1084              	__ZN7Main_ui12getHiPayMenuEv:
 1085              	LFB1143:
 129:C:/Users/Njáll Mýrdal/3viknanamskeid/LitidVerk1/Verkefni2/Vikuverk2/src/ui\Main_ui.cpp **** 
 130:C:/Users/Njáll Mýrdal/3viknanamskeid/LitidVerk1/Verkefni2/Vikuverk2/src/ui\Main_ui.cpp **** void Main_ui::getHiPayMenu(){
 1086              		.loc 1 130 0
 1087              		.cfi_startproc
 1088 0c6a 55       		pushl	%ebp
 1089              		.cfi_def_cfa_offset 8
 1090              		.cfi_offset 5, -8
 1091 0c6b 89E5     		movl	%esp, %ebp
 1092              		.cfi_def_cfa_register 5
 1093 0c6d 83EC04   		subl	$4, %esp
GAS LISTING C:\Users\NJLLMR~1\AppData\Local\Temp\cc5gZH1j.s 			page 31


 1094 0c70 894DFC   		movl	%ecx, -4(%ebp)
 131:C:/Users/Njáll Mýrdal/3viknanamskeid/LitidVerk1/Verkefni2/Vikuverk2/src/ui\Main_ui.cpp **** 
 132:C:/Users/Njáll Mýrdal/3viknanamskeid/LitidVerk1/Verkefni2/Vikuverk2/src/ui\Main_ui.cpp **** }
 1095              		.loc 1 132 0
 1096 0c73 C9       		leave
 1097              		.cfi_restore 5
 1098              		.cfi_def_cfa 4, 4
 1099 0c74 C3       		ret
 1100              		.cfi_endproc
 1101              	LFE1143:
 1103              	___tcf_0:
 1104              	LFB1191:
 1105              		.file 2 "C:/Program Files (x86)/CodeBlocks/MinGW/lib/gcc/mingw32/4.9.2/include/c++/iostream"
   1:C:/Program Files (x86)/CodeBlocks/MinGW/lib/gcc/mingw32/4.9.2/include/c++\iostream **** // Standard iostream objects -*- C++ -*-
   2:C:/Program Files (x86)/CodeBlocks/MinGW/lib/gcc/mingw32/4.9.2/include/c++\iostream **** 
   3:C:/Program Files (x86)/CodeBlocks/MinGW/lib/gcc/mingw32/4.9.2/include/c++\iostream **** // Copyright (C) 1997-2014 Free Software Foundation, Inc.
   4:C:/Program Files (x86)/CodeBlocks/MinGW/lib/gcc/mingw32/4.9.2/include/c++\iostream **** //
   5:C:/Program Files (x86)/CodeBlocks/MinGW/lib/gcc/mingw32/4.9.2/include/c++\iostream **** // This file is part of the GNU ISO C++ Library.  This library is free
   6:C:/Program Files (x86)/CodeBlocks/MinGW/lib/gcc/mingw32/4.9.2/include/c++\iostream **** // software; you can redistribute it and/or modify it under the
   7:C:/Program Files (x86)/CodeBlocks/MinGW/lib/gcc/mingw32/4.9.2/include/c++\iostream **** // terms of the GNU General Public License as published by the
   8:C:/Program Files (x86)/CodeBlocks/MinGW/lib/gcc/mingw32/4.9.2/include/c++\iostream **** // Free Software Foundation; either version 3, or (at your option)
   9:C:/Program Files (x86)/CodeBlocks/MinGW/lib/gcc/mingw32/4.9.2/include/c++\iostream **** // any later version.
  10:C:/Program Files (x86)/CodeBlocks/MinGW/lib/gcc/mingw32/4.9.2/include/c++\iostream **** 
  11:C:/Program Files (x86)/CodeBlocks/MinGW/lib/gcc/mingw32/4.9.2/include/c++\iostream **** // This library is distributed in the hope that it will be useful,
  12:C:/Program Files (x86)/CodeBlocks/MinGW/lib/gcc/mingw32/4.9.2/include/c++\iostream **** // but WITHOUT ANY WARRANTY; without even the implied warranty of
  13:C:/Program Files (x86)/CodeBlocks/MinGW/lib/gcc/mingw32/4.9.2/include/c++\iostream **** // MERCHANTABILITY or FITNESS FOR A PARTICULAR PURPOSE.  See the
  14:C:/Program Files (x86)/CodeBlocks/MinGW/lib/gcc/mingw32/4.9.2/include/c++\iostream **** // GNU General Public License for more details.
  15:C:/Program Files (x86)/CodeBlocks/MinGW/lib/gcc/mingw32/4.9.2/include/c++\iostream **** 
  16:C:/Program Files (x86)/CodeBlocks/MinGW/lib/gcc/mingw32/4.9.2/include/c++\iostream **** // Under Section 7 of GPL version 3, you are granted additional
  17:C:/Program Files (x86)/CodeBlocks/MinGW/lib/gcc/mingw32/4.9.2/include/c++\iostream **** // permissions described in the GCC Runtime Library Exception, version
  18:C:/Program Files (x86)/CodeBlocks/MinGW/lib/gcc/mingw32/4.9.2/include/c++\iostream **** // 3.1, as published by the Free Software Foundation.
  19:C:/Program Files (x86)/CodeBlocks/MinGW/lib/gcc/mingw32/4.9.2/include/c++\iostream **** 
  20:C:/Program Files (x86)/CodeBlocks/MinGW/lib/gcc/mingw32/4.9.2/include/c++\iostream **** // You should have received a copy of the GNU General Public License and
  21:C:/Program Files (x86)/CodeBlocks/MinGW/lib/gcc/mingw32/4.9.2/include/c++\iostream **** // a copy of the GCC Runtime Library Exception along with this program;
  22:C:/Program Files (x86)/CodeBlocks/MinGW/lib/gcc/mingw32/4.9.2/include/c++\iostream **** // see the files COPYING3 and COPYING.RUNTIME respectively.  If not, see
  23:C:/Program Files (x86)/CodeBlocks/MinGW/lib/gcc/mingw32/4.9.2/include/c++\iostream **** // <http://www.gnu.org/licenses/>.
  24:C:/Program Files (x86)/CodeBlocks/MinGW/lib/gcc/mingw32/4.9.2/include/c++\iostream **** 
  25:C:/Program Files (x86)/CodeBlocks/MinGW/lib/gcc/mingw32/4.9.2/include/c++\iostream **** /** @file include/iostream
  26:C:/Program Files (x86)/CodeBlocks/MinGW/lib/gcc/mingw32/4.9.2/include/c++\iostream ****  *  This is a Standard C++ Library header.
  27:C:/Program Files (x86)/CodeBlocks/MinGW/lib/gcc/mingw32/4.9.2/include/c++\iostream ****  */
  28:C:/Program Files (x86)/CodeBlocks/MinGW/lib/gcc/mingw32/4.9.2/include/c++\iostream **** 
  29:C:/Program Files (x86)/CodeBlocks/MinGW/lib/gcc/mingw32/4.9.2/include/c++\iostream **** //
  30:C:/Program Files (x86)/CodeBlocks/MinGW/lib/gcc/mingw32/4.9.2/include/c++\iostream **** // ISO C++ 14882: 27.3  Standard iostream objects
  31:C:/Program Files (x86)/CodeBlocks/MinGW/lib/gcc/mingw32/4.9.2/include/c++\iostream **** //
  32:C:/Program Files (x86)/CodeBlocks/MinGW/lib/gcc/mingw32/4.9.2/include/c++\iostream **** 
  33:C:/Program Files (x86)/CodeBlocks/MinGW/lib/gcc/mingw32/4.9.2/include/c++\iostream **** #ifndef _GLIBCXX_IOSTREAM
  34:C:/Program Files (x86)/CodeBlocks/MinGW/lib/gcc/mingw32/4.9.2/include/c++\iostream **** #define _GLIBCXX_IOSTREAM 1
  35:C:/Program Files (x86)/CodeBlocks/MinGW/lib/gcc/mingw32/4.9.2/include/c++\iostream **** 
  36:C:/Program Files (x86)/CodeBlocks/MinGW/lib/gcc/mingw32/4.9.2/include/c++\iostream **** #pragma GCC system_header
  37:C:/Program Files (x86)/CodeBlocks/MinGW/lib/gcc/mingw32/4.9.2/include/c++\iostream **** 
  38:C:/Program Files (x86)/CodeBlocks/MinGW/lib/gcc/mingw32/4.9.2/include/c++\iostream **** #include <bits/c++config.h>
  39:C:/Program Files (x86)/CodeBlocks/MinGW/lib/gcc/mingw32/4.9.2/include/c++\iostream **** #include <ostream>
  40:C:/Program Files (x86)/CodeBlocks/MinGW/lib/gcc/mingw32/4.9.2/include/c++\iostream **** #include <istream>
  41:C:/Program Files (x86)/CodeBlocks/MinGW/lib/gcc/mingw32/4.9.2/include/c++\iostream **** 
  42:C:/Program Files (x86)/CodeBlocks/MinGW/lib/gcc/mingw32/4.9.2/include/c++\iostream **** namespace std _GLIBCXX_VISIBILITY(default)
  43:C:/Program Files (x86)/CodeBlocks/MinGW/lib/gcc/mingw32/4.9.2/include/c++\iostream **** {
  44:C:/Program Files (x86)/CodeBlocks/MinGW/lib/gcc/mingw32/4.9.2/include/c++\iostream **** _GLIBCXX_BEGIN_NAMESPACE_VERSION
GAS LISTING C:\Users\NJLLMR~1\AppData\Local\Temp\cc5gZH1j.s 			page 32


  45:C:/Program Files (x86)/CodeBlocks/MinGW/lib/gcc/mingw32/4.9.2/include/c++\iostream **** 
  46:C:/Program Files (x86)/CodeBlocks/MinGW/lib/gcc/mingw32/4.9.2/include/c++\iostream ****   /**
  47:C:/Program Files (x86)/CodeBlocks/MinGW/lib/gcc/mingw32/4.9.2/include/c++\iostream ****    *  @name Standard Stream Objects
  48:C:/Program Files (x86)/CodeBlocks/MinGW/lib/gcc/mingw32/4.9.2/include/c++\iostream ****    *
  49:C:/Program Files (x86)/CodeBlocks/MinGW/lib/gcc/mingw32/4.9.2/include/c++\iostream ****    *  The &lt;iostream&gt; header declares the eight <em>standard stream
  50:C:/Program Files (x86)/CodeBlocks/MinGW/lib/gcc/mingw32/4.9.2/include/c++\iostream ****    *  objects</em>.  For other declarations, see
  51:C:/Program Files (x86)/CodeBlocks/MinGW/lib/gcc/mingw32/4.9.2/include/c++\iostream ****    *  http://gcc.gnu.org/onlinedocs/libstdc++/manual/io.html
  52:C:/Program Files (x86)/CodeBlocks/MinGW/lib/gcc/mingw32/4.9.2/include/c++\iostream ****    *  and the @link iosfwd I/O forward declarations @endlink
  53:C:/Program Files (x86)/CodeBlocks/MinGW/lib/gcc/mingw32/4.9.2/include/c++\iostream ****    *
  54:C:/Program Files (x86)/CodeBlocks/MinGW/lib/gcc/mingw32/4.9.2/include/c++\iostream ****    *  They are required by default to cooperate with the global C
  55:C:/Program Files (x86)/CodeBlocks/MinGW/lib/gcc/mingw32/4.9.2/include/c++\iostream ****    *  library's @c FILE streams, and to be available during program
  56:C:/Program Files (x86)/CodeBlocks/MinGW/lib/gcc/mingw32/4.9.2/include/c++\iostream ****    *  startup and termination. For more information, see the section of the
  57:C:/Program Files (x86)/CodeBlocks/MinGW/lib/gcc/mingw32/4.9.2/include/c++\iostream ****    *  manual linked to above.
  58:C:/Program Files (x86)/CodeBlocks/MinGW/lib/gcc/mingw32/4.9.2/include/c++\iostream ****   */
  59:C:/Program Files (x86)/CodeBlocks/MinGW/lib/gcc/mingw32/4.9.2/include/c++\iostream ****   //@{
  60:C:/Program Files (x86)/CodeBlocks/MinGW/lib/gcc/mingw32/4.9.2/include/c++\iostream ****   extern istream cin;		/// Linked to standard input
  61:C:/Program Files (x86)/CodeBlocks/MinGW/lib/gcc/mingw32/4.9.2/include/c++\iostream ****   extern ostream cout;		/// Linked to standard output
  62:C:/Program Files (x86)/CodeBlocks/MinGW/lib/gcc/mingw32/4.9.2/include/c++\iostream ****   extern ostream cerr;		/// Linked to standard error (unbuffered)
  63:C:/Program Files (x86)/CodeBlocks/MinGW/lib/gcc/mingw32/4.9.2/include/c++\iostream ****   extern ostream clog;		/// Linked to standard error (buffered)
  64:C:/Program Files (x86)/CodeBlocks/MinGW/lib/gcc/mingw32/4.9.2/include/c++\iostream **** 
  65:C:/Program Files (x86)/CodeBlocks/MinGW/lib/gcc/mingw32/4.9.2/include/c++\iostream **** #ifdef _GLIBCXX_USE_WCHAR_T
  66:C:/Program Files (x86)/CodeBlocks/MinGW/lib/gcc/mingw32/4.9.2/include/c++\iostream ****   extern wistream wcin;		/// Linked to standard input
  67:C:/Program Files (x86)/CodeBlocks/MinGW/lib/gcc/mingw32/4.9.2/include/c++\iostream ****   extern wostream wcout;	/// Linked to standard output
  68:C:/Program Files (x86)/CodeBlocks/MinGW/lib/gcc/mingw32/4.9.2/include/c++\iostream ****   extern wostream wcerr;	/// Linked to standard error (unbuffered)
  69:C:/Program Files (x86)/CodeBlocks/MinGW/lib/gcc/mingw32/4.9.2/include/c++\iostream ****   extern wostream wclog;	/// Linked to standard error (buffered)
  70:C:/Program Files (x86)/CodeBlocks/MinGW/lib/gcc/mingw32/4.9.2/include/c++\iostream **** #endif
  71:C:/Program Files (x86)/CodeBlocks/MinGW/lib/gcc/mingw32/4.9.2/include/c++\iostream ****   //@}
  72:C:/Program Files (x86)/CodeBlocks/MinGW/lib/gcc/mingw32/4.9.2/include/c++\iostream **** 
  73:C:/Program Files (x86)/CodeBlocks/MinGW/lib/gcc/mingw32/4.9.2/include/c++\iostream ****   // For construction of filebuffers for cout, cin, cerr, clog et. al.
  74:C:/Program Files (x86)/CodeBlocks/MinGW/lib/gcc/mingw32/4.9.2/include/c++\iostream ****   static ios_base::Init __ioinit;
 1106              		.loc 2 74 0
 1107              		.cfi_startproc
 1108 0c75 55       		pushl	%ebp
 1109              		.cfi_def_cfa_offset 8
 1110              		.cfi_offset 5, -8
 1111 0c76 89E5     		movl	%esp, %ebp
 1112              		.cfi_def_cfa_register 5
 1113 0c78 83EC08   		subl	$8, %esp
 1114              		.loc 2 74 0
 1115 0c7b B9000000 		movl	$__ZStL8__ioinit, %ecx
 1115      00
 1116 0c80 E8000000 		call	__ZNSt8ios_base4InitD1Ev
 1116      00
 1117 0c85 C9       		leave
 1118              		.cfi_restore 5
 1119              		.cfi_def_cfa 4, 4
 1120 0c86 C3       		ret
 1121              		.cfi_endproc
 1122              	LFE1191:
 1124              	__Z41__static_initialization_and_destruction_0ii:
 1125              	LFB1190:
 1126              		.loc 1 132 0
 1127              		.cfi_startproc
 1128 0c87 55       		pushl	%ebp
 1129              		.cfi_def_cfa_offset 8
 1130              		.cfi_offset 5, -8
 1131 0c88 89E5     		movl	%esp, %ebp
GAS LISTING C:\Users\NJLLMR~1\AppData\Local\Temp\cc5gZH1j.s 			page 33


 1132              		.cfi_def_cfa_register 5
 1133 0c8a 83EC18   		subl	$24, %esp
 1134              		.loc 1 132 0
 1135 0c8d 837D0801 		cmpl	$1, 8(%ebp)
 1136 0c91 751F     		jne	L80
 1137              		.loc 1 132 0 is_stmt 0 discriminator 1
 1138 0c93 817D0CFF 		cmpl	$65535, 12(%ebp)
 1138      FF0000
 1139 0c9a 7516     		jne	L80
 1140              		.loc 2 74 0 is_stmt 1
 1141 0c9c B9000000 		movl	$__ZStL8__ioinit, %ecx
 1141      00
 1142 0ca1 E8000000 		call	__ZNSt8ios_base4InitC1Ev
 1142      00
 1143 0ca6 C7042475 		movl	$___tcf_0, (%esp)
 1143      0C0000
 1144 0cad E8000000 		call	_atexit
 1144      00
 1145              	L80:
 1146              		.loc 1 132 0
 1147 0cb2 C9       		leave
 1148              		.cfi_restore 5
 1149              		.cfi_def_cfa 4, 4
 1150 0cb3 C3       		ret
 1151              		.cfi_endproc
 1152              	LFE1190:
 1154              	__GLOBAL__sub_I__ZN7Main_uiC2Ev:
 1155              	LFB1192:
 1156              		.loc 1 132 0
 1157              		.cfi_startproc
 1158 0cb4 55       		pushl	%ebp
 1159              		.cfi_def_cfa_offset 8
 1160              		.cfi_offset 5, -8
 1161 0cb5 89E5     		movl	%esp, %ebp
 1162              		.cfi_def_cfa_register 5
 1163 0cb7 83EC18   		subl	$24, %esp
 1164              		.loc 1 132 0
 1165 0cba C7442404 		movl	$65535, 4(%esp)
 1165      FFFF0000 
 1166 0cc2 C7042401 		movl	$1, (%esp)
 1166      000000
 1167 0cc9 E8B9FFFF 		call	__Z41__static_initialization_and_destruction_0ii
 1167      FF
 1168 0cce C9       		leave
 1169              		.cfi_restore 5
 1170              		.cfi_def_cfa 4, 4
 1171 0ccf C3       		ret
 1172              		.cfi_endproc
 1173              	LFE1192:
 1174              		.section	.ctors,"w"
 1175              		.align 4
 1176 0000 B40C0000 		.long	__GLOBAL__sub_I__ZN7Main_uiC2Ev
 1177              		.text
 1178              	Letext0:
 1179              		.file 3 "include/ui/Main_ui.h"
 1180              		.file 4 "C:/Program Files (x86)/CodeBlocks/MinGW/lib/gcc/mingw32/4.9.2/include/stddef.h"
 1181              		.file 5 "C:/Program Files (x86)/CodeBlocks/MinGW/include/wctype.h"
GAS LISTING C:\Users\NJLLMR~1\AppData\Local\Temp\cc5gZH1j.s 			page 34


 1182              		.file 6 "C:/Program Files (x86)/CodeBlocks/MinGW/include/wchar.h"
 1183              		.file 7 "C:/Program Files (x86)/CodeBlocks/MinGW/lib/gcc/mingw32/4.9.2/include/c++/cwchar"
 1184              		.file 8 "C:/Program Files (x86)/CodeBlocks/MinGW/lib/gcc/mingw32/4.9.2/include/c++/bits/char_trait
 1185              		.file 9 "C:/Program Files (x86)/CodeBlocks/MinGW/lib/gcc/mingw32/4.9.2/include/c++/mingw32/bits/c+
 1186              		.file 10 "C:/Program Files (x86)/CodeBlocks/MinGW/lib/gcc/mingw32/4.9.2/include/c++/clocale"
 1187              		.file 11 "C:/Program Files (x86)/CodeBlocks/MinGW/lib/gcc/mingw32/4.9.2/include/c++/bits/allocator
 1188              		.file 12 "C:/Program Files (x86)/CodeBlocks/MinGW/lib/gcc/mingw32/4.9.2/include/c++/bits/basic_str
 1189              		.file 13 "C:/Program Files (x86)/CodeBlocks/MinGW/lib/gcc/mingw32/4.9.2/include/c++/bits/basic_str
 1190              		.file 14 "C:/Program Files (x86)/CodeBlocks/MinGW/lib/gcc/mingw32/4.9.2/include/c++/bits/stringfwd
 1191              		.file 15 "C:/Program Files (x86)/CodeBlocks/MinGW/lib/gcc/mingw32/4.9.2/include/c++/bits/ios_base.
 1192              		.file 16 "C:/Program Files (x86)/CodeBlocks/MinGW/lib/gcc/mingw32/4.9.2/include/c++/cwctype"
 1193              		.file 17 "C:/Program Files (x86)/CodeBlocks/MinGW/lib/gcc/mingw32/4.9.2/include/c++/cstdio"
 1194              		.file 18 "C:/Program Files (x86)/CodeBlocks/MinGW/lib/gcc/mingw32/4.9.2/include/c++/iosfwd"
 1195              		.file 19 "<built-in>"
 1196              		.file 20 "C:/Program Files (x86)/CodeBlocks/MinGW/lib/gcc/mingw32/4.9.2/include/c++/debug/debug.h"
 1197              		.file 21 "C:/Program Files (x86)/CodeBlocks/MinGW/lib/gcc/mingw32/4.9.2/include/c++/bits/predefine
 1198              		.file 22 "C:/Program Files (x86)/CodeBlocks/MinGW/lib/gcc/mingw32/4.9.2/include/c++/ext/new_alloca
 1199              		.file 23 "C:/Program Files (x86)/CodeBlocks/MinGW/lib/gcc/mingw32/4.9.2/include/c++/ext/numeric_tr
 1200              		.file 24 "C:/Program Files (x86)/CodeBlocks/MinGW/include/locale.h"
 1201              		.file 25 "C:/Program Files (x86)/CodeBlocks/MinGW/lib/gcc/mingw32/4.9.2/include/c++/mingw32/bits/a
 1202              		.file 26 "C:/Program Files (x86)/CodeBlocks/MinGW/include/ctype.h"
 1203              		.file 27 "C:/Program Files (x86)/CodeBlocks/MinGW/include/stdio.h"
 1204              		.file 28 "include/models/Employee.h"
 1205              		.file 29 "include/Repository/Repository.h"
 1206              		.file 30 "include/services/Service.h"
 1207              		.file 31 "include/services/Validate.h"
 1208              		.section	.debug_info,"dr"
 1209              	Ldebug_info0:
 1210 0000 4B500000 		.long	0x504b
 1211 0004 0400     		.word	0x4
 1212 0006 00000000 		.secrel32	Ldebug_abbrev0
 1213 000a 04       		.byte	0x4
 1214 000b 01       		.uleb128 0x1
 1215 000c 474E5520 		.ascii "GNU C++ 4.9.2 -mtune=generic -march=pentiumpro -g -fexceptions\0"
 1215      432B2B20 
 1215      342E392E 
 1215      32202D6D 
 1215      74756E65 
 1216 004b 04       		.byte	0x4
 1217 004c 433A5C55 		.ascii "C:\\Users\\Nj\341ll M\375rdal\\3viknanamskeid\\LitidVerk1\\Verkefni2\\Vikuverk2\\src\\ui\\
 1217      73657273 
 1217      5C4E6AE1 
 1217      6C6C204D 
 1217      FD726461 
 1218 00a3 433A5C55 		.ascii "C:\\Users\\Nj\341ll M\375rdal\\3viknanamskeid\\LitidVerk1\\Verkefni2\\Vikuverk2\0"
 1218      73657273 
 1218      5C4E6AE1 
 1218      6C6C204D 
 1218      FD726461 
 1219 00e7 00000000 		.long	Ltext0
 1220 00eb D00C0000 		.long	Letext0-Ltext0
 1221 00ef 00000000 		.secrel32	Ldebug_line0
 1222 00f3 02       		.uleb128 0x2
 1223 00f4 4D61696E 		.ascii "Main_ui\0"
 1223      5F756900 
 1224 00fc 01       		.byte	0x1
 1225 00fd 03       		.byte	0x3
GAS LISTING C:\Users\NJLLMR~1\AppData\Local\Temp\cc5gZH1j.s 			page 35


 1226 00fe 05       		.byte	0x5
 1227 00ff 36020000 		.long	0x236
 1228 0103 03       		.uleb128 0x3
 1229 0104 4D61696E 		.ascii "Main_ui\0"
 1229      5F756900 
 1230 010c 03       		.byte	0x3
 1231 010d 08       		.byte	0x8
 1232 010e 01       		.byte	0x1
 1233 010f 17010000 		.long	0x117
 1234 0113 1D010000 		.long	0x11d
 1235 0117 04       		.uleb128 0x4
 1236 0118 36020000 		.long	0x236
 1237 011c 00       		.byte	0
 1238 011d 05       		.uleb128 0x5
 1239 011e 6D61696E 		.ascii "main_menu\0"
 1239      5F6D656E 
 1239      7500
 1240 0128 03       		.byte	0x3
 1241 0129 0A       		.byte	0xa
 1242 012a 5F5A4E37 		.ascii "_ZN7Main_ui9main_menuEv\0"
 1242      4D61696E 
 1242      5F756939 
 1242      6D61696E 
 1242      5F6D656E 
 1243 0142 01       		.byte	0x1
 1244 0143 4B010000 		.long	0x14b
 1245 0147 51010000 		.long	0x151
 1246 014b 04       		.uleb128 0x4
 1247 014c 36020000 		.long	0x236
 1248 0150 00       		.byte	0
 1249 0151 05       		.uleb128 0x5
 1250 0152 67657452 		.ascii "getRcrdMenu\0"
 1250      6372644D 
 1250      656E7500 
 1251 015e 03       		.byte	0x3
 1252 015f 0C       		.byte	0xc
 1253 0160 5F5A4E37 		.ascii "_ZN7Main_ui11getRcrdMenuEv\0"
 1253      4D61696E 
 1253      5F756931 
 1253      31676574 
 1253      52637264 
 1254 017b 01       		.byte	0x1
 1255 017c 84010000 		.long	0x184
 1256 0180 8A010000 		.long	0x18a
 1257 0184 04       		.uleb128 0x4
 1258 0185 36020000 		.long	0x236
 1259 0189 00       		.byte	0
 1260 018a 05       		.uleb128 0x5
 1261 018b 61646445 		.ascii "addEmplMenu\0"
 1261      6D706C4D 
 1261      656E7500 
 1262 0197 03       		.byte	0x3
 1263 0198 0E       		.byte	0xe
 1264 0199 5F5A4E37 		.ascii "_ZN7Main_ui11addEmplMenuEv\0"
 1264      4D61696E 
 1264      5F756931 
 1264      31616464 
GAS LISTING C:\Users\NJLLMR~1\AppData\Local\Temp\cc5gZH1j.s 			page 36


 1264      456D706C 
 1265 01b4 01       		.byte	0x1
 1266 01b5 BD010000 		.long	0x1bd
 1267 01b9 C3010000 		.long	0x1c3
 1268 01bd 04       		.uleb128 0x4
 1269 01be 36020000 		.long	0x236
 1270 01c2 00       		.byte	0
 1271 01c3 05       		.uleb128 0x5
 1272 01c4 67657448 		.ascii "getHiPayMenu\0"
 1272      69506179 
 1272      4D656E75 
 1272      00
 1273 01d1 03       		.byte	0x3
 1274 01d2 10       		.byte	0x10
 1275 01d3 5F5A4E37 		.ascii "_ZN7Main_ui12getHiPayMenuEv\0"
 1275      4D61696E 
 1275      5F756931 
 1275      32676574 
 1275      48695061 
 1276 01ef 01       		.byte	0x1
 1277 01f0 F8010000 		.long	0x1f8
 1278 01f4 FE010000 		.long	0x1fe
 1279 01f8 04       		.uleb128 0x4
 1280 01f9 36020000 		.long	0x236
 1281 01fd 00       		.byte	0
 1282 01fe 06       		.uleb128 0x6
 1283 01ff 67657459 		.ascii "getYrPayMenu\0"
 1283      72506179 
 1283      4D656E75 
 1283      00
 1284 020c 03       		.byte	0x3
 1285 020d 12       		.byte	0x12
 1286 020e 5F5A4E37 		.ascii "_ZN7Main_ui12getYrPayMenuEv\0"
 1286      4D61696E 
 1286      5F756931 
 1286      32676574 
 1286      59725061 
 1287 022a 01       		.byte	0x1
 1288 022b 2F020000 		.long	0x22f
 1289 022f 04       		.uleb128 0x4
 1290 0230 36020000 		.long	0x236
 1291 0234 00       		.byte	0
 1292 0235 00       		.byte	0
 1293 0236 07       		.uleb128 0x7
 1294 0237 04       		.byte	0x4
 1295 0238 F3000000 		.long	0xf3
 1296 023c 08       		.uleb128 0x8
 1297 023d 73697A65 		.ascii "size_t\0"
 1297      5F7400
 1298 0244 04       		.byte	0x4
 1299 0245 D4       		.byte	0xd4
 1300 0246 4A020000 		.long	0x24a
 1301 024a 09       		.uleb128 0x9
 1302 024b 04       		.byte	0x4
 1303 024c 07       		.byte	0x7
 1304 024d 756E7369 		.ascii "unsigned int\0"
 1304      676E6564 
GAS LISTING C:\Users\NJLLMR~1\AppData\Local\Temp\cc5gZH1j.s 			page 37


 1304      20696E74 
 1304      00
 1305 025a 0A       		.uleb128 0xa
 1306 025b 77696E74 		.ascii "wint_t\0"
 1306      5F7400
 1307 0262 04       		.byte	0x4
 1308 0263 6101     		.word	0x161
 1309 0265 69020000 		.long	0x269
 1310 0269 09       		.uleb128 0x9
 1311 026a 02       		.byte	0x2
 1312 026b 07       		.byte	0x7
 1313 026c 73686F72 		.ascii "short unsigned int\0"
 1313      7420756E 
 1313      7369676E 
 1313      65642069 
 1313      6E7400
 1314 027f 0B       		.uleb128 0xb
 1315 0280 04       		.byte	0x4
 1316 0281 5F5F6275 		.ascii "__builtin_va_list\0"
 1316      696C7469 
 1316      6E5F7661 
 1316      5F6C6973 
 1316      7400
 1317 0293 97020000 		.long	0x297
 1318 0297 09       		.uleb128 0x9
 1319 0298 01       		.byte	0x1
 1320 0299 06       		.byte	0x6
 1321 029a 63686172 		.ascii "char\0"
 1321      00
 1322 029f 08       		.uleb128 0x8
 1323 02a0 77637479 		.ascii "wctype_t\0"
 1323      70655F74 
 1323      00
 1324 02a9 05       		.byte	0x5
 1325 02aa 3E       		.byte	0x3e
 1326 02ab AF020000 		.long	0x2af
 1327 02af 09       		.uleb128 0x9
 1328 02b0 02       		.byte	0x2
 1329 02b1 07       		.byte	0x7
 1330 02b2 77636861 		.ascii "wchar_t\0"
 1330      725F7400 
 1331 02ba 08       		.uleb128 0x8
 1332 02bb 77637472 		.ascii "wctrans_t\0"
 1332      616E735F 
 1332      7400
 1333 02c5 05       		.byte	0x5
 1334 02c6 94       		.byte	0x94
 1335 02c7 AF020000 		.long	0x2af
 1336 02cb 09       		.uleb128 0x9
 1337 02cc 04       		.byte	0x4
 1338 02cd 05       		.byte	0x5
 1339 02ce 696E7400 		.ascii "int\0"
 1340 02d2 09       		.uleb128 0x9
 1341 02d3 04       		.byte	0x4
 1342 02d4 05       		.byte	0x5
 1343 02d5 6C6F6E67 		.ascii "long int\0"
 1343      20696E74 
GAS LISTING C:\Users\NJLLMR~1\AppData\Local\Temp\cc5gZH1j.s 			page 38


 1343      00
 1344 02de 09       		.uleb128 0x9
 1345 02df 08       		.byte	0x8
 1346 02e0 05       		.byte	0x5
 1347 02e1 6C6F6E67 		.ascii "long long int\0"
 1347      206C6F6E 
 1347      6720696E 
 1347      7400
 1348 02ef 09       		.uleb128 0x9
 1349 02f0 02       		.byte	0x2
 1350 02f1 05       		.byte	0x5
 1351 02f2 73686F72 		.ascii "short int\0"
 1351      7420696E 
 1351      7400
 1352 02fc 0C       		.uleb128 0xc
 1353 02fd 5F696F62 		.ascii "_iobuf\0"
 1353      756600
 1354 0304 20       		.byte	0x20
 1355 0305 06       		.byte	0x6
 1356 0306 44       		.byte	0x44
 1357 0307 83030000 		.long	0x383
 1358 030b 0D       		.uleb128 0xd
 1359 030c 5F707472 		.ascii "_ptr\0"
 1359      00
 1360 0311 06       		.byte	0x6
 1361 0312 46       		.byte	0x46
 1362 0313 83030000 		.long	0x383
 1363 0317 00       		.byte	0
 1364 0318 0D       		.uleb128 0xd
 1365 0319 5F636E74 		.ascii "_cnt\0"
 1365      00
 1366 031e 06       		.byte	0x6
 1367 031f 47       		.byte	0x47
 1368 0320 CB020000 		.long	0x2cb
 1369 0324 04       		.byte	0x4
 1370 0325 0D       		.uleb128 0xd
 1371 0326 5F626173 		.ascii "_base\0"
 1371      6500
 1372 032c 06       		.byte	0x6
 1373 032d 48       		.byte	0x48
 1374 032e 83030000 		.long	0x383
 1375 0332 08       		.byte	0x8
 1376 0333 0D       		.uleb128 0xd
 1377 0334 5F666C61 		.ascii "_flag\0"
 1377      6700
 1378 033a 06       		.byte	0x6
 1379 033b 49       		.byte	0x49
 1380 033c CB020000 		.long	0x2cb
 1381 0340 0C       		.byte	0xc
 1382 0341 0D       		.uleb128 0xd
 1383 0342 5F66696C 		.ascii "_file\0"
 1383      6500
 1384 0348 06       		.byte	0x6
 1385 0349 4A       		.byte	0x4a
 1386 034a CB020000 		.long	0x2cb
 1387 034e 10       		.byte	0x10
 1388 034f 0D       		.uleb128 0xd
GAS LISTING C:\Users\NJLLMR~1\AppData\Local\Temp\cc5gZH1j.s 			page 39


 1389 0350 5F636861 		.ascii "_charbuf\0"
 1389      72627566 
 1389      00
 1390 0359 06       		.byte	0x6
 1391 035a 4B       		.byte	0x4b
 1392 035b CB020000 		.long	0x2cb
 1393 035f 14       		.byte	0x14
 1394 0360 0D       		.uleb128 0xd
 1395 0361 5F627566 		.ascii "_bufsiz\0"
 1395      73697A00 
 1396 0369 06       		.byte	0x6
 1397 036a 4C       		.byte	0x4c
 1398 036b CB020000 		.long	0x2cb
 1399 036f 18       		.byte	0x18
 1400 0370 0D       		.uleb128 0xd
 1401 0371 5F746D70 		.ascii "_tmpfname\0"
 1401      666E616D 
 1401      6500
 1402 037b 06       		.byte	0x6
 1403 037c 4D       		.byte	0x4d
 1404 037d 83030000 		.long	0x383
 1405 0381 1C       		.byte	0x1c
 1406 0382 00       		.byte	0
 1407 0383 07       		.uleb128 0x7
 1408 0384 04       		.byte	0x4
 1409 0385 97020000 		.long	0x297
 1410 0389 08       		.uleb128 0x8
 1411 038a 46494C45 		.ascii "FILE\0"
 1411      00
 1412 038f 06       		.byte	0x6
 1413 0390 4E       		.byte	0x4e
 1414 0391 FC020000 		.long	0x2fc
 1415 0395 0C       		.uleb128 0xc
 1416 0396 746D00   		.ascii "tm\0"
 1417 0399 24       		.byte	0x24
 1418 039a 06       		.byte	0x6
 1419 039b 57       		.byte	0x57
 1420 039c 2F040000 		.long	0x42f
 1421 03a0 0D       		.uleb128 0xd
 1422 03a1 746D5F73 		.ascii "tm_sec\0"
 1422      656300
 1423 03a8 06       		.byte	0x6
 1424 03a9 58       		.byte	0x58
 1425 03aa CB020000 		.long	0x2cb
 1426 03ae 00       		.byte	0
 1427 03af 0D       		.uleb128 0xd
 1428 03b0 746D5F6D 		.ascii "tm_min\0"
 1428      696E00
 1429 03b7 06       		.byte	0x6
 1430 03b8 59       		.byte	0x59
 1431 03b9 CB020000 		.long	0x2cb
 1432 03bd 04       		.byte	0x4
 1433 03be 0D       		.uleb128 0xd
 1434 03bf 746D5F68 		.ascii "tm_hour\0"
 1434      6F757200 
 1435 03c7 06       		.byte	0x6
 1436 03c8 5A       		.byte	0x5a
GAS LISTING C:\Users\NJLLMR~1\AppData\Local\Temp\cc5gZH1j.s 			page 40


 1437 03c9 CB020000 		.long	0x2cb
 1438 03cd 08       		.byte	0x8
 1439 03ce 0D       		.uleb128 0xd
 1440 03cf 746D5F6D 		.ascii "tm_mday\0"
 1440      64617900 
 1441 03d7 06       		.byte	0x6
 1442 03d8 5B       		.byte	0x5b
 1443 03d9 CB020000 		.long	0x2cb
 1444 03dd 0C       		.byte	0xc
 1445 03de 0D       		.uleb128 0xd
 1446 03df 746D5F6D 		.ascii "tm_mon\0"
 1446      6F6E00
 1447 03e6 06       		.byte	0x6
 1448 03e7 5C       		.byte	0x5c
 1449 03e8 CB020000 		.long	0x2cb
 1450 03ec 10       		.byte	0x10
 1451 03ed 0D       		.uleb128 0xd
 1452 03ee 746D5F79 		.ascii "tm_year\0"
 1452      65617200 
 1453 03f6 06       		.byte	0x6
 1454 03f7 5D       		.byte	0x5d
 1455 03f8 CB020000 		.long	0x2cb
 1456 03fc 14       		.byte	0x14
 1457 03fd 0D       		.uleb128 0xd
 1458 03fe 746D5F77 		.ascii "tm_wday\0"
 1458      64617900 
 1459 0406 06       		.byte	0x6
 1460 0407 5E       		.byte	0x5e
 1461 0408 CB020000 		.long	0x2cb
 1462 040c 18       		.byte	0x18
 1463 040d 0D       		.uleb128 0xd
 1464 040e 746D5F79 		.ascii "tm_yday\0"
 1464      64617900 
 1465 0416 06       		.byte	0x6
 1466 0417 5F       		.byte	0x5f
 1467 0418 CB020000 		.long	0x2cb
 1468 041c 1C       		.byte	0x1c
 1469 041d 0D       		.uleb128 0xd
 1470 041e 746D5F69 		.ascii "tm_isdst\0"
 1470      73647374 
 1470      00
 1471 0427 06       		.byte	0x6
 1472 0428 60       		.byte	0x60
 1473 0429 CB020000 		.long	0x2cb
 1474 042d 20       		.byte	0x20
 1475 042e 00       		.byte	0
 1476 042f 0A       		.uleb128 0xa
 1477 0430 6D627374 		.ascii "mbstate_t\0"
 1477      6174655F 
 1477      7400
 1478 043a 06       		.byte	0x6
 1479 043b 2701     		.word	0x127
 1480 043d CB020000 		.long	0x2cb
 1481 0441 09       		.uleb128 0x9
 1482 0442 04       		.byte	0x4
 1483 0443 07       		.byte	0x7
 1484 0444 6C6F6E67 		.ascii "long unsigned int\0"
GAS LISTING C:\Users\NJLLMR~1\AppData\Local\Temp\cc5gZH1j.s 			page 41


 1484      20756E73 
 1484      69676E65 
 1484      6420696E 
 1484      7400
 1485 0456 09       		.uleb128 0x9
 1486 0457 04       		.byte	0x4
 1487 0458 07       		.byte	0x7
 1488 0459 73697A65 		.ascii "sizetype\0"
 1488      74797065 
 1488      00
 1489 0462 09       		.uleb128 0x9
 1490 0463 01       		.byte	0x1
 1491 0464 06       		.byte	0x6
 1492 0465 7369676E 		.ascii "signed char\0"
 1492      65642063 
 1492      68617200 
 1493 0471 09       		.uleb128 0x9
 1494 0472 01       		.byte	0x1
 1495 0473 08       		.byte	0x8
 1496 0474 756E7369 		.ascii "unsigned char\0"
 1496      676E6564 
 1496      20636861 
 1496      7200
 1497 0482 09       		.uleb128 0x9
 1498 0483 08       		.byte	0x8
 1499 0484 07       		.byte	0x7
 1500 0485 6C6F6E67 		.ascii "long long unsigned int\0"
 1500      206C6F6E 
 1500      6720756E 
 1500      7369676E 
 1500      65642069 
 1501 049c 0E       		.uleb128 0xe
 1502 049d 73746400 		.ascii "std\0"
 1503 04a1 13       		.byte	0x13
 1504 04a2 00       		.byte	0
 1505 04a3 5C360000 		.long	0x365c
 1506 04a7 0F       		.uleb128 0xf
 1507 04a8 07       		.byte	0x7
 1508 04a9 40       		.byte	0x40
 1509 04aa 2F040000 		.long	0x42f
 1510 04ae 0F       		.uleb128 0xf
 1511 04af 07       		.byte	0x7
 1512 04b0 8B       		.byte	0x8b
 1513 04b1 5A020000 		.long	0x25a
 1514 04b5 0F       		.uleb128 0xf
 1515 04b6 07       		.byte	0x7
 1516 04b7 8D       		.byte	0x8d
 1517 04b8 5C360000 		.long	0x365c
 1518 04bc 0F       		.uleb128 0xf
 1519 04bd 07       		.byte	0x7
 1520 04be 8E       		.byte	0x8e
 1521 04bf 74360000 		.long	0x3674
 1522 04c3 0F       		.uleb128 0xf
 1523 04c4 07       		.byte	0x7
 1524 04c5 8F       		.byte	0x8f
 1525 04c6 92360000 		.long	0x3692
 1526 04ca 0F       		.uleb128 0xf
GAS LISTING C:\Users\NJLLMR~1\AppData\Local\Temp\cc5gZH1j.s 			page 42


 1527 04cb 07       		.byte	0x7
 1528 04cc 90       		.byte	0x90
 1529 04cd BA360000 		.long	0x36ba
 1530 04d1 0F       		.uleb128 0xf
 1531 04d2 07       		.byte	0x7
 1532 04d3 91       		.byte	0x91
 1533 04d4 D7360000 		.long	0x36d7
 1534 04d8 0F       		.uleb128 0xf
 1535 04d9 07       		.byte	0x7
 1536 04da 92       		.byte	0x92
 1537 04db FF360000 		.long	0x36ff
 1538 04df 0F       		.uleb128 0xf
 1539 04e0 07       		.byte	0x7
 1540 04e1 93       		.byte	0x93
 1541 04e2 1C370000 		.long	0x371c
 1542 04e6 0F       		.uleb128 0xf
 1543 04e7 07       		.byte	0x7
 1544 04e8 94       		.byte	0x94
 1545 04e9 3C370000 		.long	0x373c
 1546 04ed 0F       		.uleb128 0xf
 1547 04ee 07       		.byte	0x7
 1548 04ef 95       		.byte	0x95
 1549 04f0 5B370000 		.long	0x375b
 1550 04f4 0F       		.uleb128 0xf
 1551 04f5 07       		.byte	0x7
 1552 04f6 96       		.byte	0x96
 1553 04f7 72370000 		.long	0x3772
 1554 04fb 0F       		.uleb128 0xf
 1555 04fc 07       		.byte	0x7
 1556 04fd 97       		.byte	0x97
 1557 04fe 82370000 		.long	0x3782
 1558 0502 0F       		.uleb128 0xf
 1559 0503 07       		.byte	0x7
 1560 0504 98       		.byte	0x98
 1561 0505 B6370000 		.long	0x37b6
 1562 0509 0F       		.uleb128 0xf
 1563 050a 07       		.byte	0x7
 1564 050b 99       		.byte	0x99
 1565 050c DF370000 		.long	0x37df
 1566 0510 0F       		.uleb128 0xf
 1567 0511 07       		.byte	0x7
 1568 0512 9A       		.byte	0x9a
 1569 0513 04380000 		.long	0x3804
 1570 0517 0F       		.uleb128 0xf
 1571 0518 07       		.byte	0x7
 1572 0519 9B       		.byte	0x9b
 1573 051a 35380000 		.long	0x3835
 1574 051e 0F       		.uleb128 0xf
 1575 051f 07       		.byte	0x7
 1576 0520 9C       		.byte	0x9c
 1577 0521 51380000 		.long	0x3851
 1578 0525 0F       		.uleb128 0xf
 1579 0526 07       		.byte	0x7
 1580 0527 A0       		.byte	0xa0
 1581 0528 6B380000 		.long	0x386b
 1582 052c 0F       		.uleb128 0xf
 1583 052d 07       		.byte	0x7
GAS LISTING C:\Users\NJLLMR~1\AppData\Local\Temp\cc5gZH1j.s 			page 43


 1584 052e A1       		.byte	0xa1
 1585 052f 8A380000 		.long	0x388a
 1586 0533 0F       		.uleb128 0xf
 1587 0534 07       		.byte	0x7
 1588 0535 A2       		.byte	0xa2
 1589 0536 A8380000 		.long	0x38a8
 1590 053a 0F       		.uleb128 0xf
 1591 053b 07       		.byte	0x7
 1592 053c A4       		.byte	0xa4
 1593 053d CD380000 		.long	0x38cd
 1594 0541 0F       		.uleb128 0xf
 1595 0542 07       		.byte	0x7
 1596 0543 AA       		.byte	0xaa
 1597 0544 F1380000 		.long	0x38f1
 1598 0548 0F       		.uleb128 0xf
 1599 0549 07       		.byte	0x7
 1600 054a AC       		.byte	0xac
 1601 054b 15390000 		.long	0x3915
 1602 054f 0F       		.uleb128 0xf
 1603 0550 07       		.byte	0x7
 1604 0551 AE       		.byte	0xae
 1605 0552 34390000 		.long	0x3934
 1606 0556 0F       		.uleb128 0xf
 1607 0557 07       		.byte	0x7
 1608 0558 B0       		.byte	0xb0
 1609 0559 52390000 		.long	0x3952
 1610 055d 0F       		.uleb128 0xf
 1611 055e 07       		.byte	0x7
 1612 055f B1       		.byte	0xb1
 1613 0560 76390000 		.long	0x3976
 1614 0564 0F       		.uleb128 0xf
 1615 0565 07       		.byte	0x7
 1616 0566 B2       		.byte	0xb2
 1617 0567 93390000 		.long	0x3993
 1618 056b 0F       		.uleb128 0xf
 1619 056c 07       		.byte	0x7
 1620 056d B3       		.byte	0xb3
 1621 056e B0390000 		.long	0x39b0
 1622 0572 0F       		.uleb128 0xf
 1623 0573 07       		.byte	0x7
 1624 0574 B4       		.byte	0xb4
 1625 0575 CE390000 		.long	0x39ce
 1626 0579 0F       		.uleb128 0xf
 1627 057a 07       		.byte	0x7
 1628 057b B5       		.byte	0xb5
 1629 057c EB390000 		.long	0x39eb
 1630 0580 0F       		.uleb128 0xf
 1631 0581 07       		.byte	0x7
 1632 0582 B6       		.byte	0xb6
 1633 0583 093A0000 		.long	0x3a09
 1634 0587 0F       		.uleb128 0xf
 1635 0588 07       		.byte	0x7
 1636 0589 B7       		.byte	0xb7
 1637 058a 3D3A0000 		.long	0x3a3d
 1638 058e 0F       		.uleb128 0xf
 1639 058f 07       		.byte	0x7
 1640 0590 B8       		.byte	0xb8
GAS LISTING C:\Users\NJLLMR~1\AppData\Local\Temp\cc5gZH1j.s 			page 44


 1641 0591 553A0000 		.long	0x3a55
 1642 0595 0F       		.uleb128 0xf
 1643 0596 07       		.byte	0x7
 1644 0597 B9       		.byte	0xb9
 1645 0598 783A0000 		.long	0x3a78
 1646 059c 0F       		.uleb128 0xf
 1647 059d 07       		.byte	0x7
 1648 059e BA       		.byte	0xba
 1649 059f 9B3A0000 		.long	0x3a9b
 1650 05a3 0F       		.uleb128 0xf
 1651 05a4 07       		.byte	0x7
 1652 05a5 BB       		.byte	0xbb
 1653 05a6 BE3A0000 		.long	0x3abe
 1654 05aa 0F       		.uleb128 0xf
 1655 05ab 07       		.byte	0x7
 1656 05ac BC       		.byte	0xbc
 1657 05ad EF3A0000 		.long	0x3aef
 1658 05b1 0F       		.uleb128 0xf
 1659 05b2 07       		.byte	0x7
 1660 05b3 BD       		.byte	0xbd
 1661 05b4 0C3B0000 		.long	0x3b0c
 1662 05b8 0F       		.uleb128 0xf
 1663 05b9 07       		.byte	0x7
 1664 05ba BF       		.byte	0xbf
 1665 05bb 393B0000 		.long	0x3b39
 1666 05bf 0F       		.uleb128 0xf
 1667 05c0 07       		.byte	0x7
 1668 05c1 C1       		.byte	0xc1
 1669 05c2 5F3B0000 		.long	0x3b5f
 1670 05c6 0F       		.uleb128 0xf
 1671 05c7 07       		.byte	0x7
 1672 05c8 C2       		.byte	0xc2
 1673 05c9 7C3B0000 		.long	0x3b7c
 1674 05cd 0F       		.uleb128 0xf
 1675 05ce 07       		.byte	0x7
 1676 05cf C3       		.byte	0xc3
 1677 05d0 9E3B0000 		.long	0x3b9e
 1678 05d4 0F       		.uleb128 0xf
 1679 05d5 07       		.byte	0x7
 1680 05d6 C4       		.byte	0xc4
 1681 05d7 C13B0000 		.long	0x3bc1
 1682 05db 0F       		.uleb128 0xf
 1683 05dc 07       		.byte	0x7
 1684 05dd C5       		.byte	0xc5
 1685 05de E43B0000 		.long	0x3be4
 1686 05e2 0F       		.uleb128 0xf
 1687 05e3 07       		.byte	0x7
 1688 05e4 C6       		.byte	0xc6
 1689 05e5 FC3B0000 		.long	0x3bfc
 1690 05e9 0F       		.uleb128 0xf
 1691 05ea 07       		.byte	0x7
 1692 05eb C7       		.byte	0xc7
 1693 05ec 203C0000 		.long	0x3c20
 1694 05f0 0F       		.uleb128 0xf
 1695 05f1 07       		.byte	0x7
 1696 05f2 C8       		.byte	0xc8
 1697 05f3 443C0000 		.long	0x3c44
GAS LISTING C:\Users\NJLLMR~1\AppData\Local\Temp\cc5gZH1j.s 			page 45


 1698 05f7 0F       		.uleb128 0xf
 1699 05f8 07       		.byte	0x7
 1700 05f9 C9       		.byte	0xc9
 1701 05fa 693C0000 		.long	0x3c69
 1702 05fe 0F       		.uleb128 0xf
 1703 05ff 07       		.byte	0x7
 1704 0600 CA       		.byte	0xca
 1705 0601 8D3C0000 		.long	0x3c8d
 1706 0605 0F       		.uleb128 0xf
 1707 0606 07       		.byte	0x7
 1708 0607 CB       		.byte	0xcb
 1709 0608 A73C0000 		.long	0x3ca7
 1710 060c 0F       		.uleb128 0xf
 1711 060d 07       		.byte	0x7
 1712 060e CC       		.byte	0xcc
 1713 060f C03C0000 		.long	0x3cc0
 1714 0613 0F       		.uleb128 0xf
 1715 0614 07       		.byte	0x7
 1716 0615 CD       		.byte	0xcd
 1717 0616 DD3C0000 		.long	0x3cdd
 1718 061a 0F       		.uleb128 0xf
 1719 061b 07       		.byte	0x7
 1720 061c CE       		.byte	0xce
 1721 061d FB3C0000 		.long	0x3cfb
 1722 0621 0F       		.uleb128 0xf
 1723 0622 07       		.byte	0x7
 1724 0623 CF       		.byte	0xcf
 1725 0624 193D0000 		.long	0x3d19
 1726 0628 0F       		.uleb128 0xf
 1727 0629 07       		.byte	0x7
 1728 062a D0       		.byte	0xd0
 1729 062b 363D0000 		.long	0x3d36
 1730 062f 10       		.uleb128 0x10
 1731 0630 07       		.byte	0x7
 1732 0631 0801     		.word	0x108
 1733 0633 E6420000 		.long	0x42e6
 1734 0637 10       		.uleb128 0x10
 1735 0638 07       		.byte	0x7
 1736 0639 0901     		.word	0x109
 1737 063b 13430000 		.long	0x4313
 1738 063f 10       		.uleb128 0x10
 1739 0640 07       		.byte	0x7
 1740 0641 0A01     		.word	0x10a
 1741 0643 37430000 		.long	0x4337
 1742 0647 11       		.uleb128 0x11
 1743 0648 5F5F6465 		.ascii "__debug\0"
 1743      62756700 
 1744 0650 14       		.byte	0x14
 1745 0651 30       		.byte	0x30
 1746 0652 0C       		.uleb128 0xc
 1747 0653 63686172 		.ascii "char_traits<char>\0"
 1747      5F747261 
 1747      6974733C 
 1747      63686172 
 1747      3E00
 1748 0665 01       		.byte	0x1
 1749 0666 08       		.byte	0x8
GAS LISTING C:\Users\NJLLMR~1\AppData\Local\Temp\cc5gZH1j.s 			page 46


 1750 0667 E9       		.byte	0xe9
 1751 0668 090A0000 		.long	0xa09
 1752 066c 08       		.uleb128 0x8
 1753 066d 63686172 		.ascii "char_type\0"
 1753      5F747970 
 1753      6500
 1754 0677 08       		.byte	0x8
 1755 0678 EB       		.byte	0xeb
 1756 0679 97020000 		.long	0x297
 1757 067d 08       		.uleb128 0x8
 1758 067e 696E745F 		.ascii "int_type\0"
 1758      74797065 
 1758      00
 1759 0687 08       		.byte	0x8
 1760 0688 EC       		.byte	0xec
 1761 0689 CB020000 		.long	0x2cb
 1762 068d 12       		.uleb128 0x12
 1763 068e 37010000 		.secrel32	LASF1
 1764 0692 08       		.byte	0x8
 1765 0693 F2       		.byte	0xf2
 1766 0694 5F5A4E53 		.ascii "_ZNSt11char_traitsIcE6assignERcRKc\0"
 1766      74313163 
 1766      6861725F 
 1766      74726169 
 1766      74734963 
 1767 06b7 C6060000 		.long	0x6c6
 1768 06bb 13       		.uleb128 0x13
 1769 06bc 77430000 		.long	0x4377
 1770 06c0 13       		.uleb128 0x13
 1771 06c1 7D430000 		.long	0x437d
 1772 06c5 00       		.byte	0
 1773 06c6 14       		.uleb128 0x14
 1774 06c7 6C060000 		.long	0x66c
 1775 06cb 15       		.uleb128 0x15
 1776 06cc 657100   		.ascii "eq\0"
 1777 06cf 08       		.byte	0x8
 1778 06d0 F6       		.byte	0xf6
 1779 06d1 5F5A4E53 		.ascii "_ZNSt11char_traitsIcE2eqERKcS2_\0"
 1779      74313163 
 1779      6861725F 
 1779      74726169 
 1779      74734963 
 1780 06f1 83430000 		.long	0x4383
 1781 06f5 04070000 		.long	0x704
 1782 06f9 13       		.uleb128 0x13
 1783 06fa 7D430000 		.long	0x437d
 1784 06fe 13       		.uleb128 0x13
 1785 06ff 7D430000 		.long	0x437d
 1786 0703 00       		.byte	0
 1787 0704 15       		.uleb128 0x15
 1788 0705 6C7400   		.ascii "lt\0"
 1789 0708 08       		.byte	0x8
 1790 0709 FA       		.byte	0xfa
 1791 070a 5F5A4E53 		.ascii "_ZNSt11char_traitsIcE2ltERKcS2_\0"
 1791      74313163 
 1791      6861725F 
 1791      74726169 
GAS LISTING C:\Users\NJLLMR~1\AppData\Local\Temp\cc5gZH1j.s 			page 47


 1791      74734963 
 1792 072a 83430000 		.long	0x4383
 1793 072e 3D070000 		.long	0x73d
 1794 0732 13       		.uleb128 0x13
 1795 0733 7D430000 		.long	0x437d
 1796 0737 13       		.uleb128 0x13
 1797 0738 7D430000 		.long	0x437d
 1798 073c 00       		.byte	0
 1799 073d 16       		.uleb128 0x16
 1800 073e 2F010000 		.secrel32	LASF0
 1801 0742 08       		.byte	0x8
 1802 0743 0201     		.word	0x102
 1803 0745 5F5A4E53 		.ascii "_ZNSt11char_traitsIcE7compareEPKcS2_j\0"
 1803      74313163 
 1803      6861725F 
 1803      74726169 
 1803      74734963 
 1804 076b CB020000 		.long	0x2cb
 1805 076f 83070000 		.long	0x783
 1806 0773 13       		.uleb128 0x13
 1807 0774 8B430000 		.long	0x438b
 1808 0778 13       		.uleb128 0x13
 1809 0779 8B430000 		.long	0x438b
 1810 077d 13       		.uleb128 0x13
 1811 077e 090A0000 		.long	0xa09
 1812 0782 00       		.byte	0
 1813 0783 17       		.uleb128 0x17
 1814 0784 6C656E67 		.ascii "length\0"
 1814      746800
 1815 078b 08       		.byte	0x8
 1816 078c 0601     		.word	0x106
 1817 078e 5F5A4E53 		.ascii "_ZNSt11char_traitsIcE6lengthEPKc\0"
 1817      74313163 
 1817      6861725F 
 1817      74726169 
 1817      74734963 
 1818 07af 090A0000 		.long	0xa09
 1819 07b3 BD070000 		.long	0x7bd
 1820 07b7 13       		.uleb128 0x13
 1821 07b8 8B430000 		.long	0x438b
 1822 07bc 00       		.byte	0
 1823 07bd 17       		.uleb128 0x17
 1824 07be 66696E64 		.ascii "find\0"
 1824      00
 1825 07c3 08       		.byte	0x8
 1826 07c4 0A01     		.word	0x10a
 1827 07c6 5F5A4E53 		.ascii "_ZNSt11char_traitsIcE4findEPKcjRS1_\0"
 1827      74313163 
 1827      6861725F 
 1827      74726169 
 1827      74734963 
 1828 07ea 8B430000 		.long	0x438b
 1829 07ee 02080000 		.long	0x802
 1830 07f2 13       		.uleb128 0x13
 1831 07f3 8B430000 		.long	0x438b
 1832 07f7 13       		.uleb128 0x13
 1833 07f8 090A0000 		.long	0xa09
GAS LISTING C:\Users\NJLLMR~1\AppData\Local\Temp\cc5gZH1j.s 			page 48


 1834 07fc 13       		.uleb128 0x13
 1835 07fd 7D430000 		.long	0x437d
 1836 0801 00       		.byte	0
 1837 0802 17       		.uleb128 0x17
 1838 0803 6D6F7665 		.ascii "move\0"
 1838      00
 1839 0808 08       		.byte	0x8
 1840 0809 0E01     		.word	0x10e
 1841 080b 5F5A4E53 		.ascii "_ZNSt11char_traitsIcE4moveEPcPKcj\0"
 1841      74313163 
 1841      6861725F 
 1841      74726169 
 1841      74734963 
 1842 082d 91430000 		.long	0x4391
 1843 0831 45080000 		.long	0x845
 1844 0835 13       		.uleb128 0x13
 1845 0836 91430000 		.long	0x4391
 1846 083a 13       		.uleb128 0x13
 1847 083b 8B430000 		.long	0x438b
 1848 083f 13       		.uleb128 0x13
 1849 0840 090A0000 		.long	0xa09
 1850 0844 00       		.byte	0
 1851 0845 17       		.uleb128 0x17
 1852 0846 636F7079 		.ascii "copy\0"
 1852      00
 1853 084b 08       		.byte	0x8
 1854 084c 1201     		.word	0x112
 1855 084e 5F5A4E53 		.ascii "_ZNSt11char_traitsIcE4copyEPcPKcj\0"
 1855      74313163 
 1855      6861725F 
 1855      74726169 
 1855      74734963 
 1856 0870 91430000 		.long	0x4391
 1857 0874 88080000 		.long	0x888
 1858 0878 13       		.uleb128 0x13
 1859 0879 91430000 		.long	0x4391
 1860 087d 13       		.uleb128 0x13
 1861 087e 8B430000 		.long	0x438b
 1862 0882 13       		.uleb128 0x13
 1863 0883 090A0000 		.long	0xa09
 1864 0887 00       		.byte	0
 1865 0888 16       		.uleb128 0x16
 1866 0889 37010000 		.secrel32	LASF1
 1867 088d 08       		.byte	0x8
 1868 088e 1601     		.word	0x116
 1869 0890 5F5A4E53 		.ascii "_ZNSt11char_traitsIcE6assignEPcjc\0"
 1869      74313163 
 1869      6861725F 
 1869      74726169 
 1869      74734963 
 1870 08b2 91430000 		.long	0x4391
 1871 08b6 CA080000 		.long	0x8ca
 1872 08ba 13       		.uleb128 0x13
 1873 08bb 91430000 		.long	0x4391
 1874 08bf 13       		.uleb128 0x13
 1875 08c0 090A0000 		.long	0xa09
 1876 08c4 13       		.uleb128 0x13
GAS LISTING C:\Users\NJLLMR~1\AppData\Local\Temp\cc5gZH1j.s 			page 49


 1877 08c5 6C060000 		.long	0x66c
 1878 08c9 00       		.byte	0
 1879 08ca 17       		.uleb128 0x17
 1880 08cb 746F5F63 		.ascii "to_char_type\0"
 1880      6861725F 
 1880      74797065 
 1880      00
 1881 08d8 08       		.byte	0x8
 1882 08d9 1A01     		.word	0x11a
 1883 08db 5F5A4E53 		.ascii "_ZNSt11char_traitsIcE12to_char_typeERKi\0"
 1883      74313163 
 1883      6861725F 
 1883      74726169 
 1883      74734963 
 1884 0903 6C060000 		.long	0x66c
 1885 0907 11090000 		.long	0x911
 1886 090b 13       		.uleb128 0x13
 1887 090c 97430000 		.long	0x4397
 1888 0910 00       		.byte	0
 1889 0911 14       		.uleb128 0x14
 1890 0912 7D060000 		.long	0x67d
 1891 0916 17       		.uleb128 0x17
 1892 0917 746F5F69 		.ascii "to_int_type\0"
 1892      6E745F74 
 1892      79706500 
 1893 0923 08       		.byte	0x8
 1894 0924 2001     		.word	0x120
 1895 0926 5F5A4E53 		.ascii "_ZNSt11char_traitsIcE11to_int_typeERKc\0"
 1895      74313163 
 1895      6861725F 
 1895      74726169 
 1895      74734963 
 1896 094d 7D060000 		.long	0x67d
 1897 0951 5B090000 		.long	0x95b
 1898 0955 13       		.uleb128 0x13
 1899 0956 7D430000 		.long	0x437d
 1900 095a 00       		.byte	0
 1901 095b 17       		.uleb128 0x17
 1902 095c 65715F69 		.ascii "eq_int_type\0"
 1902      6E745F74 
 1902      79706500 
 1903 0968 08       		.byte	0x8
 1904 0969 2401     		.word	0x124
 1905 096b 5F5A4E53 		.ascii "_ZNSt11char_traitsIcE11eq_int_typeERKiS2_\0"
 1905      74313163 
 1905      6861725F 
 1905      74726169 
 1905      74734963 
 1906 0995 83430000 		.long	0x4383
 1907 0999 A8090000 		.long	0x9a8
 1908 099d 13       		.uleb128 0x13
 1909 099e 97430000 		.long	0x4397
 1910 09a2 13       		.uleb128 0x13
 1911 09a3 97430000 		.long	0x4397
 1912 09a7 00       		.byte	0
 1913 09a8 18       		.uleb128 0x18
 1914 09a9 656F6600 		.ascii "eof\0"
GAS LISTING C:\Users\NJLLMR~1\AppData\Local\Temp\cc5gZH1j.s 			page 50


 1915 09ad 08       		.byte	0x8
 1916 09ae 2801     		.word	0x128
 1917 09b0 5F5A4E53 		.ascii "_ZNSt11char_traitsIcE3eofEv\0"
 1917      74313163 
 1917      6861725F 
 1917      74726169 
 1917      74734963 
 1918 09cc 7D060000 		.long	0x67d
 1919 09d0 19       		.uleb128 0x19
 1920 09d1 6E6F745F 		.ascii "not_eof\0"
 1920      656F6600 
 1921 09d9 08       		.byte	0x8
 1922 09da 2C01     		.word	0x12c
 1923 09dc 5F5A4E53 		.ascii "_ZNSt11char_traitsIcE7not_eofERKi\0"
 1923      74313163 
 1923      6861725F 
 1923      74726169 
 1923      74734963 
 1924 09fe 7D060000 		.long	0x67d
 1925 0a02 13       		.uleb128 0x13
 1926 0a03 97430000 		.long	0x4397
 1927 0a07 00       		.byte	0
 1928 0a08 00       		.byte	0
 1929 0a09 08       		.uleb128 0x8
 1930 0a0a 73697A65 		.ascii "size_t\0"
 1930      5F7400
 1931 0a11 09       		.byte	0x9
 1932 0a12 BC       		.byte	0xbc
 1933 0a13 4A020000 		.long	0x24a
 1934 0a17 0F       		.uleb128 0xf
 1935 0a18 0A       		.byte	0xa
 1936 0a19 35       		.byte	0x35
 1937 0a1a 9D430000 		.long	0x439d
 1938 0a1e 0F       		.uleb128 0xf
 1939 0a1f 0A       		.byte	0xa
 1940 0a20 36       		.byte	0x36
 1941 0a21 3C450000 		.long	0x453c
 1942 0a25 0F       		.uleb128 0xf
 1943 0a26 0A       		.byte	0xa
 1944 0a27 37       		.byte	0x37
 1945 0a28 5C450000 		.long	0x455c
 1946 0a2c 08       		.uleb128 0x8
 1947 0a2d 70747264 		.ascii "ptrdiff_t\0"
 1947      6966665F 
 1947      7400
 1948 0a37 09       		.byte	0x9
 1949 0a38 BD       		.byte	0xbd
 1950 0a39 CB020000 		.long	0x2cb
 1951 0a3d 02       		.uleb128 0x2
 1952 0a3e 616C6C6F 		.ascii "allocator<char>\0"
 1952      6361746F 
 1952      723C6368 
 1952      61723E00 
 1953 0a4e 01       		.byte	0x1
 1954 0a4f 0B       		.byte	0xb
 1955 0a50 5C       		.byte	0x5c
 1956 0a51 D00A0000 		.long	0xad0
GAS LISTING C:\Users\NJLLMR~1\AppData\Local\Temp\cc5gZH1j.s 			page 51


 1957 0a55 1A       		.uleb128 0x1a
 1958 0a56 993D0000 		.long	0x3d99
 1959 0a5a 00       		.byte	0
 1960 0a5b 01       		.byte	0x1
 1961 0a5c 1B       		.uleb128 0x1b
 1962 0a5d 07010000 		.secrel32	LASF2
 1963 0a61 0B       		.byte	0xb
 1964 0a62 5F       		.byte	0x5f
 1965 0a63 090A0000 		.long	0xa09
 1966 0a67 01       		.byte	0x1
 1967 0a68 1B       		.uleb128 0x1b
 1968 0a69 17000000 		.secrel32	LASF3
 1969 0a6d 0B       		.byte	0xb
 1970 0a6e 63       		.byte	0x63
 1971 0a6f 91450000 		.long	0x4591
 1972 0a73 01       		.byte	0x1
 1973 0a74 1B       		.uleb128 0x1b
 1974 0a75 AD000000 		.secrel32	LASF4
 1975 0a79 0B       		.byte	0xb
 1976 0a7a 64       		.byte	0x64
 1977 0a7b 97450000 		.long	0x4597
 1978 0a7f 01       		.byte	0x1
 1979 0a80 1C       		.uleb128 0x1c
 1980 0a81 3E010000 		.secrel32	LASF5
 1981 0a85 0B       		.byte	0xb
 1982 0a86 71       		.byte	0x71
 1983 0a87 01       		.byte	0x1
 1984 0a88 900A0000 		.long	0xa90
 1985 0a8c 960A0000 		.long	0xa96
 1986 0a90 04       		.uleb128 0x4
 1987 0a91 AF450000 		.long	0x45af
 1988 0a95 00       		.byte	0
 1989 0a96 1C       		.uleb128 0x1c
 1990 0a97 3E010000 		.secrel32	LASF5
 1991 0a9b 0B       		.byte	0xb
 1992 0a9c 73       		.byte	0x73
 1993 0a9d 01       		.byte	0x1
 1994 0a9e A60A0000 		.long	0xaa6
 1995 0aa2 B10A0000 		.long	0xab1
 1996 0aa6 04       		.uleb128 0x4
 1997 0aa7 AF450000 		.long	0x45af
 1998 0aab 13       		.uleb128 0x13
 1999 0aac B5450000 		.long	0x45b5
 2000 0ab0 00       		.byte	0
 2001 0ab1 1D       		.uleb128 0x1d
 2002 0ab2 7E616C6C 		.ascii "~allocator\0"
 2002      6F636174 
 2002      6F7200
 2003 0abd 0B       		.byte	0xb
 2004 0abe 79       		.byte	0x79
 2005 0abf 01       		.byte	0x1
 2006 0ac0 C40A0000 		.long	0xac4
 2007 0ac4 04       		.uleb128 0x4
 2008 0ac5 AF450000 		.long	0x45af
 2009 0ac9 04       		.uleb128 0x4
 2010 0aca CB020000 		.long	0x2cb
 2011 0ace 00       		.byte	0
GAS LISTING C:\Users\NJLLMR~1\AppData\Local\Temp\cc5gZH1j.s 			page 52


 2012 0acf 00       		.byte	0
 2013 0ad0 14       		.uleb128 0x14
 2014 0ad1 3D0A0000 		.long	0xa3d
 2015 0ad5 02       		.uleb128 0x2
 2016 0ad6 62617369 		.ascii "basic_string<char, std::char_traits<char>, std::allocator<char> >\0"
 2016      635F7374 
 2016      72696E67 
 2016      3C636861 
 2016      722C2073 
 2017 0b18 04       		.byte	0x4
 2018 0b19 0C       		.byte	0xc
 2019 0b1a 70       		.byte	0x70
 2020 0b1b 382E0000 		.long	0x2e38
 2021 0b1f 1E       		.uleb128 0x1e
 2022 0b20 83000000 		.secrel32	LASF6
 2023 0b24 04       		.byte	0x4
 2024 0b25 0C       		.byte	0xc
 2025 0b26 1001     		.word	0x110
 2026 0b28 5D0B0000 		.long	0xb5d
 2027 0b2c 1F       		.uleb128 0x1f
 2028 0b2d 3D0A0000 		.long	0xa3d
 2029 0b31 00       		.byte	0
 2030 0b32 20       		.uleb128 0x20
 2031 0b33 5F4D5F70 		.ascii "_M_p\0"
 2031      00
 2032 0b38 0C       		.byte	0xc
 2033 0b39 1501     		.word	0x115
 2034 0b3b 83030000 		.long	0x383
 2035 0b3f 00       		.byte	0
 2036 0b40 21       		.uleb128 0x21
 2037 0b41 83000000 		.secrel32	LASF6
 2038 0b45 0C       		.byte	0xc
 2039 0b46 1201     		.word	0x112
 2040 0b48 4C0B0000 		.long	0xb4c
 2041 0b4c 04       		.uleb128 0x4
 2042 0b4d C5450000 		.long	0x45c5
 2043 0b51 13       		.uleb128 0x13
 2044 0b52 83030000 		.long	0x383
 2045 0b56 13       		.uleb128 0x13
 2046 0b57 B5450000 		.long	0x45b5
 2047 0b5b 00       		.byte	0
 2048 0b5c 00       		.byte	0
 2049 0b5d 1B       		.uleb128 0x1b
 2050 0b5e 07010000 		.secrel32	LASF2
 2051 0b62 0C       		.byte	0xc
 2052 0b63 79       		.byte	0x79
 2053 0b64 5C0A0000 		.long	0xa5c
 2054 0b68 01       		.byte	0x1
 2055 0b69 22       		.uleb128 0x22
 2056 0b6a 6E706F73 		.ascii "npos\0"
 2056      00
 2057 0b6f 0C       		.byte	0xc
 2058 0b70 1D01     		.word	0x11d
 2059 0b72 770B0000 		.long	0xb77
 2060 0b76 01       		.byte	0x1
 2061 0b77 14       		.uleb128 0x14
 2062 0b78 5D0B0000 		.long	0xb5d
GAS LISTING C:\Users\NJLLMR~1\AppData\Local\Temp\cc5gZH1j.s 			page 53


 2063 0b7c 20       		.uleb128 0x20
 2064 0b7d 5F4D5F64 		.ascii "_M_dataplus\0"
 2064      61746170 
 2064      6C757300 
 2065 0b89 0C       		.byte	0xc
 2066 0b8a 2101     		.word	0x121
 2067 0b8c 1F0B0000 		.long	0xb1f
 2068 0b90 00       		.byte	0
 2069 0b91 23       		.uleb128 0x23
 2070 0b92 616C6C6F 		.ascii "allocator_type\0"
 2070      6361746F 
 2070      725F7479 
 2070      706500
 2071 0ba1 0C       		.byte	0xc
 2072 0ba2 78       		.byte	0x78
 2073 0ba3 3D0A0000 		.long	0xa3d
 2074 0ba7 01       		.byte	0x1
 2075 0ba8 1B       		.uleb128 0x1b
 2076 0ba9 17000000 		.secrel32	LASF3
 2077 0bad 0C       		.byte	0xc
 2078 0bae 7B       		.byte	0x7b
 2079 0baf 680A0000 		.long	0xa68
 2080 0bb3 01       		.byte	0x1
 2081 0bb4 1B       		.uleb128 0x1b
 2082 0bb5 AD000000 		.secrel32	LASF4
 2083 0bb9 0C       		.byte	0xc
 2084 0bba 7C       		.byte	0x7c
 2085 0bbb 740A0000 		.long	0xa74
 2086 0bbf 01       		.byte	0x1
 2087 0bc0 23       		.uleb128 0x23
 2088 0bc1 69746572 		.ascii "iterator\0"
 2088      61746F72 
 2088      00
 2089 0bca 0C       		.byte	0xc
 2090 0bcb 7F       		.byte	0x7f
 2091 0bcc F4400000 		.long	0x40f4
 2092 0bd0 01       		.byte	0x1
 2093 0bd1 23       		.uleb128 0x23
 2094 0bd2 636F6E73 		.ascii "const_iterator\0"
 2094      745F6974 
 2094      65726174 
 2094      6F7200
 2095 0be1 0C       		.byte	0xc
 2096 0be2 81       		.byte	0x81
 2097 0be3 57410000 		.long	0x4157
 2098 0be7 01       		.byte	0x1
 2099 0be8 23       		.uleb128 0x23
 2100 0be9 636F6E73 		.ascii "const_reverse_iterator\0"
 2100      745F7265 
 2100      76657273 
 2100      655F6974 
 2100      65726174 
 2101 0c00 0C       		.byte	0xc
 2102 0c01 82       		.byte	0x82
 2103 0c02 382E0000 		.long	0x2e38
 2104 0c06 01       		.byte	0x1
 2105 0c07 23       		.uleb128 0x23
GAS LISTING C:\Users\NJLLMR~1\AppData\Local\Temp\cc5gZH1j.s 			page 54


 2106 0c08 72657665 		.ascii "reverse_iterator\0"
 2106      7273655F 
 2106      69746572 
 2106      61746F72 
 2106      00
 2107 0c19 0C       		.byte	0xc
 2108 0c1a 83       		.byte	0x83
 2109 0c1b BF2E0000 		.long	0x2ebf
 2110 0c1f 01       		.byte	0x1
 2111 0c20 0C       		.uleb128 0xc
 2112 0c21 5F526570 		.ascii "_Rep_base\0"
 2112      5F626173 
 2112      6500
 2113 0c2b 0C       		.byte	0xc
 2114 0c2c 0C       		.byte	0xc
 2115 0c2d 94       		.byte	0x94
 2116 0c2e 6D0C0000 		.long	0xc6d
 2117 0c32 0D       		.uleb128 0xd
 2118 0c33 5F4D5F6C 		.ascii "_M_length\0"
 2118      656E6774 
 2118      6800
 2119 0c3d 0C       		.byte	0xc
 2120 0c3e 96       		.byte	0x96
 2121 0c3f 5D0B0000 		.long	0xb5d
 2122 0c43 00       		.byte	0
 2123 0c44 0D       		.uleb128 0xd
 2124 0c45 5F4D5F63 		.ascii "_M_capacity\0"
 2124      61706163 
 2124      69747900 
 2125 0c51 0C       		.byte	0xc
 2126 0c52 97       		.byte	0x97
 2127 0c53 5D0B0000 		.long	0xb5d
 2128 0c57 04       		.byte	0x4
 2129 0c58 0D       		.uleb128 0xd
 2130 0c59 5F4D5F72 		.ascii "_M_refcount\0"
 2130      6566636F 
 2130      756E7400 
 2131 0c65 0C       		.byte	0xc
 2132 0c66 98       		.byte	0x98
 2133 0c67 76450000 		.long	0x4576
 2134 0c6b 08       		.byte	0x8
 2135 0c6c 00       		.byte	0
 2136 0c6d 0C       		.uleb128 0xc
 2137 0c6e 5F526570 		.ascii "_Rep\0"
 2137      00
 2138 0c73 0C       		.byte	0xc
 2139 0c74 0C       		.byte	0xc
 2140 0c75 9B       		.byte	0x9b
 2141 0c76 F90F0000 		.long	0xff9
 2142 0c7a 1F       		.uleb128 0x1f
 2143 0c7b 200C0000 		.long	0xc20
 2144 0c7f 00       		.byte	0
 2145 0c80 24       		.uleb128 0x24
 2146 0c81 5F535F6D 		.ascii "_S_max_size\0"
 2146      61785F73 
 2146      697A6500 
 2147 0c8d 0D       		.byte	0xd
GAS LISTING C:\Users\NJLLMR~1\AppData\Local\Temp\cc5gZH1j.s 			page 55


 2148 0c8e 32       		.byte	0x32
 2149 0c8f 770B0000 		.long	0xb77
 2150 0c93 24       		.uleb128 0x24
 2151 0c94 5F535F74 		.ascii "_S_terminal\0"
 2151      65726D69 
 2151      6E616C00 
 2152 0ca0 0D       		.byte	0xd
 2153 0ca1 37       		.byte	0x37
 2154 0ca2 AB370000 		.long	0x37ab
 2155 0ca6 24       		.uleb128 0x24
 2156 0ca7 5F535F65 		.ascii "_S_empty_rep_storage\0"
 2156      6D707479 
 2156      5F726570 
 2156      5F73746F 
 2156      72616765 
 2157 0cbc 0D       		.byte	0xd
 2158 0cbd 42       		.byte	0x42
 2159 0cbe EF450000 		.long	0x45ef
 2160 0cc2 25       		.uleb128 0x25
 2161 0cc3 18010000 		.secrel32	LASF7
 2162 0cc7 0C       		.byte	0xc
 2163 0cc8 B5       		.byte	0xb5
 2164 0cc9 5F5A4E53 		.ascii "_ZNSs4_Rep12_S_empty_repEv\0"
 2164      73345F52 
 2164      65703132 
 2164      5F535F65 
 2164      6D707479 
 2165 0ce4 DD450000 		.long	0x45dd
 2166 0ce8 26       		.uleb128 0x26
 2167 0ce9 5F4D5F69 		.ascii "_M_is_leaked\0"
 2167      735F6C65 
 2167      616B6564 
 2167      00
 2168 0cf6 0C       		.byte	0xc
 2169 0cf7 BF       		.byte	0xbf
 2170 0cf8 5F5A4E4B 		.ascii "_ZNKSs4_Rep12_M_is_leakedEv\0"
 2170      5373345F 
 2170      52657031 
 2170      325F4D5F 
 2170      69735F6C 
 2171 0d14 83430000 		.long	0x4383
 2172 0d18 200D0000 		.long	0xd20
 2173 0d1c 260D0000 		.long	0xd26
 2174 0d20 04       		.uleb128 0x4
 2175 0d21 FA450000 		.long	0x45fa
 2176 0d25 00       		.byte	0
 2177 0d26 26       		.uleb128 0x26
 2178 0d27 5F4D5F69 		.ascii "_M_is_shared\0"
 2178      735F7368 
 2178      61726564 
 2178      00
 2179 0d34 0C       		.byte	0xc
 2180 0d35 C3       		.byte	0xc3
 2181 0d36 5F5A4E4B 		.ascii "_ZNKSs4_Rep12_M_is_sharedEv\0"
 2181      5373345F 
 2181      52657031 
 2181      325F4D5F 
GAS LISTING C:\Users\NJLLMR~1\AppData\Local\Temp\cc5gZH1j.s 			page 56


 2181      69735F73 
 2182 0d52 83430000 		.long	0x4383
 2183 0d56 5E0D0000 		.long	0xd5e
 2184 0d5a 640D0000 		.long	0xd64
 2185 0d5e 04       		.uleb128 0x4
 2186 0d5f FA450000 		.long	0x45fa
 2187 0d63 00       		.byte	0
 2188 0d64 27       		.uleb128 0x27
 2189 0d65 5F4D5F73 		.ascii "_M_set_leaked\0"
 2189      65745F6C 
 2189      65616B65 
 2189      6400
 2190 0d73 0C       		.byte	0xc
 2191 0d74 C7       		.byte	0xc7
 2192 0d75 5F5A4E53 		.ascii "_ZNSs4_Rep13_M_set_leakedEv\0"
 2192      73345F52 
 2192      65703133 
 2192      5F4D5F73 
 2192      65745F6C 
 2193 0d91 990D0000 		.long	0xd99
 2194 0d95 9F0D0000 		.long	0xd9f
 2195 0d99 04       		.uleb128 0x4
 2196 0d9a D7450000 		.long	0x45d7
 2197 0d9e 00       		.byte	0
 2198 0d9f 27       		.uleb128 0x27
 2199 0da0 5F4D5F73 		.ascii "_M_set_sharable\0"
 2199      65745F73 
 2199      68617261 
 2199      626C6500 
 2200 0db0 0C       		.byte	0xc
 2201 0db1 CB       		.byte	0xcb
 2202 0db2 5F5A4E53 		.ascii "_ZNSs4_Rep15_M_set_sharableEv\0"
 2202      73345F52 
 2202      65703135 
 2202      5F4D5F73 
 2202      65745F73 
 2203 0dd0 D80D0000 		.long	0xdd8
 2204 0dd4 DE0D0000 		.long	0xdde
 2205 0dd8 04       		.uleb128 0x4
 2206 0dd9 D7450000 		.long	0x45d7
 2207 0ddd 00       		.byte	0
 2208 0dde 27       		.uleb128 0x27
 2209 0ddf 5F4D5F73 		.ascii "_M_set_length_and_sharable\0"
 2209      65745F6C 
 2209      656E6774 
 2209      685F616E 
 2209      645F7368 
 2210 0dfa 0C       		.byte	0xc
 2211 0dfb CF       		.byte	0xcf
 2212 0dfc 5F5A4E53 		.ascii "_ZNSs4_Rep26_M_set_length_and_sharableEj\0"
 2212      73345F52 
 2212      65703236 
 2212      5F4D5F73 
 2212      65745F6C 
 2213 0e25 2D0E0000 		.long	0xe2d
 2214 0e29 380E0000 		.long	0xe38
 2215 0e2d 04       		.uleb128 0x4
GAS LISTING C:\Users\NJLLMR~1\AppData\Local\Temp\cc5gZH1j.s 			page 57


 2216 0e2e D7450000 		.long	0x45d7
 2217 0e32 13       		.uleb128 0x13
 2218 0e33 5D0B0000 		.long	0xb5d
 2219 0e37 00       		.byte	0
 2220 0e38 26       		.uleb128 0x26
 2221 0e39 5F4D5F72 		.ascii "_M_refdata\0"
 2221      65666461 
 2221      746100
 2222 0e44 0C       		.byte	0xc
 2223 0e45 DE       		.byte	0xde
 2224 0e46 5F5A4E53 		.ascii "_ZNSs4_Rep10_M_refdataEv\0"
 2224      73345F52 
 2224      65703130 
 2224      5F4D5F72 
 2224      65666461 
 2225 0e5f 83030000 		.long	0x383
 2226 0e63 6B0E0000 		.long	0xe6b
 2227 0e67 710E0000 		.long	0xe71
 2228 0e6b 04       		.uleb128 0x4
 2229 0e6c D7450000 		.long	0x45d7
 2230 0e70 00       		.byte	0
 2231 0e71 26       		.uleb128 0x26
 2232 0e72 5F4D5F67 		.ascii "_M_grab\0"
 2232      72616200 
 2233 0e7a 0C       		.byte	0xc
 2234 0e7b E2       		.byte	0xe2
 2235 0e7c 5F5A4E53 		.ascii "_ZNSs4_Rep7_M_grabERKSaIcES2_\0"
 2235      73345F52 
 2235      6570375F 
 2235      4D5F6772 
 2235      61624552 
 2236 0e9a 83030000 		.long	0x383
 2237 0e9e A60E0000 		.long	0xea6
 2238 0ea2 B60E0000 		.long	0xeb6
 2239 0ea6 04       		.uleb128 0x4
 2240 0ea7 D7450000 		.long	0x45d7
 2241 0eab 13       		.uleb128 0x13
 2242 0eac B5450000 		.long	0x45b5
 2243 0eb0 13       		.uleb128 0x13
 2244 0eb1 B5450000 		.long	0x45b5
 2245 0eb5 00       		.byte	0
 2246 0eb6 17       		.uleb128 0x17
 2247 0eb7 5F535F63 		.ascii "_S_create\0"
 2247      72656174 
 2247      6500
 2248 0ec1 0D       		.byte	0xd
 2249 0ec2 2102     		.word	0x221
 2250 0ec4 5F5A4E53 		.ascii "_ZNSs4_Rep9_S_createEjjRKSaIcE\0"
 2250      73345F52 
 2250      6570395F 
 2250      535F6372 
 2250      65617465 
 2251 0ee3 D7450000 		.long	0x45d7
 2252 0ee7 FB0E0000 		.long	0xefb
 2253 0eeb 13       		.uleb128 0x13
 2254 0eec 5D0B0000 		.long	0xb5d
 2255 0ef0 13       		.uleb128 0x13
GAS LISTING C:\Users\NJLLMR~1\AppData\Local\Temp\cc5gZH1j.s 			page 58


 2256 0ef1 5D0B0000 		.long	0xb5d
 2257 0ef5 13       		.uleb128 0x13
 2258 0ef6 B5450000 		.long	0x45b5
 2259 0efa 00       		.byte	0
 2260 0efb 27       		.uleb128 0x27
 2261 0efc 5F4D5F64 		.ascii "_M_dispose\0"
 2261      6973706F 
 2261      736500
 2262 0f07 0C       		.byte	0xc
 2263 0f08 ED       		.byte	0xed
 2264 0f09 5F5A4E53 		.ascii "_ZNSs4_Rep10_M_disposeERKSaIcE\0"
 2264      73345F52 
 2264      65703130 
 2264      5F4D5F64 
 2264      6973706F 
 2265 0f28 300F0000 		.long	0xf30
 2266 0f2c 3B0F0000 		.long	0xf3b
 2267 0f30 04       		.uleb128 0x4
 2268 0f31 D7450000 		.long	0x45d7
 2269 0f35 13       		.uleb128 0x13
 2270 0f36 B5450000 		.long	0x45b5
 2271 0f3a 00       		.byte	0
 2272 0f3b 28       		.uleb128 0x28
 2273 0f3c 5F4D5F64 		.ascii "_M_destroy\0"
 2273      65737472 
 2273      6F7900
 2274 0f47 0D       		.byte	0xd
 2275 0f48 BC01     		.word	0x1bc
 2276 0f4a 5F5A4E53 		.ascii "_ZNSs4_Rep10_M_destroyERKSaIcE\0"
 2276      73345F52 
 2276      65703130 
 2276      5F4D5F64 
 2276      65737472 
 2277 0f69 710F0000 		.long	0xf71
 2278 0f6d 7C0F0000 		.long	0xf7c
 2279 0f71 04       		.uleb128 0x4
 2280 0f72 D7450000 		.long	0x45d7
 2281 0f76 13       		.uleb128 0x13
 2282 0f77 B5450000 		.long	0x45b5
 2283 0f7b 00       		.byte	0
 2284 0f7c 29       		.uleb128 0x29
 2285 0f7d 5F4D5F72 		.ascii "_M_refcopy\0"
 2285      6566636F 
 2285      707900
 2286 0f88 0C       		.byte	0xc
 2287 0f89 0201     		.word	0x102
 2288 0f8b 5F5A4E53 		.ascii "_ZNSs4_Rep10_M_refcopyEv\0"
 2288      73345F52 
 2288      65703130 
 2288      5F4D5F72 
 2288      6566636F 
 2289 0fa4 83030000 		.long	0x383
 2290 0fa8 B00F0000 		.long	0xfb0
 2291 0fac B60F0000 		.long	0xfb6
 2292 0fb0 04       		.uleb128 0x4
 2293 0fb1 D7450000 		.long	0x45d7
 2294 0fb5 00       		.byte	0
GAS LISTING C:\Users\NJLLMR~1\AppData\Local\Temp\cc5gZH1j.s 			page 59


 2295 0fb6 2A       		.uleb128 0x2a
 2296 0fb7 5F4D5F63 		.ascii "_M_clone\0"
 2296      6C6F6E65 
 2296      00
 2297 0fc0 0D       		.byte	0xd
 2298 0fc1 6F02     		.word	0x26f
 2299 0fc3 5F5A4E53 		.ascii "_ZNSs4_Rep8_M_cloneERKSaIcEj\0"
 2299      73345F52 
 2299      6570385F 
 2299      4D5F636C 
 2299      6F6E6545 
 2300 0fe0 83030000 		.long	0x383
 2301 0fe4 E80F0000 		.long	0xfe8
 2302 0fe8 04       		.uleb128 0x4
 2303 0fe9 D7450000 		.long	0x45d7
 2304 0fed 13       		.uleb128 0x13
 2305 0fee B5450000 		.long	0x45b5
 2306 0ff2 13       		.uleb128 0x13
 2307 0ff3 5D0B0000 		.long	0xb5d
 2308 0ff7 00       		.byte	0
 2309 0ff8 00       		.byte	0
 2310 0ff9 29       		.uleb128 0x29
 2311 0ffa 5F4D5F64 		.ascii "_M_data\0"
 2311      61746100 
 2312 1002 0C       		.byte	0xc
 2313 1003 2401     		.word	0x124
 2314 1005 5F5A4E4B 		.ascii "_ZNKSs7_M_dataEv\0"
 2314      5373375F 
 2314      4D5F6461 
 2314      74614576 
 2314      00
 2315 1016 83030000 		.long	0x383
 2316 101a 22100000 		.long	0x1022
 2317 101e 28100000 		.long	0x1028
 2318 1022 04       		.uleb128 0x4
 2319 1023 CB450000 		.long	0x45cb
 2320 1027 00       		.byte	0
 2321 1028 29       		.uleb128 0x29
 2322 1029 5F4D5F64 		.ascii "_M_data\0"
 2322      61746100 
 2323 1031 0C       		.byte	0xc
 2324 1032 2801     		.word	0x128
 2325 1034 5F5A4E53 		.ascii "_ZNSs7_M_dataEPc\0"
 2325      73375F4D 
 2325      5F646174 
 2325      61455063 
 2325      00
 2326 1045 83030000 		.long	0x383
 2327 1049 51100000 		.long	0x1051
 2328 104d 5C100000 		.long	0x105c
 2329 1051 04       		.uleb128 0x4
 2330 1052 D1450000 		.long	0x45d1
 2331 1056 13       		.uleb128 0x13
 2332 1057 83030000 		.long	0x383
 2333 105b 00       		.byte	0
 2334 105c 29       		.uleb128 0x29
 2335 105d 5F4D5F72 		.ascii "_M_rep\0"
GAS LISTING C:\Users\NJLLMR~1\AppData\Local\Temp\cc5gZH1j.s 			page 60


 2335      657000
 2336 1064 0C       		.byte	0xc
 2337 1065 2C01     		.word	0x12c
 2338 1067 5F5A4E4B 		.ascii "_ZNKSs6_M_repEv\0"
 2338      5373365F 
 2338      4D5F7265 
 2338      70457600 
 2339 1077 D7450000 		.long	0x45d7
 2340 107b 83100000 		.long	0x1083
 2341 107f 89100000 		.long	0x1089
 2342 1083 04       		.uleb128 0x4
 2343 1084 CB450000 		.long	0x45cb
 2344 1088 00       		.byte	0
 2345 1089 29       		.uleb128 0x29
 2346 108a 5F4D5F69 		.ascii "_M_ibegin\0"
 2346      62656769 
 2346      6E00
 2347 1094 0C       		.byte	0xc
 2348 1095 3201     		.word	0x132
 2349 1097 5F5A4E4B 		.ascii "_ZNKSs9_M_ibeginEv\0"
 2349      5373395F 
 2349      4D5F6962 
 2349      6567696E 
 2349      457600
 2350 10aa C00B0000 		.long	0xbc0
 2351 10ae B6100000 		.long	0x10b6
 2352 10b2 BC100000 		.long	0x10bc
 2353 10b6 04       		.uleb128 0x4
 2354 10b7 CB450000 		.long	0x45cb
 2355 10bb 00       		.byte	0
 2356 10bc 29       		.uleb128 0x29
 2357 10bd 5F4D5F69 		.ascii "_M_iend\0"
 2357      656E6400 
 2358 10c5 0C       		.byte	0xc
 2359 10c6 3601     		.word	0x136
 2360 10c8 5F5A4E4B 		.ascii "_ZNKSs7_M_iendEv\0"
 2360      5373375F 
 2360      4D5F6965 
 2360      6E644576 
 2360      00
 2361 10d9 C00B0000 		.long	0xbc0
 2362 10dd E5100000 		.long	0x10e5
 2363 10e1 EB100000 		.long	0x10eb
 2364 10e5 04       		.uleb128 0x4
 2365 10e6 CB450000 		.long	0x45cb
 2366 10ea 00       		.byte	0
 2367 10eb 28       		.uleb128 0x28
 2368 10ec 5F4D5F6C 		.ascii "_M_leak\0"
 2368      65616B00 
 2369 10f4 0C       		.byte	0xc
 2370 10f5 3A01     		.word	0x13a
 2371 10f7 5F5A4E53 		.ascii "_ZNSs7_M_leakEv\0"
 2371      73375F4D 
 2371      5F6C6561 
 2371      6B457600 
 2372 1107 0F110000 		.long	0x110f
 2373 110b 15110000 		.long	0x1115
GAS LISTING C:\Users\NJLLMR~1\AppData\Local\Temp\cc5gZH1j.s 			page 61


 2374 110f 04       		.uleb128 0x4
 2375 1110 D1450000 		.long	0x45d1
 2376 1114 00       		.byte	0
 2377 1115 29       		.uleb128 0x29
 2378 1116 5F4D5F63 		.ascii "_M_check\0"
 2378      6865636B 
 2378      00
 2379 111f 0C       		.byte	0xc
 2380 1120 4101     		.word	0x141
 2381 1122 5F5A4E4B 		.ascii "_ZNKSs8_M_checkEjPKc\0"
 2381      5373385F 
 2381      4D5F6368 
 2381      65636B45 
 2381      6A504B63 
 2382 1137 5D0B0000 		.long	0xb5d
 2383 113b 43110000 		.long	0x1143
 2384 113f 53110000 		.long	0x1153
 2385 1143 04       		.uleb128 0x4
 2386 1144 CB450000 		.long	0x45cb
 2387 1148 13       		.uleb128 0x13
 2388 1149 5D0B0000 		.long	0xb5d
 2389 114d 13       		.uleb128 0x13
 2390 114e A5370000 		.long	0x37a5
 2391 1152 00       		.byte	0
 2392 1153 28       		.uleb128 0x28
 2393 1154 5F4D5F63 		.ascii "_M_check_length\0"
 2393      6865636B 
 2393      5F6C656E 
 2393      67746800 
 2394 1164 0C       		.byte	0xc
 2395 1165 4B01     		.word	0x14b
 2396 1167 5F5A4E4B 		.ascii "_ZNKSs15_M_check_lengthEjjPKc\0"
 2396      53733135 
 2396      5F4D5F63 
 2396      6865636B 
 2396      5F6C656E 
 2397 1185 8D110000 		.long	0x118d
 2398 1189 A2110000 		.long	0x11a2
 2399 118d 04       		.uleb128 0x4
 2400 118e CB450000 		.long	0x45cb
 2401 1192 13       		.uleb128 0x13
 2402 1193 5D0B0000 		.long	0xb5d
 2403 1197 13       		.uleb128 0x13
 2404 1198 5D0B0000 		.long	0xb5d
 2405 119c 13       		.uleb128 0x13
 2406 119d A5370000 		.long	0x37a5
 2407 11a1 00       		.byte	0
 2408 11a2 29       		.uleb128 0x29
 2409 11a3 5F4D5F6C 		.ascii "_M_limit\0"
 2409      696D6974 
 2409      00
 2410 11ac 0C       		.byte	0xc
 2411 11ad 5301     		.word	0x153
 2412 11af 5F5A4E4B 		.ascii "_ZNKSs8_M_limitEjj\0"
 2412      5373385F 
 2412      4D5F6C69 
 2412      6D697445 
GAS LISTING C:\Users\NJLLMR~1\AppData\Local\Temp\cc5gZH1j.s 			page 62


 2412      6A6A00
 2413 11c2 5D0B0000 		.long	0xb5d
 2414 11c6 CE110000 		.long	0x11ce
 2415 11ca DE110000 		.long	0x11de
 2416 11ce 04       		.uleb128 0x4
 2417 11cf CB450000 		.long	0x45cb
 2418 11d3 13       		.uleb128 0x13
 2419 11d4 5D0B0000 		.long	0xb5d
 2420 11d8 13       		.uleb128 0x13
 2421 11d9 5D0B0000 		.long	0xb5d
 2422 11dd 00       		.byte	0
 2423 11de 29       		.uleb128 0x29
 2424 11df 5F4D5F64 		.ascii "_M_disjunct\0"
 2424      69736A75 
 2424      6E637400 
 2425 11eb 0C       		.byte	0xc
 2426 11ec 5B01     		.word	0x15b
 2427 11ee 5F5A4E4B 		.ascii "_ZNKSs11_M_disjunctEPKc\0"
 2427      53733131 
 2427      5F4D5F64 
 2427      69736A75 
 2427      6E637445 
 2428 1206 83430000 		.long	0x4383
 2429 120a 12120000 		.long	0x1212
 2430 120e 1D120000 		.long	0x121d
 2431 1212 04       		.uleb128 0x4
 2432 1213 CB450000 		.long	0x45cb
 2433 1217 13       		.uleb128 0x13
 2434 1218 A5370000 		.long	0x37a5
 2435 121c 00       		.byte	0
 2436 121d 2B       		.uleb128 0x2b
 2437 121e 5F4D5F63 		.ascii "_M_copy\0"
 2437      6F707900 
 2438 1226 0C       		.byte	0xc
 2439 1227 6401     		.word	0x164
 2440 1229 5F5A4E53 		.ascii "_ZNSs7_M_copyEPcPKcj\0"
 2440      73375F4D 
 2440      5F636F70 
 2440      79455063 
 2440      504B636A 
 2441 123e 52120000 		.long	0x1252
 2442 1242 13       		.uleb128 0x13
 2443 1243 83030000 		.long	0x383
 2444 1247 13       		.uleb128 0x13
 2445 1248 A5370000 		.long	0x37a5
 2446 124c 13       		.uleb128 0x13
 2447 124d 5D0B0000 		.long	0xb5d
 2448 1251 00       		.byte	0
 2449 1252 2B       		.uleb128 0x2b
 2450 1253 5F4D5F6D 		.ascii "_M_move\0"
 2450      6F766500 
 2451 125b 0C       		.byte	0xc
 2452 125c 6D01     		.word	0x16d
 2453 125e 5F5A4E53 		.ascii "_ZNSs7_M_moveEPcPKcj\0"
 2453      73375F4D 
 2453      5F6D6F76 
 2453      65455063 
GAS LISTING C:\Users\NJLLMR~1\AppData\Local\Temp\cc5gZH1j.s 			page 63


 2453      504B636A 
 2454 1273 87120000 		.long	0x1287
 2455 1277 13       		.uleb128 0x13
 2456 1278 83030000 		.long	0x383
 2457 127c 13       		.uleb128 0x13
 2458 127d A5370000 		.long	0x37a5
 2459 1281 13       		.uleb128 0x13
 2460 1282 5D0B0000 		.long	0xb5d
 2461 1286 00       		.byte	0
 2462 1287 2B       		.uleb128 0x2b
 2463 1288 5F4D5F61 		.ascii "_M_assign\0"
 2463      73736967 
 2463      6E00
 2464 1292 0C       		.byte	0xc
 2465 1293 7601     		.word	0x176
 2466 1295 5F5A4E53 		.ascii "_ZNSs9_M_assignEPcjc\0"
 2466      73395F4D 
 2466      5F617373 
 2466      69676E45 
 2466      50636A63 
 2467 12aa BE120000 		.long	0x12be
 2468 12ae 13       		.uleb128 0x13
 2469 12af 83030000 		.long	0x383
 2470 12b3 13       		.uleb128 0x13
 2471 12b4 5D0B0000 		.long	0xb5d
 2472 12b8 13       		.uleb128 0x13
 2473 12b9 97020000 		.long	0x297
 2474 12bd 00       		.byte	0
 2475 12be 2C       		.uleb128 0x2c
 2476 12bf 99000000 		.secrel32	LASF8
 2477 12c3 0C       		.byte	0xc
 2478 12c4 8A01     		.word	0x18a
 2479 12c6 5F5A4E53 		.ascii "_ZNSs13_S_copy_charsEPcN9__gnu_cxx17__normal_iteratorIS_SsEES2_\0"
 2479      7331335F 
 2479      535F636F 
 2479      70795F63 
 2479      68617273 
 2480 1306 1A130000 		.long	0x131a
 2481 130a 13       		.uleb128 0x13
 2482 130b 83030000 		.long	0x383
 2483 130f 13       		.uleb128 0x13
 2484 1310 C00B0000 		.long	0xbc0
 2485 1314 13       		.uleb128 0x13
 2486 1315 C00B0000 		.long	0xbc0
 2487 1319 00       		.byte	0
 2488 131a 2C       		.uleb128 0x2c
 2489 131b 99000000 		.secrel32	LASF8
 2490 131f 0C       		.byte	0xc
 2491 1320 8E01     		.word	0x18e
 2492 1322 5F5A4E53 		.ascii "_ZNSs13_S_copy_charsEPcN9__gnu_cxx17__normal_iteratorIPKcSsEES4_\0"
 2492      7331335F 
 2492      535F636F 
 2492      70795F63 
 2492      68617273 
 2493 1363 77130000 		.long	0x1377
 2494 1367 13       		.uleb128 0x13
 2495 1368 83030000 		.long	0x383
GAS LISTING C:\Users\NJLLMR~1\AppData\Local\Temp\cc5gZH1j.s 			page 64


 2496 136c 13       		.uleb128 0x13
 2497 136d D10B0000 		.long	0xbd1
 2498 1371 13       		.uleb128 0x13
 2499 1372 D10B0000 		.long	0xbd1
 2500 1376 00       		.byte	0
 2501 1377 2C       		.uleb128 0x2c
 2502 1378 99000000 		.secrel32	LASF8
 2503 137c 0C       		.byte	0xc
 2504 137d 9301     		.word	0x193
 2505 137f 5F5A4E53 		.ascii "_ZNSs13_S_copy_charsEPcS_S_\0"
 2505      7331335F 
 2505      535F636F 
 2505      70795F63 
 2505      68617273 
 2506 139b AF130000 		.long	0x13af
 2507 139f 13       		.uleb128 0x13
 2508 13a0 83030000 		.long	0x383
 2509 13a4 13       		.uleb128 0x13
 2510 13a5 83030000 		.long	0x383
 2511 13a9 13       		.uleb128 0x13
 2512 13aa 83030000 		.long	0x383
 2513 13ae 00       		.byte	0
 2514 13af 2C       		.uleb128 0x2c
 2515 13b0 99000000 		.secrel32	LASF8
 2516 13b4 0C       		.byte	0xc
 2517 13b5 9701     		.word	0x197
 2518 13b7 5F5A4E53 		.ascii "_ZNSs13_S_copy_charsEPcPKcS1_\0"
 2518      7331335F 
 2518      535F636F 
 2518      70795F63 
 2518      68617273 
 2519 13d5 E9130000 		.long	0x13e9
 2520 13d9 13       		.uleb128 0x13
 2521 13da 83030000 		.long	0x383
 2522 13de 13       		.uleb128 0x13
 2523 13df A5370000 		.long	0x37a5
 2524 13e3 13       		.uleb128 0x13
 2525 13e4 A5370000 		.long	0x37a5
 2526 13e8 00       		.byte	0
 2527 13e9 17       		.uleb128 0x17
 2528 13ea 5F535F63 		.ascii "_S_compare\0"
 2528      6F6D7061 
 2528      726500
 2529 13f5 0C       		.byte	0xc
 2530 13f6 9C01     		.word	0x19c
 2531 13f8 5F5A4E53 		.ascii "_ZNSs10_S_compareEjj\0"
 2531      7331305F 
 2531      535F636F 
 2531      6D706172 
 2531      65456A6A 
 2532 140d CB020000 		.long	0x2cb
 2533 1411 20140000 		.long	0x1420
 2534 1415 13       		.uleb128 0x13
 2535 1416 5D0B0000 		.long	0xb5d
 2536 141a 13       		.uleb128 0x13
 2537 141b 5D0B0000 		.long	0xb5d
 2538 141f 00       		.byte	0
GAS LISTING C:\Users\NJLLMR~1\AppData\Local\Temp\cc5gZH1j.s 			page 65


 2539 1420 28       		.uleb128 0x28
 2540 1421 5F4D5F6D 		.ascii "_M_mutate\0"
 2540      75746174 
 2540      6500
 2541 142b 0D       		.byte	0xd
 2542 142c D401     		.word	0x1d4
 2543 142e 5F5A4E53 		.ascii "_ZNSs9_M_mutateEjjj\0"
 2543      73395F4D 
 2543      5F6D7574 
 2543      61746545 
 2543      6A6A6A00 
 2544 1442 4A140000 		.long	0x144a
 2545 1446 5F140000 		.long	0x145f
 2546 144a 04       		.uleb128 0x4
 2547 144b D1450000 		.long	0x45d1
 2548 144f 13       		.uleb128 0x13
 2549 1450 5D0B0000 		.long	0xb5d
 2550 1454 13       		.uleb128 0x13
 2551 1455 5D0B0000 		.long	0xb5d
 2552 1459 13       		.uleb128 0x13
 2553 145a 5D0B0000 		.long	0xb5d
 2554 145e 00       		.byte	0
 2555 145f 28       		.uleb128 0x28
 2556 1460 5F4D5F6C 		.ascii "_M_leak_hard\0"
 2556      65616B5F 
 2556      68617264 
 2556      00
 2557 146d 0D       		.byte	0xd
 2558 146e C601     		.word	0x1c6
 2559 1470 5F5A4E53 		.ascii "_ZNSs12_M_leak_hardEv\0"
 2559      7331325F 
 2559      4D5F6C65 
 2559      616B5F68 
 2559      61726445 
 2560 1486 8E140000 		.long	0x148e
 2561 148a 94140000 		.long	0x1494
 2562 148e 04       		.uleb128 0x4
 2563 148f D1450000 		.long	0x45d1
 2564 1493 00       		.byte	0
 2565 1494 2D       		.uleb128 0x2d
 2566 1495 18010000 		.secrel32	LASF7
 2567 1499 0C       		.byte	0xc
 2568 149a AF01     		.word	0x1af
 2569 149c 5F5A4E53 		.ascii "_ZNSs12_S_empty_repEv\0"
 2569      7331325F 
 2569      535F656D 
 2569      7074795F 
 2569      72657045 
 2570 14b2 DD450000 		.long	0x45dd
 2571 14b6 2E       		.uleb128 0x2e
 2572 14b7 33000000 		.secrel32	LASF9
 2573 14bb 0C       		.byte	0xc
 2574 14bc BA01     		.word	0x1ba
 2575 14be 01       		.byte	0x1
 2576 14bf C7140000 		.long	0x14c7
 2577 14c3 CD140000 		.long	0x14cd
 2578 14c7 04       		.uleb128 0x4
GAS LISTING C:\Users\NJLLMR~1\AppData\Local\Temp\cc5gZH1j.s 			page 66


 2579 14c8 D1450000 		.long	0x45d1
 2580 14cc 00       		.byte	0
 2581 14cd 2F       		.uleb128 0x2f
 2582 14ce 33000000 		.secrel32	LASF9
 2583 14d2 0D       		.byte	0xd
 2584 14d3 B1       		.byte	0xb1
 2585 14d4 01       		.byte	0x1
 2586 14d5 DD140000 		.long	0x14dd
 2587 14d9 E8140000 		.long	0x14e8
 2588 14dd 04       		.uleb128 0x4
 2589 14de D1450000 		.long	0x45d1
 2590 14e2 13       		.uleb128 0x13
 2591 14e3 B5450000 		.long	0x45b5
 2592 14e7 00       		.byte	0
 2593 14e8 1C       		.uleb128 0x1c
 2594 14e9 33000000 		.secrel32	LASF9
 2595 14ed 0D       		.byte	0xd
 2596 14ee A9       		.byte	0xa9
 2597 14ef 01       		.byte	0x1
 2598 14f0 F8140000 		.long	0x14f8
 2599 14f4 03150000 		.long	0x1503
 2600 14f8 04       		.uleb128 0x4
 2601 14f9 D1450000 		.long	0x45d1
 2602 14fd 13       		.uleb128 0x13
 2603 14fe E3450000 		.long	0x45e3
 2604 1502 00       		.byte	0
 2605 1503 1C       		.uleb128 0x1c
 2606 1504 33000000 		.secrel32	LASF9
 2607 1508 0D       		.byte	0xd
 2608 1509 B7       		.byte	0xb7
 2609 150a 01       		.byte	0x1
 2610 150b 13150000 		.long	0x1513
 2611 150f 28150000 		.long	0x1528
 2612 1513 04       		.uleb128 0x4
 2613 1514 D1450000 		.long	0x45d1
 2614 1518 13       		.uleb128 0x13
 2615 1519 E3450000 		.long	0x45e3
 2616 151d 13       		.uleb128 0x13
 2617 151e 5D0B0000 		.long	0xb5d
 2618 1522 13       		.uleb128 0x13
 2619 1523 5D0B0000 		.long	0xb5d
 2620 1527 00       		.byte	0
 2621 1528 1C       		.uleb128 0x1c
 2622 1529 33000000 		.secrel32	LASF9
 2623 152d 0D       		.byte	0xd
 2624 152e C1       		.byte	0xc1
 2625 152f 01       		.byte	0x1
 2626 1530 38150000 		.long	0x1538
 2627 1534 52150000 		.long	0x1552
 2628 1538 04       		.uleb128 0x4
 2629 1539 D1450000 		.long	0x45d1
 2630 153d 13       		.uleb128 0x13
 2631 153e E3450000 		.long	0x45e3
 2632 1542 13       		.uleb128 0x13
 2633 1543 5D0B0000 		.long	0xb5d
 2634 1547 13       		.uleb128 0x13
 2635 1548 5D0B0000 		.long	0xb5d
GAS LISTING C:\Users\NJLLMR~1\AppData\Local\Temp\cc5gZH1j.s 			page 67


 2636 154c 13       		.uleb128 0x13
 2637 154d B5450000 		.long	0x45b5
 2638 1551 00       		.byte	0
 2639 1552 1C       		.uleb128 0x1c
 2640 1553 33000000 		.secrel32	LASF9
 2641 1557 0D       		.byte	0xd
 2642 1558 CD       		.byte	0xcd
 2643 1559 01       		.byte	0x1
 2644 155a 62150000 		.long	0x1562
 2645 155e 77150000 		.long	0x1577
 2646 1562 04       		.uleb128 0x4
 2647 1563 D1450000 		.long	0x45d1
 2648 1567 13       		.uleb128 0x13
 2649 1568 A5370000 		.long	0x37a5
 2650 156c 13       		.uleb128 0x13
 2651 156d 5D0B0000 		.long	0xb5d
 2652 1571 13       		.uleb128 0x13
 2653 1572 B5450000 		.long	0x45b5
 2654 1576 00       		.byte	0
 2655 1577 1C       		.uleb128 0x1c
 2656 1578 33000000 		.secrel32	LASF9
 2657 157c 0D       		.byte	0xd
 2658 157d D4       		.byte	0xd4
 2659 157e 01       		.byte	0x1
 2660 157f 87150000 		.long	0x1587
 2661 1583 97150000 		.long	0x1597
 2662 1587 04       		.uleb128 0x4
 2663 1588 D1450000 		.long	0x45d1
 2664 158c 13       		.uleb128 0x13
 2665 158d A5370000 		.long	0x37a5
 2666 1591 13       		.uleb128 0x13
 2667 1592 B5450000 		.long	0x45b5
 2668 1596 00       		.byte	0
 2669 1597 1C       		.uleb128 0x1c
 2670 1598 33000000 		.secrel32	LASF9
 2671 159c 0D       		.byte	0xd
 2672 159d DB       		.byte	0xdb
 2673 159e 01       		.byte	0x1
 2674 159f A7150000 		.long	0x15a7
 2675 15a3 BC150000 		.long	0x15bc
 2676 15a7 04       		.uleb128 0x4
 2677 15a8 D1450000 		.long	0x45d1
 2678 15ac 13       		.uleb128 0x13
 2679 15ad 5D0B0000 		.long	0xb5d
 2680 15b1 13       		.uleb128 0x13
 2681 15b2 97020000 		.long	0x297
 2682 15b6 13       		.uleb128 0x13
 2683 15b7 B5450000 		.long	0x45b5
 2684 15bb 00       		.byte	0
 2685 15bc 30       		.uleb128 0x30
 2686 15bd 7E626173 		.ascii "~basic_string\0"
 2686      69635F73 
 2686      7472696E 
 2686      6700
 2687 15cb 0C       		.byte	0xc
 2688 15cc 2202     		.word	0x222
 2689 15ce 01       		.byte	0x1
GAS LISTING C:\Users\NJLLMR~1\AppData\Local\Temp\cc5gZH1j.s 			page 68


 2690 15cf D7150000 		.long	0x15d7
 2691 15d3 E2150000 		.long	0x15e2
 2692 15d7 04       		.uleb128 0x4
 2693 15d8 D1450000 		.long	0x45d1
 2694 15dc 04       		.uleb128 0x4
 2695 15dd CB020000 		.long	0x2cb
 2696 15e1 00       		.byte	0
 2697 15e2 31       		.uleb128 0x31
 2698 15e3 25010000 		.secrel32	LASF10
 2699 15e7 0C       		.byte	0xc
 2700 15e8 2A02     		.word	0x22a
 2701 15ea 5F5A4E53 		.ascii "_ZNSsaSERKSs\0"
 2701      73615345 
 2701      524B5373 
 2701      00
 2702 15f7 E9450000 		.long	0x45e9
 2703 15fb 01       		.byte	0x1
 2704 15fc 04160000 		.long	0x1604
 2705 1600 0F160000 		.long	0x160f
 2706 1604 04       		.uleb128 0x4
 2707 1605 D1450000 		.long	0x45d1
 2708 1609 13       		.uleb128 0x13
 2709 160a E3450000 		.long	0x45e3
 2710 160e 00       		.byte	0
 2711 160f 31       		.uleb128 0x31
 2712 1610 25010000 		.secrel32	LASF10
 2713 1614 0C       		.byte	0xc
 2714 1615 3202     		.word	0x232
 2715 1617 5F5A4E53 		.ascii "_ZNSsaSEPKc\0"
 2715      73615345 
 2715      504B6300 
 2716 1623 E9450000 		.long	0x45e9
 2717 1627 01       		.byte	0x1
 2718 1628 30160000 		.long	0x1630
 2719 162c 3B160000 		.long	0x163b
 2720 1630 04       		.uleb128 0x4
 2721 1631 D1450000 		.long	0x45d1
 2722 1635 13       		.uleb128 0x13
 2723 1636 A5370000 		.long	0x37a5
 2724 163a 00       		.byte	0
 2725 163b 31       		.uleb128 0x31
 2726 163c 25010000 		.secrel32	LASF10
 2727 1640 0C       		.byte	0xc
 2728 1641 3D02     		.word	0x23d
 2729 1643 5F5A4E53 		.ascii "_ZNSsaSEc\0"
 2729      73615345 
 2729      6300
 2730 164d E9450000 		.long	0x45e9
 2731 1651 01       		.byte	0x1
 2732 1652 5A160000 		.long	0x165a
 2733 1656 65160000 		.long	0x1665
 2734 165a 04       		.uleb128 0x4
 2735 165b D1450000 		.long	0x45d1
 2736 165f 13       		.uleb128 0x13
 2737 1660 97020000 		.long	0x297
 2738 1664 00       		.byte	0
 2739 1665 32       		.uleb128 0x32
GAS LISTING C:\Users\NJLLMR~1\AppData\Local\Temp\cc5gZH1j.s 			page 69


 2740 1666 62656769 		.ascii "begin\0"
 2740      6E00
 2741 166c 0C       		.byte	0xc
 2742 166d 6602     		.word	0x266
 2743 166f 5F5A4E53 		.ascii "_ZNSs5beginEv\0"
 2743      73356265 
 2743      67696E45 
 2743      7600
 2744 167d C00B0000 		.long	0xbc0
 2745 1681 01       		.byte	0x1
 2746 1682 8A160000 		.long	0x168a
 2747 1686 90160000 		.long	0x1690
 2748 168a 04       		.uleb128 0x4
 2749 168b D1450000 		.long	0x45d1
 2750 168f 00       		.byte	0
 2751 1690 32       		.uleb128 0x32
 2752 1691 62656769 		.ascii "begin\0"
 2752      6E00
 2753 1697 0C       		.byte	0xc
 2754 1698 7102     		.word	0x271
 2755 169a 5F5A4E4B 		.ascii "_ZNKSs5beginEv\0"
 2755      53733562 
 2755      6567696E 
 2755      457600
 2756 16a9 D10B0000 		.long	0xbd1
 2757 16ad 01       		.byte	0x1
 2758 16ae B6160000 		.long	0x16b6
 2759 16b2 BC160000 		.long	0x16bc
 2760 16b6 04       		.uleb128 0x4
 2761 16b7 CB450000 		.long	0x45cb
 2762 16bb 00       		.byte	0
 2763 16bc 32       		.uleb128 0x32
 2764 16bd 656E6400 		.ascii "end\0"
 2765 16c1 0C       		.byte	0xc
 2766 16c2 7902     		.word	0x279
 2767 16c4 5F5A4E53 		.ascii "_ZNSs3endEv\0"
 2767      7333656E 
 2767      64457600 
 2768 16d0 C00B0000 		.long	0xbc0
 2769 16d4 01       		.byte	0x1
 2770 16d5 DD160000 		.long	0x16dd
 2771 16d9 E3160000 		.long	0x16e3
 2772 16dd 04       		.uleb128 0x4
 2773 16de D1450000 		.long	0x45d1
 2774 16e2 00       		.byte	0
 2775 16e3 32       		.uleb128 0x32
 2776 16e4 656E6400 		.ascii "end\0"
 2777 16e8 0C       		.byte	0xc
 2778 16e9 8402     		.word	0x284
 2779 16eb 5F5A4E4B 		.ascii "_ZNKSs3endEv\0"
 2779      53733365 
 2779      6E644576 
 2779      00
 2780 16f8 D10B0000 		.long	0xbd1
 2781 16fc 01       		.byte	0x1
 2782 16fd 05170000 		.long	0x1705
 2783 1701 0B170000 		.long	0x170b
GAS LISTING C:\Users\NJLLMR~1\AppData\Local\Temp\cc5gZH1j.s 			page 70


 2784 1705 04       		.uleb128 0x4
 2785 1706 CB450000 		.long	0x45cb
 2786 170a 00       		.byte	0
 2787 170b 32       		.uleb128 0x32
 2788 170c 72626567 		.ascii "rbegin\0"
 2788      696E00
 2789 1713 0C       		.byte	0xc
 2790 1714 8D02     		.word	0x28d
 2791 1716 5F5A4E53 		.ascii "_ZNSs6rbeginEv\0"
 2791      73367262 
 2791      6567696E 
 2791      457600
 2792 1725 070C0000 		.long	0xc07
 2793 1729 01       		.byte	0x1
 2794 172a 32170000 		.long	0x1732
 2795 172e 38170000 		.long	0x1738
 2796 1732 04       		.uleb128 0x4
 2797 1733 D1450000 		.long	0x45d1
 2798 1737 00       		.byte	0
 2799 1738 32       		.uleb128 0x32
 2800 1739 72626567 		.ascii "rbegin\0"
 2800      696E00
 2801 1740 0C       		.byte	0xc
 2802 1741 9602     		.word	0x296
 2803 1743 5F5A4E4B 		.ascii "_ZNKSs6rbeginEv\0"
 2803      53733672 
 2803      62656769 
 2803      6E457600 
 2804 1753 E80B0000 		.long	0xbe8
 2805 1757 01       		.byte	0x1
 2806 1758 60170000 		.long	0x1760
 2807 175c 66170000 		.long	0x1766
 2808 1760 04       		.uleb128 0x4
 2809 1761 CB450000 		.long	0x45cb
 2810 1765 00       		.byte	0
 2811 1766 32       		.uleb128 0x32
 2812 1767 72656E64 		.ascii "rend\0"
 2812      00
 2813 176c 0C       		.byte	0xc
 2814 176d 9F02     		.word	0x29f
 2815 176f 5F5A4E53 		.ascii "_ZNSs4rendEv\0"
 2815      73347265 
 2815      6E644576 
 2815      00
 2816 177c 070C0000 		.long	0xc07
 2817 1780 01       		.byte	0x1
 2818 1781 89170000 		.long	0x1789
 2819 1785 8F170000 		.long	0x178f
 2820 1789 04       		.uleb128 0x4
 2821 178a D1450000 		.long	0x45d1
 2822 178e 00       		.byte	0
 2823 178f 32       		.uleb128 0x32
 2824 1790 72656E64 		.ascii "rend\0"
 2824      00
 2825 1795 0C       		.byte	0xc
 2826 1796 A802     		.word	0x2a8
 2827 1798 5F5A4E4B 		.ascii "_ZNKSs4rendEv\0"
GAS LISTING C:\Users\NJLLMR~1\AppData\Local\Temp\cc5gZH1j.s 			page 71


 2827      53733472 
 2827      656E6445 
 2827      7600
 2828 17a6 E80B0000 		.long	0xbe8
 2829 17aa 01       		.byte	0x1
 2830 17ab B3170000 		.long	0x17b3
 2831 17af B9170000 		.long	0x17b9
 2832 17b3 04       		.uleb128 0x4
 2833 17b4 CB450000 		.long	0x45cb
 2834 17b8 00       		.byte	0
 2835 17b9 32       		.uleb128 0x32
 2836 17ba 73697A65 		.ascii "size\0"
 2836      00
 2837 17bf 0C       		.byte	0xc
 2838 17c0 D402     		.word	0x2d4
 2839 17c2 5F5A4E4B 		.ascii "_ZNKSs4sizeEv\0"
 2839      53733473 
 2839      697A6545 
 2839      7600
 2840 17d0 5D0B0000 		.long	0xb5d
 2841 17d4 01       		.byte	0x1
 2842 17d5 DD170000 		.long	0x17dd
 2843 17d9 E3170000 		.long	0x17e3
 2844 17dd 04       		.uleb128 0x4
 2845 17de CB450000 		.long	0x45cb
 2846 17e2 00       		.byte	0
 2847 17e3 32       		.uleb128 0x32
 2848 17e4 6C656E67 		.ascii "length\0"
 2848      746800
 2849 17eb 0C       		.byte	0xc
 2850 17ec DA02     		.word	0x2da
 2851 17ee 5F5A4E4B 		.ascii "_ZNKSs6lengthEv\0"
 2851      5373366C 
 2851      656E6774 
 2851      68457600 
 2852 17fe 5D0B0000 		.long	0xb5d
 2853 1802 01       		.byte	0x1
 2854 1803 0B180000 		.long	0x180b
 2855 1807 11180000 		.long	0x1811
 2856 180b 04       		.uleb128 0x4
 2857 180c CB450000 		.long	0x45cb
 2858 1810 00       		.byte	0
 2859 1811 31       		.uleb128 0x31
 2860 1812 C6000000 		.secrel32	LASF11
 2861 1816 0C       		.byte	0xc
 2862 1817 DF02     		.word	0x2df
 2863 1819 5F5A4E4B 		.ascii "_ZNKSs8max_sizeEv\0"
 2863      5373386D 
 2863      61785F73 
 2863      697A6545 
 2863      7600
 2864 182b 5D0B0000 		.long	0xb5d
 2865 182f 01       		.byte	0x1
 2866 1830 38180000 		.long	0x1838
 2867 1834 3E180000 		.long	0x183e
 2868 1838 04       		.uleb128 0x4
 2869 1839 CB450000 		.long	0x45cb
GAS LISTING C:\Users\NJLLMR~1\AppData\Local\Temp\cc5gZH1j.s 			page 72


 2870 183d 00       		.byte	0
 2871 183e 33       		.uleb128 0x33
 2872 183f 72657369 		.ascii "resize\0"
 2872      7A6500
 2873 1846 0D       		.byte	0xd
 2874 1847 7F02     		.word	0x27f
 2875 1849 5F5A4E53 		.ascii "_ZNSs6resizeEjc\0"
 2875      73367265 
 2875      73697A65 
 2875      456A6300 
 2876 1859 01       		.byte	0x1
 2877 185a 62180000 		.long	0x1862
 2878 185e 72180000 		.long	0x1872
 2879 1862 04       		.uleb128 0x4
 2880 1863 D1450000 		.long	0x45d1
 2881 1867 13       		.uleb128 0x13
 2882 1868 5D0B0000 		.long	0xb5d
 2883 186c 13       		.uleb128 0x13
 2884 186d 97020000 		.long	0x297
 2885 1871 00       		.byte	0
 2886 1872 33       		.uleb128 0x33
 2887 1873 72657369 		.ascii "resize\0"
 2887      7A6500
 2888 187a 0C       		.byte	0xc
 2889 187b FA02     		.word	0x2fa
 2890 187d 5F5A4E53 		.ascii "_ZNSs6resizeEj\0"
 2890      73367265 
 2890      73697A65 
 2890      456A00
 2891 188c 01       		.byte	0x1
 2892 188d 95180000 		.long	0x1895
 2893 1891 A0180000 		.long	0x18a0
 2894 1895 04       		.uleb128 0x4
 2895 1896 D1450000 		.long	0x45d1
 2896 189a 13       		.uleb128 0x13
 2897 189b 5D0B0000 		.long	0xb5d
 2898 189f 00       		.byte	0
 2899 18a0 32       		.uleb128 0x32
 2900 18a1 63617061 		.ascii "capacity\0"
 2900      63697479 
 2900      00
 2901 18aa 0C       		.byte	0xc
 2902 18ab 1103     		.word	0x311
 2903 18ad 5F5A4E4B 		.ascii "_ZNKSs8capacityEv\0"
 2903      53733863 
 2903      61706163 
 2903      69747945 
 2903      7600
 2904 18bf 5D0B0000 		.long	0xb5d
 2905 18c3 01       		.byte	0x1
 2906 18c4 CC180000 		.long	0x18cc
 2907 18c8 D2180000 		.long	0x18d2
 2908 18cc 04       		.uleb128 0x4
 2909 18cd CB450000 		.long	0x45cb
 2910 18d1 00       		.byte	0
 2911 18d2 33       		.uleb128 0x33
 2912 18d3 72657365 		.ascii "reserve\0"
GAS LISTING C:\Users\NJLLMR~1\AppData\Local\Temp\cc5gZH1j.s 			page 73


 2912      72766500 
 2913 18db 0D       		.byte	0xd
 2914 18dc F501     		.word	0x1f5
 2915 18de 5F5A4E53 		.ascii "_ZNSs7reserveEj\0"
 2915      73377265 
 2915      73657276 
 2915      65456A00 
 2916 18ee 01       		.byte	0x1
 2917 18ef F7180000 		.long	0x18f7
 2918 18f3 02190000 		.long	0x1902
 2919 18f7 04       		.uleb128 0x4
 2920 18f8 D1450000 		.long	0x45d1
 2921 18fc 13       		.uleb128 0x13
 2922 18fd 5D0B0000 		.long	0xb5d
 2923 1901 00       		.byte	0
 2924 1902 33       		.uleb128 0x33
 2925 1903 636C6561 		.ascii "clear\0"
 2925      7200
 2926 1909 0C       		.byte	0xc
 2927 190a 2D03     		.word	0x32d
 2928 190c 5F5A4E53 		.ascii "_ZNSs5clearEv\0"
 2928      7335636C 
 2928      65617245 
 2928      7600
 2929 191a 01       		.byte	0x1
 2930 191b 23190000 		.long	0x1923
 2931 191f 29190000 		.long	0x1929
 2932 1923 04       		.uleb128 0x4
 2933 1924 D1450000 		.long	0x45d1
 2934 1928 00       		.byte	0
 2935 1929 32       		.uleb128 0x32
 2936 192a 656D7074 		.ascii "empty\0"
 2936      7900
 2937 1930 0C       		.byte	0xc
 2938 1931 3503     		.word	0x335
 2939 1933 5F5A4E4B 		.ascii "_ZNKSs5emptyEv\0"
 2939      53733565 
 2939      6D707479 
 2939      457600
 2940 1942 83430000 		.long	0x4383
 2941 1946 01       		.byte	0x1
 2942 1947 4F190000 		.long	0x194f
 2943 194b 55190000 		.long	0x1955
 2944 194f 04       		.uleb128 0x4
 2945 1950 CB450000 		.long	0x45cb
 2946 1954 00       		.byte	0
 2947 1955 31       		.uleb128 0x31
 2948 1956 40000000 		.secrel32	LASF12
 2949 195a 0C       		.byte	0xc
 2950 195b 4403     		.word	0x344
 2951 195d 5F5A4E4B 		.ascii "_ZNKSsixEj\0"
 2951      53736978 
 2951      456A00
 2952 1968 B40B0000 		.long	0xbb4
 2953 196c 01       		.byte	0x1
 2954 196d 75190000 		.long	0x1975
 2955 1971 80190000 		.long	0x1980
GAS LISTING C:\Users\NJLLMR~1\AppData\Local\Temp\cc5gZH1j.s 			page 74


 2956 1975 04       		.uleb128 0x4
 2957 1976 CB450000 		.long	0x45cb
 2958 197a 13       		.uleb128 0x13
 2959 197b 5D0B0000 		.long	0xb5d
 2960 197f 00       		.byte	0
 2961 1980 31       		.uleb128 0x31
 2962 1981 40000000 		.secrel32	LASF12
 2963 1985 0C       		.byte	0xc
 2964 1986 5503     		.word	0x355
 2965 1988 5F5A4E53 		.ascii "_ZNSsixEj\0"
 2965      73697845 
 2965      6A00
 2966 1992 A80B0000 		.long	0xba8
 2967 1996 01       		.byte	0x1
 2968 1997 9F190000 		.long	0x199f
 2969 199b AA190000 		.long	0x19aa
 2970 199f 04       		.uleb128 0x4
 2971 19a0 D1450000 		.long	0x45d1
 2972 19a4 13       		.uleb128 0x13
 2973 19a5 5D0B0000 		.long	0xb5d
 2974 19a9 00       		.byte	0
 2975 19aa 32       		.uleb128 0x32
 2976 19ab 617400   		.ascii "at\0"
 2977 19ae 0C       		.byte	0xc
 2978 19af 6B03     		.word	0x36b
 2979 19b1 5F5A4E4B 		.ascii "_ZNKSs2atEj\0"
 2979      53733261 
 2979      74456A00 
 2980 19bd B40B0000 		.long	0xbb4
 2981 19c1 01       		.byte	0x1
 2982 19c2 CA190000 		.long	0x19ca
 2983 19c6 D5190000 		.long	0x19d5
 2984 19ca 04       		.uleb128 0x4
 2985 19cb CB450000 		.long	0x45cb
 2986 19cf 13       		.uleb128 0x13
 2987 19d0 5D0B0000 		.long	0xb5d
 2988 19d4 00       		.byte	0
 2989 19d5 32       		.uleb128 0x32
 2990 19d6 617400   		.ascii "at\0"
 2991 19d9 0C       		.byte	0xc
 2992 19da 8103     		.word	0x381
 2993 19dc 5F5A4E53 		.ascii "_ZNSs2atEj\0"
 2993      73326174 
 2993      456A00
 2994 19e7 A80B0000 		.long	0xba8
 2995 19eb 01       		.byte	0x1
 2996 19ec F4190000 		.long	0x19f4
 2997 19f0 FF190000 		.long	0x19ff
 2998 19f4 04       		.uleb128 0x4
 2999 19f5 D1450000 		.long	0x45d1
 3000 19f9 13       		.uleb128 0x13
 3001 19fa 5D0B0000 		.long	0xb5d
 3002 19fe 00       		.byte	0
 3003 19ff 31       		.uleb128 0x31
 3004 1a00 E1000000 		.secrel32	LASF13
 3005 1a04 0C       		.byte	0xc
 3006 1a05 B503     		.word	0x3b5
GAS LISTING C:\Users\NJLLMR~1\AppData\Local\Temp\cc5gZH1j.s 			page 75


 3007 1a07 5F5A4E53 		.ascii "_ZNSspLERKSs\0"
 3007      73704C45 
 3007      524B5373 
 3007      00
 3008 1a14 E9450000 		.long	0x45e9
 3009 1a18 01       		.byte	0x1
 3010 1a19 211A0000 		.long	0x1a21
 3011 1a1d 2C1A0000 		.long	0x1a2c
 3012 1a21 04       		.uleb128 0x4
 3013 1a22 D1450000 		.long	0x45d1
 3014 1a26 13       		.uleb128 0x13
 3015 1a27 E3450000 		.long	0x45e3
 3016 1a2b 00       		.byte	0
 3017 1a2c 31       		.uleb128 0x31
 3018 1a2d E1000000 		.secrel32	LASF13
 3019 1a31 0C       		.byte	0xc
 3020 1a32 BE03     		.word	0x3be
 3021 1a34 5F5A4E53 		.ascii "_ZNSspLEPKc\0"
 3021      73704C45 
 3021      504B6300 
 3022 1a40 E9450000 		.long	0x45e9
 3023 1a44 01       		.byte	0x1
 3024 1a45 4D1A0000 		.long	0x1a4d
 3025 1a49 581A0000 		.long	0x1a58
 3026 1a4d 04       		.uleb128 0x4
 3027 1a4e D1450000 		.long	0x45d1
 3028 1a52 13       		.uleb128 0x13
 3029 1a53 A5370000 		.long	0x37a5
 3030 1a57 00       		.byte	0
 3031 1a58 31       		.uleb128 0x31
 3032 1a59 E1000000 		.secrel32	LASF13
 3033 1a5d 0C       		.byte	0xc
 3034 1a5e C703     		.word	0x3c7
 3035 1a60 5F5A4E53 		.ascii "_ZNSspLEc\0"
 3035      73704C45 
 3035      6300
 3036 1a6a E9450000 		.long	0x45e9
 3037 1a6e 01       		.byte	0x1
 3038 1a6f 771A0000 		.long	0x1a77
 3039 1a73 821A0000 		.long	0x1a82
 3040 1a77 04       		.uleb128 0x4
 3041 1a78 D1450000 		.long	0x45d1
 3042 1a7c 13       		.uleb128 0x13
 3043 1a7d 97020000 		.long	0x297
 3044 1a81 00       		.byte	0
 3045 1a82 31       		.uleb128 0x31
 3046 1a83 11010000 		.secrel32	LASF14
 3047 1a87 0D       		.byte	0xd
 3048 1a88 4401     		.word	0x144
 3049 1a8a 5F5A4E53 		.ascii "_ZNSs6appendERKSs\0"
 3049      73366170 
 3049      70656E64 
 3049      45524B53 
 3049      7300
 3050 1a9c E9450000 		.long	0x45e9
 3051 1aa0 01       		.byte	0x1
 3052 1aa1 A91A0000 		.long	0x1aa9
GAS LISTING C:\Users\NJLLMR~1\AppData\Local\Temp\cc5gZH1j.s 			page 76


 3053 1aa5 B41A0000 		.long	0x1ab4
 3054 1aa9 04       		.uleb128 0x4
 3055 1aaa D1450000 		.long	0x45d1
 3056 1aae 13       		.uleb128 0x13
 3057 1aaf E3450000 		.long	0x45e3
 3058 1ab3 00       		.byte	0
 3059 1ab4 31       		.uleb128 0x31
 3060 1ab5 11010000 		.secrel32	LASF14
 3061 1ab9 0D       		.byte	0xd
 3062 1aba 5501     		.word	0x155
 3063 1abc 5F5A4E53 		.ascii "_ZNSs6appendERKSsjj\0"
 3063      73366170 
 3063      70656E64 
 3063      45524B53 
 3063      736A6A00 
 3064 1ad0 E9450000 		.long	0x45e9
 3065 1ad4 01       		.byte	0x1
 3066 1ad5 DD1A0000 		.long	0x1add
 3067 1ad9 F21A0000 		.long	0x1af2
 3068 1add 04       		.uleb128 0x4
 3069 1ade D1450000 		.long	0x45d1
 3070 1ae2 13       		.uleb128 0x13
 3071 1ae3 E3450000 		.long	0x45e3
 3072 1ae7 13       		.uleb128 0x13
 3073 1ae8 5D0B0000 		.long	0xb5d
 3074 1aec 13       		.uleb128 0x13
 3075 1aed 5D0B0000 		.long	0xb5d
 3076 1af1 00       		.byte	0
 3077 1af2 31       		.uleb128 0x31
 3078 1af3 11010000 		.secrel32	LASF14
 3079 1af7 0D       		.byte	0xd
 3080 1af8 2901     		.word	0x129
 3081 1afa 5F5A4E53 		.ascii "_ZNSs6appendEPKcj\0"
 3081      73366170 
 3081      70656E64 
 3081      45504B63 
 3081      6A00
 3082 1b0c E9450000 		.long	0x45e9
 3083 1b10 01       		.byte	0x1
 3084 1b11 191B0000 		.long	0x1b19
 3085 1b15 291B0000 		.long	0x1b29
 3086 1b19 04       		.uleb128 0x4
 3087 1b1a D1450000 		.long	0x45d1
 3088 1b1e 13       		.uleb128 0x13
 3089 1b1f A5370000 		.long	0x37a5
 3090 1b23 13       		.uleb128 0x13
 3091 1b24 5D0B0000 		.long	0xb5d
 3092 1b28 00       		.byte	0
 3093 1b29 31       		.uleb128 0x31
 3094 1b2a 11010000 		.secrel32	LASF14
 3095 1b2e 0C       		.byte	0xc
 3096 1b2f FF03     		.word	0x3ff
 3097 1b31 5F5A4E53 		.ascii "_ZNSs6appendEPKc\0"
 3097      73366170 
 3097      70656E64 
 3097      45504B63 
 3097      00
GAS LISTING C:\Users\NJLLMR~1\AppData\Local\Temp\cc5gZH1j.s 			page 77


 3098 1b42 E9450000 		.long	0x45e9
 3099 1b46 01       		.byte	0x1
 3100 1b47 4F1B0000 		.long	0x1b4f
 3101 1b4b 5A1B0000 		.long	0x1b5a
 3102 1b4f 04       		.uleb128 0x4
 3103 1b50 D1450000 		.long	0x45d1
 3104 1b54 13       		.uleb128 0x13
 3105 1b55 A5370000 		.long	0x37a5
 3106 1b59 00       		.byte	0
 3107 1b5a 31       		.uleb128 0x31
 3108 1b5b 11010000 		.secrel32	LASF14
 3109 1b5f 0D       		.byte	0xd
 3110 1b60 1801     		.word	0x118
 3111 1b62 5F5A4E53 		.ascii "_ZNSs6appendEjc\0"
 3111      73366170 
 3111      70656E64 
 3111      456A6300 
 3112 1b72 E9450000 		.long	0x45e9
 3113 1b76 01       		.byte	0x1
 3114 1b77 7F1B0000 		.long	0x1b7f
 3115 1b7b 8F1B0000 		.long	0x1b8f
 3116 1b7f 04       		.uleb128 0x4
 3117 1b80 D1450000 		.long	0x45d1
 3118 1b84 13       		.uleb128 0x13
 3119 1b85 5D0B0000 		.long	0xb5d
 3120 1b89 13       		.uleb128 0x13
 3121 1b8a 97020000 		.long	0x297
 3122 1b8e 00       		.byte	0
 3123 1b8f 33       		.uleb128 0x33
 3124 1b90 70757368 		.ascii "push_back\0"
 3124      5F626163 
 3124      6B00
 3125 1b9a 0C       		.byte	0xc
 3126 1b9b 2D04     		.word	0x42d
 3127 1b9d 5F5A4E53 		.ascii "_ZNSs9push_backEc\0"
 3127      73397075 
 3127      73685F62 
 3127      61636B45 
 3127      6300
 3128 1baf 01       		.byte	0x1
 3129 1bb0 B81B0000 		.long	0x1bb8
 3130 1bb4 C31B0000 		.long	0x1bc3
 3131 1bb8 04       		.uleb128 0x4
 3132 1bb9 D1450000 		.long	0x45d1
 3133 1bbd 13       		.uleb128 0x13
 3134 1bbe 97020000 		.long	0x297
 3135 1bc2 00       		.byte	0
 3136 1bc3 34       		.uleb128 0x34
 3137 1bc4 37010000 		.secrel32	LASF1
 3138 1bc8 0D       		.byte	0xd
 3139 1bc9 F2       		.byte	0xf2
 3140 1bca 5F5A4E53 		.ascii "_ZNSs6assignERKSs\0"
 3140      73366173 
 3140      7369676E 
 3140      45524B53 
 3140      7300
 3141 1bdc E9450000 		.long	0x45e9
GAS LISTING C:\Users\NJLLMR~1\AppData\Local\Temp\cc5gZH1j.s 			page 78


 3142 1be0 01       		.byte	0x1
 3143 1be1 E91B0000 		.long	0x1be9
 3144 1be5 F41B0000 		.long	0x1bf4
 3145 1be9 04       		.uleb128 0x4
 3146 1bea D1450000 		.long	0x45d1
 3147 1bee 13       		.uleb128 0x13
 3148 1bef E3450000 		.long	0x45e3
 3149 1bf3 00       		.byte	0
 3150 1bf4 31       		.uleb128 0x31
 3151 1bf5 37010000 		.secrel32	LASF1
 3152 1bf9 0C       		.byte	0xc
 3153 1bfa 5E04     		.word	0x45e
 3154 1bfc 5F5A4E53 		.ascii "_ZNSs6assignERKSsjj\0"
 3154      73366173 
 3154      7369676E 
 3154      45524B53 
 3154      736A6A00 
 3155 1c10 E9450000 		.long	0x45e9
 3156 1c14 01       		.byte	0x1
 3157 1c15 1D1C0000 		.long	0x1c1d
 3158 1c19 321C0000 		.long	0x1c32
 3159 1c1d 04       		.uleb128 0x4
 3160 1c1e D1450000 		.long	0x45d1
 3161 1c22 13       		.uleb128 0x13
 3162 1c23 E3450000 		.long	0x45e3
 3163 1c27 13       		.uleb128 0x13
 3164 1c28 5D0B0000 		.long	0xb5d
 3165 1c2c 13       		.uleb128 0x13
 3166 1c2d 5D0B0000 		.long	0xb5d
 3167 1c31 00       		.byte	0
 3168 1c32 31       		.uleb128 0x31
 3169 1c33 37010000 		.secrel32	LASF1
 3170 1c37 0D       		.byte	0xd
 3171 1c38 0201     		.word	0x102
 3172 1c3a 5F5A4E53 		.ascii "_ZNSs6assignEPKcj\0"
 3172      73366173 
 3172      7369676E 
 3172      45504B63 
 3172      6A00
 3173 1c4c E9450000 		.long	0x45e9
 3174 1c50 01       		.byte	0x1
 3175 1c51 591C0000 		.long	0x1c59
 3176 1c55 691C0000 		.long	0x1c69
 3177 1c59 04       		.uleb128 0x4
 3178 1c5a D1450000 		.long	0x45d1
 3179 1c5e 13       		.uleb128 0x13
 3180 1c5f A5370000 		.long	0x37a5
 3181 1c63 13       		.uleb128 0x13
 3182 1c64 5D0B0000 		.long	0xb5d
 3183 1c68 00       		.byte	0
 3184 1c69 31       		.uleb128 0x31
 3185 1c6a 37010000 		.secrel32	LASF1
 3186 1c6e 0C       		.byte	0xc
 3187 1c6f 7A04     		.word	0x47a
 3188 1c71 5F5A4E53 		.ascii "_ZNSs6assignEPKc\0"
 3188      73366173 
 3188      7369676E 
GAS LISTING C:\Users\NJLLMR~1\AppData\Local\Temp\cc5gZH1j.s 			page 79


 3188      45504B63 
 3188      00
 3189 1c82 E9450000 		.long	0x45e9
 3190 1c86 01       		.byte	0x1
 3191 1c87 8F1C0000 		.long	0x1c8f
 3192 1c8b 9A1C0000 		.long	0x1c9a
 3193 1c8f 04       		.uleb128 0x4
 3194 1c90 D1450000 		.long	0x45d1
 3195 1c94 13       		.uleb128 0x13
 3196 1c95 A5370000 		.long	0x37a5
 3197 1c99 00       		.byte	0
 3198 1c9a 31       		.uleb128 0x31
 3199 1c9b 37010000 		.secrel32	LASF1
 3200 1c9f 0C       		.byte	0xc
 3201 1ca0 8A04     		.word	0x48a
 3202 1ca2 5F5A4E53 		.ascii "_ZNSs6assignEjc\0"
 3202      73366173 
 3202      7369676E 
 3202      456A6300 
 3203 1cb2 E9450000 		.long	0x45e9
 3204 1cb6 01       		.byte	0x1
 3205 1cb7 BF1C0000 		.long	0x1cbf
 3206 1cbb CF1C0000 		.long	0x1ccf
 3207 1cbf 04       		.uleb128 0x4
 3208 1cc0 D1450000 		.long	0x45d1
 3209 1cc4 13       		.uleb128 0x13
 3210 1cc5 5D0B0000 		.long	0xb5d
 3211 1cc9 13       		.uleb128 0x13
 3212 1cca 97020000 		.long	0x297
 3213 1cce 00       		.byte	0
 3214 1ccf 35       		.uleb128 0x35
 3215 1cd0 EC000000 		.secrel32	LASF15
 3216 1cd4 0C       		.byte	0xc
 3217 1cd5 B304     		.word	0x4b3
 3218 1cd7 5F5A4E53 		.ascii "_ZNSs6insertEN9__gnu_cxx17__normal_iteratorIPcSsEEjc\0"
 3218      7336696E 
 3218      73657274 
 3218      454E395F 
 3218      5F676E75 
 3219 1d0c 01       		.byte	0x1
 3220 1d0d 151D0000 		.long	0x1d15
 3221 1d11 2A1D0000 		.long	0x1d2a
 3222 1d15 04       		.uleb128 0x4
 3223 1d16 D1450000 		.long	0x45d1
 3224 1d1a 13       		.uleb128 0x13
 3225 1d1b C00B0000 		.long	0xbc0
 3226 1d1f 13       		.uleb128 0x13
 3227 1d20 5D0B0000 		.long	0xb5d
 3228 1d24 13       		.uleb128 0x13
 3229 1d25 97020000 		.long	0x297
 3230 1d29 00       		.byte	0
 3231 1d2a 31       		.uleb128 0x31
 3232 1d2b EC000000 		.secrel32	LASF15
 3233 1d2f 0C       		.byte	0xc
 3234 1d30 E304     		.word	0x4e3
 3235 1d32 5F5A4E53 		.ascii "_ZNSs6insertEjRKSs\0"
 3235      7336696E 
GAS LISTING C:\Users\NJLLMR~1\AppData\Local\Temp\cc5gZH1j.s 			page 80


 3235      73657274 
 3235      456A524B 
 3235      537300
 3236 1d45 E9450000 		.long	0x45e9
 3237 1d49 01       		.byte	0x1
 3238 1d4a 521D0000 		.long	0x1d52
 3239 1d4e 621D0000 		.long	0x1d62
 3240 1d52 04       		.uleb128 0x4
 3241 1d53 D1450000 		.long	0x45d1
 3242 1d57 13       		.uleb128 0x13
 3243 1d58 5D0B0000 		.long	0xb5d
 3244 1d5c 13       		.uleb128 0x13
 3245 1d5d E3450000 		.long	0x45e3
 3246 1d61 00       		.byte	0
 3247 1d62 31       		.uleb128 0x31
 3248 1d63 EC000000 		.secrel32	LASF15
 3249 1d67 0C       		.byte	0xc
 3250 1d68 F904     		.word	0x4f9
 3251 1d6a 5F5A4E53 		.ascii "_ZNSs6insertEjRKSsjj\0"
 3251      7336696E 
 3251      73657274 
 3251      456A524B 
 3251      53736A6A 
 3252 1d7f E9450000 		.long	0x45e9
 3253 1d83 01       		.byte	0x1
 3254 1d84 8C1D0000 		.long	0x1d8c
 3255 1d88 A61D0000 		.long	0x1da6
 3256 1d8c 04       		.uleb128 0x4
 3257 1d8d D1450000 		.long	0x45d1
 3258 1d91 13       		.uleb128 0x13
 3259 1d92 5D0B0000 		.long	0xb5d
 3260 1d96 13       		.uleb128 0x13
 3261 1d97 E3450000 		.long	0x45e3
 3262 1d9b 13       		.uleb128 0x13
 3263 1d9c 5D0B0000 		.long	0xb5d
 3264 1da0 13       		.uleb128 0x13
 3265 1da1 5D0B0000 		.long	0xb5d
 3266 1da5 00       		.byte	0
 3267 1da6 31       		.uleb128 0x31
 3268 1da7 EC000000 		.secrel32	LASF15
 3269 1dab 0D       		.byte	0xd
 3270 1dac 6701     		.word	0x167
 3271 1dae 5F5A4E53 		.ascii "_ZNSs6insertEjPKcj\0"
 3271      7336696E 
 3271      73657274 
 3271      456A504B 
 3271      636A00
 3272 1dc1 E9450000 		.long	0x45e9
 3273 1dc5 01       		.byte	0x1
 3274 1dc6 CE1D0000 		.long	0x1dce
 3275 1dca E31D0000 		.long	0x1de3
 3276 1dce 04       		.uleb128 0x4
 3277 1dcf D1450000 		.long	0x45d1
 3278 1dd3 13       		.uleb128 0x13
 3279 1dd4 5D0B0000 		.long	0xb5d
 3280 1dd8 13       		.uleb128 0x13
 3281 1dd9 A5370000 		.long	0x37a5
GAS LISTING C:\Users\NJLLMR~1\AppData\Local\Temp\cc5gZH1j.s 			page 81


 3282 1ddd 13       		.uleb128 0x13
 3283 1dde 5D0B0000 		.long	0xb5d
 3284 1de2 00       		.byte	0
 3285 1de3 31       		.uleb128 0x31
 3286 1de4 EC000000 		.secrel32	LASF15
 3287 1de8 0C       		.byte	0xc
 3288 1de9 2205     		.word	0x522
 3289 1deb 5F5A4E53 		.ascii "_ZNSs6insertEjPKc\0"
 3289      7336696E 
 3289      73657274 
 3289      456A504B 
 3289      6300
 3290 1dfd E9450000 		.long	0x45e9
 3291 1e01 01       		.byte	0x1
 3292 1e02 0A1E0000 		.long	0x1e0a
 3293 1e06 1A1E0000 		.long	0x1e1a
 3294 1e0a 04       		.uleb128 0x4
 3295 1e0b D1450000 		.long	0x45d1
 3296 1e0f 13       		.uleb128 0x13
 3297 1e10 5D0B0000 		.long	0xb5d
 3298 1e14 13       		.uleb128 0x13
 3299 1e15 A5370000 		.long	0x37a5
 3300 1e19 00       		.byte	0
 3301 1e1a 31       		.uleb128 0x31
 3302 1e1b EC000000 		.secrel32	LASF15
 3303 1e1f 0C       		.byte	0xc
 3304 1e20 3905     		.word	0x539
 3305 1e22 5F5A4E53 		.ascii "_ZNSs6insertEjjc\0"
 3305      7336696E 
 3305      73657274 
 3305      456A6A63 
 3305      00
 3306 1e33 E9450000 		.long	0x45e9
 3307 1e37 01       		.byte	0x1
 3308 1e38 401E0000 		.long	0x1e40
 3309 1e3c 551E0000 		.long	0x1e55
 3310 1e40 04       		.uleb128 0x4
 3311 1e41 D1450000 		.long	0x45d1
 3312 1e45 13       		.uleb128 0x13
 3313 1e46 5D0B0000 		.long	0xb5d
 3314 1e4a 13       		.uleb128 0x13
 3315 1e4b 5D0B0000 		.long	0xb5d
 3316 1e4f 13       		.uleb128 0x13
 3317 1e50 97020000 		.long	0x297
 3318 1e54 00       		.byte	0
 3319 1e55 31       		.uleb128 0x31
 3320 1e56 EC000000 		.secrel32	LASF15
 3321 1e5a 0C       		.byte	0xc
 3322 1e5b 4B05     		.word	0x54b
 3323 1e5d 5F5A4E53 		.ascii "_ZNSs6insertEN9__gnu_cxx17__normal_iteratorIPcSsEEc\0"
 3323      7336696E 
 3323      73657274 
 3323      454E395F 
 3323      5F676E75 
 3324 1e91 C00B0000 		.long	0xbc0
 3325 1e95 01       		.byte	0x1
 3326 1e96 9E1E0000 		.long	0x1e9e
GAS LISTING C:\Users\NJLLMR~1\AppData\Local\Temp\cc5gZH1j.s 			page 82


 3327 1e9a AE1E0000 		.long	0x1eae
 3328 1e9e 04       		.uleb128 0x4
 3329 1e9f D1450000 		.long	0x45d1
 3330 1ea3 13       		.uleb128 0x13
 3331 1ea4 C00B0000 		.long	0xbc0
 3332 1ea8 13       		.uleb128 0x13
 3333 1ea9 97020000 		.long	0x297
 3334 1ead 00       		.byte	0
 3335 1eae 32       		.uleb128 0x32
 3336 1eaf 65726173 		.ascii "erase\0"
 3336      6500
 3337 1eb5 0C       		.byte	0xc
 3338 1eb6 6405     		.word	0x564
 3339 1eb8 5F5A4E53 		.ascii "_ZNSs5eraseEjj\0"
 3339      73356572 
 3339      61736545 
 3339      6A6A00
 3340 1ec7 E9450000 		.long	0x45e9
 3341 1ecb 01       		.byte	0x1
 3342 1ecc D41E0000 		.long	0x1ed4
 3343 1ed0 E41E0000 		.long	0x1ee4
 3344 1ed4 04       		.uleb128 0x4
 3345 1ed5 D1450000 		.long	0x45d1
 3346 1ed9 13       		.uleb128 0x13
 3347 1eda 5D0B0000 		.long	0xb5d
 3348 1ede 13       		.uleb128 0x13
 3349 1edf 5D0B0000 		.long	0xb5d
 3350 1ee3 00       		.byte	0
 3351 1ee4 32       		.uleb128 0x32
 3352 1ee5 65726173 		.ascii "erase\0"
 3352      6500
 3353 1eeb 0C       		.byte	0xc
 3354 1eec 7405     		.word	0x574
 3355 1eee 5F5A4E53 		.ascii "_ZNSs5eraseEN9__gnu_cxx17__normal_iteratorIPcSsEE\0"
 3355      73356572 
 3355      61736545 
 3355      4E395F5F 
 3355      676E755F 
 3356 1f20 C00B0000 		.long	0xbc0
 3357 1f24 01       		.byte	0x1
 3358 1f25 2D1F0000 		.long	0x1f2d
 3359 1f29 381F0000 		.long	0x1f38
 3360 1f2d 04       		.uleb128 0x4
 3361 1f2e D1450000 		.long	0x45d1
 3362 1f32 13       		.uleb128 0x13
 3363 1f33 C00B0000 		.long	0xbc0
 3364 1f37 00       		.byte	0
 3365 1f38 32       		.uleb128 0x32
 3366 1f39 65726173 		.ascii "erase\0"
 3366      6500
 3367 1f3f 0D       		.byte	0xd
 3368 1f40 8601     		.word	0x186
 3369 1f42 5F5A4E53 		.ascii "_ZNSs5eraseEN9__gnu_cxx17__normal_iteratorIPcSsEES2_\0"
 3369      73356572 
 3369      61736545 
 3369      4E395F5F 
 3369      676E755F 
GAS LISTING C:\Users\NJLLMR~1\AppData\Local\Temp\cc5gZH1j.s 			page 83


 3370 1f77 C00B0000 		.long	0xbc0
 3371 1f7b 01       		.byte	0x1
 3372 1f7c 841F0000 		.long	0x1f84
 3373 1f80 941F0000 		.long	0x1f94
 3374 1f84 04       		.uleb128 0x4
 3375 1f85 D1450000 		.long	0x45d1
 3376 1f89 13       		.uleb128 0x13
 3377 1f8a C00B0000 		.long	0xbc0
 3378 1f8e 13       		.uleb128 0x13
 3379 1f8f C00B0000 		.long	0xbc0
 3380 1f93 00       		.byte	0
 3381 1f94 31       		.uleb128 0x31
 3382 1f95 00000000 		.secrel32	LASF16
 3383 1f99 0C       		.byte	0xc
 3384 1f9a A705     		.word	0x5a7
 3385 1f9c 5F5A4E53 		.ascii "_ZNSs7replaceEjjRKSs\0"
 3385      73377265 
 3385      706C6163 
 3385      65456A6A 
 3385      524B5373 
 3386 1fb1 E9450000 		.long	0x45e9
 3387 1fb5 01       		.byte	0x1
 3388 1fb6 BE1F0000 		.long	0x1fbe
 3389 1fba D31F0000 		.long	0x1fd3
 3390 1fbe 04       		.uleb128 0x4
 3391 1fbf D1450000 		.long	0x45d1
 3392 1fc3 13       		.uleb128 0x13
 3393 1fc4 5D0B0000 		.long	0xb5d
 3394 1fc8 13       		.uleb128 0x13
 3395 1fc9 5D0B0000 		.long	0xb5d
 3396 1fcd 13       		.uleb128 0x13
 3397 1fce E3450000 		.long	0x45e3
 3398 1fd2 00       		.byte	0
 3399 1fd3 31       		.uleb128 0x31
 3400 1fd4 00000000 		.secrel32	LASF16
 3401 1fd8 0C       		.byte	0xc
 3402 1fd9 BD05     		.word	0x5bd
 3403 1fdb 5F5A4E53 		.ascii "_ZNSs7replaceEjjRKSsjj\0"
 3403      73377265 
 3403      706C6163 
 3403      65456A6A 
 3403      524B5373 
 3404 1ff2 E9450000 		.long	0x45e9
 3405 1ff6 01       		.byte	0x1
 3406 1ff7 FF1F0000 		.long	0x1fff
 3407 1ffb 1E200000 		.long	0x201e
 3408 1fff 04       		.uleb128 0x4
 3409 2000 D1450000 		.long	0x45d1
 3410 2004 13       		.uleb128 0x13
 3411 2005 5D0B0000 		.long	0xb5d
 3412 2009 13       		.uleb128 0x13
 3413 200a 5D0B0000 		.long	0xb5d
 3414 200e 13       		.uleb128 0x13
 3415 200f E3450000 		.long	0x45e3
 3416 2013 13       		.uleb128 0x13
 3417 2014 5D0B0000 		.long	0xb5d
 3418 2018 13       		.uleb128 0x13
GAS LISTING C:\Users\NJLLMR~1\AppData\Local\Temp\cc5gZH1j.s 			page 84


 3419 2019 5D0B0000 		.long	0xb5d
 3420 201d 00       		.byte	0
 3421 201e 31       		.uleb128 0x31
 3422 201f 00000000 		.secrel32	LASF16
 3423 2023 0D       		.byte	0xd
 3424 2024 9D01     		.word	0x19d
 3425 2026 5F5A4E53 		.ascii "_ZNSs7replaceEjjPKcj\0"
 3425      73377265 
 3425      706C6163 
 3425      65456A6A 
 3425      504B636A 
 3426 203b E9450000 		.long	0x45e9
 3427 203f 01       		.byte	0x1
 3428 2040 48200000 		.long	0x2048
 3429 2044 62200000 		.long	0x2062
 3430 2048 04       		.uleb128 0x4
 3431 2049 D1450000 		.long	0x45d1
 3432 204d 13       		.uleb128 0x13
 3433 204e 5D0B0000 		.long	0xb5d
 3434 2052 13       		.uleb128 0x13
 3435 2053 5D0B0000 		.long	0xb5d
 3436 2057 13       		.uleb128 0x13
 3437 2058 A5370000 		.long	0x37a5
 3438 205c 13       		.uleb128 0x13
 3439 205d 5D0B0000 		.long	0xb5d
 3440 2061 00       		.byte	0
 3441 2062 31       		.uleb128 0x31
 3442 2063 00000000 		.secrel32	LASF16
 3443 2067 0C       		.byte	0xc
 3444 2068 EA05     		.word	0x5ea
 3445 206a 5F5A4E53 		.ascii "_ZNSs7replaceEjjPKc\0"
 3445      73377265 
 3445      706C6163 
 3445      65456A6A 
 3445      504B6300 
 3446 207e E9450000 		.long	0x45e9
 3447 2082 01       		.byte	0x1
 3448 2083 8B200000 		.long	0x208b
 3449 2087 A0200000 		.long	0x20a0
 3450 208b 04       		.uleb128 0x4
 3451 208c D1450000 		.long	0x45d1
 3452 2090 13       		.uleb128 0x13
 3453 2091 5D0B0000 		.long	0xb5d
 3454 2095 13       		.uleb128 0x13
 3455 2096 5D0B0000 		.long	0xb5d
 3456 209a 13       		.uleb128 0x13
 3457 209b A5370000 		.long	0x37a5
 3458 209f 00       		.byte	0
 3459 20a0 31       		.uleb128 0x31
 3460 20a1 00000000 		.secrel32	LASF16
 3461 20a5 0C       		.byte	0xc
 3462 20a6 0206     		.word	0x602
 3463 20a8 5F5A4E53 		.ascii "_ZNSs7replaceEjjjc\0"
 3463      73377265 
 3463      706C6163 
 3463      65456A6A 
 3463      6A6300
GAS LISTING C:\Users\NJLLMR~1\AppData\Local\Temp\cc5gZH1j.s 			page 85


 3464 20bb E9450000 		.long	0x45e9
 3465 20bf 01       		.byte	0x1
 3466 20c0 C8200000 		.long	0x20c8
 3467 20c4 E2200000 		.long	0x20e2
 3468 20c8 04       		.uleb128 0x4
 3469 20c9 D1450000 		.long	0x45d1
 3470 20cd 13       		.uleb128 0x13
 3471 20ce 5D0B0000 		.long	0xb5d
 3472 20d2 13       		.uleb128 0x13
 3473 20d3 5D0B0000 		.long	0xb5d
 3474 20d7 13       		.uleb128 0x13
 3475 20d8 5D0B0000 		.long	0xb5d
 3476 20dc 13       		.uleb128 0x13
 3477 20dd 97020000 		.long	0x297
 3478 20e1 00       		.byte	0
 3479 20e2 31       		.uleb128 0x31
 3480 20e3 00000000 		.secrel32	LASF16
 3481 20e7 0C       		.byte	0xc
 3482 20e8 1406     		.word	0x614
 3483 20ea 5F5A4E53 		.ascii "_ZNSs7replaceEN9__gnu_cxx17__normal_iteratorIPcSsEES2_RKSs\0"
 3483      73377265 
 3483      706C6163 
 3483      65454E39 
 3483      5F5F676E 
 3484 2125 E9450000 		.long	0x45e9
 3485 2129 01       		.byte	0x1
 3486 212a 32210000 		.long	0x2132
 3487 212e 47210000 		.long	0x2147
 3488 2132 04       		.uleb128 0x4
 3489 2133 D1450000 		.long	0x45d1
 3490 2137 13       		.uleb128 0x13
 3491 2138 C00B0000 		.long	0xbc0
 3492 213c 13       		.uleb128 0x13
 3493 213d C00B0000 		.long	0xbc0
 3494 2141 13       		.uleb128 0x13
 3495 2142 E3450000 		.long	0x45e3
 3496 2146 00       		.byte	0
 3497 2147 31       		.uleb128 0x31
 3498 2148 00000000 		.secrel32	LASF16
 3499 214c 0C       		.byte	0xc
 3500 214d 2706     		.word	0x627
 3501 214f 5F5A4E53 		.ascii "_ZNSs7replaceEN9__gnu_cxx17__normal_iteratorIPcSsEES2_PKcj\0"
 3501      73377265 
 3501      706C6163 
 3501      65454E39 
 3501      5F5F676E 
 3502 218a E9450000 		.long	0x45e9
 3503 218e 01       		.byte	0x1
 3504 218f 97210000 		.long	0x2197
 3505 2193 B1210000 		.long	0x21b1
 3506 2197 04       		.uleb128 0x4
 3507 2198 D1450000 		.long	0x45d1
 3508 219c 13       		.uleb128 0x13
 3509 219d C00B0000 		.long	0xbc0
 3510 21a1 13       		.uleb128 0x13
 3511 21a2 C00B0000 		.long	0xbc0
 3512 21a6 13       		.uleb128 0x13
GAS LISTING C:\Users\NJLLMR~1\AppData\Local\Temp\cc5gZH1j.s 			page 86


 3513 21a7 A5370000 		.long	0x37a5
 3514 21ab 13       		.uleb128 0x13
 3515 21ac 5D0B0000 		.long	0xb5d
 3516 21b0 00       		.byte	0
 3517 21b1 31       		.uleb128 0x31
 3518 21b2 00000000 		.secrel32	LASF16
 3519 21b6 0C       		.byte	0xc
 3520 21b7 3C06     		.word	0x63c
 3521 21b9 5F5A4E53 		.ascii "_ZNSs7replaceEN9__gnu_cxx17__normal_iteratorIPcSsEES2_PKc\0"
 3521      73377265 
 3521      706C6163 
 3521      65454E39 
 3521      5F5F676E 
 3522 21f3 E9450000 		.long	0x45e9
 3523 21f7 01       		.byte	0x1
 3524 21f8 00220000 		.long	0x2200
 3525 21fc 15220000 		.long	0x2215
 3526 2200 04       		.uleb128 0x4
 3527 2201 D1450000 		.long	0x45d1
 3528 2205 13       		.uleb128 0x13
 3529 2206 C00B0000 		.long	0xbc0
 3530 220a 13       		.uleb128 0x13
 3531 220b C00B0000 		.long	0xbc0
 3532 220f 13       		.uleb128 0x13
 3533 2210 A5370000 		.long	0x37a5
 3534 2214 00       		.byte	0
 3535 2215 31       		.uleb128 0x31
 3536 2216 00000000 		.secrel32	LASF16
 3537 221a 0C       		.byte	0xc
 3538 221b 5106     		.word	0x651
 3539 221d 5F5A4E53 		.ascii "_ZNSs7replaceEN9__gnu_cxx17__normal_iteratorIPcSsEES2_jc\0"
 3539      73377265 
 3539      706C6163 
 3539      65454E39 
 3539      5F5F676E 
 3540 2256 E9450000 		.long	0x45e9
 3541 225a 01       		.byte	0x1
 3542 225b 63220000 		.long	0x2263
 3543 225f 7D220000 		.long	0x227d
 3544 2263 04       		.uleb128 0x4
 3545 2264 D1450000 		.long	0x45d1
 3546 2268 13       		.uleb128 0x13
 3547 2269 C00B0000 		.long	0xbc0
 3548 226d 13       		.uleb128 0x13
 3549 226e C00B0000 		.long	0xbc0
 3550 2272 13       		.uleb128 0x13
 3551 2273 5D0B0000 		.long	0xb5d
 3552 2277 13       		.uleb128 0x13
 3553 2278 97020000 		.long	0x297
 3554 227c 00       		.byte	0
 3555 227d 31       		.uleb128 0x31
 3556 227e 00000000 		.secrel32	LASF16
 3557 2282 0C       		.byte	0xc
 3558 2283 7606     		.word	0x676
 3559 2285 5F5A4E53 		.ascii "_ZNSs7replaceEN9__gnu_cxx17__normal_iteratorIPcSsEES2_S1_S1_\0"
 3559      73377265 
 3559      706C6163 
GAS LISTING C:\Users\NJLLMR~1\AppData\Local\Temp\cc5gZH1j.s 			page 87


 3559      65454E39 
 3559      5F5F676E 
 3560 22c2 E9450000 		.long	0x45e9
 3561 22c6 01       		.byte	0x1
 3562 22c7 CF220000 		.long	0x22cf
 3563 22cb E9220000 		.long	0x22e9
 3564 22cf 04       		.uleb128 0x4
 3565 22d0 D1450000 		.long	0x45d1
 3566 22d4 13       		.uleb128 0x13
 3567 22d5 C00B0000 		.long	0xbc0
 3568 22d9 13       		.uleb128 0x13
 3569 22da C00B0000 		.long	0xbc0
 3570 22de 13       		.uleb128 0x13
 3571 22df 83030000 		.long	0x383
 3572 22e3 13       		.uleb128 0x13
 3573 22e4 83030000 		.long	0x383
 3574 22e8 00       		.byte	0
 3575 22e9 31       		.uleb128 0x31
 3576 22ea 00000000 		.secrel32	LASF16
 3577 22ee 0C       		.byte	0xc
 3578 22ef 8006     		.word	0x680
 3579 22f1 5F5A4E53 		.ascii "_ZNSs7replaceEN9__gnu_cxx17__normal_iteratorIPcSsEES2_PKcS4_\0"
 3579      73377265 
 3579      706C6163 
 3579      65454E39 
 3579      5F5F676E 
 3580 232e E9450000 		.long	0x45e9
 3581 2332 01       		.byte	0x1
 3582 2333 3B230000 		.long	0x233b
 3583 2337 55230000 		.long	0x2355
 3584 233b 04       		.uleb128 0x4
 3585 233c D1450000 		.long	0x45d1
 3586 2340 13       		.uleb128 0x13
 3587 2341 C00B0000 		.long	0xbc0
 3588 2345 13       		.uleb128 0x13
 3589 2346 C00B0000 		.long	0xbc0
 3590 234a 13       		.uleb128 0x13
 3591 234b A5370000 		.long	0x37a5
 3592 234f 13       		.uleb128 0x13
 3593 2350 A5370000 		.long	0x37a5
 3594 2354 00       		.byte	0
 3595 2355 31       		.uleb128 0x31
 3596 2356 00000000 		.secrel32	LASF16
 3597 235a 0C       		.byte	0xc
 3598 235b 8B06     		.word	0x68b
 3599 235d 5F5A4E53 		.ascii "_ZNSs7replaceEN9__gnu_cxx17__normal_iteratorIPcSsEES2_S2_S2_\0"
 3599      73377265 
 3599      706C6163 
 3599      65454E39 
 3599      5F5F676E 
 3600 239a E9450000 		.long	0x45e9
 3601 239e 01       		.byte	0x1
 3602 239f A7230000 		.long	0x23a7
 3603 23a3 C1230000 		.long	0x23c1
 3604 23a7 04       		.uleb128 0x4
 3605 23a8 D1450000 		.long	0x45d1
 3606 23ac 13       		.uleb128 0x13
GAS LISTING C:\Users\NJLLMR~1\AppData\Local\Temp\cc5gZH1j.s 			page 88


 3607 23ad C00B0000 		.long	0xbc0
 3608 23b1 13       		.uleb128 0x13
 3609 23b2 C00B0000 		.long	0xbc0
 3610 23b6 13       		.uleb128 0x13
 3611 23b7 C00B0000 		.long	0xbc0
 3612 23bb 13       		.uleb128 0x13
 3613 23bc C00B0000 		.long	0xbc0
 3614 23c0 00       		.byte	0
 3615 23c1 31       		.uleb128 0x31
 3616 23c2 00000000 		.secrel32	LASF16
 3617 23c6 0C       		.byte	0xc
 3618 23c7 9506     		.word	0x695
 3619 23c9 5F5A4E53 		.ascii "_ZNSs7replaceEN9__gnu_cxx17__normal_iteratorIPcSsEES2_NS0_IPKcSsEES5_\0"
 3619      73377265 
 3619      706C6163 
 3619      65454E39 
 3619      5F5F676E 
 3620 240f E9450000 		.long	0x45e9
 3621 2413 01       		.byte	0x1
 3622 2414 1C240000 		.long	0x241c
 3623 2418 36240000 		.long	0x2436
 3624 241c 04       		.uleb128 0x4
 3625 241d D1450000 		.long	0x45d1
 3626 2421 13       		.uleb128 0x13
 3627 2422 C00B0000 		.long	0xbc0
 3628 2426 13       		.uleb128 0x13
 3629 2427 C00B0000 		.long	0xbc0
 3630 242b 13       		.uleb128 0x13
 3631 242c D10B0000 		.long	0xbd1
 3632 2430 13       		.uleb128 0x13
 3633 2431 D10B0000 		.long	0xbd1
 3634 2435 00       		.byte	0
 3635 2436 29       		.uleb128 0x29
 3636 2437 5F4D5F72 		.ascii "_M_replace_aux\0"
 3636      65706C61 
 3636      63655F61 
 3636      757800
 3637 2446 0D       		.byte	0xd
 3638 2447 9B02     		.word	0x29b
 3639 2449 5F5A4E53 		.ascii "_ZNSs14_M_replace_auxEjjjc\0"
 3639      7331345F 
 3639      4D5F7265 
 3639      706C6163 
 3639      655F6175 
 3640 2464 E9450000 		.long	0x45e9
 3641 2468 70240000 		.long	0x2470
 3642 246c 8A240000 		.long	0x248a
 3643 2470 04       		.uleb128 0x4
 3644 2471 D1450000 		.long	0x45d1
 3645 2475 13       		.uleb128 0x13
 3646 2476 5D0B0000 		.long	0xb5d
 3647 247a 13       		.uleb128 0x13
 3648 247b 5D0B0000 		.long	0xb5d
 3649 247f 13       		.uleb128 0x13
 3650 2480 5D0B0000 		.long	0xb5d
 3651 2484 13       		.uleb128 0x13
 3652 2485 97020000 		.long	0x297
GAS LISTING C:\Users\NJLLMR~1\AppData\Local\Temp\cc5gZH1j.s 			page 89


 3653 2489 00       		.byte	0
 3654 248a 29       		.uleb128 0x29
 3655 248b 5F4D5F72 		.ascii "_M_replace_safe\0"
 3655      65706C61 
 3655      63655F73 
 3655      61666500 
 3656 249b 0D       		.byte	0xd
 3657 249c A802     		.word	0x2a8
 3658 249e 5F5A4E53 		.ascii "_ZNSs15_M_replace_safeEjjPKcj\0"
 3658      7331355F 
 3658      4D5F7265 
 3658      706C6163 
 3658      655F7361 
 3659 24bc E9450000 		.long	0x45e9
 3660 24c0 C8240000 		.long	0x24c8
 3661 24c4 E2240000 		.long	0x24e2
 3662 24c8 04       		.uleb128 0x4
 3663 24c9 D1450000 		.long	0x45d1
 3664 24cd 13       		.uleb128 0x13
 3665 24ce 5D0B0000 		.long	0xb5d
 3666 24d2 13       		.uleb128 0x13
 3667 24d3 5D0B0000 		.long	0xb5d
 3668 24d7 13       		.uleb128 0x13
 3669 24d8 A5370000 		.long	0x37a5
 3670 24dc 13       		.uleb128 0x13
 3671 24dd 5D0B0000 		.long	0xb5d
 3672 24e1 00       		.byte	0
 3673 24e2 17       		.uleb128 0x17
 3674 24e3 5F535F63 		.ascii "_S_construct_aux_2\0"
 3674      6F6E7374 
 3674      72756374 
 3674      5F617578 
 3674      5F3200
 3675 24f6 0C       		.byte	0xc
 3676 24f7 DC06     		.word	0x6dc
 3677 24f9 5F5A4E53 		.ascii "_ZNSs18_S_construct_aux_2EjcRKSaIcE\0"
 3677      7331385F 
 3677      535F636F 
 3677      6E737472 
 3677      7563745F 
 3678 251d 83030000 		.long	0x383
 3679 2521 35250000 		.long	0x2535
 3680 2525 13       		.uleb128 0x13
 3681 2526 5D0B0000 		.long	0xb5d
 3682 252a 13       		.uleb128 0x13
 3683 252b 97020000 		.long	0x297
 3684 252f 13       		.uleb128 0x13
 3685 2530 B5450000 		.long	0x45b5
 3686 2534 00       		.byte	0
 3687 2535 15       		.uleb128 0x15
 3688 2536 5F535F63 		.ascii "_S_construct\0"
 3688      6F6E7374 
 3688      72756374 
 3688      00
 3689 2543 0D       		.byte	0xd
 3690 2544 98       		.byte	0x98
 3691 2545 5F5A4E53 		.ascii "_ZNSs12_S_constructEjcRKSaIcE\0"
GAS LISTING C:\Users\NJLLMR~1\AppData\Local\Temp\cc5gZH1j.s 			page 90


 3691      7331325F 
 3691      535F636F 
 3691      6E737472 
 3691      75637445 
 3692 2563 83030000 		.long	0x383
 3693 2567 7B250000 		.long	0x257b
 3694 256b 13       		.uleb128 0x13
 3695 256c 5D0B0000 		.long	0xb5d
 3696 2570 13       		.uleb128 0x13
 3697 2571 97020000 		.long	0x297
 3698 2575 13       		.uleb128 0x13
 3699 2576 B5450000 		.long	0x45b5
 3700 257a 00       		.byte	0
 3701 257b 32       		.uleb128 0x32
 3702 257c 636F7079 		.ascii "copy\0"
 3702      00
 3703 2581 0D       		.byte	0xd
 3704 2582 D202     		.word	0x2d2
 3705 2584 5F5A4E4B 		.ascii "_ZNKSs4copyEPcjj\0"
 3705      53733463 
 3705      6F707945 
 3705      50636A6A 
 3705      00
 3706 2595 5D0B0000 		.long	0xb5d
 3707 2599 01       		.byte	0x1
 3708 259a A2250000 		.long	0x25a2
 3709 259e B7250000 		.long	0x25b7
 3710 25a2 04       		.uleb128 0x4
 3711 25a3 CB450000 		.long	0x45cb
 3712 25a7 13       		.uleb128 0x13
 3713 25a8 83030000 		.long	0x383
 3714 25ac 13       		.uleb128 0x13
 3715 25ad 5D0B0000 		.long	0xb5d
 3716 25b1 13       		.uleb128 0x13
 3717 25b2 5D0B0000 		.long	0xb5d
 3718 25b6 00       		.byte	0
 3719 25b7 33       		.uleb128 0x33
 3720 25b8 73776170 		.ascii "swap\0"
 3720      00
 3721 25bd 0D       		.byte	0xd
 3722 25be 0602     		.word	0x206
 3723 25c0 5F5A4E53 		.ascii "_ZNSs4swapERSs\0"
 3723      73347377 
 3723      61704552 
 3723      537300
 3724 25cf 01       		.byte	0x1
 3725 25d0 D8250000 		.long	0x25d8
 3726 25d4 E3250000 		.long	0x25e3
 3727 25d8 04       		.uleb128 0x4
 3728 25d9 D1450000 		.long	0x45d1
 3729 25dd 13       		.uleb128 0x13
 3730 25de E9450000 		.long	0x45e9
 3731 25e2 00       		.byte	0
 3732 25e3 32       		.uleb128 0x32
 3733 25e4 635F7374 		.ascii "c_str\0"
 3733      7200
 3734 25ea 0C       		.byte	0xc
GAS LISTING C:\Users\NJLLMR~1\AppData\Local\Temp\cc5gZH1j.s 			page 91


 3735 25eb 1B07     		.word	0x71b
 3736 25ed 5F5A4E4B 		.ascii "_ZNKSs5c_strEv\0"
 3736      53733563 
 3736      5F737472 
 3736      457600
 3737 25fc A5370000 		.long	0x37a5
 3738 2600 01       		.byte	0x1
 3739 2601 09260000 		.long	0x2609
 3740 2605 0F260000 		.long	0x260f
 3741 2609 04       		.uleb128 0x4
 3742 260a CB450000 		.long	0x45cb
 3743 260e 00       		.byte	0
 3744 260f 32       		.uleb128 0x32
 3745 2610 64617461 		.ascii "data\0"
 3745      00
 3746 2615 0C       		.byte	0xc
 3747 2616 2507     		.word	0x725
 3748 2618 5F5A4E4B 		.ascii "_ZNKSs4dataEv\0"
 3748      53733464 
 3748      61746145 
 3748      7600
 3749 2626 A5370000 		.long	0x37a5
 3750 262a 01       		.byte	0x1
 3751 262b 33260000 		.long	0x2633
 3752 262f 39260000 		.long	0x2639
 3753 2633 04       		.uleb128 0x4
 3754 2634 CB450000 		.long	0x45cb
 3755 2638 00       		.byte	0
 3756 2639 32       		.uleb128 0x32
 3757 263a 6765745F 		.ascii "get_allocator\0"
 3757      616C6C6F 
 3757      6361746F 
 3757      7200
 3758 2648 0C       		.byte	0xc
 3759 2649 2C07     		.word	0x72c
 3760 264b 5F5A4E4B 		.ascii "_ZNKSs13get_allocatorEv\0"
 3760      53733133 
 3760      6765745F 
 3760      616C6C6F 
 3760      6361746F 
 3761 2663 910B0000 		.long	0xb91
 3762 2667 01       		.byte	0x1
 3763 2668 70260000 		.long	0x2670
 3764 266c 76260000 		.long	0x2676
 3765 2670 04       		.uleb128 0x4
 3766 2671 CB450000 		.long	0x45cb
 3767 2675 00       		.byte	0
 3768 2676 32       		.uleb128 0x32
 3769 2677 66696E64 		.ascii "find\0"
 3769      00
 3770 267c 0D       		.byte	0xd
 3771 267d E002     		.word	0x2e0
 3772 267f 5F5A4E4B 		.ascii "_ZNKSs4findEPKcjj\0"
 3772      53733466 
 3772      696E6445 
 3772      504B636A 
 3772      6A00
GAS LISTING C:\Users\NJLLMR~1\AppData\Local\Temp\cc5gZH1j.s 			page 92


 3773 2691 5D0B0000 		.long	0xb5d
 3774 2695 01       		.byte	0x1
 3775 2696 9E260000 		.long	0x269e
 3776 269a B3260000 		.long	0x26b3
 3777 269e 04       		.uleb128 0x4
 3778 269f CB450000 		.long	0x45cb
 3779 26a3 13       		.uleb128 0x13
 3780 26a4 A5370000 		.long	0x37a5
 3781 26a8 13       		.uleb128 0x13
 3782 26a9 5D0B0000 		.long	0xb5d
 3783 26ad 13       		.uleb128 0x13
 3784 26ae 5D0B0000 		.long	0xb5d
 3785 26b2 00       		.byte	0
 3786 26b3 32       		.uleb128 0x32
 3787 26b4 66696E64 		.ascii "find\0"
 3787      00
 3788 26b9 0C       		.byte	0xc
 3789 26ba 4907     		.word	0x749
 3790 26bc 5F5A4E4B 		.ascii "_ZNKSs4findERKSsj\0"
 3790      53733466 
 3790      696E6445 
 3790      524B5373 
 3790      6A00
 3791 26ce 5D0B0000 		.long	0xb5d
 3792 26d2 01       		.byte	0x1
 3793 26d3 DB260000 		.long	0x26db
 3794 26d7 EB260000 		.long	0x26eb
 3795 26db 04       		.uleb128 0x4
 3796 26dc CB450000 		.long	0x45cb
 3797 26e0 13       		.uleb128 0x13
 3798 26e1 E3450000 		.long	0x45e3
 3799 26e5 13       		.uleb128 0x13
 3800 26e6 5D0B0000 		.long	0xb5d
 3801 26ea 00       		.byte	0
 3802 26eb 32       		.uleb128 0x32
 3803 26ec 66696E64 		.ascii "find\0"
 3803      00
 3804 26f1 0C       		.byte	0xc
 3805 26f2 5807     		.word	0x758
 3806 26f4 5F5A4E4B 		.ascii "_ZNKSs4findEPKcj\0"
 3806      53733466 
 3806      696E6445 
 3806      504B636A 
 3806      00
 3807 2705 5D0B0000 		.long	0xb5d
 3808 2709 01       		.byte	0x1
 3809 270a 12270000 		.long	0x2712
 3810 270e 22270000 		.long	0x2722
 3811 2712 04       		.uleb128 0x4
 3812 2713 CB450000 		.long	0x45cb
 3813 2717 13       		.uleb128 0x13
 3814 2718 A5370000 		.long	0x37a5
 3815 271c 13       		.uleb128 0x13
 3816 271d 5D0B0000 		.long	0xb5d
 3817 2721 00       		.byte	0
 3818 2722 32       		.uleb128 0x32
 3819 2723 66696E64 		.ascii "find\0"
GAS LISTING C:\Users\NJLLMR~1\AppData\Local\Temp\cc5gZH1j.s 			page 93


 3819      00
 3820 2728 0D       		.byte	0xd
 3821 2729 F702     		.word	0x2f7
 3822 272b 5F5A4E4B 		.ascii "_ZNKSs4findEcj\0"
 3822      53733466 
 3822      696E6445 
 3822      636A00
 3823 273a 5D0B0000 		.long	0xb5d
 3824 273e 01       		.byte	0x1
 3825 273f 47270000 		.long	0x2747
 3826 2743 57270000 		.long	0x2757
 3827 2747 04       		.uleb128 0x4
 3828 2748 CB450000 		.long	0x45cb
 3829 274c 13       		.uleb128 0x13
 3830 274d 97020000 		.long	0x297
 3831 2751 13       		.uleb128 0x13
 3832 2752 5D0B0000 		.long	0xb5d
 3833 2756 00       		.byte	0
 3834 2757 31       		.uleb128 0x31
 3835 2758 A7000000 		.secrel32	LASF17
 3836 275c 0C       		.byte	0xc
 3837 275d 7607     		.word	0x776
 3838 275f 5F5A4E4B 		.ascii "_ZNKSs5rfindERKSsj\0"
 3838      53733572 
 3838      66696E64 
 3838      45524B53 
 3838      736A00
 3839 2772 5D0B0000 		.long	0xb5d
 3840 2776 01       		.byte	0x1
 3841 2777 7F270000 		.long	0x277f
 3842 277b 8F270000 		.long	0x278f
 3843 277f 04       		.uleb128 0x4
 3844 2780 CB450000 		.long	0x45cb
 3845 2784 13       		.uleb128 0x13
 3846 2785 E3450000 		.long	0x45e3
 3847 2789 13       		.uleb128 0x13
 3848 278a 5D0B0000 		.long	0xb5d
 3849 278e 00       		.byte	0
 3850 278f 31       		.uleb128 0x31
 3851 2790 A7000000 		.secrel32	LASF17
 3852 2794 0D       		.byte	0xd
 3853 2795 0903     		.word	0x309
 3854 2797 5F5A4E4B 		.ascii "_ZNKSs5rfindEPKcjj\0"
 3854      53733572 
 3854      66696E64 
 3854      45504B63 
 3854      6A6A00
 3855 27aa 5D0B0000 		.long	0xb5d
 3856 27ae 01       		.byte	0x1
 3857 27af B7270000 		.long	0x27b7
 3858 27b3 CC270000 		.long	0x27cc
 3859 27b7 04       		.uleb128 0x4
 3860 27b8 CB450000 		.long	0x45cb
 3861 27bc 13       		.uleb128 0x13
 3862 27bd A5370000 		.long	0x37a5
 3863 27c1 13       		.uleb128 0x13
 3864 27c2 5D0B0000 		.long	0xb5d
GAS LISTING C:\Users\NJLLMR~1\AppData\Local\Temp\cc5gZH1j.s 			page 94


 3865 27c6 13       		.uleb128 0x13
 3866 27c7 5D0B0000 		.long	0xb5d
 3867 27cb 00       		.byte	0
 3868 27cc 31       		.uleb128 0x31
 3869 27cd A7000000 		.secrel32	LASF17
 3870 27d1 0C       		.byte	0xc
 3871 27d2 9407     		.word	0x794
 3872 27d4 5F5A4E4B 		.ascii "_ZNKSs5rfindEPKcj\0"
 3872      53733572 
 3872      66696E64 
 3872      45504B63 
 3872      6A00
 3873 27e6 5D0B0000 		.long	0xb5d
 3874 27ea 01       		.byte	0x1
 3875 27eb F3270000 		.long	0x27f3
 3876 27ef 03280000 		.long	0x2803
 3877 27f3 04       		.uleb128 0x4
 3878 27f4 CB450000 		.long	0x45cb
 3879 27f8 13       		.uleb128 0x13
 3880 27f9 A5370000 		.long	0x37a5
 3881 27fd 13       		.uleb128 0x13
 3882 27fe 5D0B0000 		.long	0xb5d
 3883 2802 00       		.byte	0
 3884 2803 31       		.uleb128 0x31
 3885 2804 A7000000 		.secrel32	LASF17
 3886 2808 0D       		.byte	0xd
 3887 2809 1E03     		.word	0x31e
 3888 280b 5F5A4E4B 		.ascii "_ZNKSs5rfindEcj\0"
 3888      53733572 
 3888      66696E64 
 3888      45636A00 
 3889 281b 5D0B0000 		.long	0xb5d
 3890 281f 01       		.byte	0x1
 3891 2820 28280000 		.long	0x2828
 3892 2824 38280000 		.long	0x2838
 3893 2828 04       		.uleb128 0x4
 3894 2829 CB450000 		.long	0x45cb
 3895 282d 13       		.uleb128 0x13
 3896 282e 97020000 		.long	0x297
 3897 2832 13       		.uleb128 0x13
 3898 2833 5D0B0000 		.long	0xb5d
 3899 2837 00       		.byte	0
 3900 2838 31       		.uleb128 0x31
 3901 2839 59000000 		.secrel32	LASF18
 3902 283d 0C       		.byte	0xc
 3903 283e B307     		.word	0x7b3
 3904 2840 5F5A4E4B 		.ascii "_ZNKSs13find_first_ofERKSsj\0"
 3904      53733133 
 3904      66696E64 
 3904      5F666972 
 3904      73745F6F 
 3905 285c 5D0B0000 		.long	0xb5d
 3906 2860 01       		.byte	0x1
 3907 2861 69280000 		.long	0x2869
 3908 2865 79280000 		.long	0x2879
 3909 2869 04       		.uleb128 0x4
 3910 286a CB450000 		.long	0x45cb
GAS LISTING C:\Users\NJLLMR~1\AppData\Local\Temp\cc5gZH1j.s 			page 95


 3911 286e 13       		.uleb128 0x13
 3912 286f E3450000 		.long	0x45e3
 3913 2873 13       		.uleb128 0x13
 3914 2874 5D0B0000 		.long	0xb5d
 3915 2878 00       		.byte	0
 3916 2879 31       		.uleb128 0x31
 3917 287a 59000000 		.secrel32	LASF18
 3918 287e 0D       		.byte	0xd
 3919 287f 2F03     		.word	0x32f
 3920 2881 5F5A4E4B 		.ascii "_ZNKSs13find_first_ofEPKcjj\0"
 3920      53733133 
 3920      66696E64 
 3920      5F666972 
 3920      73745F6F 
 3921 289d 5D0B0000 		.long	0xb5d
 3922 28a1 01       		.byte	0x1
 3923 28a2 AA280000 		.long	0x28aa
 3924 28a6 BF280000 		.long	0x28bf
 3925 28aa 04       		.uleb128 0x4
 3926 28ab CB450000 		.long	0x45cb
 3927 28af 13       		.uleb128 0x13
 3928 28b0 A5370000 		.long	0x37a5
 3929 28b4 13       		.uleb128 0x13
 3930 28b5 5D0B0000 		.long	0xb5d
 3931 28b9 13       		.uleb128 0x13
 3932 28ba 5D0B0000 		.long	0xb5d
 3933 28be 00       		.byte	0
 3934 28bf 31       		.uleb128 0x31
 3935 28c0 59000000 		.secrel32	LASF18
 3936 28c4 0C       		.byte	0xc
 3937 28c5 D107     		.word	0x7d1
 3938 28c7 5F5A4E4B 		.ascii "_ZNKSs13find_first_ofEPKcj\0"
 3938      53733133 
 3938      66696E64 
 3938      5F666972 
 3938      73745F6F 
 3939 28e2 5D0B0000 		.long	0xb5d
 3940 28e6 01       		.byte	0x1
 3941 28e7 EF280000 		.long	0x28ef
 3942 28eb FF280000 		.long	0x28ff
 3943 28ef 04       		.uleb128 0x4
 3944 28f0 CB450000 		.long	0x45cb
 3945 28f4 13       		.uleb128 0x13
 3946 28f5 A5370000 		.long	0x37a5
 3947 28f9 13       		.uleb128 0x13
 3948 28fa 5D0B0000 		.long	0xb5d
 3949 28fe 00       		.byte	0
 3950 28ff 31       		.uleb128 0x31
 3951 2900 59000000 		.secrel32	LASF18
 3952 2904 0C       		.byte	0xc
 3953 2905 E407     		.word	0x7e4
 3954 2907 5F5A4E4B 		.ascii "_ZNKSs13find_first_ofEcj\0"
 3954      53733133 
 3954      66696E64 
 3954      5F666972 
 3954      73745F6F 
 3955 2920 5D0B0000 		.long	0xb5d
GAS LISTING C:\Users\NJLLMR~1\AppData\Local\Temp\cc5gZH1j.s 			page 96


 3956 2924 01       		.byte	0x1
 3957 2925 2D290000 		.long	0x292d
 3958 2929 3D290000 		.long	0x293d
 3959 292d 04       		.uleb128 0x4
 3960 292e CB450000 		.long	0x45cb
 3961 2932 13       		.uleb128 0x13
 3962 2933 97020000 		.long	0x297
 3963 2937 13       		.uleb128 0x13
 3964 2938 5D0B0000 		.long	0xb5d
 3965 293c 00       		.byte	0
 3966 293d 31       		.uleb128 0x31
 3967 293e FA000000 		.secrel32	LASF19
 3968 2942 0C       		.byte	0xc
 3969 2943 F307     		.word	0x7f3
 3970 2945 5F5A4E4B 		.ascii "_ZNKSs12find_last_ofERKSsj\0"
 3970      53733132 
 3970      66696E64 
 3970      5F6C6173 
 3970      745F6F66 
 3971 2960 5D0B0000 		.long	0xb5d
 3972 2964 01       		.byte	0x1
 3973 2965 6D290000 		.long	0x296d
 3974 2969 7D290000 		.long	0x297d
 3975 296d 04       		.uleb128 0x4
 3976 296e CB450000 		.long	0x45cb
 3977 2972 13       		.uleb128 0x13
 3978 2973 E3450000 		.long	0x45e3
 3979 2977 13       		.uleb128 0x13
 3980 2978 5D0B0000 		.long	0xb5d
 3981 297c 00       		.byte	0
 3982 297d 31       		.uleb128 0x31
 3983 297e FA000000 		.secrel32	LASF19
 3984 2982 0D       		.byte	0xd
 3985 2983 3E03     		.word	0x33e
 3986 2985 5F5A4E4B 		.ascii "_ZNKSs12find_last_ofEPKcjj\0"
 3986      53733132 
 3986      66696E64 
 3986      5F6C6173 
 3986      745F6F66 
 3987 29a0 5D0B0000 		.long	0xb5d
 3988 29a4 01       		.byte	0x1
 3989 29a5 AD290000 		.long	0x29ad
 3990 29a9 C2290000 		.long	0x29c2
 3991 29ad 04       		.uleb128 0x4
 3992 29ae CB450000 		.long	0x45cb
 3993 29b2 13       		.uleb128 0x13
 3994 29b3 A5370000 		.long	0x37a5
 3995 29b7 13       		.uleb128 0x13
 3996 29b8 5D0B0000 		.long	0xb5d
 3997 29bc 13       		.uleb128 0x13
 3998 29bd 5D0B0000 		.long	0xb5d
 3999 29c1 00       		.byte	0
 4000 29c2 31       		.uleb128 0x31
 4001 29c3 FA000000 		.secrel32	LASF19
 4002 29c7 0C       		.byte	0xc
 4003 29c8 1108     		.word	0x811
 4004 29ca 5F5A4E4B 		.ascii "_ZNKSs12find_last_ofEPKcj\0"
GAS LISTING C:\Users\NJLLMR~1\AppData\Local\Temp\cc5gZH1j.s 			page 97


 4004      53733132 
 4004      66696E64 
 4004      5F6C6173 
 4004      745F6F66 
 4005 29e4 5D0B0000 		.long	0xb5d
 4006 29e8 01       		.byte	0x1
 4007 29e9 F1290000 		.long	0x29f1
 4008 29ed 012A0000 		.long	0x2a01
 4009 29f1 04       		.uleb128 0x4
 4010 29f2 CB450000 		.long	0x45cb
 4011 29f6 13       		.uleb128 0x13
 4012 29f7 A5370000 		.long	0x37a5
 4013 29fb 13       		.uleb128 0x13
 4014 29fc 5D0B0000 		.long	0xb5d
 4015 2a00 00       		.byte	0
 4016 2a01 31       		.uleb128 0x31
 4017 2a02 FA000000 		.secrel32	LASF19
 4018 2a06 0C       		.byte	0xc
 4019 2a07 2408     		.word	0x824
 4020 2a09 5F5A4E4B 		.ascii "_ZNKSs12find_last_ofEcj\0"
 4020      53733132 
 4020      66696E64 
 4020      5F6C6173 
 4020      745F6F66 
 4021 2a21 5D0B0000 		.long	0xb5d
 4022 2a25 01       		.byte	0x1
 4023 2a26 2E2A0000 		.long	0x2a2e
 4024 2a2a 3E2A0000 		.long	0x2a3e
 4025 2a2e 04       		.uleb128 0x4
 4026 2a2f CB450000 		.long	0x45cb
 4027 2a33 13       		.uleb128 0x13
 4028 2a34 97020000 		.long	0x297
 4029 2a38 13       		.uleb128 0x13
 4030 2a39 5D0B0000 		.long	0xb5d
 4031 2a3d 00       		.byte	0
 4032 2a3e 31       		.uleb128 0x31
 4033 2a3f CF000000 		.secrel32	LASF20
 4034 2a43 0C       		.byte	0xc
 4035 2a44 3208     		.word	0x832
 4036 2a46 5F5A4E4B 		.ascii "_ZNKSs17find_first_not_ofERKSsj\0"
 4036      53733137 
 4036      66696E64 
 4036      5F666972 
 4036      73745F6E 
 4037 2a66 5D0B0000 		.long	0xb5d
 4038 2a6a 01       		.byte	0x1
 4039 2a6b 732A0000 		.long	0x2a73
 4040 2a6f 832A0000 		.long	0x2a83
 4041 2a73 04       		.uleb128 0x4
 4042 2a74 CB450000 		.long	0x45cb
 4043 2a78 13       		.uleb128 0x13
 4044 2a79 E3450000 		.long	0x45e3
 4045 2a7d 13       		.uleb128 0x13
 4046 2a7e 5D0B0000 		.long	0xb5d
 4047 2a82 00       		.byte	0
 4048 2a83 31       		.uleb128 0x31
 4049 2a84 CF000000 		.secrel32	LASF20
GAS LISTING C:\Users\NJLLMR~1\AppData\Local\Temp\cc5gZH1j.s 			page 98


 4050 2a88 0D       		.byte	0xd
 4051 2a89 5303     		.word	0x353
 4052 2a8b 5F5A4E4B 		.ascii "_ZNKSs17find_first_not_ofEPKcjj\0"
 4052      53733137 
 4052      66696E64 
 4052      5F666972 
 4052      73745F6E 
 4053 2aab 5D0B0000 		.long	0xb5d
 4054 2aaf 01       		.byte	0x1
 4055 2ab0 B82A0000 		.long	0x2ab8
 4056 2ab4 CD2A0000 		.long	0x2acd
 4057 2ab8 04       		.uleb128 0x4
 4058 2ab9 CB450000 		.long	0x45cb
 4059 2abd 13       		.uleb128 0x13
 4060 2abe A5370000 		.long	0x37a5
 4061 2ac2 13       		.uleb128 0x13
 4062 2ac3 5D0B0000 		.long	0xb5d
 4063 2ac7 13       		.uleb128 0x13
 4064 2ac8 5D0B0000 		.long	0xb5d
 4065 2acc 00       		.byte	0
 4066 2acd 31       		.uleb128 0x31
 4067 2ace CF000000 		.secrel32	LASF20
 4068 2ad2 0C       		.byte	0xc
 4069 2ad3 5108     		.word	0x851
 4070 2ad5 5F5A4E4B 		.ascii "_ZNKSs17find_first_not_ofEPKcj\0"
 4070      53733137 
 4070      66696E64 
 4070      5F666972 
 4070      73745F6E 
 4071 2af4 5D0B0000 		.long	0xb5d
 4072 2af8 01       		.byte	0x1
 4073 2af9 012B0000 		.long	0x2b01
 4074 2afd 112B0000 		.long	0x2b11
 4075 2b01 04       		.uleb128 0x4
 4076 2b02 CB450000 		.long	0x45cb
 4077 2b06 13       		.uleb128 0x13
 4078 2b07 A5370000 		.long	0x37a5
 4079 2b0b 13       		.uleb128 0x13
 4080 2b0c 5D0B0000 		.long	0xb5d
 4081 2b10 00       		.byte	0
 4082 2b11 31       		.uleb128 0x31
 4083 2b12 CF000000 		.secrel32	LASF20
 4084 2b16 0D       		.byte	0xd
 4085 2b17 5F03     		.word	0x35f
 4086 2b19 5F5A4E4B 		.ascii "_ZNKSs17find_first_not_ofEcj\0"
 4086      53733137 
 4086      66696E64 
 4086      5F666972 
 4086      73745F6E 
 4087 2b36 5D0B0000 		.long	0xb5d
 4088 2b3a 01       		.byte	0x1
 4089 2b3b 432B0000 		.long	0x2b43
 4090 2b3f 532B0000 		.long	0x2b53
 4091 2b43 04       		.uleb128 0x4
 4092 2b44 CB450000 		.long	0x45cb
 4093 2b48 13       		.uleb128 0x13
 4094 2b49 97020000 		.long	0x297
GAS LISTING C:\Users\NJLLMR~1\AppData\Local\Temp\cc5gZH1j.s 			page 99


 4095 2b4d 13       		.uleb128 0x13
 4096 2b4e 5D0B0000 		.long	0xb5d
 4097 2b52 00       		.byte	0
 4098 2b53 31       		.uleb128 0x31
 4099 2b54 67000000 		.secrel32	LASF21
 4100 2b58 0C       		.byte	0xc
 4101 2b59 7108     		.word	0x871
 4102 2b5b 5F5A4E4B 		.ascii "_ZNKSs16find_last_not_ofERKSsj\0"
 4102      53733136 
 4102      66696E64 
 4102      5F6C6173 
 4102      745F6E6F 
 4103 2b7a 5D0B0000 		.long	0xb5d
 4104 2b7e 01       		.byte	0x1
 4105 2b7f 872B0000 		.long	0x2b87
 4106 2b83 972B0000 		.long	0x2b97
 4107 2b87 04       		.uleb128 0x4
 4108 2b88 CB450000 		.long	0x45cb
 4109 2b8c 13       		.uleb128 0x13
 4110 2b8d E3450000 		.long	0x45e3
 4111 2b91 13       		.uleb128 0x13
 4112 2b92 5D0B0000 		.long	0xb5d
 4113 2b96 00       		.byte	0
 4114 2b97 31       		.uleb128 0x31
 4115 2b98 67000000 		.secrel32	LASF21
 4116 2b9c 0D       		.byte	0xd
 4117 2b9d 6A03     		.word	0x36a
 4118 2b9f 5F5A4E4B 		.ascii "_ZNKSs16find_last_not_ofEPKcjj\0"
 4118      53733136 
 4118      66696E64 
 4118      5F6C6173 
 4118      745F6E6F 
 4119 2bbe 5D0B0000 		.long	0xb5d
 4120 2bc2 01       		.byte	0x1
 4121 2bc3 CB2B0000 		.long	0x2bcb
 4122 2bc7 E02B0000 		.long	0x2be0
 4123 2bcb 04       		.uleb128 0x4
 4124 2bcc CB450000 		.long	0x45cb
 4125 2bd0 13       		.uleb128 0x13
 4126 2bd1 A5370000 		.long	0x37a5
 4127 2bd5 13       		.uleb128 0x13
 4128 2bd6 5D0B0000 		.long	0xb5d
 4129 2bda 13       		.uleb128 0x13
 4130 2bdb 5D0B0000 		.long	0xb5d
 4131 2bdf 00       		.byte	0
 4132 2be0 31       		.uleb128 0x31
 4133 2be1 67000000 		.secrel32	LASF21
 4134 2be5 0C       		.byte	0xc
 4135 2be6 9008     		.word	0x890
 4136 2be8 5F5A4E4B 		.ascii "_ZNKSs16find_last_not_ofEPKcj\0"
 4136      53733136 
 4136      66696E64 
 4136      5F6C6173 
 4136      745F6E6F 
 4137 2c06 5D0B0000 		.long	0xb5d
 4138 2c0a 01       		.byte	0x1
 4139 2c0b 132C0000 		.long	0x2c13
GAS LISTING C:\Users\NJLLMR~1\AppData\Local\Temp\cc5gZH1j.s 			page 100


 4140 2c0f 232C0000 		.long	0x2c23
 4141 2c13 04       		.uleb128 0x4
 4142 2c14 CB450000 		.long	0x45cb
 4143 2c18 13       		.uleb128 0x13
 4144 2c19 A5370000 		.long	0x37a5
 4145 2c1d 13       		.uleb128 0x13
 4146 2c1e 5D0B0000 		.long	0xb5d
 4147 2c22 00       		.byte	0
 4148 2c23 31       		.uleb128 0x31
 4149 2c24 67000000 		.secrel32	LASF21
 4150 2c28 0D       		.byte	0xd
 4151 2c29 7F03     		.word	0x37f
 4152 2c2b 5F5A4E4B 		.ascii "_ZNKSs16find_last_not_ofEcj\0"
 4152      53733136 
 4152      66696E64 
 4152      5F6C6173 
 4152      745F6E6F 
 4153 2c47 5D0B0000 		.long	0xb5d
 4154 2c4b 01       		.byte	0x1
 4155 2c4c 542C0000 		.long	0x2c54
 4156 2c50 642C0000 		.long	0x2c64
 4157 2c54 04       		.uleb128 0x4
 4158 2c55 CB450000 		.long	0x45cb
 4159 2c59 13       		.uleb128 0x13
 4160 2c5a 97020000 		.long	0x297
 4161 2c5e 13       		.uleb128 0x13
 4162 2c5f 5D0B0000 		.long	0xb5d
 4163 2c63 00       		.byte	0
 4164 2c64 32       		.uleb128 0x32
 4165 2c65 73756273 		.ascii "substr\0"
 4165      747200
 4166 2c6c 0C       		.byte	0xc
 4167 2c6d B108     		.word	0x8b1
 4168 2c6f 5F5A4E4B 		.ascii "_ZNKSs6substrEjj\0"
 4168      53733673 
 4168      75627374 
 4168      72456A6A 
 4168      00
 4169 2c80 D50A0000 		.long	0xad5
 4170 2c84 01       		.byte	0x1
 4171 2c85 8D2C0000 		.long	0x2c8d
 4172 2c89 9D2C0000 		.long	0x2c9d
 4173 2c8d 04       		.uleb128 0x4
 4174 2c8e CB450000 		.long	0x45cb
 4175 2c92 13       		.uleb128 0x13
 4176 2c93 5D0B0000 		.long	0xb5d
 4177 2c97 13       		.uleb128 0x13
 4178 2c98 5D0B0000 		.long	0xb5d
 4179 2c9c 00       		.byte	0
 4180 2c9d 31       		.uleb128 0x31
 4181 2c9e 2F010000 		.secrel32	LASF0
 4182 2ca2 0C       		.byte	0xc
 4183 2ca3 C408     		.word	0x8c4
 4184 2ca5 5F5A4E4B 		.ascii "_ZNKSs7compareERKSs\0"
 4184      53733763 
 4184      6F6D7061 
 4184      72654552 
GAS LISTING C:\Users\NJLLMR~1\AppData\Local\Temp\cc5gZH1j.s 			page 101


 4184      4B537300 
 4185 2cb9 CB020000 		.long	0x2cb
 4186 2cbd 01       		.byte	0x1
 4187 2cbe C62C0000 		.long	0x2cc6
 4188 2cc2 D12C0000 		.long	0x2cd1
 4189 2cc6 04       		.uleb128 0x4
 4190 2cc7 CB450000 		.long	0x45cb
 4191 2ccb 13       		.uleb128 0x13
 4192 2ccc E3450000 		.long	0x45e3
 4193 2cd0 00       		.byte	0
 4194 2cd1 31       		.uleb128 0x31
 4195 2cd2 2F010000 		.secrel32	LASF0
 4196 2cd6 0D       		.byte	0xd
 4197 2cd7 9303     		.word	0x393
 4198 2cd9 5F5A4E4B 		.ascii "_ZNKSs7compareEjjRKSs\0"
 4198      53733763 
 4198      6F6D7061 
 4198      7265456A 
 4198      6A524B53 
 4199 2cef CB020000 		.long	0x2cb
 4200 2cf3 01       		.byte	0x1
 4201 2cf4 FC2C0000 		.long	0x2cfc
 4202 2cf8 112D0000 		.long	0x2d11
 4203 2cfc 04       		.uleb128 0x4
 4204 2cfd CB450000 		.long	0x45cb
 4205 2d01 13       		.uleb128 0x13
 4206 2d02 5D0B0000 		.long	0xb5d
 4207 2d06 13       		.uleb128 0x13
 4208 2d07 5D0B0000 		.long	0xb5d
 4209 2d0b 13       		.uleb128 0x13
 4210 2d0c E3450000 		.long	0x45e3
 4211 2d10 00       		.byte	0
 4212 2d11 31       		.uleb128 0x31
 4213 2d12 2F010000 		.secrel32	LASF0
 4214 2d16 0D       		.byte	0xd
 4215 2d17 A203     		.word	0x3a2
 4216 2d19 5F5A4E4B 		.ascii "_ZNKSs7compareEjjRKSsjj\0"
 4216      53733763 
 4216      6F6D7061 
 4216      7265456A 
 4216      6A524B53 
 4217 2d31 CB020000 		.long	0x2cb
 4218 2d35 01       		.byte	0x1
 4219 2d36 3E2D0000 		.long	0x2d3e
 4220 2d3a 5D2D0000 		.long	0x2d5d
 4221 2d3e 04       		.uleb128 0x4
 4222 2d3f CB450000 		.long	0x45cb
 4223 2d43 13       		.uleb128 0x13
 4224 2d44 5D0B0000 		.long	0xb5d
 4225 2d48 13       		.uleb128 0x13
 4226 2d49 5D0B0000 		.long	0xb5d
 4227 2d4d 13       		.uleb128 0x13
 4228 2d4e E3450000 		.long	0x45e3
 4229 2d52 13       		.uleb128 0x13
 4230 2d53 5D0B0000 		.long	0xb5d
 4231 2d57 13       		.uleb128 0x13
 4232 2d58 5D0B0000 		.long	0xb5d
GAS LISTING C:\Users\NJLLMR~1\AppData\Local\Temp\cc5gZH1j.s 			page 102


 4233 2d5c 00       		.byte	0
 4234 2d5d 31       		.uleb128 0x31
 4235 2d5e 2F010000 		.secrel32	LASF0
 4236 2d62 0D       		.byte	0xd
 4237 2d63 B403     		.word	0x3b4
 4238 2d65 5F5A4E4B 		.ascii "_ZNKSs7compareEPKc\0"
 4238      53733763 
 4238      6F6D7061 
 4238      72654550 
 4238      4B6300
 4239 2d78 CB020000 		.long	0x2cb
 4240 2d7c 01       		.byte	0x1
 4241 2d7d 852D0000 		.long	0x2d85
 4242 2d81 902D0000 		.long	0x2d90
 4243 2d85 04       		.uleb128 0x4
 4244 2d86 CB450000 		.long	0x45cb
 4245 2d8a 13       		.uleb128 0x13
 4246 2d8b A5370000 		.long	0x37a5
 4247 2d8f 00       		.byte	0
 4248 2d90 31       		.uleb128 0x31
 4249 2d91 2F010000 		.secrel32	LASF0
 4250 2d95 0D       		.byte	0xd
 4251 2d96 C303     		.word	0x3c3
 4252 2d98 5F5A4E4B 		.ascii "_ZNKSs7compareEjjPKc\0"
 4252      53733763 
 4252      6F6D7061 
 4252      7265456A 
 4252      6A504B63 
 4253 2dad CB020000 		.long	0x2cb
 4254 2db1 01       		.byte	0x1
 4255 2db2 BA2D0000 		.long	0x2dba
 4256 2db6 CF2D0000 		.long	0x2dcf
 4257 2dba 04       		.uleb128 0x4
 4258 2dbb CB450000 		.long	0x45cb
 4259 2dbf 13       		.uleb128 0x13
 4260 2dc0 5D0B0000 		.long	0xb5d
 4261 2dc4 13       		.uleb128 0x13
 4262 2dc5 5D0B0000 		.long	0xb5d
 4263 2dc9 13       		.uleb128 0x13
 4264 2dca A5370000 		.long	0x37a5
 4265 2dce 00       		.byte	0
 4266 2dcf 31       		.uleb128 0x31
 4267 2dd0 2F010000 		.secrel32	LASF0
 4268 2dd4 0D       		.byte	0xd
 4269 2dd5 D303     		.word	0x3d3
 4270 2dd7 5F5A4E4B 		.ascii "_ZNKSs7compareEjjPKcj\0"
 4270      53733763 
 4270      6F6D7061 
 4270      7265456A 
 4270      6A504B63 
 4271 2ded CB020000 		.long	0x2cb
 4272 2df1 01       		.byte	0x1
 4273 2df2 FA2D0000 		.long	0x2dfa
 4274 2df6 142E0000 		.long	0x2e14
 4275 2dfa 04       		.uleb128 0x4
 4276 2dfb CB450000 		.long	0x45cb
 4277 2dff 13       		.uleb128 0x13
GAS LISTING C:\Users\NJLLMR~1\AppData\Local\Temp\cc5gZH1j.s 			page 103


 4278 2e00 5D0B0000 		.long	0xb5d
 4279 2e04 13       		.uleb128 0x13
 4280 2e05 5D0B0000 		.long	0xb5d
 4281 2e09 13       		.uleb128 0x13
 4282 2e0a A5370000 		.long	0x37a5
 4283 2e0e 13       		.uleb128 0x13
 4284 2e0f 5D0B0000 		.long	0xb5d
 4285 2e13 00       		.byte	0
 4286 2e14 14       		.uleb128 0x14
 4287 2e15 6D0C0000 		.long	0xc6d
 4288 2e19 36       		.uleb128 0x36
 4289 2e1a 08000000 		.secrel32	LASF23
 4290 2e1e 97020000 		.long	0x297
 4291 2e22 37       		.uleb128 0x37
 4292 2e23 0F000000 		.secrel32	LASF22
 4293 2e27 52060000 		.long	0x652
 4294 2e2b 38       		.uleb128 0x38
 4295 2e2c 5F416C6C 		.ascii "_Alloc\0"
 4295      6F6300
 4296 2e33 3D0A0000 		.long	0xa3d
 4297 2e37 00       		.byte	0
 4298 2e38 39       		.uleb128 0x39
 4299 2e39 72657665 		.ascii "reverse_iterator<__gnu_cxx::__normal_iterator<char const*, std::basic_string<char, std::ch
 4299      7273655F 
 4299      69746572 
 4299      61746F72 
 4299      3C5F5F67 
 4300 2ebf 39       		.uleb128 0x39
 4301 2ec0 72657665 		.ascii "reverse_iterator<__gnu_cxx::__normal_iterator<char*, std::basic_string<char, std::char_tra
 4301      7273655F 
 4301      69746572 
 4301      61746F72 
 4301      3C5F5F67 
 4302 2f40 14       		.uleb128 0x14
 4303 2f41 D50A0000 		.long	0xad5
 4304 2f45 08       		.uleb128 0x8
 4305 2f46 73747269 		.ascii "string\0"
 4305      6E6700
 4306 2f4d 0E       		.byte	0xe
 4307 2f4e 3E       		.byte	0x3e
 4308 2f4f D50A0000 		.long	0xad5
 4309 2f53 3A       		.uleb128 0x3a
 4310 2f54 5F496F73 		.ascii "_Ios_Fmtflags\0"
 4310      5F466D74 
 4310      666C6167 
 4310      7300
 4311 2f62 04       		.byte	0x4
 4312 2f63 0F       		.byte	0xf
 4313 2f64 33       		.byte	0x33
 4314 2f65 7A300000 		.long	0x307a
 4315 2f69 3B       		.uleb128 0x3b
 4316 2f6a 5F535F62 		.ascii "_S_boolalpha\0"
 4316      6F6F6C61 
 4316      6C706861 
 4316      00
 4317 2f77 01       		.sleb128 1
 4318 2f78 3B       		.uleb128 0x3b
GAS LISTING C:\Users\NJLLMR~1\AppData\Local\Temp\cc5gZH1j.s 			page 104


 4319 2f79 5F535F64 		.ascii "_S_dec\0"
 4319      656300
 4320 2f80 02       		.sleb128 2
 4321 2f81 3B       		.uleb128 0x3b
 4322 2f82 5F535F66 		.ascii "_S_fixed\0"
 4322      69786564 
 4322      00
 4323 2f8b 04       		.sleb128 4
 4324 2f8c 3B       		.uleb128 0x3b
 4325 2f8d 5F535F68 		.ascii "_S_hex\0"
 4325      657800
 4326 2f94 08       		.sleb128 8
 4327 2f95 3B       		.uleb128 0x3b
 4328 2f96 5F535F69 		.ascii "_S_internal\0"
 4328      6E746572 
 4328      6E616C00 
 4329 2fa2 10       		.sleb128 16
 4330 2fa3 3B       		.uleb128 0x3b
 4331 2fa4 5F535F6C 		.ascii "_S_left\0"
 4331      65667400 
 4332 2fac 20       		.sleb128 32
 4333 2fad 3B       		.uleb128 0x3b
 4334 2fae 5F535F6F 		.ascii "_S_oct\0"
 4334      637400
 4335 2fb5 C000     		.sleb128 64
 4336 2fb7 3B       		.uleb128 0x3b
 4337 2fb8 5F535F72 		.ascii "_S_right\0"
 4337      69676874 
 4337      00
 4338 2fc1 8001     		.sleb128 128
 4339 2fc3 3B       		.uleb128 0x3b
 4340 2fc4 5F535F73 		.ascii "_S_scientific\0"
 4340      6369656E 
 4340      74696669 
 4340      6300
 4341 2fd2 8002     		.sleb128 256
 4342 2fd4 3B       		.uleb128 0x3b
 4343 2fd5 5F535F73 		.ascii "_S_showbase\0"
 4343      686F7762 
 4343      61736500 
 4344 2fe1 8004     		.sleb128 512
 4345 2fe3 3B       		.uleb128 0x3b
 4346 2fe4 5F535F73 		.ascii "_S_showpoint\0"
 4346      686F7770 
 4346      6F696E74 
 4346      00
 4347 2ff1 8008     		.sleb128 1024
 4348 2ff3 3B       		.uleb128 0x3b
 4349 2ff4 5F535F73 		.ascii "_S_showpos\0"
 4349      686F7770 
 4349      6F7300
 4350 2fff 8010     		.sleb128 2048
 4351 3001 3B       		.uleb128 0x3b
 4352 3002 5F535F73 		.ascii "_S_skipws\0"
 4352      6B697077 
 4352      7300
 4353 300c 8020     		.sleb128 4096
GAS LISTING C:\Users\NJLLMR~1\AppData\Local\Temp\cc5gZH1j.s 			page 105


 4354 300e 3B       		.uleb128 0x3b
 4355 300f 5F535F75 		.ascii "_S_unitbuf\0"
 4355      6E697462 
 4355      756600
 4356 301a 80C000   		.sleb128 8192
 4357 301d 3B       		.uleb128 0x3b
 4358 301e 5F535F75 		.ascii "_S_uppercase\0"
 4358      70706572 
 4358      63617365 
 4358      00
 4359 302b 808001   		.sleb128 16384
 4360 302e 3B       		.uleb128 0x3b
 4361 302f 5F535F61 		.ascii "_S_adjustfield\0"
 4361      646A7573 
 4361      74666965 
 4361      6C6400
 4362 303e B001     		.sleb128 176
 4363 3040 3B       		.uleb128 0x3b
 4364 3041 5F535F62 		.ascii "_S_basefield\0"
 4364      61736566 
 4364      69656C64 
 4364      00
 4365 304e CA00     		.sleb128 74
 4366 3050 3B       		.uleb128 0x3b
 4367 3051 5F535F66 		.ascii "_S_floatfield\0"
 4367      6C6F6174 
 4367      6669656C 
 4367      6400
 4368 305f 8402     		.sleb128 260
 4369 3061 3B       		.uleb128 0x3b
 4370 3062 5F535F69 		.ascii "_S_ios_fmtflags_end\0"
 4370      6F735F66 
 4370      6D74666C 
 4370      6167735F 
 4370      656E6400 
 4371 3076 808004   		.sleb128 65536
 4372 3079 00       		.byte	0
 4373 307a 3A       		.uleb128 0x3a
 4374 307b 5F496F73 		.ascii "_Ios_Openmode\0"
 4374      5F4F7065 
 4374      6E6D6F64 
 4374      6500
 4375 3089 04       		.byte	0x4
 4376 308a 0F       		.byte	0xf
 4377 308b 67       		.byte	0x67
 4378 308c E0300000 		.long	0x30e0
 4379 3090 3B       		.uleb128 0x3b
 4380 3091 5F535F61 		.ascii "_S_app\0"
 4380      707000
 4381 3098 01       		.sleb128 1
 4382 3099 3B       		.uleb128 0x3b
 4383 309a 5F535F61 		.ascii "_S_ate\0"
 4383      746500
 4384 30a1 02       		.sleb128 2
 4385 30a2 3B       		.uleb128 0x3b
 4386 30a3 5F535F62 		.ascii "_S_bin\0"
 4386      696E00
GAS LISTING C:\Users\NJLLMR~1\AppData\Local\Temp\cc5gZH1j.s 			page 106


 4387 30aa 04       		.sleb128 4
 4388 30ab 3B       		.uleb128 0x3b
 4389 30ac 5F535F69 		.ascii "_S_in\0"
 4389      6E00
 4390 30b2 08       		.sleb128 8
 4391 30b3 3B       		.uleb128 0x3b
 4392 30b4 5F535F6F 		.ascii "_S_out\0"
 4392      757400
 4393 30bb 10       		.sleb128 16
 4394 30bc 3B       		.uleb128 0x3b
 4395 30bd 5F535F74 		.ascii "_S_trunc\0"
 4395      72756E63 
 4395      00
 4396 30c6 20       		.sleb128 32
 4397 30c7 3B       		.uleb128 0x3b
 4398 30c8 5F535F69 		.ascii "_S_ios_openmode_end\0"
 4398      6F735F6F 
 4398      70656E6D 
 4398      6F64655F 
 4398      656E6400 
 4399 30dc 808004   		.sleb128 65536
 4400 30df 00       		.byte	0
 4401 30e0 3A       		.uleb128 0x3a
 4402 30e1 5F496F73 		.ascii "_Ios_Iostate\0"
 4402      5F496F73 
 4402      74617465 
 4402      00
 4403 30ee 04       		.byte	0x4
 4404 30ef 0F       		.byte	0xf
 4405 30f0 8F       		.byte	0x8f
 4406 30f1 3F310000 		.long	0x313f
 4407 30f5 3B       		.uleb128 0x3b
 4408 30f6 5F535F67 		.ascii "_S_goodbit\0"
 4408      6F6F6462 
 4408      697400
 4409 3101 00       		.sleb128 0
 4410 3102 3B       		.uleb128 0x3b
 4411 3103 5F535F62 		.ascii "_S_badbit\0"
 4411      61646269 
 4411      7400
 4412 310d 01       		.sleb128 1
 4413 310e 3B       		.uleb128 0x3b
 4414 310f 5F535F65 		.ascii "_S_eofbit\0"
 4414      6F666269 
 4414      7400
 4415 3119 02       		.sleb128 2
 4416 311a 3B       		.uleb128 0x3b
 4417 311b 5F535F66 		.ascii "_S_failbit\0"
 4417      61696C62 
 4417      697400
 4418 3126 04       		.sleb128 4
 4419 3127 3B       		.uleb128 0x3b
 4420 3128 5F535F69 		.ascii "_S_ios_iostate_end\0"
 4420      6F735F69 
 4420      6F737461 
 4420      74655F65 
 4420      6E6400
GAS LISTING C:\Users\NJLLMR~1\AppData\Local\Temp\cc5gZH1j.s 			page 107


 4421 313b 808004   		.sleb128 65536
 4422 313e 00       		.byte	0
 4423 313f 3A       		.uleb128 0x3a
 4424 3140 5F496F73 		.ascii "_Ios_Seekdir\0"
 4424      5F536565 
 4424      6B646972 
 4424      00
 4425 314d 04       		.byte	0x4
 4426 314e 0F       		.byte	0xf
 4427 314f B5       		.byte	0xb5
 4428 3150 87310000 		.long	0x3187
 4429 3154 3B       		.uleb128 0x3b
 4430 3155 5F535F62 		.ascii "_S_beg\0"
 4430      656700
 4431 315c 00       		.sleb128 0
 4432 315d 3B       		.uleb128 0x3b
 4433 315e 5F535F63 		.ascii "_S_cur\0"
 4433      757200
 4434 3165 01       		.sleb128 1
 4435 3166 3B       		.uleb128 0x3b
 4436 3167 5F535F65 		.ascii "_S_end\0"
 4436      6E6400
 4437 316e 02       		.sleb128 2
 4438 316f 3B       		.uleb128 0x3b
 4439 3170 5F535F69 		.ascii "_S_ios_seekdir_end\0"
 4439      6F735F73 
 4439      65656B64 
 4439      69725F65 
 4439      6E6400
 4440 3183 808004   		.sleb128 65536
 4441 3186 00       		.byte	0
 4442 3187 3C       		.uleb128 0x3c
 4443 3188 696F735F 		.ascii "ios_base\0"
 4443      62617365 
 4443      00
 4444 3191 76340000 		.long	0x3476
 4445 3195 3D       		.uleb128 0x3d
 4446 3196 496E6974 		.ascii "Init\0"
 4446      00
 4447 319b 01       		.byte	0x1
 4448 319c 0F       		.byte	0xf
 4449 319d 1502     		.word	0x215
 4450 319f 01       		.byte	0x1
 4451 31a0 08320000 		.long	0x3208
 4452 31a4 3E       		.uleb128 0x3e
 4453 31a5 5F535F72 		.ascii "_S_refcount\0"
 4453      6566636F 
 4453      756E7400 
 4454 31b1 0F       		.byte	0xf
 4455 31b2 1D02     		.word	0x21d
 4456 31b4 76450000 		.long	0x4576
 4457 31b8 3E       		.uleb128 0x3e
 4458 31b9 5F535F73 		.ascii "_S_synced_with_stdio\0"
 4458      796E6365 
 4458      645F7769 
 4458      74685F73 
 4458      7464696F 
GAS LISTING C:\Users\NJLLMR~1\AppData\Local\Temp\cc5gZH1j.s 			page 108


 4459 31ce 0F       		.byte	0xf
 4460 31cf 1E02     		.word	0x21e
 4461 31d1 83430000 		.long	0x4383
 4462 31d5 30       		.uleb128 0x30
 4463 31d6 496E6974 		.ascii "Init\0"
 4463      00
 4464 31db 0F       		.byte	0xf
 4465 31dc 1902     		.word	0x219
 4466 31de 01       		.byte	0x1
 4467 31df E7310000 		.long	0x31e7
 4468 31e3 ED310000 		.long	0x31ed
 4469 31e7 04       		.uleb128 0x4
 4470 31e8 05460000 		.long	0x4605
 4471 31ec 00       		.byte	0
 4472 31ed 3F       		.uleb128 0x3f
 4473 31ee 7E496E69 		.ascii "~Init\0"
 4473      7400
 4474 31f4 0F       		.byte	0xf
 4475 31f5 1A02     		.word	0x21a
 4476 31f7 01       		.byte	0x1
 4477 31f8 FC310000 		.long	0x31fc
 4478 31fc 04       		.uleb128 0x4
 4479 31fd 05460000 		.long	0x4605
 4480 3201 04       		.uleb128 0x4
 4481 3202 CB020000 		.long	0x2cb
 4482 3206 00       		.byte	0
 4483 3207 00       		.byte	0
 4484 3208 23       		.uleb128 0x23
 4485 3209 666D7466 		.ascii "fmtflags\0"
 4485      6C616773 
 4485      00
 4486 3212 0F       		.byte	0xf
 4487 3213 FF       		.byte	0xff
 4488 3214 532F0000 		.long	0x2f53
 4489 3218 01       		.byte	0x1
 4490 3219 40       		.uleb128 0x40
 4491 321a 6F70656E 		.ascii "openmode\0"
 4491      6D6F6465 
 4491      00
 4492 3223 0F       		.byte	0xf
 4493 3224 6901     		.word	0x169
 4494 3226 7A300000 		.long	0x307a
 4495 322a 01       		.byte	0x1
 4496 322b 40       		.uleb128 0x40
 4497 322c 7365656B 		.ascii "seekdir\0"
 4497      64697200 
 4498 3234 0F       		.byte	0xf
 4499 3235 8901     		.word	0x189
 4500 3237 3F310000 		.long	0x313f
 4501 323b 01       		.byte	0x1
 4502 323c 41       		.uleb128 0x41
 4503 323d 626F6F6C 		.ascii "boolalpha\0"
 4503      616C7068 
 4503      6100
 4504 3247 0F       		.byte	0xf
 4505 3248 0201     		.word	0x102
 4506 324a 50320000 		.long	0x3250
GAS LISTING C:\Users\NJLLMR~1\AppData\Local\Temp\cc5gZH1j.s 			page 109


 4507 324e 01       		.byte	0x1
 4508 324f 01       		.byte	0x1
 4509 3250 14       		.uleb128 0x14
 4510 3251 08320000 		.long	0x3208
 4511 3255 41       		.uleb128 0x41
 4512 3256 64656300 		.ascii "dec\0"
 4513 325a 0F       		.byte	0xf
 4514 325b 0501     		.word	0x105
 4515 325d 50320000 		.long	0x3250
 4516 3261 01       		.byte	0x1
 4517 3262 02       		.byte	0x2
 4518 3263 41       		.uleb128 0x41
 4519 3264 66697865 		.ascii "fixed\0"
 4519      6400
 4520 326a 0F       		.byte	0xf
 4521 326b 0801     		.word	0x108
 4522 326d 50320000 		.long	0x3250
 4523 3271 01       		.byte	0x1
 4524 3272 04       		.byte	0x4
 4525 3273 41       		.uleb128 0x41
 4526 3274 68657800 		.ascii "hex\0"
 4527 3278 0F       		.byte	0xf
 4528 3279 0B01     		.word	0x10b
 4529 327b 50320000 		.long	0x3250
 4530 327f 01       		.byte	0x1
 4531 3280 08       		.byte	0x8
 4532 3281 41       		.uleb128 0x41
 4533 3282 696E7465 		.ascii "internal\0"
 4533      726E616C 
 4533      00
 4534 328b 0F       		.byte	0xf
 4535 328c 1001     		.word	0x110
 4536 328e 50320000 		.long	0x3250
 4537 3292 01       		.byte	0x1
 4538 3293 10       		.byte	0x10
 4539 3294 41       		.uleb128 0x41
 4540 3295 6C656674 		.ascii "left\0"
 4540      00
 4541 329a 0F       		.byte	0xf
 4542 329b 1401     		.word	0x114
 4543 329d 50320000 		.long	0x3250
 4544 32a1 01       		.byte	0x1
 4545 32a2 20       		.byte	0x20
 4546 32a3 41       		.uleb128 0x41
 4547 32a4 6F637400 		.ascii "oct\0"
 4548 32a8 0F       		.byte	0xf
 4549 32a9 1701     		.word	0x117
 4550 32ab 50320000 		.long	0x3250
 4551 32af 01       		.byte	0x1
 4552 32b0 40       		.byte	0x40
 4553 32b1 41       		.uleb128 0x41
 4554 32b2 72696768 		.ascii "right\0"
 4554      7400
 4555 32b8 0F       		.byte	0xf
 4556 32b9 1B01     		.word	0x11b
 4557 32bb 50320000 		.long	0x3250
 4558 32bf 01       		.byte	0x1
GAS LISTING C:\Users\NJLLMR~1\AppData\Local\Temp\cc5gZH1j.s 			page 110


 4559 32c0 80       		.byte	0x80
 4560 32c1 42       		.uleb128 0x42
 4561 32c2 73636965 		.ascii "scientific\0"
 4561      6E746966 
 4561      696300
 4562 32cd 0F       		.byte	0xf
 4563 32ce 1E01     		.word	0x11e
 4564 32d0 50320000 		.long	0x3250
 4565 32d4 01       		.byte	0x1
 4566 32d5 0001     		.word	0x100
 4567 32d7 42       		.uleb128 0x42
 4568 32d8 73686F77 		.ascii "showbase\0"
 4568      62617365 
 4568      00
 4569 32e1 0F       		.byte	0xf
 4570 32e2 2201     		.word	0x122
 4571 32e4 50320000 		.long	0x3250
 4572 32e8 01       		.byte	0x1
 4573 32e9 0002     		.word	0x200
 4574 32eb 42       		.uleb128 0x42
 4575 32ec 73686F77 		.ascii "showpoint\0"
 4575      706F696E 
 4575      7400
 4576 32f6 0F       		.byte	0xf
 4577 32f7 2601     		.word	0x126
 4578 32f9 50320000 		.long	0x3250
 4579 32fd 01       		.byte	0x1
 4580 32fe 0004     		.word	0x400
 4581 3300 42       		.uleb128 0x42
 4582 3301 73686F77 		.ascii "showpos\0"
 4582      706F7300 
 4583 3309 0F       		.byte	0xf
 4584 330a 2901     		.word	0x129
 4585 330c 50320000 		.long	0x3250
 4586 3310 01       		.byte	0x1
 4587 3311 0008     		.word	0x800
 4588 3313 42       		.uleb128 0x42
 4589 3314 736B6970 		.ascii "skipws\0"
 4589      777300
 4590 331b 0F       		.byte	0xf
 4591 331c 2C01     		.word	0x12c
 4592 331e 50320000 		.long	0x3250
 4593 3322 01       		.byte	0x1
 4594 3323 0010     		.word	0x1000
 4595 3325 42       		.uleb128 0x42
 4596 3326 756E6974 		.ascii "unitbuf\0"
 4596      62756600 
 4597 332e 0F       		.byte	0xf
 4598 332f 2F01     		.word	0x12f
 4599 3331 50320000 		.long	0x3250
 4600 3335 01       		.byte	0x1
 4601 3336 0020     		.word	0x2000
 4602 3338 42       		.uleb128 0x42
 4603 3339 75707065 		.ascii "uppercase\0"
 4603      72636173 
 4603      6500
 4604 3343 0F       		.byte	0xf
GAS LISTING C:\Users\NJLLMR~1\AppData\Local\Temp\cc5gZH1j.s 			page 111


 4605 3344 3301     		.word	0x133
 4606 3346 50320000 		.long	0x3250
 4607 334a 01       		.byte	0x1
 4608 334b 0040     		.word	0x4000
 4609 334d 41       		.uleb128 0x41
 4610 334e 61646A75 		.ascii "adjustfield\0"
 4610      73746669 
 4610      656C6400 
 4611 335a 0F       		.byte	0xf
 4612 335b 3601     		.word	0x136
 4613 335d 50320000 		.long	0x3250
 4614 3361 01       		.byte	0x1
 4615 3362 B0       		.byte	0xb0
 4616 3363 41       		.uleb128 0x41
 4617 3364 62617365 		.ascii "basefield\0"
 4617      6669656C 
 4617      6400
 4618 336e 0F       		.byte	0xf
 4619 336f 3901     		.word	0x139
 4620 3371 50320000 		.long	0x3250
 4621 3375 01       		.byte	0x1
 4622 3376 4A       		.byte	0x4a
 4623 3377 42       		.uleb128 0x42
 4624 3378 666C6F61 		.ascii "floatfield\0"
 4624      74666965 
 4624      6C6400
 4625 3383 0F       		.byte	0xf
 4626 3384 3C01     		.word	0x13c
 4627 3386 50320000 		.long	0x3250
 4628 338a 01       		.byte	0x1
 4629 338b 0401     		.word	0x104
 4630 338d 40       		.uleb128 0x40
 4631 338e 696F7374 		.ascii "iostate\0"
 4631      61746500 
 4632 3396 0F       		.byte	0xf
 4633 3397 4A01     		.word	0x14a
 4634 3399 E0300000 		.long	0x30e0
 4635 339d 01       		.byte	0x1
 4636 339e 41       		.uleb128 0x41
 4637 339f 62616462 		.ascii "badbit\0"
 4637      697400
 4638 33a6 0F       		.byte	0xf
 4639 33a7 4E01     		.word	0x14e
 4640 33a9 AF330000 		.long	0x33af
 4641 33ad 01       		.byte	0x1
 4642 33ae 01       		.byte	0x1
 4643 33af 14       		.uleb128 0x14
 4644 33b0 8D330000 		.long	0x338d
 4645 33b4 41       		.uleb128 0x41
 4646 33b5 656F6662 		.ascii "eofbit\0"
 4646      697400
 4647 33bc 0F       		.byte	0xf
 4648 33bd 5101     		.word	0x151
 4649 33bf AF330000 		.long	0x33af
 4650 33c3 01       		.byte	0x1
 4651 33c4 02       		.byte	0x2
 4652 33c5 41       		.uleb128 0x41
GAS LISTING C:\Users\NJLLMR~1\AppData\Local\Temp\cc5gZH1j.s 			page 112


 4653 33c6 6661696C 		.ascii "failbit\0"
 4653      62697400 
 4654 33ce 0F       		.byte	0xf
 4655 33cf 5601     		.word	0x156
 4656 33d1 AF330000 		.long	0x33af
 4657 33d5 01       		.byte	0x1
 4658 33d6 04       		.byte	0x4
 4659 33d7 41       		.uleb128 0x41
 4660 33d8 676F6F64 		.ascii "goodbit\0"
 4660      62697400 
 4661 33e0 0F       		.byte	0xf
 4662 33e1 5901     		.word	0x159
 4663 33e3 AF330000 		.long	0x33af
 4664 33e7 01       		.byte	0x1
 4665 33e8 00       		.byte	0
 4666 33e9 41       		.uleb128 0x41
 4667 33ea 61707000 		.ascii "app\0"
 4668 33ee 0F       		.byte	0xf
 4669 33ef 6C01     		.word	0x16c
 4670 33f1 F7330000 		.long	0x33f7
 4671 33f5 01       		.byte	0x1
 4672 33f6 01       		.byte	0x1
 4673 33f7 14       		.uleb128 0x14
 4674 33f8 19320000 		.long	0x3219
 4675 33fc 41       		.uleb128 0x41
 4676 33fd 61746500 		.ascii "ate\0"
 4677 3401 0F       		.byte	0xf
 4678 3402 6F01     		.word	0x16f
 4679 3404 F7330000 		.long	0x33f7
 4680 3408 01       		.byte	0x1
 4681 3409 02       		.byte	0x2
 4682 340a 41       		.uleb128 0x41
 4683 340b 62696E61 		.ascii "binary\0"
 4683      727900
 4684 3412 0F       		.byte	0xf
 4685 3413 7401     		.word	0x174
 4686 3415 F7330000 		.long	0x33f7
 4687 3419 01       		.byte	0x1
 4688 341a 04       		.byte	0x4
 4689 341b 41       		.uleb128 0x41
 4690 341c 696E00   		.ascii "in\0"
 4691 341f 0F       		.byte	0xf
 4692 3420 7701     		.word	0x177
 4693 3422 F7330000 		.long	0x33f7
 4694 3426 01       		.byte	0x1
 4695 3427 08       		.byte	0x8
 4696 3428 41       		.uleb128 0x41
 4697 3429 6F757400 		.ascii "out\0"
 4698 342d 0F       		.byte	0xf
 4699 342e 7A01     		.word	0x17a
 4700 3430 F7330000 		.long	0x33f7
 4701 3434 01       		.byte	0x1
 4702 3435 10       		.byte	0x10
 4703 3436 41       		.uleb128 0x41
 4704 3437 7472756E 		.ascii "trunc\0"
 4704      6300
 4705 343d 0F       		.byte	0xf
GAS LISTING C:\Users\NJLLMR~1\AppData\Local\Temp\cc5gZH1j.s 			page 113


 4706 343e 7D01     		.word	0x17d
 4707 3440 F7330000 		.long	0x33f7
 4708 3444 01       		.byte	0x1
 4709 3445 20       		.byte	0x20
 4710 3446 41       		.uleb128 0x41
 4711 3447 62656700 		.ascii "beg\0"
 4712 344b 0F       		.byte	0xf
 4713 344c 8C01     		.word	0x18c
 4714 344e 54340000 		.long	0x3454
 4715 3452 01       		.byte	0x1
 4716 3453 00       		.byte	0
 4717 3454 14       		.uleb128 0x14
 4718 3455 2B320000 		.long	0x322b
 4719 3459 41       		.uleb128 0x41
 4720 345a 63757200 		.ascii "cur\0"
 4721 345e 0F       		.byte	0xf
 4722 345f 8F01     		.word	0x18f
 4723 3461 54340000 		.long	0x3454
 4724 3465 01       		.byte	0x1
 4725 3466 01       		.byte	0x1
 4726 3467 41       		.uleb128 0x41
 4727 3468 656E6400 		.ascii "end\0"
 4728 346c 0F       		.byte	0xf
 4729 346d 9201     		.word	0x192
 4730 346f 54340000 		.long	0x3454
 4731 3473 01       		.byte	0x1
 4732 3474 02       		.byte	0x2
 4733 3475 00       		.byte	0
 4734 3476 0F       		.uleb128 0xf
 4735 3477 10       		.byte	0x10
 4736 3478 52       		.byte	0x52
 4737 3479 BA020000 		.long	0x2ba
 4738 347d 0F       		.uleb128 0xf
 4739 347e 10       		.byte	0x10
 4740 347f 53       		.byte	0x53
 4741 3480 9F020000 		.long	0x29f
 4742 3484 0F       		.uleb128 0xf
 4743 3485 10       		.byte	0x10
 4744 3486 54       		.byte	0x54
 4745 3487 5A020000 		.long	0x25a
 4746 348b 0F       		.uleb128 0xf
 4747 348c 10       		.byte	0x10
 4748 348d 5C       		.byte	0x5c
 4749 348e 0B460000 		.long	0x460b
 4750 3492 0F       		.uleb128 0xf
 4751 3493 10       		.byte	0x10
 4752 3494 65       		.byte	0x65
 4753 3495 2A460000 		.long	0x462a
 4754 3499 0F       		.uleb128 0xf
 4755 349a 10       		.byte	0x10
 4756 349b 68       		.byte	0x68
 4757 349c 4A460000 		.long	0x464a
 4758 34a0 0F       		.uleb128 0xf
 4759 34a1 10       		.byte	0x10
 4760 34a2 69       		.byte	0x69
 4761 34a3 63460000 		.long	0x4663
 4762 34a7 3C       		.uleb128 0x3c
GAS LISTING C:\Users\NJLLMR~1\AppData\Local\Temp\cc5gZH1j.s 			page 114


 4763 34a8 62617369 		.ascii "basic_ostream<char, std::char_traits<char> >\0"
 4763      635F6F73 
 4763      74726561 
 4763      6D3C6368 
 4763      61722C20 
 4764 34d5 EC340000 		.long	0x34ec
 4765 34d9 36       		.uleb128 0x36
 4766 34da 08000000 		.secrel32	LASF23
 4767 34de 97020000 		.long	0x297
 4768 34e2 37       		.uleb128 0x37
 4769 34e3 0F000000 		.secrel32	LASF22
 4770 34e7 52060000 		.long	0x652
 4771 34eb 00       		.byte	0
 4772 34ec 3C       		.uleb128 0x3c
 4773 34ed 62617369 		.ascii "basic_istream<char, std::char_traits<char> >\0"
 4773      635F6973 
 4773      74726561 
 4773      6D3C6368 
 4773      61722C20 
 4774 351a 31350000 		.long	0x3531
 4775 351e 36       		.uleb128 0x36
 4776 351f 08000000 		.secrel32	LASF23
 4777 3523 97020000 		.long	0x297
 4778 3527 37       		.uleb128 0x37
 4779 3528 0F000000 		.secrel32	LASF22
 4780 352c 52060000 		.long	0x652
 4781 3530 00       		.byte	0
 4782 3531 0F       		.uleb128 0xf
 4783 3532 11       		.byte	0x11
 4784 3533 62       		.byte	0x62
 4785 3534 89030000 		.long	0x389
 4786 3538 0F       		.uleb128 0xf
 4787 3539 11       		.byte	0x11
 4788 353a 63       		.byte	0x63
 4789 353b 80460000 		.long	0x4680
 4790 353f 0F       		.uleb128 0xf
 4791 3540 11       		.byte	0x11
 4792 3541 65       		.byte	0x65
 4793 3542 96460000 		.long	0x4696
 4794 3546 0F       		.uleb128 0xf
 4795 3547 11       		.byte	0x11
 4796 3548 66       		.byte	0x66
 4797 3549 AD460000 		.long	0x46ad
 4798 354d 0F       		.uleb128 0xf
 4799 354e 11       		.byte	0x11
 4800 354f 67       		.byte	0x67
 4801 3550 C5460000 		.long	0x46c5
 4802 3554 0F       		.uleb128 0xf
 4803 3555 11       		.byte	0x11
 4804 3556 68       		.byte	0x68
 4805 3557 DC460000 		.long	0x46dc
 4806 355b 0F       		.uleb128 0xf
 4807 355c 11       		.byte	0x11
 4808 355d 69       		.byte	0x69
 4809 355e F5460000 		.long	0x46f5
 4810 3562 0F       		.uleb128 0xf
 4811 3563 11       		.byte	0x11
GAS LISTING C:\Users\NJLLMR~1\AppData\Local\Temp\cc5gZH1j.s 			page 115


 4812 3564 6A       		.byte	0x6a
 4813 3565 0D470000 		.long	0x470d
 4814 3569 0F       		.uleb128 0xf
 4815 356a 11       		.byte	0x11
 4816 356b 6B       		.byte	0x6b
 4817 356c 25470000 		.long	0x4725
 4818 3570 0F       		.uleb128 0xf
 4819 3571 11       		.byte	0x11
 4820 3572 6C       		.byte	0x6c
 4821 3573 4A470000 		.long	0x474a
 4822 3577 0F       		.uleb128 0xf
 4823 3578 11       		.byte	0x11
 4824 3579 6D       		.byte	0x6d
 4825 357a 6C470000 		.long	0x476c
 4826 357e 0F       		.uleb128 0xf
 4827 357f 11       		.byte	0x11
 4828 3580 71       		.byte	0x71
 4829 3581 88470000 		.long	0x4788
 4830 3585 0F       		.uleb128 0xf
 4831 3586 11       		.byte	0x11
 4832 3587 72       		.byte	0x72
 4833 3588 AF470000 		.long	0x47af
 4834 358c 0F       		.uleb128 0xf
 4835 358d 11       		.byte	0x11
 4836 358e 74       		.byte	0x74
 4837 358f D2470000 		.long	0x47d2
 4838 3593 0F       		.uleb128 0xf
 4839 3594 11       		.byte	0x11
 4840 3595 75       		.byte	0x75
 4841 3596 F4470000 		.long	0x47f4
 4842 359a 0F       		.uleb128 0xf
 4843 359b 11       		.byte	0x11
 4844 359c 76       		.byte	0x76
 4845 359d 1E480000 		.long	0x481e
 4846 35a1 0F       		.uleb128 0xf
 4847 35a2 11       		.byte	0x11
 4848 35a3 78       		.byte	0x78
 4849 35a4 36480000 		.long	0x4836
 4850 35a8 0F       		.uleb128 0xf
 4851 35a9 11       		.byte	0x11
 4852 35aa 79       		.byte	0x79
 4853 35ab 4D480000 		.long	0x484d
 4854 35af 0F       		.uleb128 0xf
 4855 35b0 11       		.byte	0x11
 4856 35b1 7C       		.byte	0x7c
 4857 35b2 5D480000 		.long	0x485d
 4858 35b6 0F       		.uleb128 0xf
 4859 35b7 11       		.byte	0x11
 4860 35b8 7E       		.byte	0x7e
 4861 35b9 74480000 		.long	0x4874
 4862 35bd 0F       		.uleb128 0xf
 4863 35be 11       		.byte	0x11
 4864 35bf 80       		.byte	0x80
 4865 35c0 89480000 		.long	0x4889
 4866 35c4 0F       		.uleb128 0xf
 4867 35c5 11       		.byte	0x11
 4868 35c6 81       		.byte	0x81
GAS LISTING C:\Users\NJLLMR~1\AppData\Local\Temp\cc5gZH1j.s 			page 116


 4869 35c7 A5480000 		.long	0x48a5
 4870 35cb 0F       		.uleb128 0xf
 4871 35cc 11       		.byte	0x11
 4872 35cd 83       		.byte	0x83
 4873 35ce BF480000 		.long	0x48bf
 4874 35d2 0F       		.uleb128 0xf
 4875 35d3 11       		.byte	0x11
 4876 35d4 84       		.byte	0x84
 4877 35d5 D7480000 		.long	0x48d7
 4878 35d9 0F       		.uleb128 0xf
 4879 35da 11       		.byte	0x11
 4880 35db 85       		.byte	0x85
 4881 35dc F4480000 		.long	0x48f4
 4882 35e0 0F       		.uleb128 0xf
 4883 35e1 11       		.byte	0x11
 4884 35e2 87       		.byte	0x87
 4885 35e3 09490000 		.long	0x4909
 4886 35e7 0F       		.uleb128 0xf
 4887 35e8 11       		.byte	0x11
 4888 35e9 88       		.byte	0x88
 4889 35ea 22490000 		.long	0x4922
 4890 35ee 0F       		.uleb128 0xf
 4891 35ef 11       		.byte	0x11
 4892 35f0 8B       		.byte	0x8b
 4893 35f1 4A490000 		.long	0x494a
 4894 35f5 0F       		.uleb128 0xf
 4895 35f6 11       		.byte	0x11
 4896 35f7 8D       		.byte	0x8d
 4897 35f8 59490000 		.long	0x4959
 4898 35fc 0F       		.uleb128 0xf
 4899 35fd 11       		.byte	0x11
 4900 35fe 8F       		.byte	0x8f
 4901 35ff 71490000 		.long	0x4971
 4902 3603 08       		.uleb128 0x8
 4903 3604 69737472 		.ascii "istream\0"
 4903      65616D00 
 4904 360c 12       		.byte	0x12
 4905 360d 85       		.byte	0x85
 4906 360e EC340000 		.long	0x34ec
 4907 3612 43       		.uleb128 0x43
 4908 3613 63696E00 		.ascii "cin\0"
 4909 3617 02       		.byte	0x2
 4910 3618 3C       		.byte	0x3c
 4911 3619 5F5A5374 		.ascii "_ZSt3cin\0"
 4911      3363696E 
 4911      00
 4912 3622 03360000 		.long	0x3603
 4913 3626 08       		.uleb128 0x8
 4914 3627 6F737472 		.ascii "ostream\0"
 4914      65616D00 
 4915 362f 12       		.byte	0x12
 4916 3630 88       		.byte	0x88
 4917 3631 A7340000 		.long	0x34a7
 4918 3635 43       		.uleb128 0x43
 4919 3636 636F7574 		.ascii "cout\0"
 4919      00
 4920 363b 02       		.byte	0x2
GAS LISTING C:\Users\NJLLMR~1\AppData\Local\Temp\cc5gZH1j.s 			page 117


 4921 363c 3D       		.byte	0x3d
 4922 363d 5F5A5374 		.ascii "_ZSt4cout\0"
 4922      34636F75 
 4922      7400
 4923 3647 26360000 		.long	0x3626
 4924 364b 44       		.uleb128 0x44
 4925 364c 5F5F696F 		.ascii "__ioinit\0"
 4925      696E6974 
 4925      00
 4926 3655 02       		.byte	0x2
 4927 3656 4A       		.byte	0x4a
 4928 3657 95310000 		.long	0x3195
 4929 365b 00       		.byte	0
 4930 365c 45       		.uleb128 0x45
 4931 365d 62746F77 		.ascii "btowc\0"
 4931      6300
 4932 3663 06       		.byte	0x6
 4933 3664 2901     		.word	0x129
 4934 3666 5A020000 		.long	0x25a
 4935 366a 74360000 		.long	0x3674
 4936 366e 13       		.uleb128 0x13
 4937 366f CB020000 		.long	0x2cb
 4938 3673 00       		.byte	0
 4939 3674 46       		.uleb128 0x46
 4940 3675 66676574 		.ascii "fgetwc\0"
 4940      776300
 4941 367c 06       		.byte	0x6
 4942 367d 70       		.byte	0x70
 4943 367e 5A020000 		.long	0x25a
 4944 3682 8C360000 		.long	0x368c
 4945 3686 13       		.uleb128 0x13
 4946 3687 8C360000 		.long	0x368c
 4947 368b 00       		.byte	0
 4948 368c 07       		.uleb128 0x7
 4949 368d 04       		.byte	0x4
 4950 368e 89030000 		.long	0x389
 4951 3692 46       		.uleb128 0x46
 4952 3693 66676574 		.ascii "fgetws\0"
 4952      777300
 4953 369a 06       		.byte	0x6
 4954 369b 7B       		.byte	0x7b
 4955 369c B4360000 		.long	0x36b4
 4956 36a0 B4360000 		.long	0x36b4
 4957 36a4 13       		.uleb128 0x13
 4958 36a5 B4360000 		.long	0x36b4
 4959 36a9 13       		.uleb128 0x13
 4960 36aa CB020000 		.long	0x2cb
 4961 36ae 13       		.uleb128 0x13
 4962 36af 8C360000 		.long	0x368c
 4963 36b3 00       		.byte	0
 4964 36b4 07       		.uleb128 0x7
 4965 36b5 04       		.byte	0x4
 4966 36b6 AF020000 		.long	0x2af
 4967 36ba 46       		.uleb128 0x46
 4968 36bb 66707574 		.ascii "fputwc\0"
 4968      776300
 4969 36c2 06       		.byte	0x6
GAS LISTING C:\Users\NJLLMR~1\AppData\Local\Temp\cc5gZH1j.s 			page 118


 4970 36c3 71       		.byte	0x71
 4971 36c4 5A020000 		.long	0x25a
 4972 36c8 D7360000 		.long	0x36d7
 4973 36cc 13       		.uleb128 0x13
 4974 36cd AF020000 		.long	0x2af
 4975 36d1 13       		.uleb128 0x13
 4976 36d2 8C360000 		.long	0x368c
 4977 36d6 00       		.byte	0
 4978 36d7 46       		.uleb128 0x46
 4979 36d8 66707574 		.ascii "fputws\0"
 4979      777300
 4980 36df 06       		.byte	0x6
 4981 36e0 7C       		.byte	0x7c
 4982 36e1 CB020000 		.long	0x2cb
 4983 36e5 F4360000 		.long	0x36f4
 4984 36e9 13       		.uleb128 0x13
 4985 36ea F4360000 		.long	0x36f4
 4986 36ee 13       		.uleb128 0x13
 4987 36ef 8C360000 		.long	0x368c
 4988 36f3 00       		.byte	0
 4989 36f4 07       		.uleb128 0x7
 4990 36f5 04       		.byte	0x4
 4991 36f6 FA360000 		.long	0x36fa
 4992 36fa 14       		.uleb128 0x14
 4993 36fb AF020000 		.long	0x2af
 4994 36ff 45       		.uleb128 0x45
 4995 3700 66776964 		.ascii "fwide\0"
 4995      6500
 4996 3706 06       		.byte	0x6
 4997 3707 3701     		.word	0x137
 4998 3709 CB020000 		.long	0x2cb
 4999 370d 1C370000 		.long	0x371c
 5000 3711 13       		.uleb128 0x13
 5001 3712 8C360000 		.long	0x368c
 5002 3716 13       		.uleb128 0x13
 5003 3717 CB020000 		.long	0x2cb
 5004 371b 00       		.byte	0
 5005 371c 46       		.uleb128 0x46
 5006 371d 66777072 		.ascii "fwprintf\0"
 5006      696E7466 
 5006      00
 5007 3726 06       		.byte	0x6
 5008 3727 67       		.byte	0x67
 5009 3728 CB020000 		.long	0x2cb
 5010 372c 3C370000 		.long	0x373c
 5011 3730 13       		.uleb128 0x13
 5012 3731 8C360000 		.long	0x368c
 5013 3735 13       		.uleb128 0x13
 5014 3736 F4360000 		.long	0x36f4
 5015 373a 47       		.uleb128 0x47
 5016 373b 00       		.byte	0
 5017 373c 46       		.uleb128 0x46
 5018 373d 66777363 		.ascii "fwscanf\0"
 5018      616E6600 
 5019 3745 06       		.byte	0x6
 5020 3746 6D       		.byte	0x6d
 5021 3747 CB020000 		.long	0x2cb
GAS LISTING C:\Users\NJLLMR~1\AppData\Local\Temp\cc5gZH1j.s 			page 119


 5022 374b 5B370000 		.long	0x375b
 5023 374f 13       		.uleb128 0x13
 5024 3750 8C360000 		.long	0x368c
 5025 3754 13       		.uleb128 0x13
 5026 3755 F4360000 		.long	0x36f4
 5027 3759 47       		.uleb128 0x47
 5028 375a 00       		.byte	0
 5029 375b 46       		.uleb128 0x46
 5030 375c 67657477 		.ascii "getwc\0"
 5030      6300
 5031 3762 06       		.byte	0x6
 5032 3763 7D       		.byte	0x7d
 5033 3764 5A020000 		.long	0x25a
 5034 3768 72370000 		.long	0x3772
 5035 376c 13       		.uleb128 0x13
 5036 376d 8C360000 		.long	0x368c
 5037 3771 00       		.byte	0
 5038 3772 48       		.uleb128 0x48
 5039 3773 67657477 		.ascii "getwchar\0"
 5039      63686172 
 5039      00
 5040 377c 06       		.byte	0x6
 5041 377d 7E       		.byte	0x7e
 5042 377e 5A020000 		.long	0x25a
 5043 3782 45       		.uleb128 0x45
 5044 3783 6D62726C 		.ascii "mbrlen\0"
 5044      656E00
 5045 378a 06       		.byte	0x6
 5046 378b 2A01     		.word	0x12a
 5047 378d 3C020000 		.long	0x23c
 5048 3791 A5370000 		.long	0x37a5
 5049 3795 13       		.uleb128 0x13
 5050 3796 A5370000 		.long	0x37a5
 5051 379a 13       		.uleb128 0x13
 5052 379b 3C020000 		.long	0x23c
 5053 379f 13       		.uleb128 0x13
 5054 37a0 B0370000 		.long	0x37b0
 5055 37a4 00       		.byte	0
 5056 37a5 07       		.uleb128 0x7
 5057 37a6 04       		.byte	0x4
 5058 37a7 AB370000 		.long	0x37ab
 5059 37ab 14       		.uleb128 0x14
 5060 37ac 97020000 		.long	0x297
 5061 37b0 07       		.uleb128 0x7
 5062 37b1 04       		.byte	0x4
 5063 37b2 2F040000 		.long	0x42f
 5064 37b6 45       		.uleb128 0x45
 5065 37b7 6D627274 		.ascii "mbrtowc\0"
 5065      6F776300 
 5066 37bf 06       		.byte	0x6
 5067 37c0 2C01     		.word	0x12c
 5068 37c2 3C020000 		.long	0x23c
 5069 37c6 DF370000 		.long	0x37df
 5070 37ca 13       		.uleb128 0x13
 5071 37cb B4360000 		.long	0x36b4
 5072 37cf 13       		.uleb128 0x13
 5073 37d0 A5370000 		.long	0x37a5
GAS LISTING C:\Users\NJLLMR~1\AppData\Local\Temp\cc5gZH1j.s 			page 120


 5074 37d4 13       		.uleb128 0x13
 5075 37d5 3C020000 		.long	0x23c
 5076 37d9 13       		.uleb128 0x13
 5077 37da B0370000 		.long	0x37b0
 5078 37de 00       		.byte	0
 5079 37df 45       		.uleb128 0x45
 5080 37e0 6D627369 		.ascii "mbsinit\0"
 5080      6E697400 
 5081 37e8 06       		.byte	0x6
 5082 37e9 3801     		.word	0x138
 5083 37eb CB020000 		.long	0x2cb
 5084 37ef F9370000 		.long	0x37f9
 5085 37f3 13       		.uleb128 0x13
 5086 37f4 F9370000 		.long	0x37f9
 5087 37f8 00       		.byte	0
 5088 37f9 07       		.uleb128 0x7
 5089 37fa 04       		.byte	0x4
 5090 37fb FF370000 		.long	0x37ff
 5091 37ff 14       		.uleb128 0x14
 5092 3800 2F040000 		.long	0x42f
 5093 3804 45       		.uleb128 0x45
 5094 3805 6D627372 		.ascii "mbsrtowcs\0"
 5094      746F7763 
 5094      7300
 5095 380f 06       		.byte	0x6
 5096 3810 2E01     		.word	0x12e
 5097 3812 3C020000 		.long	0x23c
 5098 3816 2F380000 		.long	0x382f
 5099 381a 13       		.uleb128 0x13
 5100 381b B4360000 		.long	0x36b4
 5101 381f 13       		.uleb128 0x13
 5102 3820 2F380000 		.long	0x382f
 5103 3824 13       		.uleb128 0x13
 5104 3825 3C020000 		.long	0x23c
 5105 3829 13       		.uleb128 0x13
 5106 382a B0370000 		.long	0x37b0
 5107 382e 00       		.byte	0
 5108 382f 07       		.uleb128 0x7
 5109 3830 04       		.byte	0x4
 5110 3831 A5370000 		.long	0x37a5
 5111 3835 46       		.uleb128 0x46
 5112 3836 70757477 		.ascii "putwc\0"
 5112      6300
 5113 383c 06       		.byte	0x6
 5114 383d 7F       		.byte	0x7f
 5115 383e 5A020000 		.long	0x25a
 5116 3842 51380000 		.long	0x3851
 5117 3846 13       		.uleb128 0x13
 5118 3847 5A020000 		.long	0x25a
 5119 384b 13       		.uleb128 0x13
 5120 384c 8C360000 		.long	0x368c
 5121 3850 00       		.byte	0
 5122 3851 46       		.uleb128 0x46
 5123 3852 70757477 		.ascii "putwchar\0"
 5123      63686172 
 5123      00
 5124 385b 06       		.byte	0x6
GAS LISTING C:\Users\NJLLMR~1\AppData\Local\Temp\cc5gZH1j.s 			page 121


 5125 385c 80       		.byte	0x80
 5126 385d 5A020000 		.long	0x25a
 5127 3861 6B380000 		.long	0x386b
 5128 3865 13       		.uleb128 0x13
 5129 3866 5A020000 		.long	0x25a
 5130 386a 00       		.byte	0
 5131 386b 46       		.uleb128 0x46
 5132 386c 73777363 		.ascii "swscanf\0"
 5132      616E6600 
 5133 3874 06       		.byte	0x6
 5134 3875 6F       		.byte	0x6f
 5135 3876 CB020000 		.long	0x2cb
 5136 387a 8A380000 		.long	0x388a
 5137 387e 13       		.uleb128 0x13
 5138 387f F4360000 		.long	0x36f4
 5139 3883 13       		.uleb128 0x13
 5140 3884 F4360000 		.long	0x36f4
 5141 3888 47       		.uleb128 0x47
 5142 3889 00       		.byte	0
 5143 388a 46       		.uleb128 0x46
 5144 388b 756E6765 		.ascii "ungetwc\0"
 5144      74776300 
 5145 3893 06       		.byte	0x6
 5146 3894 72       		.byte	0x72
 5147 3895 5A020000 		.long	0x25a
 5148 3899 A8380000 		.long	0x38a8
 5149 389d 13       		.uleb128 0x13
 5150 389e AF020000 		.long	0x2af
 5151 38a2 13       		.uleb128 0x13
 5152 38a3 8C360000 		.long	0x368c
 5153 38a7 00       		.byte	0
 5154 38a8 46       		.uleb128 0x46
 5155 38a9 76667770 		.ascii "vfwprintf\0"
 5155      72696E74 
 5155      6600
 5156 38b3 06       		.byte	0x6
 5157 38b4 6A       		.byte	0x6a
 5158 38b5 CB020000 		.long	0x2cb
 5159 38b9 CD380000 		.long	0x38cd
 5160 38bd 13       		.uleb128 0x13
 5161 38be 8C360000 		.long	0x368c
 5162 38c2 13       		.uleb128 0x13
 5163 38c3 F4360000 		.long	0x36f4
 5164 38c7 13       		.uleb128 0x13
 5165 38c8 7F020000 		.long	0x27f
 5166 38cc 00       		.byte	0
 5167 38cd 46       		.uleb128 0x46
 5168 38ce 76667773 		.ascii "vfwscanf\0"
 5168      63616E66 
 5168      00
 5169 38d7 06       		.byte	0x6
 5170 38d8 9A       		.byte	0x9a
 5171 38d9 CB020000 		.long	0x2cb
 5172 38dd F1380000 		.long	0x38f1
 5173 38e1 13       		.uleb128 0x13
 5174 38e2 8C360000 		.long	0x368c
 5175 38e6 13       		.uleb128 0x13
GAS LISTING C:\Users\NJLLMR~1\AppData\Local\Temp\cc5gZH1j.s 			page 122


 5176 38e7 F4360000 		.long	0x36f4
 5177 38eb 13       		.uleb128 0x13
 5178 38ec 7F020000 		.long	0x27f
 5179 38f0 00       		.byte	0
 5180 38f1 46       		.uleb128 0x46
 5181 38f2 76737773 		.ascii "vswscanf\0"
 5181      63616E66 
 5181      00
 5182 38fb 06       		.byte	0x6
 5183 38fc 9C       		.byte	0x9c
 5184 38fd CB020000 		.long	0x2cb
 5185 3901 15390000 		.long	0x3915
 5186 3905 13       		.uleb128 0x13
 5187 3906 F4360000 		.long	0x36f4
 5188 390a 13       		.uleb128 0x13
 5189 390b F4360000 		.long	0x36f4
 5190 390f 13       		.uleb128 0x13
 5191 3910 7F020000 		.long	0x27f
 5192 3914 00       		.byte	0
 5193 3915 46       		.uleb128 0x46
 5194 3916 76777072 		.ascii "vwprintf\0"
 5194      696E7466 
 5194      00
 5195 391f 06       		.byte	0x6
 5196 3920 6B       		.byte	0x6b
 5197 3921 CB020000 		.long	0x2cb
 5198 3925 34390000 		.long	0x3934
 5199 3929 13       		.uleb128 0x13
 5200 392a F4360000 		.long	0x36f4
 5201 392e 13       		.uleb128 0x13
 5202 392f 7F020000 		.long	0x27f
 5203 3933 00       		.byte	0
 5204 3934 46       		.uleb128 0x46
 5205 3935 76777363 		.ascii "vwscanf\0"
 5205      616E6600 
 5206 393d 06       		.byte	0x6
 5207 393e 99       		.byte	0x99
 5208 393f CB020000 		.long	0x2cb
 5209 3943 52390000 		.long	0x3952
 5210 3947 13       		.uleb128 0x13
 5211 3948 F4360000 		.long	0x36f4
 5212 394c 13       		.uleb128 0x13
 5213 394d 7F020000 		.long	0x27f
 5214 3951 00       		.byte	0
 5215 3952 45       		.uleb128 0x45
 5216 3953 77637274 		.ascii "wcrtomb\0"
 5216      6F6D6200 
 5217 395b 06       		.byte	0x6
 5218 395c 3001     		.word	0x130
 5219 395e 3C020000 		.long	0x23c
 5220 3962 76390000 		.long	0x3976
 5221 3966 13       		.uleb128 0x13
 5222 3967 83030000 		.long	0x383
 5223 396b 13       		.uleb128 0x13
 5224 396c AF020000 		.long	0x2af
 5225 3970 13       		.uleb128 0x13
 5226 3971 B0370000 		.long	0x37b0
GAS LISTING C:\Users\NJLLMR~1\AppData\Local\Temp\cc5gZH1j.s 			page 123


 5227 3975 00       		.byte	0
 5228 3976 46       		.uleb128 0x46
 5229 3977 77637363 		.ascii "wcscat\0"
 5229      617400
 5230 397e 06       		.byte	0x6
 5231 397f D9       		.byte	0xd9
 5232 3980 B4360000 		.long	0x36b4
 5233 3984 93390000 		.long	0x3993
 5234 3988 13       		.uleb128 0x13
 5235 3989 B4360000 		.long	0x36b4
 5236 398d 13       		.uleb128 0x13
 5237 398e F4360000 		.long	0x36f4
 5238 3992 00       		.byte	0
 5239 3993 46       		.uleb128 0x46
 5240 3994 77637363 		.ascii "wcscmp\0"
 5240      6D7000
 5241 399b 06       		.byte	0x6
 5242 399c DB       		.byte	0xdb
 5243 399d CB020000 		.long	0x2cb
 5244 39a1 B0390000 		.long	0x39b0
 5245 39a5 13       		.uleb128 0x13
 5246 39a6 F4360000 		.long	0x36f4
 5247 39aa 13       		.uleb128 0x13
 5248 39ab F4360000 		.long	0x36f4
 5249 39af 00       		.byte	0
 5250 39b0 46       		.uleb128 0x46
 5251 39b1 77637363 		.ascii "wcscoll\0"
 5251      6F6C6C00 
 5252 39b9 06       		.byte	0x6
 5253 39ba DC       		.byte	0xdc
 5254 39bb CB020000 		.long	0x2cb
 5255 39bf CE390000 		.long	0x39ce
 5256 39c3 13       		.uleb128 0x13
 5257 39c4 F4360000 		.long	0x36f4
 5258 39c8 13       		.uleb128 0x13
 5259 39c9 F4360000 		.long	0x36f4
 5260 39cd 00       		.byte	0
 5261 39ce 46       		.uleb128 0x46
 5262 39cf 77637363 		.ascii "wcscpy\0"
 5262      707900
 5263 39d6 06       		.byte	0x6
 5264 39d7 DD       		.byte	0xdd
 5265 39d8 B4360000 		.long	0x36b4
 5266 39dc EB390000 		.long	0x39eb
 5267 39e0 13       		.uleb128 0x13
 5268 39e1 B4360000 		.long	0x36b4
 5269 39e5 13       		.uleb128 0x13
 5270 39e6 F4360000 		.long	0x36f4
 5271 39ea 00       		.byte	0
 5272 39eb 46       		.uleb128 0x46
 5273 39ec 77637363 		.ascii "wcscspn\0"
 5273      73706E00 
 5274 39f4 06       		.byte	0x6
 5275 39f5 DE       		.byte	0xde
 5276 39f6 3C020000 		.long	0x23c
 5277 39fa 093A0000 		.long	0x3a09
 5278 39fe 13       		.uleb128 0x13
GAS LISTING C:\Users\NJLLMR~1\AppData\Local\Temp\cc5gZH1j.s 			page 124


 5279 39ff F4360000 		.long	0x36f4
 5280 3a03 13       		.uleb128 0x13
 5281 3a04 F4360000 		.long	0x36f4
 5282 3a08 00       		.byte	0
 5283 3a09 46       		.uleb128 0x46
 5284 3a0a 77637366 		.ascii "wcsftime\0"
 5284      74696D65 
 5284      00
 5285 3a13 06       		.byte	0x6
 5286 3a14 CF       		.byte	0xcf
 5287 3a15 3C020000 		.long	0x23c
 5288 3a19 323A0000 		.long	0x3a32
 5289 3a1d 13       		.uleb128 0x13
 5290 3a1e B4360000 		.long	0x36b4
 5291 3a22 13       		.uleb128 0x13
 5292 3a23 3C020000 		.long	0x23c
 5293 3a27 13       		.uleb128 0x13
 5294 3a28 F4360000 		.long	0x36f4
 5295 3a2c 13       		.uleb128 0x13
 5296 3a2d 323A0000 		.long	0x3a32
 5297 3a31 00       		.byte	0
 5298 3a32 07       		.uleb128 0x7
 5299 3a33 04       		.byte	0x4
 5300 3a34 383A0000 		.long	0x3a38
 5301 3a38 14       		.uleb128 0x14
 5302 3a39 95030000 		.long	0x395
 5303 3a3d 46       		.uleb128 0x46
 5304 3a3e 7763736C 		.ascii "wcslen\0"
 5304      656E00
 5305 3a45 06       		.byte	0x6
 5306 3a46 E0       		.byte	0xe0
 5307 3a47 3C020000 		.long	0x23c
 5308 3a4b 553A0000 		.long	0x3a55
 5309 3a4f 13       		.uleb128 0x13
 5310 3a50 F4360000 		.long	0x36f4
 5311 3a54 00       		.byte	0
 5312 3a55 46       		.uleb128 0x46
 5313 3a56 7763736E 		.ascii "wcsncat\0"
 5313      63617400 
 5314 3a5e 06       		.byte	0x6
 5315 3a5f E1       		.byte	0xe1
 5316 3a60 B4360000 		.long	0x36b4
 5317 3a64 783A0000 		.long	0x3a78
 5318 3a68 13       		.uleb128 0x13
 5319 3a69 B4360000 		.long	0x36b4
 5320 3a6d 13       		.uleb128 0x13
 5321 3a6e F4360000 		.long	0x36f4
 5322 3a72 13       		.uleb128 0x13
 5323 3a73 3C020000 		.long	0x23c
 5324 3a77 00       		.byte	0
 5325 3a78 46       		.uleb128 0x46
 5326 3a79 7763736E 		.ascii "wcsncmp\0"
 5326      636D7000 
 5327 3a81 06       		.byte	0x6
 5328 3a82 E2       		.byte	0xe2
 5329 3a83 CB020000 		.long	0x2cb
 5330 3a87 9B3A0000 		.long	0x3a9b
GAS LISTING C:\Users\NJLLMR~1\AppData\Local\Temp\cc5gZH1j.s 			page 125


 5331 3a8b 13       		.uleb128 0x13
 5332 3a8c F4360000 		.long	0x36f4
 5333 3a90 13       		.uleb128 0x13
 5334 3a91 F4360000 		.long	0x36f4
 5335 3a95 13       		.uleb128 0x13
 5336 3a96 3C020000 		.long	0x23c
 5337 3a9a 00       		.byte	0
 5338 3a9b 46       		.uleb128 0x46
 5339 3a9c 7763736E 		.ascii "wcsncpy\0"
 5339      63707900 
 5340 3aa4 06       		.byte	0x6
 5341 3aa5 E3       		.byte	0xe3
 5342 3aa6 B4360000 		.long	0x36b4
 5343 3aaa BE3A0000 		.long	0x3abe
 5344 3aae 13       		.uleb128 0x13
 5345 3aaf B4360000 		.long	0x36b4
 5346 3ab3 13       		.uleb128 0x13
 5347 3ab4 F4360000 		.long	0x36f4
 5348 3ab8 13       		.uleb128 0x13
 5349 3ab9 3C020000 		.long	0x23c
 5350 3abd 00       		.byte	0
 5351 3abe 45       		.uleb128 0x45
 5352 3abf 77637372 		.ascii "wcsrtombs\0"
 5352      746F6D62 
 5352      7300
 5353 3ac9 06       		.byte	0x6
 5354 3aca 3201     		.word	0x132
 5355 3acc 3C020000 		.long	0x23c
 5356 3ad0 E93A0000 		.long	0x3ae9
 5357 3ad4 13       		.uleb128 0x13
 5358 3ad5 83030000 		.long	0x383
 5359 3ad9 13       		.uleb128 0x13
 5360 3ada E93A0000 		.long	0x3ae9
 5361 3ade 13       		.uleb128 0x13
 5362 3adf 3C020000 		.long	0x23c
 5363 3ae3 13       		.uleb128 0x13
 5364 3ae4 B0370000 		.long	0x37b0
 5365 3ae8 00       		.byte	0
 5366 3ae9 07       		.uleb128 0x7
 5367 3aea 04       		.byte	0x4
 5368 3aeb F4360000 		.long	0x36f4
 5369 3aef 46       		.uleb128 0x46
 5370 3af0 77637373 		.ascii "wcsspn\0"
 5370      706E00
 5371 3af7 06       		.byte	0x6
 5372 3af8 E6       		.byte	0xe6
 5373 3af9 3C020000 		.long	0x23c
 5374 3afd 0C3B0000 		.long	0x3b0c
 5375 3b01 13       		.uleb128 0x13
 5376 3b02 F4360000 		.long	0x36f4
 5377 3b06 13       		.uleb128 0x13
 5378 3b07 F4360000 		.long	0x36f4
 5379 3b0b 00       		.byte	0
 5380 3b0c 46       		.uleb128 0x46
 5381 3b0d 77637374 		.ascii "wcstod\0"
 5381      6F6400
 5382 3b14 06       		.byte	0x6
GAS LISTING C:\Users\NJLLMR~1\AppData\Local\Temp\cc5gZH1j.s 			page 126


 5383 3b15 A6       		.byte	0xa6
 5384 3b16 293B0000 		.long	0x3b29
 5385 3b1a 293B0000 		.long	0x3b29
 5386 3b1e 13       		.uleb128 0x13
 5387 3b1f F4360000 		.long	0x36f4
 5388 3b23 13       		.uleb128 0x13
 5389 3b24 333B0000 		.long	0x3b33
 5390 3b28 00       		.byte	0
 5391 3b29 09       		.uleb128 0x9
 5392 3b2a 08       		.byte	0x8
 5393 3b2b 04       		.byte	0x4
 5394 3b2c 646F7562 		.ascii "double\0"
 5394      6C6500
 5395 3b33 07       		.uleb128 0x7
 5396 3b34 04       		.byte	0x4
 5397 3b35 B4360000 		.long	0x36b4
 5398 3b39 46       		.uleb128 0x46
 5399 3b3a 77637374 		.ascii "wcstof\0"
 5399      6F6600
 5400 3b41 06       		.byte	0x6
 5401 3b42 A8       		.byte	0xa8
 5402 3b43 563B0000 		.long	0x3b56
 5403 3b47 563B0000 		.long	0x3b56
 5404 3b4b 13       		.uleb128 0x13
 5405 3b4c F4360000 		.long	0x36f4
 5406 3b50 13       		.uleb128 0x13
 5407 3b51 333B0000 		.long	0x3b33
 5408 3b55 00       		.byte	0
 5409 3b56 09       		.uleb128 0x9
 5410 3b57 04       		.byte	0x4
 5411 3b58 04       		.byte	0x4
 5412 3b59 666C6F61 		.ascii "float\0"
 5412      7400
 5413 3b5f 46       		.uleb128 0x46
 5414 3b60 77637374 		.ascii "wcstok\0"
 5414      6F6B00
 5415 3b67 06       		.byte	0x6
 5416 3b68 E8       		.byte	0xe8
 5417 3b69 B4360000 		.long	0x36b4
 5418 3b6d 7C3B0000 		.long	0x3b7c
 5419 3b71 13       		.uleb128 0x13
 5420 3b72 B4360000 		.long	0x36b4
 5421 3b76 13       		.uleb128 0x13
 5422 3b77 F4360000 		.long	0x36f4
 5423 3b7b 00       		.byte	0
 5424 3b7c 46       		.uleb128 0x46
 5425 3b7d 77637374 		.ascii "wcstol\0"
 5425      6F6C00
 5426 3b84 06       		.byte	0x6
 5427 3b85 A4       		.byte	0xa4
 5428 3b86 D2020000 		.long	0x2d2
 5429 3b8a 9E3B0000 		.long	0x3b9e
 5430 3b8e 13       		.uleb128 0x13
 5431 3b8f F4360000 		.long	0x36f4
 5432 3b93 13       		.uleb128 0x13
 5433 3b94 333B0000 		.long	0x3b33
 5434 3b98 13       		.uleb128 0x13
GAS LISTING C:\Users\NJLLMR~1\AppData\Local\Temp\cc5gZH1j.s 			page 127


 5435 3b99 CB020000 		.long	0x2cb
 5436 3b9d 00       		.byte	0
 5437 3b9e 46       		.uleb128 0x46
 5438 3b9f 77637374 		.ascii "wcstoul\0"
 5438      6F756C00 
 5439 3ba7 06       		.byte	0x6
 5440 3ba8 A5       		.byte	0xa5
 5441 3ba9 41040000 		.long	0x441
 5442 3bad C13B0000 		.long	0x3bc1
 5443 3bb1 13       		.uleb128 0x13
 5444 3bb2 F4360000 		.long	0x36f4
 5445 3bb6 13       		.uleb128 0x13
 5446 3bb7 333B0000 		.long	0x3b33
 5447 3bbb 13       		.uleb128 0x13
 5448 3bbc CB020000 		.long	0x2cb
 5449 3bc0 00       		.byte	0
 5450 3bc1 46       		.uleb128 0x46
 5451 3bc2 77637378 		.ascii "wcsxfrm\0"
 5451      66726D00 
 5452 3bca 06       		.byte	0x6
 5453 3bcb E9       		.byte	0xe9
 5454 3bcc 3C020000 		.long	0x23c
 5455 3bd0 E43B0000 		.long	0x3be4
 5456 3bd4 13       		.uleb128 0x13
 5457 3bd5 B4360000 		.long	0x36b4
 5458 3bd9 13       		.uleb128 0x13
 5459 3bda F4360000 		.long	0x36f4
 5460 3bde 13       		.uleb128 0x13
 5461 3bdf 3C020000 		.long	0x23c
 5462 3be3 00       		.byte	0
 5463 3be4 45       		.uleb128 0x45
 5464 3be5 7763746F 		.ascii "wctob\0"
 5464      6200
 5465 3beb 06       		.byte	0x6
 5466 3bec 3401     		.word	0x134
 5467 3bee CB020000 		.long	0x2cb
 5468 3bf2 FC3B0000 		.long	0x3bfc
 5469 3bf6 13       		.uleb128 0x13
 5470 3bf7 5A020000 		.long	0x25a
 5471 3bfb 00       		.byte	0
 5472 3bfc 45       		.uleb128 0x45
 5473 3bfd 776D656D 		.ascii "wmemcmp\0"
 5473      636D7000 
 5474 3c05 06       		.byte	0x6
 5475 3c06 4201     		.word	0x142
 5476 3c08 CB020000 		.long	0x2cb
 5477 3c0c 203C0000 		.long	0x3c20
 5478 3c10 13       		.uleb128 0x13
 5479 3c11 F4360000 		.long	0x36f4
 5480 3c15 13       		.uleb128 0x13
 5481 3c16 F4360000 		.long	0x36f4
 5482 3c1a 13       		.uleb128 0x13
 5483 3c1b 3C020000 		.long	0x23c
 5484 3c1f 00       		.byte	0
 5485 3c20 45       		.uleb128 0x45
 5486 3c21 776D656D 		.ascii "wmemcpy\0"
 5486      63707900 
GAS LISTING C:\Users\NJLLMR~1\AppData\Local\Temp\cc5gZH1j.s 			page 128


 5487 3c29 06       		.byte	0x6
 5488 3c2a 4301     		.word	0x143
 5489 3c2c B4360000 		.long	0x36b4
 5490 3c30 443C0000 		.long	0x3c44
 5491 3c34 13       		.uleb128 0x13
 5492 3c35 B4360000 		.long	0x36b4
 5493 3c39 13       		.uleb128 0x13
 5494 3c3a F4360000 		.long	0x36f4
 5495 3c3e 13       		.uleb128 0x13
 5496 3c3f 3C020000 		.long	0x23c
 5497 3c43 00       		.byte	0
 5498 3c44 45       		.uleb128 0x45
 5499 3c45 776D656D 		.ascii "wmemmove\0"
 5499      6D6F7665 
 5499      00
 5500 3c4e 06       		.byte	0x6
 5501 3c4f 4601     		.word	0x146
 5502 3c51 B4360000 		.long	0x36b4
 5503 3c55 693C0000 		.long	0x3c69
 5504 3c59 13       		.uleb128 0x13
 5505 3c5a B4360000 		.long	0x36b4
 5506 3c5e 13       		.uleb128 0x13
 5507 3c5f F4360000 		.long	0x36f4
 5508 3c63 13       		.uleb128 0x13
 5509 3c64 3C020000 		.long	0x23c
 5510 3c68 00       		.byte	0
 5511 3c69 45       		.uleb128 0x45
 5512 3c6a 776D656D 		.ascii "wmemset\0"
 5512      73657400 
 5513 3c72 06       		.byte	0x6
 5514 3c73 4001     		.word	0x140
 5515 3c75 B4360000 		.long	0x36b4
 5516 3c79 8D3C0000 		.long	0x3c8d
 5517 3c7d 13       		.uleb128 0x13
 5518 3c7e B4360000 		.long	0x36b4
 5519 3c82 13       		.uleb128 0x13
 5520 3c83 AF020000 		.long	0x2af
 5521 3c87 13       		.uleb128 0x13
 5522 3c88 3C020000 		.long	0x23c
 5523 3c8c 00       		.byte	0
 5524 3c8d 46       		.uleb128 0x46
 5525 3c8e 77707269 		.ascii "wprintf\0"
 5525      6E746600 
 5526 3c96 06       		.byte	0x6
 5527 3c97 68       		.byte	0x68
 5528 3c98 CB020000 		.long	0x2cb
 5529 3c9c A73C0000 		.long	0x3ca7
 5530 3ca0 13       		.uleb128 0x13
 5531 3ca1 F4360000 		.long	0x36f4
 5532 3ca5 47       		.uleb128 0x47
 5533 3ca6 00       		.byte	0
 5534 3ca7 46       		.uleb128 0x46
 5535 3ca8 77736361 		.ascii "wscanf\0"
 5535      6E6600
 5536 3caf 06       		.byte	0x6
 5537 3cb0 6E       		.byte	0x6e
 5538 3cb1 CB020000 		.long	0x2cb
GAS LISTING C:\Users\NJLLMR~1\AppData\Local\Temp\cc5gZH1j.s 			page 129


 5539 3cb5 C03C0000 		.long	0x3cc0
 5540 3cb9 13       		.uleb128 0x13
 5541 3cba F4360000 		.long	0x36f4
 5542 3cbe 47       		.uleb128 0x47
 5543 3cbf 00       		.byte	0
 5544 3cc0 46       		.uleb128 0x46
 5545 3cc1 77637363 		.ascii "wcschr\0"
 5545      687200
 5546 3cc8 06       		.byte	0x6
 5547 3cc9 DA       		.byte	0xda
 5548 3cca B4360000 		.long	0x36b4
 5549 3cce DD3C0000 		.long	0x3cdd
 5550 3cd2 13       		.uleb128 0x13
 5551 3cd3 F4360000 		.long	0x36f4
 5552 3cd7 13       		.uleb128 0x13
 5553 3cd8 AF020000 		.long	0x2af
 5554 3cdc 00       		.byte	0
 5555 3cdd 46       		.uleb128 0x46
 5556 3cde 77637370 		.ascii "wcspbrk\0"
 5556      62726B00 
 5557 3ce6 06       		.byte	0x6
 5558 3ce7 E4       		.byte	0xe4
 5559 3ce8 B4360000 		.long	0x36b4
 5560 3cec FB3C0000 		.long	0x3cfb
 5561 3cf0 13       		.uleb128 0x13
 5562 3cf1 F4360000 		.long	0x36f4
 5563 3cf5 13       		.uleb128 0x13
 5564 3cf6 F4360000 		.long	0x36f4
 5565 3cfa 00       		.byte	0
 5566 3cfb 46       		.uleb128 0x46
 5567 3cfc 77637372 		.ascii "wcsrchr\0"
 5567      63687200 
 5568 3d04 06       		.byte	0x6
 5569 3d05 E5       		.byte	0xe5
 5570 3d06 B4360000 		.long	0x36b4
 5571 3d0a 193D0000 		.long	0x3d19
 5572 3d0e 13       		.uleb128 0x13
 5573 3d0f F4360000 		.long	0x36f4
 5574 3d13 13       		.uleb128 0x13
 5575 3d14 AF020000 		.long	0x2af
 5576 3d18 00       		.byte	0
 5577 3d19 46       		.uleb128 0x46
 5578 3d1a 77637373 		.ascii "wcsstr\0"
 5578      747200
 5579 3d21 06       		.byte	0x6
 5580 3d22 E7       		.byte	0xe7
 5581 3d23 B4360000 		.long	0x36b4
 5582 3d27 363D0000 		.long	0x3d36
 5583 3d2b 13       		.uleb128 0x13
 5584 3d2c F4360000 		.long	0x36f4
 5585 3d30 13       		.uleb128 0x13
 5586 3d31 F4360000 		.long	0x36f4
 5587 3d35 00       		.byte	0
 5588 3d36 45       		.uleb128 0x45
 5589 3d37 776D656D 		.ascii "wmemchr\0"
 5589      63687200 
 5590 3d3f 06       		.byte	0x6
GAS LISTING C:\Users\NJLLMR~1\AppData\Local\Temp\cc5gZH1j.s 			page 130


 5591 3d40 4101     		.word	0x141
 5592 3d42 B4360000 		.long	0x36b4
 5593 3d46 5A3D0000 		.long	0x3d5a
 5594 3d4a 13       		.uleb128 0x13
 5595 3d4b F4360000 		.long	0x36f4
 5596 3d4f 13       		.uleb128 0x13
 5597 3d50 AF020000 		.long	0x2af
 5598 3d54 13       		.uleb128 0x13
 5599 3d55 3C020000 		.long	0x23c
 5600 3d59 00       		.byte	0
 5601 3d5a 0E       		.uleb128 0xe
 5602 3d5b 5F5F676E 		.ascii "__gnu_cxx\0"
 5602      755F6378 
 5602      7800
 5603 3d65 07       		.byte	0x7
 5604 3d66 F2       		.byte	0xf2
 5605 3d67 E6420000 		.long	0x42e6
 5606 3d6b 0F       		.uleb128 0xf
 5607 3d6c 07       		.byte	0x7
 5608 3d6d F8       		.byte	0xf8
 5609 3d6e E6420000 		.long	0x42e6
 5610 3d72 10       		.uleb128 0x10
 5611 3d73 07       		.byte	0x7
 5612 3d74 0101     		.word	0x101
 5613 3d76 13430000 		.long	0x4313
 5614 3d7a 10       		.uleb128 0x10
 5615 3d7b 07       		.byte	0x7
 5616 3d7c 0201     		.word	0x102
 5617 3d7e 37430000 		.long	0x4337
 5618 3d82 11       		.uleb128 0x11
 5619 3d83 5F5F6F70 		.ascii "__ops\0"
 5619      7300
 5620 3d89 15       		.byte	0x15
 5621 3d8a 24       		.byte	0x24
 5622 3d8b 0F       		.uleb128 0xf
 5623 3d8c 16       		.byte	0x16
 5624 3d8d 2C       		.byte	0x2c
 5625 3d8e 090A0000 		.long	0xa09
 5626 3d92 0F       		.uleb128 0xf
 5627 3d93 16       		.byte	0x16
 5628 3d94 2D       		.byte	0x2d
 5629 3d95 2C0A0000 		.long	0xa2c
 5630 3d99 02       		.uleb128 0x2
 5631 3d9a 6E65775F 		.ascii "new_allocator<char>\0"
 5631      616C6C6F 
 5631      6361746F 
 5631      723C6368 
 5631      61723E00 
 5632 3dae 01       		.byte	0x1
 5633 3daf 16       		.byte	0x16
 5634 3db0 3A       		.byte	0x3a
 5635 3db1 93400000 		.long	0x4093
 5636 3db5 1B       		.uleb128 0x1b
 5637 3db6 07010000 		.secrel32	LASF2
 5638 3dba 16       		.byte	0x16
 5639 3dbb 3D       		.byte	0x3d
 5640 3dbc 090A0000 		.long	0xa09
GAS LISTING C:\Users\NJLLMR~1\AppData\Local\Temp\cc5gZH1j.s 			page 131


 5641 3dc0 01       		.byte	0x1
 5642 3dc1 23       		.uleb128 0x23
 5643 3dc2 706F696E 		.ascii "pointer\0"
 5643      74657200 
 5644 3dca 16       		.byte	0x16
 5645 3dcb 3F       		.byte	0x3f
 5646 3dcc 83030000 		.long	0x383
 5647 3dd0 01       		.byte	0x1
 5648 3dd1 23       		.uleb128 0x23
 5649 3dd2 636F6E73 		.ascii "const_pointer\0"
 5649      745F706F 
 5649      696E7465 
 5649      7200
 5650 3de0 16       		.byte	0x16
 5651 3de1 40       		.byte	0x40
 5652 3de2 A5370000 		.long	0x37a5
 5653 3de6 01       		.byte	0x1
 5654 3de7 1B       		.uleb128 0x1b
 5655 3de8 17000000 		.secrel32	LASF3
 5656 3dec 16       		.byte	0x16
 5657 3ded 41       		.byte	0x41
 5658 3dee 91450000 		.long	0x4591
 5659 3df2 01       		.byte	0x1
 5660 3df3 1B       		.uleb128 0x1b
 5661 3df4 AD000000 		.secrel32	LASF4
 5662 3df8 16       		.byte	0x16
 5663 3df9 42       		.byte	0x42
 5664 3dfa 97450000 		.long	0x4597
 5665 3dfe 01       		.byte	0x1
 5666 3dff 1C       		.uleb128 0x1c
 5667 3e00 4B000000 		.secrel32	LASF24
 5668 3e04 16       		.byte	0x16
 5669 3e05 4F       		.byte	0x4f
 5670 3e06 01       		.byte	0x1
 5671 3e07 0F3E0000 		.long	0x3e0f
 5672 3e0b 153E0000 		.long	0x3e15
 5673 3e0f 04       		.uleb128 0x4
 5674 3e10 9D450000 		.long	0x459d
 5675 3e14 00       		.byte	0
 5676 3e15 1C       		.uleb128 0x1c
 5677 3e16 4B000000 		.secrel32	LASF24
 5678 3e1a 16       		.byte	0x16
 5679 3e1b 51       		.byte	0x51
 5680 3e1c 01       		.byte	0x1
 5681 3e1d 253E0000 		.long	0x3e25
 5682 3e21 303E0000 		.long	0x3e30
 5683 3e25 04       		.uleb128 0x4
 5684 3e26 9D450000 		.long	0x459d
 5685 3e2a 13       		.uleb128 0x13
 5686 3e2b A3450000 		.long	0x45a3
 5687 3e2f 00       		.byte	0
 5688 3e30 03       		.uleb128 0x3
 5689 3e31 7E6E6577 		.ascii "~new_allocator\0"
 5689      5F616C6C 
 5689      6F636174 
 5689      6F7200
 5690 3e40 16       		.byte	0x16
GAS LISTING C:\Users\NJLLMR~1\AppData\Local\Temp\cc5gZH1j.s 			page 132


 5691 3e41 56       		.byte	0x56
 5692 3e42 01       		.byte	0x1
 5693 3e43 4B3E0000 		.long	0x3e4b
 5694 3e47 563E0000 		.long	0x3e56
 5695 3e4b 04       		.uleb128 0x4
 5696 3e4c 9D450000 		.long	0x459d
 5697 3e50 04       		.uleb128 0x4
 5698 3e51 CB020000 		.long	0x2cb
 5699 3e55 00       		.byte	0
 5700 3e56 49       		.uleb128 0x49
 5701 3e57 61646472 		.ascii "address\0"
 5701      65737300 
 5702 3e5f 16       		.byte	0x16
 5703 3e60 59       		.byte	0x59
 5704 3e61 5F5A4E4B 		.ascii "_ZNK9__gnu_cxx13new_allocatorIcE7addressERc\0"
 5704      395F5F67 
 5704      6E755F63 
 5704      78783133 
 5704      6E65775F 
 5705 3e8d C13D0000 		.long	0x3dc1
 5706 3e91 01       		.byte	0x1
 5707 3e92 9A3E0000 		.long	0x3e9a
 5708 3e96 A53E0000 		.long	0x3ea5
 5709 3e9a 04       		.uleb128 0x4
 5710 3e9b A9450000 		.long	0x45a9
 5711 3e9f 13       		.uleb128 0x13
 5712 3ea0 E73D0000 		.long	0x3de7
 5713 3ea4 00       		.byte	0
 5714 3ea5 49       		.uleb128 0x49
 5715 3ea6 61646472 		.ascii "address\0"
 5715      65737300 
 5716 3eae 16       		.byte	0x16
 5717 3eaf 5D       		.byte	0x5d
 5718 3eb0 5F5A4E4B 		.ascii "_ZNK9__gnu_cxx13new_allocatorIcE7addressERKc\0"
 5718      395F5F67 
 5718      6E755F63 
 5718      78783133 
 5718      6E65775F 
 5719 3edd D13D0000 		.long	0x3dd1
 5720 3ee1 01       		.byte	0x1
 5721 3ee2 EA3E0000 		.long	0x3eea
 5722 3ee6 F53E0000 		.long	0x3ef5
 5723 3eea 04       		.uleb128 0x4
 5724 3eeb A9450000 		.long	0x45a9
 5725 3eef 13       		.uleb128 0x13
 5726 3ef0 F33D0000 		.long	0x3df3
 5727 3ef4 00       		.byte	0
 5728 3ef5 49       		.uleb128 0x49
 5729 3ef6 616C6C6F 		.ascii "allocate\0"
 5729      63617465 
 5729      00
 5730 3eff 16       		.byte	0x16
 5731 3f00 63       		.byte	0x63
 5732 3f01 5F5A4E39 		.ascii "_ZN9__gnu_cxx13new_allocatorIcE8allocateEjPKv\0"
 5732      5F5F676E 
 5732      755F6378 
 5732      7831336E 
GAS LISTING C:\Users\NJLLMR~1\AppData\Local\Temp\cc5gZH1j.s 			page 133


 5732      65775F61 
 5733 3f2f C13D0000 		.long	0x3dc1
 5734 3f33 01       		.byte	0x1
 5735 3f34 3C3F0000 		.long	0x3f3c
 5736 3f38 4C3F0000 		.long	0x3f4c
 5737 3f3c 04       		.uleb128 0x4
 5738 3f3d 9D450000 		.long	0x459d
 5739 3f41 13       		.uleb128 0x13
 5740 3f42 B53D0000 		.long	0x3db5
 5741 3f46 13       		.uleb128 0x13
 5742 3f47 8A450000 		.long	0x458a
 5743 3f4b 00       		.byte	0
 5744 3f4c 05       		.uleb128 0x5
 5745 3f4d 6465616C 		.ascii "deallocate\0"
 5745      6C6F6361 
 5745      746500
 5746 3f58 16       		.byte	0x16
 5747 3f59 6D       		.byte	0x6d
 5748 3f5a 5F5A4E39 		.ascii "_ZN9__gnu_cxx13new_allocatorIcE10deallocateEPcj\0"
 5748      5F5F676E 
 5748      755F6378 
 5748      7831336E 
 5748      65775F61 
 5749 3f8a 01       		.byte	0x1
 5750 3f8b 933F0000 		.long	0x3f93
 5751 3f8f A33F0000 		.long	0x3fa3
 5752 3f93 04       		.uleb128 0x4
 5753 3f94 9D450000 		.long	0x459d
 5754 3f98 13       		.uleb128 0x13
 5755 3f99 C13D0000 		.long	0x3dc1
 5756 3f9d 13       		.uleb128 0x13
 5757 3f9e B53D0000 		.long	0x3db5
 5758 3fa2 00       		.byte	0
 5759 3fa3 34       		.uleb128 0x34
 5760 3fa4 C6000000 		.secrel32	LASF11
 5761 3fa8 16       		.byte	0x16
 5762 3fa9 71       		.byte	0x71
 5763 3faa 5F5A4E4B 		.ascii "_ZNK9__gnu_cxx13new_allocatorIcE8max_sizeEv\0"
 5763      395F5F67 
 5763      6E755F63 
 5763      78783133 
 5763      6E65775F 
 5764 3fd6 B53D0000 		.long	0x3db5
 5765 3fda 01       		.byte	0x1
 5766 3fdb E33F0000 		.long	0x3fe3
 5767 3fdf E93F0000 		.long	0x3fe9
 5768 3fe3 04       		.uleb128 0x4
 5769 3fe4 A9450000 		.long	0x45a9
 5770 3fe8 00       		.byte	0
 5771 3fe9 05       		.uleb128 0x5
 5772 3fea 636F6E73 		.ascii "construct\0"
 5772      74727563 
 5772      7400
 5773 3ff4 16       		.byte	0x16
 5774 3ff5 81       		.byte	0x81
 5775 3ff6 5F5A4E39 		.ascii "_ZN9__gnu_cxx13new_allocatorIcE9constructEPcRKc\0"
 5775      5F5F676E 
GAS LISTING C:\Users\NJLLMR~1\AppData\Local\Temp\cc5gZH1j.s 			page 134


 5775      755F6378 
 5775      7831336E 
 5775      65775F61 
 5776 4026 01       		.byte	0x1
 5777 4027 2F400000 		.long	0x402f
 5778 402b 3F400000 		.long	0x403f
 5779 402f 04       		.uleb128 0x4
 5780 4030 9D450000 		.long	0x459d
 5781 4034 13       		.uleb128 0x13
 5782 4035 C13D0000 		.long	0x3dc1
 5783 4039 13       		.uleb128 0x13
 5784 403a 97450000 		.long	0x4597
 5785 403e 00       		.byte	0
 5786 403f 05       		.uleb128 0x5
 5787 4040 64657374 		.ascii "destroy\0"
 5787      726F7900 
 5788 4048 16       		.byte	0x16
 5789 4049 85       		.byte	0x85
 5790 404a 5F5A4E39 		.ascii "_ZN9__gnu_cxx13new_allocatorIcE7destroyEPc\0"
 5790      5F5F676E 
 5790      755F6378 
 5790      7831336E 
 5790      65775F61 
 5791 4075 01       		.byte	0x1
 5792 4076 7E400000 		.long	0x407e
 5793 407a 89400000 		.long	0x4089
 5794 407e 04       		.uleb128 0x4
 5795 407f 9D450000 		.long	0x459d
 5796 4083 13       		.uleb128 0x13
 5797 4084 C13D0000 		.long	0x3dc1
 5798 4088 00       		.byte	0
 5799 4089 4A       		.uleb128 0x4a
 5800 408a 5F547000 		.ascii "_Tp\0"
 5801 408e 97020000 		.long	0x297
 5802 4092 00       		.byte	0
 5803 4093 14       		.uleb128 0x14
 5804 4094 993D0000 		.long	0x3d99
 5805 4098 0C       		.uleb128 0xc
 5806 4099 5F5F6E75 		.ascii "__numeric_traits_integer<int>\0"
 5806      6D657269 
 5806      635F7472 
 5806      61697473 
 5806      5F696E74 
 5807 40b7 01       		.byte	0x1
 5808 40b8 17       		.byte	0x17
 5809 40b9 37       		.byte	0x37
 5810 40ba F4400000 		.long	0x40f4
 5811 40be 4B       		.uleb128 0x4b
 5812 40bf 78000000 		.secrel32	LASF25
 5813 40c3 17       		.byte	0x17
 5814 40c4 3A       		.byte	0x3a
 5815 40c5 BB450000 		.long	0x45bb
 5816 40c9 4B       		.uleb128 0x4b
 5817 40ca 21000000 		.secrel32	LASF26
 5818 40ce 17       		.byte	0x17
 5819 40cf 3B       		.byte	0x3b
 5820 40d0 BB450000 		.long	0x45bb
GAS LISTING C:\Users\NJLLMR~1\AppData\Local\Temp\cc5gZH1j.s 			page 135


 5821 40d4 4B       		.uleb128 0x4b
 5822 40d5 27000000 		.secrel32	LASF27
 5823 40d9 17       		.byte	0x17
 5824 40da 3F       		.byte	0x3f
 5825 40db C0450000 		.long	0x45c0
 5826 40df 4B       		.uleb128 0x4b
 5827 40e0 BD000000 		.secrel32	LASF28
 5828 40e4 17       		.byte	0x17
 5829 40e5 40       		.byte	0x40
 5830 40e6 BB450000 		.long	0x45bb
 5831 40ea 36       		.uleb128 0x36
 5832 40eb F3000000 		.secrel32	LASF29
 5833 40ef CB020000 		.long	0x2cb
 5834 40f3 00       		.byte	0
 5835 40f4 39       		.uleb128 0x39
 5836 40f5 5F5F6E6F 		.ascii "__normal_iterator<char*, std::basic_string<char, std::char_traits<char>, std::allocator<ch
 5836      726D616C 
 5836      5F697465 
 5836      7261746F 
 5836      723C6368 
 5837 4157 39       		.uleb128 0x39
 5838 4158 5F5F6E6F 		.ascii "__normal_iterator<char const*, std::basic_string<char, std::char_traits<char>, std::alloca
 5838      726D616C 
 5838      5F697465 
 5838      7261746F 
 5838      723C6368 
 5839 41c0 0C       		.uleb128 0xc
 5840 41c1 5F5F6E75 		.ascii "__numeric_traits_integer<long unsigned int>\0"
 5840      6D657269 
 5840      635F7472 
 5840      61697473 
 5840      5F696E74 
 5841 41ed 01       		.byte	0x1
 5842 41ee 17       		.byte	0x17
 5843 41ef 37       		.byte	0x37
 5844 41f0 2A420000 		.long	0x422a
 5845 41f4 4B       		.uleb128 0x4b
 5846 41f5 78000000 		.secrel32	LASF25
 5847 41f9 17       		.byte	0x17
 5848 41fa 3A       		.byte	0x3a
 5849 41fb 00460000 		.long	0x4600
 5850 41ff 4B       		.uleb128 0x4b
 5851 4200 21000000 		.secrel32	LASF26
 5852 4204 17       		.byte	0x17
 5853 4205 3B       		.byte	0x3b
 5854 4206 00460000 		.long	0x4600
 5855 420a 4B       		.uleb128 0x4b
 5856 420b 27000000 		.secrel32	LASF27
 5857 420f 17       		.byte	0x17
 5858 4210 3F       		.byte	0x3f
 5859 4211 C0450000 		.long	0x45c0
 5860 4215 4B       		.uleb128 0x4b
 5861 4216 BD000000 		.secrel32	LASF28
 5862 421a 17       		.byte	0x17
 5863 421b 40       		.byte	0x40
 5864 421c BB450000 		.long	0x45bb
 5865 4220 36       		.uleb128 0x36
GAS LISTING C:\Users\NJLLMR~1\AppData\Local\Temp\cc5gZH1j.s 			page 136


 5866 4221 F3000000 		.secrel32	LASF29
 5867 4225 41040000 		.long	0x441
 5868 4229 00       		.byte	0
 5869 422a 0C       		.uleb128 0xc
 5870 422b 5F5F6E75 		.ascii "__numeric_traits_integer<char>\0"
 5870      6D657269 
 5870      635F7472 
 5870      61697473 
 5870      5F696E74 
 5871 424a 01       		.byte	0x1
 5872 424b 17       		.byte	0x17
 5873 424c 37       		.byte	0x37
 5874 424d 87420000 		.long	0x4287
 5875 4251 4B       		.uleb128 0x4b
 5876 4252 78000000 		.secrel32	LASF25
 5877 4256 17       		.byte	0x17
 5878 4257 3A       		.byte	0x3a
 5879 4258 AB370000 		.long	0x37ab
 5880 425c 4B       		.uleb128 0x4b
 5881 425d 21000000 		.secrel32	LASF26
 5882 4261 17       		.byte	0x17
 5883 4262 3B       		.byte	0x3b
 5884 4263 AB370000 		.long	0x37ab
 5885 4267 4B       		.uleb128 0x4b
 5886 4268 27000000 		.secrel32	LASF27
 5887 426c 17       		.byte	0x17
 5888 426d 3F       		.byte	0x3f
 5889 426e C0450000 		.long	0x45c0
 5890 4272 4B       		.uleb128 0x4b
 5891 4273 BD000000 		.secrel32	LASF28
 5892 4277 17       		.byte	0x17
 5893 4278 40       		.byte	0x40
 5894 4279 BB450000 		.long	0x45bb
 5895 427d 36       		.uleb128 0x36
 5896 427e F3000000 		.secrel32	LASF29
 5897 4282 97020000 		.long	0x297
 5898 4286 00       		.byte	0
 5899 4287 4C       		.uleb128 0x4c
 5900 4288 5F5F6E75 		.ascii "__numeric_traits_integer<short int>\0"
 5900      6D657269 
 5900      635F7472 
 5900      61697473 
 5900      5F696E74 
 5901 42ac 01       		.byte	0x1
 5902 42ad 17       		.byte	0x17
 5903 42ae 37       		.byte	0x37
 5904 42af 4B       		.uleb128 0x4b
 5905 42b0 78000000 		.secrel32	LASF25
 5906 42b4 17       		.byte	0x17
 5907 42b5 3A       		.byte	0x3a
 5908 42b6 7B460000 		.long	0x467b
 5909 42ba 4B       		.uleb128 0x4b
 5910 42bb 21000000 		.secrel32	LASF26
 5911 42bf 17       		.byte	0x17
 5912 42c0 3B       		.byte	0x3b
 5913 42c1 7B460000 		.long	0x467b
 5914 42c5 4B       		.uleb128 0x4b
GAS LISTING C:\Users\NJLLMR~1\AppData\Local\Temp\cc5gZH1j.s 			page 137


 5915 42c6 27000000 		.secrel32	LASF27
 5916 42ca 17       		.byte	0x17
 5917 42cb 3F       		.byte	0x3f
 5918 42cc C0450000 		.long	0x45c0
 5919 42d0 4B       		.uleb128 0x4b
 5920 42d1 BD000000 		.secrel32	LASF28
 5921 42d5 17       		.byte	0x17
 5922 42d6 40       		.byte	0x40
 5923 42d7 BB450000 		.long	0x45bb
 5924 42db 36       		.uleb128 0x36
 5925 42dc F3000000 		.secrel32	LASF29
 5926 42e0 EF020000 		.long	0x2ef
 5927 42e4 00       		.byte	0
 5928 42e5 00       		.byte	0
 5929 42e6 46       		.uleb128 0x46
 5930 42e7 77637374 		.ascii "wcstold\0"
 5930      6F6C6400 
 5931 42ef 06       		.byte	0x6
 5932 42f0 A9       		.byte	0xa9
 5933 42f1 04430000 		.long	0x4304
 5934 42f5 04430000 		.long	0x4304
 5935 42f9 13       		.uleb128 0x13
 5936 42fa F4360000 		.long	0x36f4
 5937 42fe 13       		.uleb128 0x13
 5938 42ff 333B0000 		.long	0x3b33
 5939 4303 00       		.byte	0
 5940 4304 09       		.uleb128 0x9
 5941 4305 0C       		.byte	0xc
 5942 4306 04       		.byte	0x4
 5943 4307 6C6F6E67 		.ascii "long double\0"
 5943      20646F75 
 5943      626C6500 
 5944 4313 45       		.uleb128 0x45
 5945 4314 77637374 		.ascii "wcstoll\0"
 5945      6F6C6C00 
 5946 431c 06       		.byte	0x6
 5947 431d 4701     		.word	0x147
 5948 431f DE020000 		.long	0x2de
 5949 4323 37430000 		.long	0x4337
 5950 4327 13       		.uleb128 0x13
 5951 4328 F4360000 		.long	0x36f4
 5952 432c 13       		.uleb128 0x13
 5953 432d 333B0000 		.long	0x3b33
 5954 4331 13       		.uleb128 0x13
 5955 4332 CB020000 		.long	0x2cb
 5956 4336 00       		.byte	0
 5957 4337 45       		.uleb128 0x45
 5958 4338 77637374 		.ascii "wcstoull\0"
 5958      6F756C6C 
 5958      00
 5959 4341 06       		.byte	0x6
 5960 4342 4901     		.word	0x149
 5961 4344 82040000 		.long	0x482
 5962 4348 5C430000 		.long	0x435c
 5963 434c 13       		.uleb128 0x13
 5964 434d F4360000 		.long	0x36f4
 5965 4351 13       		.uleb128 0x13
GAS LISTING C:\Users\NJLLMR~1\AppData\Local\Temp\cc5gZH1j.s 			page 138


 5966 4352 333B0000 		.long	0x3b33
 5967 4356 13       		.uleb128 0x13
 5968 4357 CB020000 		.long	0x2cb
 5969 435b 00       		.byte	0
 5970 435c 0E       		.uleb128 0xe
 5971 435d 5F5F676E 		.ascii "__gnu_debug\0"
 5971      755F6465 
 5971      62756700 
 5972 4369 14       		.byte	0x14
 5973 436a 37       		.byte	0x37
 5974 436b 77430000 		.long	0x4377
 5975 436f 4D       		.uleb128 0x4d
 5976 4370 14       		.byte	0x14
 5977 4371 38       		.byte	0x38
 5978 4372 47060000 		.long	0x647
 5979 4376 00       		.byte	0
 5980 4377 4E       		.uleb128 0x4e
 5981 4378 04       		.byte	0x4
 5982 4379 6C060000 		.long	0x66c
 5983 437d 4E       		.uleb128 0x4e
 5984 437e 04       		.byte	0x4
 5985 437f C6060000 		.long	0x6c6
 5986 4383 09       		.uleb128 0x9
 5987 4384 01       		.byte	0x1
 5988 4385 02       		.byte	0x2
 5989 4386 626F6F6C 		.ascii "bool\0"
 5989      00
 5990 438b 07       		.uleb128 0x7
 5991 438c 04       		.byte	0x4
 5992 438d C6060000 		.long	0x6c6
 5993 4391 07       		.uleb128 0x7
 5994 4392 04       		.byte	0x4
 5995 4393 6C060000 		.long	0x66c
 5996 4397 4E       		.uleb128 0x4e
 5997 4398 04       		.byte	0x4
 5998 4399 11090000 		.long	0x911
 5999 439d 0C       		.uleb128 0xc
 6000 439e 6C636F6E 		.ascii "lconv\0"
 6000      7600
 6001 43a4 30       		.byte	0x30
 6002 43a5 18       		.byte	0x18
 6003 43a6 2D       		.byte	0x2d
 6004 43a7 3C450000 		.long	0x453c
 6005 43ab 0D       		.uleb128 0xd
 6006 43ac 64656369 		.ascii "decimal_point\0"
 6006      6D616C5F 
 6006      706F696E 
 6006      7400
 6007 43ba 18       		.byte	0x18
 6008 43bb 2F       		.byte	0x2f
 6009 43bc 83030000 		.long	0x383
 6010 43c0 00       		.byte	0
 6011 43c1 0D       		.uleb128 0xd
 6012 43c2 74686F75 		.ascii "thousands_sep\0"
 6012      73616E64 
 6012      735F7365 
 6012      7000
GAS LISTING C:\Users\NJLLMR~1\AppData\Local\Temp\cc5gZH1j.s 			page 139


 6013 43d0 18       		.byte	0x18
 6014 43d1 30       		.byte	0x30
 6015 43d2 83030000 		.long	0x383
 6016 43d6 04       		.byte	0x4
 6017 43d7 0D       		.uleb128 0xd
 6018 43d8 67726F75 		.ascii "grouping\0"
 6018      70696E67 
 6018      00
 6019 43e1 18       		.byte	0x18
 6020 43e2 31       		.byte	0x31
 6021 43e3 83030000 		.long	0x383
 6022 43e7 08       		.byte	0x8
 6023 43e8 0D       		.uleb128 0xd
 6024 43e9 696E745F 		.ascii "int_curr_symbol\0"
 6024      63757272 
 6024      5F73796D 
 6024      626F6C00 
 6025 43f9 18       		.byte	0x18
 6026 43fa 32       		.byte	0x32
 6027 43fb 83030000 		.long	0x383
 6028 43ff 0C       		.byte	0xc
 6029 4400 0D       		.uleb128 0xd
 6030 4401 63757272 		.ascii "currency_symbol\0"
 6030      656E6379 
 6030      5F73796D 
 6030      626F6C00 
 6031 4411 18       		.byte	0x18
 6032 4412 33       		.byte	0x33
 6033 4413 83030000 		.long	0x383
 6034 4417 10       		.byte	0x10
 6035 4418 0D       		.uleb128 0xd
 6036 4419 6D6F6E5F 		.ascii "mon_decimal_point\0"
 6036      64656369 
 6036      6D616C5F 
 6036      706F696E 
 6036      7400
 6037 442b 18       		.byte	0x18
 6038 442c 34       		.byte	0x34
 6039 442d 83030000 		.long	0x383
 6040 4431 14       		.byte	0x14
 6041 4432 0D       		.uleb128 0xd
 6042 4433 6D6F6E5F 		.ascii "mon_thousands_sep\0"
 6042      74686F75 
 6042      73616E64 
 6042      735F7365 
 6042      7000
 6043 4445 18       		.byte	0x18
 6044 4446 35       		.byte	0x35
 6045 4447 83030000 		.long	0x383
 6046 444b 18       		.byte	0x18
 6047 444c 0D       		.uleb128 0xd
 6048 444d 6D6F6E5F 		.ascii "mon_grouping\0"
 6048      67726F75 
 6048      70696E67 
 6048      00
 6049 445a 18       		.byte	0x18
 6050 445b 36       		.byte	0x36
GAS LISTING C:\Users\NJLLMR~1\AppData\Local\Temp\cc5gZH1j.s 			page 140


 6051 445c 83030000 		.long	0x383
 6052 4460 1C       		.byte	0x1c
 6053 4461 0D       		.uleb128 0xd
 6054 4462 706F7369 		.ascii "positive_sign\0"
 6054      74697665 
 6054      5F736967 
 6054      6E00
 6055 4470 18       		.byte	0x18
 6056 4471 37       		.byte	0x37
 6057 4472 83030000 		.long	0x383
 6058 4476 20       		.byte	0x20
 6059 4477 0D       		.uleb128 0xd
 6060 4478 6E656761 		.ascii "negative_sign\0"
 6060      74697665 
 6060      5F736967 
 6060      6E00
 6061 4486 18       		.byte	0x18
 6062 4487 38       		.byte	0x38
 6063 4488 83030000 		.long	0x383
 6064 448c 24       		.byte	0x24
 6065 448d 0D       		.uleb128 0xd
 6066 448e 696E745F 		.ascii "int_frac_digits\0"
 6066      66726163 
 6066      5F646967 
 6066      69747300 
 6067 449e 18       		.byte	0x18
 6068 449f 39       		.byte	0x39
 6069 44a0 97020000 		.long	0x297
 6070 44a4 28       		.byte	0x28
 6071 44a5 0D       		.uleb128 0xd
 6072 44a6 66726163 		.ascii "frac_digits\0"
 6072      5F646967 
 6072      69747300 
 6073 44b2 18       		.byte	0x18
 6074 44b3 3A       		.byte	0x3a
 6075 44b4 97020000 		.long	0x297
 6076 44b8 29       		.byte	0x29
 6077 44b9 0D       		.uleb128 0xd
 6078 44ba 705F6373 		.ascii "p_cs_precedes\0"
 6078      5F707265 
 6078      63656465 
 6078      7300
 6079 44c8 18       		.byte	0x18
 6080 44c9 3B       		.byte	0x3b
 6081 44ca 97020000 		.long	0x297
 6082 44ce 2A       		.byte	0x2a
 6083 44cf 0D       		.uleb128 0xd
 6084 44d0 705F7365 		.ascii "p_sep_by_space\0"
 6084      705F6279 
 6084      5F737061 
 6084      636500
 6085 44df 18       		.byte	0x18
 6086 44e0 3C       		.byte	0x3c
 6087 44e1 97020000 		.long	0x297
 6088 44e5 2B       		.byte	0x2b
 6089 44e6 0D       		.uleb128 0xd
 6090 44e7 6E5F6373 		.ascii "n_cs_precedes\0"
GAS LISTING C:\Users\NJLLMR~1\AppData\Local\Temp\cc5gZH1j.s 			page 141


 6090      5F707265 
 6090      63656465 
 6090      7300
 6091 44f5 18       		.byte	0x18
 6092 44f6 3D       		.byte	0x3d
 6093 44f7 97020000 		.long	0x297
 6094 44fb 2C       		.byte	0x2c
 6095 44fc 0D       		.uleb128 0xd
 6096 44fd 6E5F7365 		.ascii "n_sep_by_space\0"
 6096      705F6279 
 6096      5F737061 
 6096      636500
 6097 450c 18       		.byte	0x18
 6098 450d 3E       		.byte	0x3e
 6099 450e 97020000 		.long	0x297
 6100 4512 2D       		.byte	0x2d
 6101 4513 0D       		.uleb128 0xd
 6102 4514 705F7369 		.ascii "p_sign_posn\0"
 6102      676E5F70 
 6102      6F736E00 
 6103 4520 18       		.byte	0x18
 6104 4521 3F       		.byte	0x3f
 6105 4522 97020000 		.long	0x297
 6106 4526 2E       		.byte	0x2e
 6107 4527 0D       		.uleb128 0xd
 6108 4528 6E5F7369 		.ascii "n_sign_posn\0"
 6108      676E5F70 
 6108      6F736E00 
 6109 4534 18       		.byte	0x18
 6110 4535 40       		.byte	0x40
 6111 4536 97020000 		.long	0x297
 6112 453a 2F       		.byte	0x2f
 6113 453b 00       		.byte	0
 6114 453c 46       		.uleb128 0x46
 6115 453d 7365746C 		.ascii "setlocale\0"
 6115      6F63616C 
 6115      6500
 6116 4547 18       		.byte	0x18
 6117 4548 47       		.byte	0x47
 6118 4549 83030000 		.long	0x383
 6119 454d 5C450000 		.long	0x455c
 6120 4551 13       		.uleb128 0x13
 6121 4552 CB020000 		.long	0x2cb
 6122 4556 13       		.uleb128 0x13
 6123 4557 A5370000 		.long	0x37a5
 6124 455b 00       		.byte	0
 6125 455c 48       		.uleb128 0x48
 6126 455d 6C6F6361 		.ascii "localeconv\0"
 6126      6C65636F 
 6126      6E7600
 6127 4568 18       		.byte	0x18
 6128 4569 48       		.byte	0x48
 6129 456a 6E450000 		.long	0x456e
 6130 456e 07       		.uleb128 0x7
 6131 456f 04       		.byte	0x4
 6132 4570 9D430000 		.long	0x439d
 6133 4574 4F       		.uleb128 0x4f
GAS LISTING C:\Users\NJLLMR~1\AppData\Local\Temp\cc5gZH1j.s 			page 142


 6134 4575 04       		.byte	0x4
 6135 4576 08       		.uleb128 0x8
 6136 4577 5F41746F 		.ascii "_Atomic_word\0"
 6136      6D69635F 
 6136      776F7264 
 6136      00
 6137 4584 19       		.byte	0x19
 6138 4585 20       		.byte	0x20
 6139 4586 CB020000 		.long	0x2cb
 6140 458a 07       		.uleb128 0x7
 6141 458b 04       		.byte	0x4
 6142 458c 90450000 		.long	0x4590
 6143 4590 50       		.uleb128 0x50
 6144 4591 4E       		.uleb128 0x4e
 6145 4592 04       		.byte	0x4
 6146 4593 97020000 		.long	0x297
 6147 4597 4E       		.uleb128 0x4e
 6148 4598 04       		.byte	0x4
 6149 4599 AB370000 		.long	0x37ab
 6150 459d 07       		.uleb128 0x7
 6151 459e 04       		.byte	0x4
 6152 459f 993D0000 		.long	0x3d99
 6153 45a3 4E       		.uleb128 0x4e
 6154 45a4 04       		.byte	0x4
 6155 45a5 93400000 		.long	0x4093
 6156 45a9 07       		.uleb128 0x7
 6157 45aa 04       		.byte	0x4
 6158 45ab 93400000 		.long	0x4093
 6159 45af 07       		.uleb128 0x7
 6160 45b0 04       		.byte	0x4
 6161 45b1 3D0A0000 		.long	0xa3d
 6162 45b5 4E       		.uleb128 0x4e
 6163 45b6 04       		.byte	0x4
 6164 45b7 D00A0000 		.long	0xad0
 6165 45bb 14       		.uleb128 0x14
 6166 45bc CB020000 		.long	0x2cb
 6167 45c0 14       		.uleb128 0x14
 6168 45c1 83430000 		.long	0x4383
 6169 45c5 07       		.uleb128 0x7
 6170 45c6 04       		.byte	0x4
 6171 45c7 1F0B0000 		.long	0xb1f
 6172 45cb 07       		.uleb128 0x7
 6173 45cc 04       		.byte	0x4
 6174 45cd 402F0000 		.long	0x2f40
 6175 45d1 07       		.uleb128 0x7
 6176 45d2 04       		.byte	0x4
 6177 45d3 D50A0000 		.long	0xad5
 6178 45d7 07       		.uleb128 0x7
 6179 45d8 04       		.byte	0x4
 6180 45d9 6D0C0000 		.long	0xc6d
 6181 45dd 4E       		.uleb128 0x4e
 6182 45de 04       		.byte	0x4
 6183 45df 6D0C0000 		.long	0xc6d
 6184 45e3 4E       		.uleb128 0x4e
 6185 45e4 04       		.byte	0x4
 6186 45e5 402F0000 		.long	0x2f40
 6187 45e9 4E       		.uleb128 0x4e
GAS LISTING C:\Users\NJLLMR~1\AppData\Local\Temp\cc5gZH1j.s 			page 143


 6188 45ea 04       		.byte	0x4
 6189 45eb D50A0000 		.long	0xad5
 6190 45ef 51       		.uleb128 0x51
 6191 45f0 4A020000 		.long	0x24a
 6192 45f4 FA450000 		.long	0x45fa
 6193 45f8 52       		.uleb128 0x52
 6194 45f9 00       		.byte	0
 6195 45fa 07       		.uleb128 0x7
 6196 45fb 04       		.byte	0x4
 6197 45fc 142E0000 		.long	0x2e14
 6198 4600 14       		.uleb128 0x14
 6199 4601 41040000 		.long	0x441
 6200 4605 07       		.uleb128 0x7
 6201 4606 04       		.byte	0x4
 6202 4607 95310000 		.long	0x3195
 6203 460b 46       		.uleb128 0x46
 6204 460c 69737763 		.ascii "iswctype\0"
 6204      74797065 
 6204      00
 6205 4615 1A       		.byte	0x1a
 6206 4616 C4       		.byte	0xc4
 6207 4617 CB020000 		.long	0x2cb
 6208 461b 2A460000 		.long	0x462a
 6209 461f 13       		.uleb128 0x13
 6210 4620 5A020000 		.long	0x25a
 6211 4624 13       		.uleb128 0x13
 6212 4625 9F020000 		.long	0x29f
 6213 4629 00       		.byte	0
 6214 462a 46       		.uleb128 0x46
 6215 462b 746F7763 		.ascii "towctrans\0"
 6215      7472616E 
 6215      7300
 6216 4635 05       		.byte	0x5
 6217 4636 9D       		.byte	0x9d
 6218 4637 5A020000 		.long	0x25a
 6219 463b 4A460000 		.long	0x464a
 6220 463f 13       		.uleb128 0x13
 6221 4640 5A020000 		.long	0x25a
 6222 4644 13       		.uleb128 0x13
 6223 4645 BA020000 		.long	0x2ba
 6224 4649 00       		.byte	0
 6225 464a 46       		.uleb128 0x46
 6226 464b 77637472 		.ascii "wctrans\0"
 6226      616E7300 
 6227 4653 05       		.byte	0x5
 6228 4654 9E       		.byte	0x9e
 6229 4655 BA020000 		.long	0x2ba
 6230 4659 63460000 		.long	0x4663
 6231 465d 13       		.uleb128 0x13
 6232 465e A5370000 		.long	0x37a5
 6233 4662 00       		.byte	0
 6234 4663 46       		.uleb128 0x46
 6235 4664 77637479 		.ascii "wctype\0"
 6235      706500
 6236 466b 05       		.byte	0x5
 6237 466c 9F       		.byte	0x9f
 6238 466d 9F020000 		.long	0x29f
GAS LISTING C:\Users\NJLLMR~1\AppData\Local\Temp\cc5gZH1j.s 			page 144


 6239 4671 7B460000 		.long	0x467b
 6240 4675 13       		.uleb128 0x13
 6241 4676 A5370000 		.long	0x37a5
 6242 467a 00       		.byte	0
 6243 467b 14       		.uleb128 0x14
 6244 467c EF020000 		.long	0x2ef
 6245 4680 0A       		.uleb128 0xa
 6246 4681 66706F73 		.ascii "fpos_t\0"
 6246      5F7400
 6247 4688 1B       		.byte	0x1b
 6248 4689 C701     		.word	0x1c7
 6249 468b DE020000 		.long	0x2de
 6250 468f 4D       		.uleb128 0x4d
 6251 4690 1C       		.byte	0x1c
 6252 4691 08       		.byte	0x8
 6253 4692 9C040000 		.long	0x49c
 6254 4696 53       		.uleb128 0x53
 6255 4697 636C6561 		.ascii "clearerr\0"
 6255      72657272 
 6255      00
 6256 46a0 1B       		.byte	0x1b
 6257 46a1 E001     		.word	0x1e0
 6258 46a3 AD460000 		.long	0x46ad
 6259 46a7 13       		.uleb128 0x13
 6260 46a8 8C360000 		.long	0x368c
 6261 46ac 00       		.byte	0
 6262 46ad 46       		.uleb128 0x46
 6263 46ae 66636C6F 		.ascii "fclose\0"
 6263      736500
 6264 46b5 1B       		.byte	0x1b
 6265 46b6 AC       		.byte	0xac
 6266 46b7 CB020000 		.long	0x2cb
 6267 46bb C5460000 		.long	0x46c5
 6268 46bf 13       		.uleb128 0x13
 6269 46c0 8C360000 		.long	0x368c
 6270 46c4 00       		.byte	0
 6271 46c5 45       		.uleb128 0x45
 6272 46c6 66656F66 		.ascii "feof\0"
 6272      00
 6273 46cb 1B       		.byte	0x1b
 6274 46cc D701     		.word	0x1d7
 6275 46ce CB020000 		.long	0x2cb
 6276 46d2 DC460000 		.long	0x46dc
 6277 46d6 13       		.uleb128 0x13
 6278 46d7 8C360000 		.long	0x368c
 6279 46db 00       		.byte	0
 6280 46dc 45       		.uleb128 0x45
 6281 46dd 66657272 		.ascii "ferror\0"
 6281      6F7200
 6282 46e4 1B       		.byte	0x1b
 6283 46e5 D901     		.word	0x1d9
 6284 46e7 CB020000 		.long	0x2cb
 6285 46eb F5460000 		.long	0x46f5
 6286 46ef 13       		.uleb128 0x13
 6287 46f0 8C360000 		.long	0x368c
 6288 46f4 00       		.byte	0
 6289 46f5 46       		.uleb128 0x46
GAS LISTING C:\Users\NJLLMR~1\AppData\Local\Temp\cc5gZH1j.s 			page 145


 6290 46f6 66666C75 		.ascii "fflush\0"
 6290      736800
 6291 46fd 1B       		.byte	0x1b
 6292 46fe AB       		.byte	0xab
 6293 46ff CB020000 		.long	0x2cb
 6294 4703 0D470000 		.long	0x470d
 6295 4707 13       		.uleb128 0x13
 6296 4708 8C360000 		.long	0x368c
 6297 470c 00       		.byte	0
 6298 470d 45       		.uleb128 0x45
 6299 470e 66676574 		.ascii "fgetc\0"
 6299      6300
 6300 4714 1B       		.byte	0x1b
 6301 4715 6101     		.word	0x161
 6302 4717 CB020000 		.long	0x2cb
 6303 471b 25470000 		.long	0x4725
 6304 471f 13       		.uleb128 0x13
 6305 4720 8C360000 		.long	0x368c
 6306 4724 00       		.byte	0
 6307 4725 45       		.uleb128 0x45
 6308 4726 66676574 		.ascii "fgetpos\0"
 6308      706F7300 
 6309 472e 1B       		.byte	0x1b
 6310 472f CC01     		.word	0x1cc
 6311 4731 CB020000 		.long	0x2cb
 6312 4735 44470000 		.long	0x4744
 6313 4739 13       		.uleb128 0x13
 6314 473a 8C360000 		.long	0x368c
 6315 473e 13       		.uleb128 0x13
 6316 473f 44470000 		.long	0x4744
 6317 4743 00       		.byte	0
 6318 4744 07       		.uleb128 0x7
 6319 4745 04       		.byte	0x4
 6320 4746 80460000 		.long	0x4680
 6321 474a 45       		.uleb128 0x45
 6322 474b 66676574 		.ascii "fgets\0"
 6322      7300
 6323 4751 1B       		.byte	0x1b
 6324 4752 6201     		.word	0x162
 6325 4754 83030000 		.long	0x383
 6326 4758 6C470000 		.long	0x476c
 6327 475c 13       		.uleb128 0x13
 6328 475d 83030000 		.long	0x383
 6329 4761 13       		.uleb128 0x13
 6330 4762 CB020000 		.long	0x2cb
 6331 4766 13       		.uleb128 0x13
 6332 4767 8C360000 		.long	0x368c
 6333 476b 00       		.byte	0
 6334 476c 46       		.uleb128 0x46
 6335 476d 666F7065 		.ascii "fopen\0"
 6335      6E00
 6336 4773 1B       		.byte	0x1b
 6337 4774 A9       		.byte	0xa9
 6338 4775 8C360000 		.long	0x368c
 6339 4779 88470000 		.long	0x4788
 6340 477d 13       		.uleb128 0x13
 6341 477e A5370000 		.long	0x37a5
GAS LISTING C:\Users\NJLLMR~1\AppData\Local\Temp\cc5gZH1j.s 			page 146


 6342 4782 13       		.uleb128 0x13
 6343 4783 A5370000 		.long	0x37a5
 6344 4787 00       		.byte	0
 6345 4788 45       		.uleb128 0x45
 6346 4789 66726561 		.ascii "fread\0"
 6346      6400
 6347 478f 1B       		.byte	0x1b
 6348 4790 9C01     		.word	0x19c
 6349 4792 3C020000 		.long	0x23c
 6350 4796 AF470000 		.long	0x47af
 6351 479a 13       		.uleb128 0x13
 6352 479b 74450000 		.long	0x4574
 6353 479f 13       		.uleb128 0x13
 6354 47a0 3C020000 		.long	0x23c
 6355 47a4 13       		.uleb128 0x13
 6356 47a5 3C020000 		.long	0x23c
 6357 47a9 13       		.uleb128 0x13
 6358 47aa 8C360000 		.long	0x368c
 6359 47ae 00       		.byte	0
 6360 47af 46       		.uleb128 0x46
 6361 47b0 6672656F 		.ascii "freopen\0"
 6361      70656E00 
 6362 47b8 1B       		.byte	0x1b
 6363 47b9 AA       		.byte	0xaa
 6364 47ba 8C360000 		.long	0x368c
 6365 47be D2470000 		.long	0x47d2
 6366 47c2 13       		.uleb128 0x13
 6367 47c3 A5370000 		.long	0x37a5
 6368 47c7 13       		.uleb128 0x13
 6369 47c8 A5370000 		.long	0x37a5
 6370 47cc 13       		.uleb128 0x13
 6371 47cd 8C360000 		.long	0x368c
 6372 47d1 00       		.byte	0
 6373 47d2 45       		.uleb128 0x45
 6374 47d3 66736565 		.ascii "fseek\0"
 6374      6B00
 6375 47d9 1B       		.byte	0x1b
 6376 47da A301     		.word	0x1a3
 6377 47dc CB020000 		.long	0x2cb
 6378 47e0 F4470000 		.long	0x47f4
 6379 47e4 13       		.uleb128 0x13
 6380 47e5 8C360000 		.long	0x368c
 6381 47e9 13       		.uleb128 0x13
 6382 47ea D2020000 		.long	0x2d2
 6383 47ee 13       		.uleb128 0x13
 6384 47ef CB020000 		.long	0x2cb
 6385 47f3 00       		.byte	0
 6386 47f4 45       		.uleb128 0x45
 6387 47f5 66736574 		.ascii "fsetpos\0"
 6387      706F7300 
 6388 47fd 1B       		.byte	0x1b
 6389 47fe CD01     		.word	0x1cd
 6390 4800 CB020000 		.long	0x2cb
 6391 4804 13480000 		.long	0x4813
 6392 4808 13       		.uleb128 0x13
 6393 4809 8C360000 		.long	0x368c
 6394 480d 13       		.uleb128 0x13
GAS LISTING C:\Users\NJLLMR~1\AppData\Local\Temp\cc5gZH1j.s 			page 147


 6395 480e 13480000 		.long	0x4813
 6396 4812 00       		.byte	0
 6397 4813 07       		.uleb128 0x7
 6398 4814 04       		.byte	0x4
 6399 4815 19480000 		.long	0x4819
 6400 4819 14       		.uleb128 0x14
 6401 481a 80460000 		.long	0x4680
 6402 481e 45       		.uleb128 0x45
 6403 481f 6674656C 		.ascii "ftell\0"
 6403      6C00
 6404 4825 1B       		.byte	0x1b
 6405 4826 A401     		.word	0x1a4
 6406 4828 D2020000 		.long	0x2d2
 6407 482c 36480000 		.long	0x4836
 6408 4830 13       		.uleb128 0x13
 6409 4831 8C360000 		.long	0x368c
 6410 4835 00       		.byte	0
 6411 4836 45       		.uleb128 0x45
 6412 4837 67657463 		.ascii "getc\0"
 6412      00
 6413 483c 1B       		.byte	0x1b
 6414 483d 7401     		.word	0x174
 6415 483f CB020000 		.long	0x2cb
 6416 4843 4D480000 		.long	0x484d
 6417 4847 13       		.uleb128 0x13
 6418 4848 8C360000 		.long	0x368c
 6419 484c 00       		.byte	0
 6420 484d 54       		.uleb128 0x54
 6421 484e 67657463 		.ascii "getchar\0"
 6421      68617200 
 6422 4856 1B       		.byte	0x1b
 6423 4857 8201     		.word	0x182
 6424 4859 CB020000 		.long	0x2cb
 6425 485d 45       		.uleb128 0x45
 6426 485e 67657473 		.ascii "gets\0"
 6426      00
 6427 4863 1B       		.byte	0x1b
 6428 4864 6501     		.word	0x165
 6429 4866 83030000 		.long	0x383
 6430 486a 74480000 		.long	0x4874
 6431 486e 13       		.uleb128 0x13
 6432 486f 83030000 		.long	0x383
 6433 4873 00       		.byte	0
 6434 4874 53       		.uleb128 0x53
 6435 4875 70657272 		.ascii "perror\0"
 6435      6F7200
 6436 487c 1B       		.byte	0x1b
 6437 487d E101     		.word	0x1e1
 6438 487f 89480000 		.long	0x4889
 6439 4883 13       		.uleb128 0x13
 6440 4884 A5370000 		.long	0x37a5
 6441 4888 00       		.byte	0
 6442 4889 45       		.uleb128 0x45
 6443 488a 70757463 		.ascii "putc\0"
 6443      00
 6444 488f 1B       		.byte	0x1b
 6445 4890 7B01     		.word	0x17b
GAS LISTING C:\Users\NJLLMR~1\AppData\Local\Temp\cc5gZH1j.s 			page 148


 6446 4892 CB020000 		.long	0x2cb
 6447 4896 A5480000 		.long	0x48a5
 6448 489a 13       		.uleb128 0x13
 6449 489b CB020000 		.long	0x2cb
 6450 489f 13       		.uleb128 0x13
 6451 48a0 8C360000 		.long	0x368c
 6452 48a4 00       		.byte	0
 6453 48a5 45       		.uleb128 0x45
 6454 48a6 70757463 		.ascii "putchar\0"
 6454      68617200 
 6455 48ae 1B       		.byte	0x1b
 6456 48af 8901     		.word	0x189
 6457 48b1 CB020000 		.long	0x2cb
 6458 48b5 BF480000 		.long	0x48bf
 6459 48b9 13       		.uleb128 0x13
 6460 48ba CB020000 		.long	0x2cb
 6461 48be 00       		.byte	0
 6462 48bf 46       		.uleb128 0x46
 6463 48c0 72656D6F 		.ascii "remove\0"
 6463      766500
 6464 48c7 1B       		.byte	0x1b
 6465 48c8 AE       		.byte	0xae
 6466 48c9 CB020000 		.long	0x2cb
 6467 48cd D7480000 		.long	0x48d7
 6468 48d1 13       		.uleb128 0x13
 6469 48d2 A5370000 		.long	0x37a5
 6470 48d6 00       		.byte	0
 6471 48d7 46       		.uleb128 0x46
 6472 48d8 72656E61 		.ascii "rename\0"
 6472      6D6500
 6473 48df 1B       		.byte	0x1b
 6474 48e0 AF       		.byte	0xaf
 6475 48e1 CB020000 		.long	0x2cb
 6476 48e5 F4480000 		.long	0x48f4
 6477 48e9 13       		.uleb128 0x13
 6478 48ea A5370000 		.long	0x37a5
 6479 48ee 13       		.uleb128 0x13
 6480 48ef A5370000 		.long	0x37a5
 6481 48f3 00       		.byte	0
 6482 48f4 53       		.uleb128 0x53
 6483 48f5 72657769 		.ascii "rewind\0"
 6483      6E6400
 6484 48fc 1B       		.byte	0x1b
 6485 48fd A501     		.word	0x1a5
 6486 48ff 09490000 		.long	0x4909
 6487 4903 13       		.uleb128 0x13
 6488 4904 8C360000 		.long	0x368c
 6489 4908 00       		.byte	0
 6490 4909 55       		.uleb128 0x55
 6491 490a 73657462 		.ascii "setbuf\0"
 6491      756600
 6492 4911 1B       		.byte	0x1b
 6493 4912 C1       		.byte	0xc1
 6494 4913 22490000 		.long	0x4922
 6495 4917 13       		.uleb128 0x13
 6496 4918 8C360000 		.long	0x368c
 6497 491c 13       		.uleb128 0x13
GAS LISTING C:\Users\NJLLMR~1\AppData\Local\Temp\cc5gZH1j.s 			page 149


 6498 491d 83030000 		.long	0x383
 6499 4921 00       		.byte	0
 6500 4922 46       		.uleb128 0x46
 6501 4923 73657476 		.ascii "setvbuf\0"
 6501      62756600 
 6502 492b 1B       		.byte	0x1b
 6503 492c BF       		.byte	0xbf
 6504 492d CB020000 		.long	0x2cb
 6505 4931 4A490000 		.long	0x494a
 6506 4935 13       		.uleb128 0x13
 6507 4936 8C360000 		.long	0x368c
 6508 493a 13       		.uleb128 0x13
 6509 493b 83030000 		.long	0x383
 6510 493f 13       		.uleb128 0x13
 6511 4940 CB020000 		.long	0x2cb
 6512 4944 13       		.uleb128 0x13
 6513 4945 3C020000 		.long	0x23c
 6514 4949 00       		.byte	0
 6515 494a 48       		.uleb128 0x48
 6516 494b 746D7066 		.ascii "tmpfile\0"
 6516      696C6500 
 6517 4953 1B       		.byte	0x1b
 6518 4954 B0       		.byte	0xb0
 6519 4955 8C360000 		.long	0x368c
 6520 4959 46       		.uleb128 0x46
 6521 495a 746D706E 		.ascii "tmpnam\0"
 6521      616D00
 6522 4961 1B       		.byte	0x1b
 6523 4962 B1       		.byte	0xb1
 6524 4963 83030000 		.long	0x383
 6525 4967 71490000 		.long	0x4971
 6526 496b 13       		.uleb128 0x13
 6527 496c 83030000 		.long	0x383
 6528 4970 00       		.byte	0
 6529 4971 45       		.uleb128 0x45
 6530 4972 756E6765 		.ascii "ungetc\0"
 6530      746300
 6531 4979 1B       		.byte	0x1b
 6532 497a 6701     		.word	0x167
 6533 497c CB020000 		.long	0x2cb
 6534 4980 8F490000 		.long	0x498f
 6535 4984 13       		.uleb128 0x13
 6536 4985 CB020000 		.long	0x2cb
 6537 4989 13       		.uleb128 0x13
 6538 498a 8C360000 		.long	0x368c
 6539 498e 00       		.byte	0
 6540 498f 4D       		.uleb128 0x4d
 6541 4990 1D       		.byte	0x1d
 6542 4991 08       		.byte	0x8
 6543 4992 9C040000 		.long	0x49c
 6544 4996 4D       		.uleb128 0x4d
 6545 4997 1E       		.byte	0x1e
 6546 4998 0B       		.byte	0xb
 6547 4999 9C040000 		.long	0x49c
 6548 499d 02       		.uleb128 0x2
 6549 499e 53657276 		.ascii "Service\0"
 6549      69636500 
GAS LISTING C:\Users\NJLLMR~1\AppData\Local\Temp\cc5gZH1j.s 			page 150


 6550 49a6 01       		.byte	0x1
 6551 49a7 1E       		.byte	0x1e
 6552 49a8 0F       		.byte	0xf
 6553 49a9 4F4A0000 		.long	0x4a4f
 6554 49ad 03       		.uleb128 0x3
 6555 49ae 53657276 		.ascii "Service\0"
 6555      69636500 
 6556 49b6 1E       		.byte	0x1e
 6557 49b7 12       		.byte	0x12
 6558 49b8 01       		.byte	0x1
 6559 49b9 C1490000 		.long	0x49c1
 6560 49bd C7490000 		.long	0x49c7
 6561 49c1 04       		.uleb128 0x4
 6562 49c2 4F4A0000 		.long	0x4a4f
 6563 49c6 00       		.byte	0
 6564 49c7 03       		.uleb128 0x3
 6565 49c8 7E536572 		.ascii "~Service\0"
 6565      76696365 
 6565      00
 6566 49d1 1E       		.byte	0x1e
 6567 49d2 13       		.byte	0x13
 6568 49d3 01       		.byte	0x1
 6569 49d4 DC490000 		.long	0x49dc
 6570 49d8 E7490000 		.long	0x49e7
 6571 49dc 04       		.uleb128 0x4
 6572 49dd 4F4A0000 		.long	0x4a4f
 6573 49e1 04       		.uleb128 0x4
 6574 49e2 CB020000 		.long	0x2cb
 6575 49e6 00       		.byte	0
 6576 49e7 06       		.uleb128 0x6
 6577 49e8 77726974 		.ascii "writeEmployeeInFile\0"
 6577      65456D70 
 6577      6C6F7965 
 6577      65496E46 
 6577      696C6500 
 6578 49fc 1E       		.byte	0x1e
 6579 49fd 14       		.byte	0x14
 6580 49fe 5F5A4E37 		.ascii "_ZN7Service19writeEmployeeInFileESsSsSsSsSs\0"
 6580      53657276 
 6580      69636531 
 6580      39777269 
 6580      7465456D 
 6581 4a2a 01       		.byte	0x1
 6582 4a2b 2F4A0000 		.long	0x4a2f
 6583 4a2f 04       		.uleb128 0x4
 6584 4a30 4F4A0000 		.long	0x4a4f
 6585 4a34 13       		.uleb128 0x13
 6586 4a35 452F0000 		.long	0x2f45
 6587 4a39 13       		.uleb128 0x13
 6588 4a3a 452F0000 		.long	0x2f45
 6589 4a3e 13       		.uleb128 0x13
 6590 4a3f 452F0000 		.long	0x2f45
 6591 4a43 13       		.uleb128 0x13
 6592 4a44 452F0000 		.long	0x2f45
 6593 4a48 13       		.uleb128 0x13
 6594 4a49 452F0000 		.long	0x2f45
 6595 4a4d 00       		.byte	0
GAS LISTING C:\Users\NJLLMR~1\AppData\Local\Temp\cc5gZH1j.s 			page 151


 6596 4a4e 00       		.byte	0
 6597 4a4f 07       		.uleb128 0x7
 6598 4a50 04       		.byte	0x4
 6599 4a51 9D490000 		.long	0x499d
 6600 4a55 56       		.uleb128 0x56
 6601 4a56 90000000 		.secrel32	LASF30
 6602 4a5a 01       		.byte	0x1
 6603 4a5b 1F       		.byte	0x1f
 6604 4a5c 07       		.byte	0x7
 6605 4a5d 364C0000 		.long	0x4c36
 6606 4a61 1C       		.uleb128 0x1c
 6607 4a62 90000000 		.secrel32	LASF30
 6608 4a66 1F       		.byte	0x1f
 6609 4a67 0A       		.byte	0xa
 6610 4a68 01       		.byte	0x1
 6611 4a69 714A0000 		.long	0x4a71
 6612 4a6d 774A0000 		.long	0x4a77
 6613 4a71 04       		.uleb128 0x4
 6614 4a72 364C0000 		.long	0x4c36
 6615 4a76 00       		.byte	0
 6616 4a77 49       		.uleb128 0x49
 6617 4a78 76616C69 		.ascii "validateSalary\0"
 6617      64617465 
 6617      53616C61 
 6617      727900
 6618 4a87 1F       		.byte	0x1f
 6619 4a88 0B       		.byte	0xb
 6620 4a89 5F5A4E38 		.ascii "_ZN8Validate14validateSalaryESs\0"
 6620      56616C69 
 6620      64617465 
 6620      31347661 
 6620      6C696461 
 6621 4aa9 83430000 		.long	0x4383
 6622 4aad 01       		.byte	0x1
 6623 4aae B64A0000 		.long	0x4ab6
 6624 4ab2 C14A0000 		.long	0x4ac1
 6625 4ab6 04       		.uleb128 0x4
 6626 4ab7 364C0000 		.long	0x4c36
 6627 4abb 13       		.uleb128 0x13
 6628 4abc 452F0000 		.long	0x2f45
 6629 4ac0 00       		.byte	0
 6630 4ac1 49       		.uleb128 0x49
 6631 4ac2 76616C69 		.ascii "validateSSN\0"
 6631      64617465 
 6631      53534E00 
 6632 4ace 1F       		.byte	0x1f
 6633 4acf 0C       		.byte	0xc
 6634 4ad0 5F5A4E38 		.ascii "_ZN8Validate11validateSSNESs\0"
 6634      56616C69 
 6634      64617465 
 6634      31317661 
 6634      6C696461 
 6635 4aed 83430000 		.long	0x4383
 6636 4af1 01       		.byte	0x1
 6637 4af2 FA4A0000 		.long	0x4afa
 6638 4af6 054B0000 		.long	0x4b05
 6639 4afa 04       		.uleb128 0x4
GAS LISTING C:\Users\NJLLMR~1\AppData\Local\Temp\cc5gZH1j.s 			page 152


 6640 4afb 364C0000 		.long	0x4c36
 6641 4aff 13       		.uleb128 0x13
 6642 4b00 452F0000 		.long	0x2f45
 6643 4b04 00       		.byte	0
 6644 4b05 49       		.uleb128 0x49
 6645 4b06 76616C69 		.ascii "validateMonth\0"
 6645      64617465 
 6645      4D6F6E74 
 6645      6800
 6646 4b14 1F       		.byte	0x1f
 6647 4b15 0D       		.byte	0xd
 6648 4b16 5F5A4E38 		.ascii "_ZN8Validate13validateMonthESs\0"
 6648      56616C69 
 6648      64617465 
 6648      31337661 
 6648      6C696461 
 6649 4b35 83430000 		.long	0x4383
 6650 4b39 01       		.byte	0x1
 6651 4b3a 424B0000 		.long	0x4b42
 6652 4b3e 4D4B0000 		.long	0x4b4d
 6653 4b42 04       		.uleb128 0x4
 6654 4b43 364C0000 		.long	0x4c36
 6655 4b47 13       		.uleb128 0x13
 6656 4b48 452F0000 		.long	0x2f45
 6657 4b4c 00       		.byte	0
 6658 4b4d 49       		.uleb128 0x49
 6659 4b4e 76616C69 		.ascii "validateName\0"
 6659      64617465 
 6659      4E616D65 
 6659      00
 6660 4b5b 1F       		.byte	0x1f
 6661 4b5c 0E       		.byte	0xe
 6662 4b5d 5F5A4E38 		.ascii "_ZN8Validate12validateNameESs\0"
 6662      56616C69 
 6662      64617465 
 6662      31327661 
 6662      6C696461 
 6663 4b7b 83430000 		.long	0x4383
 6664 4b7f 01       		.byte	0x1
 6665 4b80 884B0000 		.long	0x4b88
 6666 4b84 934B0000 		.long	0x4b93
 6667 4b88 04       		.uleb128 0x4
 6668 4b89 364C0000 		.long	0x4c36
 6669 4b8d 13       		.uleb128 0x13
 6670 4b8e 452F0000 		.long	0x2f45
 6671 4b92 00       		.byte	0
 6672 4b93 49       		.uleb128 0x49
 6673 4b94 76616C69 		.ascii "validateYear\0"
 6673      64617465 
 6673      59656172 
 6673      00
 6674 4ba1 1F       		.byte	0x1f
 6675 4ba2 0F       		.byte	0xf
 6676 4ba3 5F5A4E38 		.ascii "_ZN8Validate12validateYearESs\0"
 6676      56616C69 
 6676      64617465 
 6676      31327661 
GAS LISTING C:\Users\NJLLMR~1\AppData\Local\Temp\cc5gZH1j.s 			page 153


 6676      6C696461 
 6677 4bc1 83430000 		.long	0x4383
 6678 4bc5 01       		.byte	0x1
 6679 4bc6 CE4B0000 		.long	0x4bce
 6680 4bca D94B0000 		.long	0x4bd9
 6681 4bce 04       		.uleb128 0x4
 6682 4bcf 364C0000 		.long	0x4c36
 6683 4bd3 13       		.uleb128 0x13
 6684 4bd4 452F0000 		.long	0x2f45
 6685 4bd8 00       		.byte	0
 6686 4bd9 57       		.uleb128 0x57
 6687 4bda 76616C69 		.ascii "validateAll\0"
 6687      64617465 
 6687      416C6C00 
 6688 4be6 1F       		.byte	0x1f
 6689 4be7 10       		.byte	0x10
 6690 4be8 5F5A4E38 		.ascii "_ZN8Validate11validateAllESsSsSsSsSs\0"
 6690      56616C69 
 6690      64617465 
 6690      31317661 
 6690      6C696461 
 6691 4c0d 83430000 		.long	0x4383
 6692 4c11 01       		.byte	0x1
 6693 4c12 164C0000 		.long	0x4c16
 6694 4c16 04       		.uleb128 0x4
 6695 4c17 364C0000 		.long	0x4c36
 6696 4c1b 13       		.uleb128 0x13
 6697 4c1c 452F0000 		.long	0x2f45
 6698 4c20 13       		.uleb128 0x13
 6699 4c21 452F0000 		.long	0x2f45
 6700 4c25 13       		.uleb128 0x13
 6701 4c26 452F0000 		.long	0x2f45
 6702 4c2a 13       		.uleb128 0x13
 6703 4c2b 452F0000 		.long	0x2f45
 6704 4c2f 13       		.uleb128 0x13
 6705 4c30 452F0000 		.long	0x2f45
 6706 4c34 00       		.byte	0
 6707 4c35 00       		.byte	0
 6708 4c36 07       		.uleb128 0x7
 6709 4c37 04       		.byte	0x4
 6710 4c38 554A0000 		.long	0x4a55
 6711 4c3c 4D       		.uleb128 0x4d
 6712 4c3d 01       		.byte	0x1
 6713 4c3e 08       		.byte	0x8
 6714 4c3f 9C040000 		.long	0x49c
 6715 4c43 58       		.uleb128 0x58
 6716 4c44 03010000 		.long	0x103
 6717 4c48 01       		.byte	0x1
 6718 4c49 0A       		.byte	0xa
 6719 4c4a 00       		.byte	0
 6720 4c4b 534C0000 		.long	0x4c53
 6721 4c4f 5D4C0000 		.long	0x4c5d
 6722 4c53 59       		.uleb128 0x59
 6723 4c54 7E000000 		.secrel32	LASF31
 6724 4c58 5D4C0000 		.long	0x4c5d
 6725 4c5c 00       		.byte	0
 6726 4c5d 14       		.uleb128 0x14
GAS LISTING C:\Users\NJLLMR~1\AppData\Local\Temp\cc5gZH1j.s 			page 154


 6727 4c5e 36020000 		.long	0x236
 6728 4c62 5A       		.uleb128 0x5a
 6729 4c63 434C0000 		.long	0x4c43
 6730 4c67 5F5A4E37 		.ascii "_ZN7Main_uiC2Ev\0"
 6730      4D61696E 
 6730      5F756943 
 6730      32457600 
 6731 4c77 00000000 		.long	LFB1137
 6732 4c7b 0B000000 		.long	LFE1137-LFB1137
 6733 4c7f 01       		.uleb128 0x1
 6734 4c80 9C       		.byte	0x9c
 6735 4c81 894C0000 		.long	0x4c89
 6736 4c85 924C0000 		.long	0x4c92
 6737 4c89 5B       		.uleb128 0x5b
 6738 4c8a 534C0000 		.long	0x4c53
 6739 4c8e 02       		.uleb128 0x2
 6740 4c8f 91       		.byte	0x91
 6741 4c90 74       		.sleb128 -12
 6742 4c91 00       		.byte	0
 6743 4c92 5C       		.uleb128 0x5c
 6744 4c93 1D010000 		.long	0x11d
 6745 4c97 01       		.byte	0x1
 6746 4c98 0F       		.byte	0xf
 6747 4c99 0C000000 		.long	LFB1139
 6748 4c9d AC020000 		.long	LFE1139-LFB1139
 6749 4ca1 01       		.uleb128 0x1
 6750 4ca2 9C       		.byte	0x9c
 6751 4ca3 AB4C0000 		.long	0x4cab
 6752 4ca7 D24C0000 		.long	0x4cd2
 6753 4cab 5D       		.uleb128 0x5d
 6754 4cac 7E000000 		.secrel32	LASF31
 6755 4cb0 5D4C0000 		.long	0x4c5d
 6756 4cb4 02       		.uleb128 0x2
 6757 4cb5 91       		.byte	0x91
 6758 4cb6 5C       		.sleb128 -36
 6759 4cb7 5E       		.uleb128 0x5e
 6760 4cb8 15000000 		.long	LBB2
 6761 4cbc A1020000 		.long	LBE2-LBB2
 6762 4cc0 5F       		.uleb128 0x5f
 6763 4cc1 696E7075 		.ascii "input\0"
 6763      7400
 6764 4cc7 01       		.byte	0x1
 6765 4cc8 10       		.byte	0x10
 6766 4cc9 97020000 		.long	0x297
 6767 4ccd 02       		.uleb128 0x2
 6768 4cce 91       		.byte	0x91
 6769 4ccf 6F       		.sleb128 -17
 6770 4cd0 00       		.byte	0
 6771 4cd1 00       		.byte	0
 6772 4cd2 5C       		.uleb128 0x5c
 6773 4cd3 8A010000 		.long	0x18a
 6774 4cd7 01       		.byte	0x1
 6775 4cd8 3A       		.byte	0x3a
 6776 4cd9 B8020000 		.long	LFB1140
 6777 4cdd 9A090000 		.long	LFE1140-LFB1140
 6778 4ce1 01       		.uleb128 0x1
 6779 4ce2 9C       		.byte	0x9c
GAS LISTING C:\Users\NJLLMR~1\AppData\Local\Temp\cc5gZH1j.s 			page 155


 6780 4ce3 EB4C0000 		.long	0x4ceb
 6781 4ce7 B84D0000 		.long	0x4db8
 6782 4ceb 5D       		.uleb128 0x5d
 6783 4cec 7E000000 		.secrel32	LASF31
 6784 4cf0 5D4C0000 		.long	0x4c5d
 6785 4cf4 03       		.uleb128 0x3
 6786 4cf5 91       		.byte	0x91
 6787 4cf6 8C7F     		.sleb128 -116
 6788 4cf8 5E       		.uleb128 0x5e
 6789 4cf9 FC020000 		.long	LBB3
 6790 4cfd 4E090000 		.long	LBE3-LBB3
 6791 4d01 5F       		.uleb128 0x5f
 6792 4d02 76616C69 		.ascii "validate\0"
 6792      64617465 
 6792      00
 6793 4d0b 01       		.byte	0x1
 6794 4d0c 3C       		.byte	0x3c
 6795 4d0d 554A0000 		.long	0x4a55
 6796 4d11 03       		.uleb128 0x3
 6797 4d12 91       		.byte	0x91
 6798 4d13 B37F     		.sleb128 -77
 6799 4d15 5F       		.uleb128 0x5f
 6800 4d16 696E7075 		.ascii "input\0"
 6800      7400
 6801 4d1c 01       		.byte	0x1
 6802 4d1d 3D       		.byte	0x3d
 6803 4d1e CB020000 		.long	0x2cb
 6804 4d22 03       		.uleb128 0x3
 6805 4d23 91       		.byte	0x91
 6806 4d24 AC7F     		.sleb128 -84
 6807 4d26 5F       		.uleb128 0x5f
 6808 4d27 746D704E 		.ascii "tmpName\0"
 6808      616D6500 
 6809 4d2f 01       		.byte	0x1
 6810 4d30 3E       		.byte	0x3e
 6811 4d31 452F0000 		.long	0x2f45
 6812 4d35 03       		.uleb128 0x3
 6813 4d36 91       		.byte	0x91
 6814 4d37 A87F     		.sleb128 -88
 6815 4d39 5F       		.uleb128 0x5f
 6816 4d3a 746D7053 		.ascii "tmpSSN\0"
 6816      534E00
 6817 4d41 01       		.byte	0x1
 6818 4d42 3F       		.byte	0x3f
 6819 4d43 452F0000 		.long	0x2f45
 6820 4d47 03       		.uleb128 0x3
 6821 4d48 91       		.byte	0x91
 6822 4d49 A47F     		.sleb128 -92
 6823 4d4b 5F       		.uleb128 0x5f
 6824 4d4c 746D7053 		.ascii "tmpSalary\0"
 6824      616C6172 
 6824      7900
 6825 4d56 01       		.byte	0x1
 6826 4d57 40       		.byte	0x40
 6827 4d58 452F0000 		.long	0x2f45
 6828 4d5c 03       		.uleb128 0x3
 6829 4d5d 91       		.byte	0x91
GAS LISTING C:\Users\NJLLMR~1\AppData\Local\Temp\cc5gZH1j.s 			page 156


 6830 4d5e A07F     		.sleb128 -96
 6831 4d60 5F       		.uleb128 0x5f
 6832 4d61 746D704D 		.ascii "tmpMonth\0"
 6832      6F6E7468 
 6832      00
 6833 4d6a 01       		.byte	0x1
 6834 4d6b 41       		.byte	0x41
 6835 4d6c 452F0000 		.long	0x2f45
 6836 4d70 03       		.uleb128 0x3
 6837 4d71 91       		.byte	0x91
 6838 4d72 9C7F     		.sleb128 -100
 6839 4d74 5F       		.uleb128 0x5f
 6840 4d75 746D7059 		.ascii "tmpYear\0"
 6840      65617200 
 6841 4d7d 01       		.byte	0x1
 6842 4d7e 41       		.byte	0x41
 6843 4d7f 452F0000 		.long	0x2f45
 6844 4d83 03       		.uleb128 0x3
 6845 4d84 91       		.byte	0x91
 6846 4d85 987F     		.sleb128 -104
 6847 4d87 60       		.uleb128 0x60
 6848 4d88 00000000 		.secrel32	Ldebug_ranges0+0
 6849 4d8c 5F       		.uleb128 0x5f
 6850 4d8d 6900     		.ascii "i\0"
 6851 4d8f 01       		.byte	0x1
 6852 4d90 44       		.byte	0x44
 6853 4d91 CB020000 		.long	0x2cb
 6854 4d95 02       		.uleb128 0x2
 6855 4d96 91       		.byte	0x91
 6856 4d97 5C       		.sleb128 -36
 6857 4d98 60       		.uleb128 0x60
 6858 4d99 18000000 		.secrel32	Ldebug_ranges0+0x18
 6859 4d9d 5F       		.uleb128 0x5f
 6860 4d9e 6E657745 		.ascii "newEmployee\0"
 6860      6D706C6F 
 6860      79656500 
 6861 4daa 01       		.byte	0x1
 6862 4dab 74       		.byte	0x74
 6863 4dac 9D490000 		.long	0x499d
 6864 4db0 03       		.uleb128 0x3
 6865 4db1 91       		.byte	0x91
 6866 4db2 977F     		.sleb128 -105
 6867 4db4 00       		.byte	0
 6868 4db5 00       		.byte	0
 6869 4db6 00       		.byte	0
 6870 4db7 00       		.byte	0
 6871 4db8 61       		.uleb128 0x61
 6872 4db9 51010000 		.long	0x151
 6873 4dbd 01       		.byte	0x1
 6874 4dbe 7A       		.byte	0x7a
 6875 4dbf 520C0000 		.long	LFB1141
 6876 4dc3 0B000000 		.long	LFE1141-LFB1141
 6877 4dc7 01       		.uleb128 0x1
 6878 4dc8 9C       		.byte	0x9c
 6879 4dc9 D14D0000 		.long	0x4dd1
 6880 4dcd DE4D0000 		.long	0x4dde
 6881 4dd1 5D       		.uleb128 0x5d
GAS LISTING C:\Users\NJLLMR~1\AppData\Local\Temp\cc5gZH1j.s 			page 157


 6882 4dd2 7E000000 		.secrel32	LASF31
 6883 4dd6 5D4C0000 		.long	0x4c5d
 6884 4dda 02       		.uleb128 0x2
 6885 4ddb 91       		.byte	0x91
 6886 4ddc 74       		.sleb128 -12
 6887 4ddd 00       		.byte	0
 6888 4dde 61       		.uleb128 0x61
 6889 4ddf FE010000 		.long	0x1fe
 6890 4de3 01       		.byte	0x1
 6891 4de4 7E       		.byte	0x7e
 6892 4de5 5E0C0000 		.long	LFB1142
 6893 4de9 0B000000 		.long	LFE1142-LFB1142
 6894 4ded 01       		.uleb128 0x1
 6895 4dee 9C       		.byte	0x9c
 6896 4def F74D0000 		.long	0x4df7
 6897 4df3 044E0000 		.long	0x4e04
 6898 4df7 5D       		.uleb128 0x5d
 6899 4df8 7E000000 		.secrel32	LASF31
 6900 4dfc 5D4C0000 		.long	0x4c5d
 6901 4e00 02       		.uleb128 0x2
 6902 4e01 91       		.byte	0x91
 6903 4e02 74       		.sleb128 -12
 6904 4e03 00       		.byte	0
 6905 4e04 61       		.uleb128 0x61
 6906 4e05 C3010000 		.long	0x1c3
 6907 4e09 01       		.byte	0x1
 6908 4e0a 82       		.byte	0x82
 6909 4e0b 6A0C0000 		.long	LFB1143
 6910 4e0f 0B000000 		.long	LFE1143-LFB1143
 6911 4e13 01       		.uleb128 0x1
 6912 4e14 9C       		.byte	0x9c
 6913 4e15 1D4E0000 		.long	0x4e1d
 6914 4e19 2A4E0000 		.long	0x4e2a
 6915 4e1d 5D       		.uleb128 0x5d
 6916 4e1e 7E000000 		.secrel32	LASF31
 6917 4e22 5D4C0000 		.long	0x4c5d
 6918 4e26 02       		.uleb128 0x2
 6919 4e27 91       		.byte	0x91
 6920 4e28 74       		.sleb128 -12
 6921 4e29 00       		.byte	0
 6922 4e2a 62       		.uleb128 0x62
 6923 4e2b 5F5F7463 		.ascii "__tcf_0\0"
 6923      665F3000 
 6924 4e33 750C0000 		.long	LFB1191
 6925 4e37 12000000 		.long	LFE1191-LFB1191
 6926 4e3b 01       		.uleb128 0x1
 6927 4e3c 9C       		.byte	0x9c
 6928 4e3d 63       		.uleb128 0x63
 6929 4e3e 5F5F7374 		.ascii "__static_initialization_and_destruction_0\0"
 6929      61746963 
 6929      5F696E69 
 6929      7469616C 
 6929      697A6174 
 6930 4e68 870C0000 		.long	LFB1190
 6931 4e6c 2D000000 		.long	LFE1190-LFB1190
 6932 4e70 01       		.uleb128 0x1
 6933 4e71 9C       		.byte	0x9c
GAS LISTING C:\Users\NJLLMR~1\AppData\Local\Temp\cc5gZH1j.s 			page 158


 6934 4e72 A54E0000 		.long	0x4ea5
 6935 4e76 64       		.uleb128 0x64
 6936 4e77 5F5F696E 		.ascii "__initialize_p\0"
 6936      69746961 
 6936      6C697A65 
 6936      5F7000
 6937 4e86 01       		.byte	0x1
 6938 4e87 84       		.byte	0x84
 6939 4e88 CB020000 		.long	0x2cb
 6940 4e8c 02       		.uleb128 0x2
 6941 4e8d 91       		.byte	0x91
 6942 4e8e 00       		.sleb128 0
 6943 4e8f 64       		.uleb128 0x64
 6944 4e90 5F5F7072 		.ascii "__priority\0"
 6944      696F7269 
 6944      747900
 6945 4e9b 01       		.byte	0x1
 6946 4e9c 84       		.byte	0x84
 6947 4e9d CB020000 		.long	0x2cb
 6948 4ea1 02       		.uleb128 0x2
 6949 4ea2 91       		.byte	0x91
 6950 4ea3 04       		.sleb128 4
 6951 4ea4 00       		.byte	0
 6952 4ea5 62       		.uleb128 0x62
 6953 4ea6 5F474C4F 		.ascii "_GLOBAL__sub_I__ZN7Main_uiC2Ev\0"
 6953      42414C5F 
 6953      5F737562 
 6953      5F495F5F 
 6953      5A4E374D 
 6954 4ec5 B40C0000 		.long	LFB1192
 6955 4ec9 1C000000 		.long	LFE1192-LFB1192
 6956 4ecd 01       		.uleb128 0x1
 6957 4ece 9C       		.byte	0x9c
 6958 4ecf 51       		.uleb128 0x51
 6959 4ed0 FC020000 		.long	0x2fc
 6960 4ed4 DA4E0000 		.long	0x4eda
 6961 4ed8 52       		.uleb128 0x52
 6962 4ed9 00       		.byte	0
 6963 4eda 65       		.uleb128 0x65
 6964 4edb 5F696F62 		.ascii "_iob\0"
 6964      00
 6965 4ee0 1B       		.byte	0x1b
 6966 4ee1 9A       		.byte	0x9a
 6967 4ee2 CF4E0000 		.long	0x4ecf
 6968 4ee6 66       		.uleb128 0x66
 6969 4ee7 4B360000 		.long	0x364b
 6970 4eeb 05       		.uleb128 0x5
 6971 4eec 03       		.byte	0x3
 6972 4eed 00000000 		.long	__ZStL8__ioinit
 6973 4ef1 67       		.uleb128 0x67
 6974 4ef2 BE400000 		.long	0x40be
 6975 4ef6 5F5A4E39 		.ascii "_ZN9__gnu_cxx24__numeric_traits_integerIiE5__minE\0"
 6975      5F5F676E 
 6975      755F6378 
 6975      7832345F 
 6975      5F6E756D 
 6976 4f28 80808080 		.sleb128 -2147483648
GAS LISTING C:\Users\NJLLMR~1\AppData\Local\Temp\cc5gZH1j.s 			page 159


 6976      78
 6977 4f2d 68       		.uleb128 0x68
 6978 4f2e C9400000 		.long	0x40c9
 6979 4f32 5F5A4E39 		.ascii "_ZN9__gnu_cxx24__numeric_traits_integerIiE5__maxE\0"
 6979      5F5F676E 
 6979      755F6378 
 6979      7832345F 
 6979      5F6E756D 
 6980 4f64 FFFFFF7F 		.long	0x7fffffff
 6981 4f68 69       		.uleb128 0x69
 6982 4f69 15420000 		.long	0x4215
 6983 4f6d 5F5A4E39 		.ascii "_ZN9__gnu_cxx24__numeric_traits_integerImE8__digitsE\0"
 6983      5F5F676E 
 6983      755F6378 
 6983      7832345F 
 6983      5F6E756D 
 6984 4fa2 20       		.byte	0x20
 6985 4fa3 69       		.uleb128 0x69
 6986 4fa4 5C420000 		.long	0x425c
 6987 4fa8 5F5A4E39 		.ascii "_ZN9__gnu_cxx24__numeric_traits_integerIcE5__maxE\0"
 6987      5F5F676E 
 6987      755F6378 
 6987      7832345F 
 6987      5F6E756D 
 6988 4fda 7F       		.byte	0x7f
 6989 4fdb 67       		.uleb128 0x67
 6990 4fdc AF420000 		.long	0x42af
 6991 4fe0 5F5A4E39 		.ascii "_ZN9__gnu_cxx24__numeric_traits_integerIsE5__minE\0"
 6991      5F5F676E 
 6991      755F6378 
 6991      7832345F 
 6991      5F6E756D 
 6992 5012 80807E   		.sleb128 -32768
 6993 5015 6A       		.uleb128 0x6a
 6994 5016 BA420000 		.long	0x42ba
 6995 501a 5F5A4E39 		.ascii "_ZN9__gnu_cxx24__numeric_traits_integerIsE5__maxE\0"
 6995      5F5F676E 
 6995      755F6378 
 6995      7832345F 
 6995      5F6E756D 
 6996 504c FF7F     		.word	0x7fff
 6997 504e 00       		.byte	0
 6998              		.section	.debug_abbrev,"dr"
 6999              	Ldebug_abbrev0:
 7000 0000 01       		.uleb128 0x1
 7001 0001 11       		.uleb128 0x11
 7002 0002 01       		.byte	0x1
 7003 0003 25       		.uleb128 0x25
 7004 0004 08       		.uleb128 0x8
 7005 0005 13       		.uleb128 0x13
 7006 0006 0B       		.uleb128 0xb
 7007 0007 03       		.uleb128 0x3
 7008 0008 08       		.uleb128 0x8
 7009 0009 1B       		.uleb128 0x1b
 7010 000a 08       		.uleb128 0x8
 7011 000b 11       		.uleb128 0x11
 7012 000c 01       		.uleb128 0x1
GAS LISTING C:\Users\NJLLMR~1\AppData\Local\Temp\cc5gZH1j.s 			page 160


 7013 000d 12       		.uleb128 0x12
 7014 000e 06       		.uleb128 0x6
 7015 000f 10       		.uleb128 0x10
 7016 0010 17       		.uleb128 0x17
 7017 0011 00       		.byte	0
 7018 0012 00       		.byte	0
 7019 0013 02       		.uleb128 0x2
 7020 0014 02       		.uleb128 0x2
 7021 0015 01       		.byte	0x1
 7022 0016 03       		.uleb128 0x3
 7023 0017 08       		.uleb128 0x8
 7024 0018 0B       		.uleb128 0xb
 7025 0019 0B       		.uleb128 0xb
 7026 001a 3A       		.uleb128 0x3a
 7027 001b 0B       		.uleb128 0xb
 7028 001c 3B       		.uleb128 0x3b
 7029 001d 0B       		.uleb128 0xb
 7030 001e 01       		.uleb128 0x1
 7031 001f 13       		.uleb128 0x13
 7032 0020 00       		.byte	0
 7033 0021 00       		.byte	0
 7034 0022 03       		.uleb128 0x3
 7035 0023 2E       		.uleb128 0x2e
 7036 0024 01       		.byte	0x1
 7037 0025 3F       		.uleb128 0x3f
 7038 0026 19       		.uleb128 0x19
 7039 0027 03       		.uleb128 0x3
 7040 0028 08       		.uleb128 0x8
 7041 0029 3A       		.uleb128 0x3a
 7042 002a 0B       		.uleb128 0xb
 7043 002b 3B       		.uleb128 0x3b
 7044 002c 0B       		.uleb128 0xb
 7045 002d 32       		.uleb128 0x32
 7046 002e 0B       		.uleb128 0xb
 7047 002f 3C       		.uleb128 0x3c
 7048 0030 19       		.uleb128 0x19
 7049 0031 64       		.uleb128 0x64
 7050 0032 13       		.uleb128 0x13
 7051 0033 01       		.uleb128 0x1
 7052 0034 13       		.uleb128 0x13
 7053 0035 00       		.byte	0
 7054 0036 00       		.byte	0
 7055 0037 04       		.uleb128 0x4
 7056 0038 05       		.uleb128 0x5
 7057 0039 00       		.byte	0
 7058 003a 49       		.uleb128 0x49
 7059 003b 13       		.uleb128 0x13
 7060 003c 34       		.uleb128 0x34
 7061 003d 19       		.uleb128 0x19
 7062 003e 00       		.byte	0
 7063 003f 00       		.byte	0
 7064 0040 05       		.uleb128 0x5
 7065 0041 2E       		.uleb128 0x2e
 7066 0042 01       		.byte	0x1
 7067 0043 3F       		.uleb128 0x3f
 7068 0044 19       		.uleb128 0x19
 7069 0045 03       		.uleb128 0x3
GAS LISTING C:\Users\NJLLMR~1\AppData\Local\Temp\cc5gZH1j.s 			page 161


 7070 0046 08       		.uleb128 0x8
 7071 0047 3A       		.uleb128 0x3a
 7072 0048 0B       		.uleb128 0xb
 7073 0049 3B       		.uleb128 0x3b
 7074 004a 0B       		.uleb128 0xb
 7075 004b 6E       		.uleb128 0x6e
 7076 004c 08       		.uleb128 0x8
 7077 004d 32       		.uleb128 0x32
 7078 004e 0B       		.uleb128 0xb
 7079 004f 3C       		.uleb128 0x3c
 7080 0050 19       		.uleb128 0x19
 7081 0051 64       		.uleb128 0x64
 7082 0052 13       		.uleb128 0x13
 7083 0053 01       		.uleb128 0x1
 7084 0054 13       		.uleb128 0x13
 7085 0055 00       		.byte	0
 7086 0056 00       		.byte	0
 7087 0057 06       		.uleb128 0x6
 7088 0058 2E       		.uleb128 0x2e
 7089 0059 01       		.byte	0x1
 7090 005a 3F       		.uleb128 0x3f
 7091 005b 19       		.uleb128 0x19
 7092 005c 03       		.uleb128 0x3
 7093 005d 08       		.uleb128 0x8
 7094 005e 3A       		.uleb128 0x3a
 7095 005f 0B       		.uleb128 0xb
 7096 0060 3B       		.uleb128 0x3b
 7097 0061 0B       		.uleb128 0xb
 7098 0062 6E       		.uleb128 0x6e
 7099 0063 08       		.uleb128 0x8
 7100 0064 32       		.uleb128 0x32
 7101 0065 0B       		.uleb128 0xb
 7102 0066 3C       		.uleb128 0x3c
 7103 0067 19       		.uleb128 0x19
 7104 0068 64       		.uleb128 0x64
 7105 0069 13       		.uleb128 0x13
 7106 006a 00       		.byte	0
 7107 006b 00       		.byte	0
 7108 006c 07       		.uleb128 0x7
 7109 006d 0F       		.uleb128 0xf
 7110 006e 00       		.byte	0
 7111 006f 0B       		.uleb128 0xb
 7112 0070 0B       		.uleb128 0xb
 7113 0071 49       		.uleb128 0x49
 7114 0072 13       		.uleb128 0x13
 7115 0073 00       		.byte	0
 7116 0074 00       		.byte	0
 7117 0075 08       		.uleb128 0x8
 7118 0076 16       		.uleb128 0x16
 7119 0077 00       		.byte	0
 7120 0078 03       		.uleb128 0x3
 7121 0079 08       		.uleb128 0x8
 7122 007a 3A       		.uleb128 0x3a
 7123 007b 0B       		.uleb128 0xb
 7124 007c 3B       		.uleb128 0x3b
 7125 007d 0B       		.uleb128 0xb
 7126 007e 49       		.uleb128 0x49
GAS LISTING C:\Users\NJLLMR~1\AppData\Local\Temp\cc5gZH1j.s 			page 162


 7127 007f 13       		.uleb128 0x13
 7128 0080 00       		.byte	0
 7129 0081 00       		.byte	0
 7130 0082 09       		.uleb128 0x9
 7131 0083 24       		.uleb128 0x24
 7132 0084 00       		.byte	0
 7133 0085 0B       		.uleb128 0xb
 7134 0086 0B       		.uleb128 0xb
 7135 0087 3E       		.uleb128 0x3e
 7136 0088 0B       		.uleb128 0xb
 7137 0089 03       		.uleb128 0x3
 7138 008a 08       		.uleb128 0x8
 7139 008b 00       		.byte	0
 7140 008c 00       		.byte	0
 7141 008d 0A       		.uleb128 0xa
 7142 008e 16       		.uleb128 0x16
 7143 008f 00       		.byte	0
 7144 0090 03       		.uleb128 0x3
 7145 0091 08       		.uleb128 0x8
 7146 0092 3A       		.uleb128 0x3a
 7147 0093 0B       		.uleb128 0xb
 7148 0094 3B       		.uleb128 0x3b
 7149 0095 05       		.uleb128 0x5
 7150 0096 49       		.uleb128 0x49
 7151 0097 13       		.uleb128 0x13
 7152 0098 00       		.byte	0
 7153 0099 00       		.byte	0
 7154 009a 0B       		.uleb128 0xb
 7155 009b 0F       		.uleb128 0xf
 7156 009c 00       		.byte	0
 7157 009d 0B       		.uleb128 0xb
 7158 009e 0B       		.uleb128 0xb
 7159 009f 03       		.uleb128 0x3
 7160 00a0 08       		.uleb128 0x8
 7161 00a1 49       		.uleb128 0x49
 7162 00a2 13       		.uleb128 0x13
 7163 00a3 00       		.byte	0
 7164 00a4 00       		.byte	0
 7165 00a5 0C       		.uleb128 0xc
 7166 00a6 13       		.uleb128 0x13
 7167 00a7 01       		.byte	0x1
 7168 00a8 03       		.uleb128 0x3
 7169 00a9 08       		.uleb128 0x8
 7170 00aa 0B       		.uleb128 0xb
 7171 00ab 0B       		.uleb128 0xb
 7172 00ac 3A       		.uleb128 0x3a
 7173 00ad 0B       		.uleb128 0xb
 7174 00ae 3B       		.uleb128 0x3b
 7175 00af 0B       		.uleb128 0xb
 7176 00b0 01       		.uleb128 0x1
 7177 00b1 13       		.uleb128 0x13
 7178 00b2 00       		.byte	0
 7179 00b3 00       		.byte	0
 7180 00b4 0D       		.uleb128 0xd
 7181 00b5 0D       		.uleb128 0xd
 7182 00b6 00       		.byte	0
 7183 00b7 03       		.uleb128 0x3
GAS LISTING C:\Users\NJLLMR~1\AppData\Local\Temp\cc5gZH1j.s 			page 163


 7184 00b8 08       		.uleb128 0x8
 7185 00b9 3A       		.uleb128 0x3a
 7186 00ba 0B       		.uleb128 0xb
 7187 00bb 3B       		.uleb128 0x3b
 7188 00bc 0B       		.uleb128 0xb
 7189 00bd 49       		.uleb128 0x49
 7190 00be 13       		.uleb128 0x13
 7191 00bf 38       		.uleb128 0x38
 7192 00c0 0B       		.uleb128 0xb
 7193 00c1 00       		.byte	0
 7194 00c2 00       		.byte	0
 7195 00c3 0E       		.uleb128 0xe
 7196 00c4 39       		.uleb128 0x39
 7197 00c5 01       		.byte	0x1
 7198 00c6 03       		.uleb128 0x3
 7199 00c7 08       		.uleb128 0x8
 7200 00c8 3A       		.uleb128 0x3a
 7201 00c9 0B       		.uleb128 0xb
 7202 00ca 3B       		.uleb128 0x3b
 7203 00cb 0B       		.uleb128 0xb
 7204 00cc 01       		.uleb128 0x1
 7205 00cd 13       		.uleb128 0x13
 7206 00ce 00       		.byte	0
 7207 00cf 00       		.byte	0
 7208 00d0 0F       		.uleb128 0xf
 7209 00d1 08       		.uleb128 0x8
 7210 00d2 00       		.byte	0
 7211 00d3 3A       		.uleb128 0x3a
 7212 00d4 0B       		.uleb128 0xb
 7213 00d5 3B       		.uleb128 0x3b
 7214 00d6 0B       		.uleb128 0xb
 7215 00d7 18       		.uleb128 0x18
 7216 00d8 13       		.uleb128 0x13
 7217 00d9 00       		.byte	0
 7218 00da 00       		.byte	0
 7219 00db 10       		.uleb128 0x10
 7220 00dc 08       		.uleb128 0x8
 7221 00dd 00       		.byte	0
 7222 00de 3A       		.uleb128 0x3a
 7223 00df 0B       		.uleb128 0xb
 7224 00e0 3B       		.uleb128 0x3b
 7225 00e1 05       		.uleb128 0x5
 7226 00e2 18       		.uleb128 0x18
 7227 00e3 13       		.uleb128 0x13
 7228 00e4 00       		.byte	0
 7229 00e5 00       		.byte	0
 7230 00e6 11       		.uleb128 0x11
 7231 00e7 39       		.uleb128 0x39
 7232 00e8 00       		.byte	0
 7233 00e9 03       		.uleb128 0x3
 7234 00ea 08       		.uleb128 0x8
 7235 00eb 3A       		.uleb128 0x3a
 7236 00ec 0B       		.uleb128 0xb
 7237 00ed 3B       		.uleb128 0x3b
 7238 00ee 0B       		.uleb128 0xb
 7239 00ef 00       		.byte	0
 7240 00f0 00       		.byte	0
GAS LISTING C:\Users\NJLLMR~1\AppData\Local\Temp\cc5gZH1j.s 			page 164


 7241 00f1 12       		.uleb128 0x12
 7242 00f2 2E       		.uleb128 0x2e
 7243 00f3 01       		.byte	0x1
 7244 00f4 3F       		.uleb128 0x3f
 7245 00f5 19       		.uleb128 0x19
 7246 00f6 03       		.uleb128 0x3
 7247 00f7 0E       		.uleb128 0xe
 7248 00f8 3A       		.uleb128 0x3a
 7249 00f9 0B       		.uleb128 0xb
 7250 00fa 3B       		.uleb128 0x3b
 7251 00fb 0B       		.uleb128 0xb
 7252 00fc 6E       		.uleb128 0x6e
 7253 00fd 08       		.uleb128 0x8
 7254 00fe 3C       		.uleb128 0x3c
 7255 00ff 19       		.uleb128 0x19
 7256 0100 01       		.uleb128 0x1
 7257 0101 13       		.uleb128 0x13
 7258 0102 00       		.byte	0
 7259 0103 00       		.byte	0
 7260 0104 13       		.uleb128 0x13
 7261 0105 05       		.uleb128 0x5
 7262 0106 00       		.byte	0
 7263 0107 49       		.uleb128 0x49
 7264 0108 13       		.uleb128 0x13
 7265 0109 00       		.byte	0
 7266 010a 00       		.byte	0
 7267 010b 14       		.uleb128 0x14
 7268 010c 26       		.uleb128 0x26
 7269 010d 00       		.byte	0
 7270 010e 49       		.uleb128 0x49
 7271 010f 13       		.uleb128 0x13
 7272 0110 00       		.byte	0
 7273 0111 00       		.byte	0
 7274 0112 15       		.uleb128 0x15
 7275 0113 2E       		.uleb128 0x2e
 7276 0114 01       		.byte	0x1
 7277 0115 3F       		.uleb128 0x3f
 7278 0116 19       		.uleb128 0x19
 7279 0117 03       		.uleb128 0x3
 7280 0118 08       		.uleb128 0x8
 7281 0119 3A       		.uleb128 0x3a
 7282 011a 0B       		.uleb128 0xb
 7283 011b 3B       		.uleb128 0x3b
 7284 011c 0B       		.uleb128 0xb
 7285 011d 6E       		.uleb128 0x6e
 7286 011e 08       		.uleb128 0x8
 7287 011f 49       		.uleb128 0x49
 7288 0120 13       		.uleb128 0x13
 7289 0121 3C       		.uleb128 0x3c
 7290 0122 19       		.uleb128 0x19
 7291 0123 01       		.uleb128 0x1
 7292 0124 13       		.uleb128 0x13
 7293 0125 00       		.byte	0
 7294 0126 00       		.byte	0
 7295 0127 16       		.uleb128 0x16
 7296 0128 2E       		.uleb128 0x2e
 7297 0129 01       		.byte	0x1
GAS LISTING C:\Users\NJLLMR~1\AppData\Local\Temp\cc5gZH1j.s 			page 165


 7298 012a 3F       		.uleb128 0x3f
 7299 012b 19       		.uleb128 0x19
 7300 012c 03       		.uleb128 0x3
 7301 012d 0E       		.uleb128 0xe
 7302 012e 3A       		.uleb128 0x3a
 7303 012f 0B       		.uleb128 0xb
 7304 0130 3B       		.uleb128 0x3b
 7305 0131 05       		.uleb128 0x5
 7306 0132 6E       		.uleb128 0x6e
 7307 0133 08       		.uleb128 0x8
 7308 0134 49       		.uleb128 0x49
 7309 0135 13       		.uleb128 0x13
 7310 0136 3C       		.uleb128 0x3c
 7311 0137 19       		.uleb128 0x19
 7312 0138 01       		.uleb128 0x1
 7313 0139 13       		.uleb128 0x13
 7314 013a 00       		.byte	0
 7315 013b 00       		.byte	0
 7316 013c 17       		.uleb128 0x17
 7317 013d 2E       		.uleb128 0x2e
 7318 013e 01       		.byte	0x1
 7319 013f 3F       		.uleb128 0x3f
 7320 0140 19       		.uleb128 0x19
 7321 0141 03       		.uleb128 0x3
 7322 0142 08       		.uleb128 0x8
 7323 0143 3A       		.uleb128 0x3a
 7324 0144 0B       		.uleb128 0xb
 7325 0145 3B       		.uleb128 0x3b
 7326 0146 05       		.uleb128 0x5
 7327 0147 6E       		.uleb128 0x6e
 7328 0148 08       		.uleb128 0x8
 7329 0149 49       		.uleb128 0x49
 7330 014a 13       		.uleb128 0x13
 7331 014b 3C       		.uleb128 0x3c
 7332 014c 19       		.uleb128 0x19
 7333 014d 01       		.uleb128 0x1
 7334 014e 13       		.uleb128 0x13
 7335 014f 00       		.byte	0
 7336 0150 00       		.byte	0
 7337 0151 18       		.uleb128 0x18
 7338 0152 2E       		.uleb128 0x2e
 7339 0153 00       		.byte	0
 7340 0154 3F       		.uleb128 0x3f
 7341 0155 19       		.uleb128 0x19
 7342 0156 03       		.uleb128 0x3
 7343 0157 08       		.uleb128 0x8
 7344 0158 3A       		.uleb128 0x3a
 7345 0159 0B       		.uleb128 0xb
 7346 015a 3B       		.uleb128 0x3b
 7347 015b 05       		.uleb128 0x5
 7348 015c 6E       		.uleb128 0x6e
 7349 015d 08       		.uleb128 0x8
 7350 015e 49       		.uleb128 0x49
 7351 015f 13       		.uleb128 0x13
 7352 0160 3C       		.uleb128 0x3c
 7353 0161 19       		.uleb128 0x19
 7354 0162 00       		.byte	0
GAS LISTING C:\Users\NJLLMR~1\AppData\Local\Temp\cc5gZH1j.s 			page 166


 7355 0163 00       		.byte	0
 7356 0164 19       		.uleb128 0x19
 7357 0165 2E       		.uleb128 0x2e
 7358 0166 01       		.byte	0x1
 7359 0167 3F       		.uleb128 0x3f
 7360 0168 19       		.uleb128 0x19
 7361 0169 03       		.uleb128 0x3
 7362 016a 08       		.uleb128 0x8
 7363 016b 3A       		.uleb128 0x3a
 7364 016c 0B       		.uleb128 0xb
 7365 016d 3B       		.uleb128 0x3b
 7366 016e 05       		.uleb128 0x5
 7367 016f 6E       		.uleb128 0x6e
 7368 0170 08       		.uleb128 0x8
 7369 0171 49       		.uleb128 0x49
 7370 0172 13       		.uleb128 0x13
 7371 0173 3C       		.uleb128 0x3c
 7372 0174 19       		.uleb128 0x19
 7373 0175 00       		.byte	0
 7374 0176 00       		.byte	0
 7375 0177 1A       		.uleb128 0x1a
 7376 0178 1C       		.uleb128 0x1c
 7377 0179 00       		.byte	0
 7378 017a 49       		.uleb128 0x49
 7379 017b 13       		.uleb128 0x13
 7380 017c 38       		.uleb128 0x38
 7381 017d 0B       		.uleb128 0xb
 7382 017e 32       		.uleb128 0x32
 7383 017f 0B       		.uleb128 0xb
 7384 0180 00       		.byte	0
 7385 0181 00       		.byte	0
 7386 0182 1B       		.uleb128 0x1b
 7387 0183 16       		.uleb128 0x16
 7388 0184 00       		.byte	0
 7389 0185 03       		.uleb128 0x3
 7390 0186 0E       		.uleb128 0xe
 7391 0187 3A       		.uleb128 0x3a
 7392 0188 0B       		.uleb128 0xb
 7393 0189 3B       		.uleb128 0x3b
 7394 018a 0B       		.uleb128 0xb
 7395 018b 49       		.uleb128 0x49
 7396 018c 13       		.uleb128 0x13
 7397 018d 32       		.uleb128 0x32
 7398 018e 0B       		.uleb128 0xb
 7399 018f 00       		.byte	0
 7400 0190 00       		.byte	0
 7401 0191 1C       		.uleb128 0x1c
 7402 0192 2E       		.uleb128 0x2e
 7403 0193 01       		.byte	0x1
 7404 0194 3F       		.uleb128 0x3f
 7405 0195 19       		.uleb128 0x19
 7406 0196 03       		.uleb128 0x3
 7407 0197 0E       		.uleb128 0xe
 7408 0198 3A       		.uleb128 0x3a
 7409 0199 0B       		.uleb128 0xb
 7410 019a 3B       		.uleb128 0x3b
 7411 019b 0B       		.uleb128 0xb
GAS LISTING C:\Users\NJLLMR~1\AppData\Local\Temp\cc5gZH1j.s 			page 167


 7412 019c 32       		.uleb128 0x32
 7413 019d 0B       		.uleb128 0xb
 7414 019e 3C       		.uleb128 0x3c
 7415 019f 19       		.uleb128 0x19
 7416 01a0 64       		.uleb128 0x64
 7417 01a1 13       		.uleb128 0x13
 7418 01a2 01       		.uleb128 0x1
 7419 01a3 13       		.uleb128 0x13
 7420 01a4 00       		.byte	0
 7421 01a5 00       		.byte	0
 7422 01a6 1D       		.uleb128 0x1d
 7423 01a7 2E       		.uleb128 0x2e
 7424 01a8 01       		.byte	0x1
 7425 01a9 3F       		.uleb128 0x3f
 7426 01aa 19       		.uleb128 0x19
 7427 01ab 03       		.uleb128 0x3
 7428 01ac 08       		.uleb128 0x8
 7429 01ad 3A       		.uleb128 0x3a
 7430 01ae 0B       		.uleb128 0xb
 7431 01af 3B       		.uleb128 0x3b
 7432 01b0 0B       		.uleb128 0xb
 7433 01b1 32       		.uleb128 0x32
 7434 01b2 0B       		.uleb128 0xb
 7435 01b3 3C       		.uleb128 0x3c
 7436 01b4 19       		.uleb128 0x19
 7437 01b5 64       		.uleb128 0x64
 7438 01b6 13       		.uleb128 0x13
 7439 01b7 00       		.byte	0
 7440 01b8 00       		.byte	0
 7441 01b9 1E       		.uleb128 0x1e
 7442 01ba 13       		.uleb128 0x13
 7443 01bb 01       		.byte	0x1
 7444 01bc 03       		.uleb128 0x3
 7445 01bd 0E       		.uleb128 0xe
 7446 01be 0B       		.uleb128 0xb
 7447 01bf 0B       		.uleb128 0xb
 7448 01c0 3A       		.uleb128 0x3a
 7449 01c1 0B       		.uleb128 0xb
 7450 01c2 3B       		.uleb128 0x3b
 7451 01c3 05       		.uleb128 0x5
 7452 01c4 01       		.uleb128 0x1
 7453 01c5 13       		.uleb128 0x13
 7454 01c6 00       		.byte	0
 7455 01c7 00       		.byte	0
 7456 01c8 1F       		.uleb128 0x1f
 7457 01c9 1C       		.uleb128 0x1c
 7458 01ca 00       		.byte	0
 7459 01cb 49       		.uleb128 0x49
 7460 01cc 13       		.uleb128 0x13
 7461 01cd 38       		.uleb128 0x38
 7462 01ce 0B       		.uleb128 0xb
 7463 01cf 00       		.byte	0
 7464 01d0 00       		.byte	0
 7465 01d1 20       		.uleb128 0x20
 7466 01d2 0D       		.uleb128 0xd
 7467 01d3 00       		.byte	0
 7468 01d4 03       		.uleb128 0x3
GAS LISTING C:\Users\NJLLMR~1\AppData\Local\Temp\cc5gZH1j.s 			page 168


 7469 01d5 08       		.uleb128 0x8
 7470 01d6 3A       		.uleb128 0x3a
 7471 01d7 0B       		.uleb128 0xb
 7472 01d8 3B       		.uleb128 0x3b
 7473 01d9 05       		.uleb128 0x5
 7474 01da 49       		.uleb128 0x49
 7475 01db 13       		.uleb128 0x13
 7476 01dc 38       		.uleb128 0x38
 7477 01dd 0B       		.uleb128 0xb
 7478 01de 00       		.byte	0
 7479 01df 00       		.byte	0
 7480 01e0 21       		.uleb128 0x21
 7481 01e1 2E       		.uleb128 0x2e
 7482 01e2 01       		.byte	0x1
 7483 01e3 3F       		.uleb128 0x3f
 7484 01e4 19       		.uleb128 0x19
 7485 01e5 03       		.uleb128 0x3
 7486 01e6 0E       		.uleb128 0xe
 7487 01e7 3A       		.uleb128 0x3a
 7488 01e8 0B       		.uleb128 0xb
 7489 01e9 3B       		.uleb128 0x3b
 7490 01ea 05       		.uleb128 0x5
 7491 01eb 3C       		.uleb128 0x3c
 7492 01ec 19       		.uleb128 0x19
 7493 01ed 64       		.uleb128 0x64
 7494 01ee 13       		.uleb128 0x13
 7495 01ef 00       		.byte	0
 7496 01f0 00       		.byte	0
 7497 01f1 22       		.uleb128 0x22
 7498 01f2 0D       		.uleb128 0xd
 7499 01f3 00       		.byte	0
 7500 01f4 03       		.uleb128 0x3
 7501 01f5 08       		.uleb128 0x8
 7502 01f6 3A       		.uleb128 0x3a
 7503 01f7 0B       		.uleb128 0xb
 7504 01f8 3B       		.uleb128 0x3b
 7505 01f9 05       		.uleb128 0x5
 7506 01fa 49       		.uleb128 0x49
 7507 01fb 13       		.uleb128 0x13
 7508 01fc 3F       		.uleb128 0x3f
 7509 01fd 19       		.uleb128 0x19
 7510 01fe 32       		.uleb128 0x32
 7511 01ff 0B       		.uleb128 0xb
 7512 0200 3C       		.uleb128 0x3c
 7513 0201 19       		.uleb128 0x19
 7514 0202 00       		.byte	0
 7515 0203 00       		.byte	0
 7516 0204 23       		.uleb128 0x23
 7517 0205 16       		.uleb128 0x16
 7518 0206 00       		.byte	0
 7519 0207 03       		.uleb128 0x3
 7520 0208 08       		.uleb128 0x8
 7521 0209 3A       		.uleb128 0x3a
 7522 020a 0B       		.uleb128 0xb
 7523 020b 3B       		.uleb128 0x3b
 7524 020c 0B       		.uleb128 0xb
 7525 020d 49       		.uleb128 0x49
GAS LISTING C:\Users\NJLLMR~1\AppData\Local\Temp\cc5gZH1j.s 			page 169


 7526 020e 13       		.uleb128 0x13
 7527 020f 32       		.uleb128 0x32
 7528 0210 0B       		.uleb128 0xb
 7529 0211 00       		.byte	0
 7530 0212 00       		.byte	0
 7531 0213 24       		.uleb128 0x24
 7532 0214 0D       		.uleb128 0xd
 7533 0215 00       		.byte	0
 7534 0216 03       		.uleb128 0x3
 7535 0217 08       		.uleb128 0x8
 7536 0218 3A       		.uleb128 0x3a
 7537 0219 0B       		.uleb128 0xb
 7538 021a 3B       		.uleb128 0x3b
 7539 021b 0B       		.uleb128 0xb
 7540 021c 49       		.uleb128 0x49
 7541 021d 13       		.uleb128 0x13
 7542 021e 3F       		.uleb128 0x3f
 7543 021f 19       		.uleb128 0x19
 7544 0220 3C       		.uleb128 0x3c
 7545 0221 19       		.uleb128 0x19
 7546 0222 00       		.byte	0
 7547 0223 00       		.byte	0
 7548 0224 25       		.uleb128 0x25
 7549 0225 2E       		.uleb128 0x2e
 7550 0226 00       		.byte	0
 7551 0227 3F       		.uleb128 0x3f
 7552 0228 19       		.uleb128 0x19
 7553 0229 03       		.uleb128 0x3
 7554 022a 0E       		.uleb128 0xe
 7555 022b 3A       		.uleb128 0x3a
 7556 022c 0B       		.uleb128 0xb
 7557 022d 3B       		.uleb128 0x3b
 7558 022e 0B       		.uleb128 0xb
 7559 022f 6E       		.uleb128 0x6e
 7560 0230 08       		.uleb128 0x8
 7561 0231 49       		.uleb128 0x49
 7562 0232 13       		.uleb128 0x13
 7563 0233 3C       		.uleb128 0x3c
 7564 0234 19       		.uleb128 0x19
 7565 0235 00       		.byte	0
 7566 0236 00       		.byte	0
 7567 0237 26       		.uleb128 0x26
 7568 0238 2E       		.uleb128 0x2e
 7569 0239 01       		.byte	0x1
 7570 023a 3F       		.uleb128 0x3f
 7571 023b 19       		.uleb128 0x19
 7572 023c 03       		.uleb128 0x3
 7573 023d 08       		.uleb128 0x8
 7574 023e 3A       		.uleb128 0x3a
 7575 023f 0B       		.uleb128 0xb
 7576 0240 3B       		.uleb128 0x3b
 7577 0241 0B       		.uleb128 0xb
 7578 0242 6E       		.uleb128 0x6e
 7579 0243 08       		.uleb128 0x8
 7580 0244 49       		.uleb128 0x49
 7581 0245 13       		.uleb128 0x13
 7582 0246 3C       		.uleb128 0x3c
GAS LISTING C:\Users\NJLLMR~1\AppData\Local\Temp\cc5gZH1j.s 			page 170


 7583 0247 19       		.uleb128 0x19
 7584 0248 64       		.uleb128 0x64
 7585 0249 13       		.uleb128 0x13
 7586 024a 01       		.uleb128 0x1
 7587 024b 13       		.uleb128 0x13
 7588 024c 00       		.byte	0
 7589 024d 00       		.byte	0
 7590 024e 27       		.uleb128 0x27
 7591 024f 2E       		.uleb128 0x2e
 7592 0250 01       		.byte	0x1
 7593 0251 3F       		.uleb128 0x3f
 7594 0252 19       		.uleb128 0x19
 7595 0253 03       		.uleb128 0x3
 7596 0254 08       		.uleb128 0x8
 7597 0255 3A       		.uleb128 0x3a
 7598 0256 0B       		.uleb128 0xb
 7599 0257 3B       		.uleb128 0x3b
 7600 0258 0B       		.uleb128 0xb
 7601 0259 6E       		.uleb128 0x6e
 7602 025a 08       		.uleb128 0x8
 7603 025b 3C       		.uleb128 0x3c
 7604 025c 19       		.uleb128 0x19
 7605 025d 64       		.uleb128 0x64
 7606 025e 13       		.uleb128 0x13
 7607 025f 01       		.uleb128 0x1
 7608 0260 13       		.uleb128 0x13
 7609 0261 00       		.byte	0
 7610 0262 00       		.byte	0
 7611 0263 28       		.uleb128 0x28
 7612 0264 2E       		.uleb128 0x2e
 7613 0265 01       		.byte	0x1
 7614 0266 3F       		.uleb128 0x3f
 7615 0267 19       		.uleb128 0x19
 7616 0268 03       		.uleb128 0x3
 7617 0269 08       		.uleb128 0x8
 7618 026a 3A       		.uleb128 0x3a
 7619 026b 0B       		.uleb128 0xb
 7620 026c 3B       		.uleb128 0x3b
 7621 026d 05       		.uleb128 0x5
 7622 026e 6E       		.uleb128 0x6e
 7623 026f 08       		.uleb128 0x8
 7624 0270 3C       		.uleb128 0x3c
 7625 0271 19       		.uleb128 0x19
 7626 0272 64       		.uleb128 0x64
 7627 0273 13       		.uleb128 0x13
 7628 0274 01       		.uleb128 0x1
 7629 0275 13       		.uleb128 0x13
 7630 0276 00       		.byte	0
 7631 0277 00       		.byte	0
 7632 0278 29       		.uleb128 0x29
 7633 0279 2E       		.uleb128 0x2e
 7634 027a 01       		.byte	0x1
 7635 027b 3F       		.uleb128 0x3f
 7636 027c 19       		.uleb128 0x19
 7637 027d 03       		.uleb128 0x3
 7638 027e 08       		.uleb128 0x8
 7639 027f 3A       		.uleb128 0x3a
GAS LISTING C:\Users\NJLLMR~1\AppData\Local\Temp\cc5gZH1j.s 			page 171


 7640 0280 0B       		.uleb128 0xb
 7641 0281 3B       		.uleb128 0x3b
 7642 0282 05       		.uleb128 0x5
 7643 0283 6E       		.uleb128 0x6e
 7644 0284 08       		.uleb128 0x8
 7645 0285 49       		.uleb128 0x49
 7646 0286 13       		.uleb128 0x13
 7647 0287 3C       		.uleb128 0x3c
 7648 0288 19       		.uleb128 0x19
 7649 0289 64       		.uleb128 0x64
 7650 028a 13       		.uleb128 0x13
 7651 028b 01       		.uleb128 0x1
 7652 028c 13       		.uleb128 0x13
 7653 028d 00       		.byte	0
 7654 028e 00       		.byte	0
 7655 028f 2A       		.uleb128 0x2a
 7656 0290 2E       		.uleb128 0x2e
 7657 0291 01       		.byte	0x1
 7658 0292 3F       		.uleb128 0x3f
 7659 0293 19       		.uleb128 0x19
 7660 0294 03       		.uleb128 0x3
 7661 0295 08       		.uleb128 0x8
 7662 0296 3A       		.uleb128 0x3a
 7663 0297 0B       		.uleb128 0xb
 7664 0298 3B       		.uleb128 0x3b
 7665 0299 05       		.uleb128 0x5
 7666 029a 6E       		.uleb128 0x6e
 7667 029b 08       		.uleb128 0x8
 7668 029c 49       		.uleb128 0x49
 7669 029d 13       		.uleb128 0x13
 7670 029e 3C       		.uleb128 0x3c
 7671 029f 19       		.uleb128 0x19
 7672 02a0 64       		.uleb128 0x64
 7673 02a1 13       		.uleb128 0x13
 7674 02a2 00       		.byte	0
 7675 02a3 00       		.byte	0
 7676 02a4 2B       		.uleb128 0x2b
 7677 02a5 2E       		.uleb128 0x2e
 7678 02a6 01       		.byte	0x1
 7679 02a7 3F       		.uleb128 0x3f
 7680 02a8 19       		.uleb128 0x19
 7681 02a9 03       		.uleb128 0x3
 7682 02aa 08       		.uleb128 0x8
 7683 02ab 3A       		.uleb128 0x3a
 7684 02ac 0B       		.uleb128 0xb
 7685 02ad 3B       		.uleb128 0x3b
 7686 02ae 05       		.uleb128 0x5
 7687 02af 6E       		.uleb128 0x6e
 7688 02b0 08       		.uleb128 0x8
 7689 02b1 3C       		.uleb128 0x3c
 7690 02b2 19       		.uleb128 0x19
 7691 02b3 01       		.uleb128 0x1
 7692 02b4 13       		.uleb128 0x13
 7693 02b5 00       		.byte	0
 7694 02b6 00       		.byte	0
 7695 02b7 2C       		.uleb128 0x2c
 7696 02b8 2E       		.uleb128 0x2e
GAS LISTING C:\Users\NJLLMR~1\AppData\Local\Temp\cc5gZH1j.s 			page 172


 7697 02b9 01       		.byte	0x1
 7698 02ba 3F       		.uleb128 0x3f
 7699 02bb 19       		.uleb128 0x19
 7700 02bc 03       		.uleb128 0x3
 7701 02bd 0E       		.uleb128 0xe
 7702 02be 3A       		.uleb128 0x3a
 7703 02bf 0B       		.uleb128 0xb
 7704 02c0 3B       		.uleb128 0x3b
 7705 02c1 05       		.uleb128 0x5
 7706 02c2 6E       		.uleb128 0x6e
 7707 02c3 08       		.uleb128 0x8
 7708 02c4 3C       		.uleb128 0x3c
 7709 02c5 19       		.uleb128 0x19
 7710 02c6 01       		.uleb128 0x1
 7711 02c7 13       		.uleb128 0x13
 7712 02c8 00       		.byte	0
 7713 02c9 00       		.byte	0
 7714 02ca 2D       		.uleb128 0x2d
 7715 02cb 2E       		.uleb128 0x2e
 7716 02cc 00       		.byte	0
 7717 02cd 3F       		.uleb128 0x3f
 7718 02ce 19       		.uleb128 0x19
 7719 02cf 03       		.uleb128 0x3
 7720 02d0 0E       		.uleb128 0xe
 7721 02d1 3A       		.uleb128 0x3a
 7722 02d2 0B       		.uleb128 0xb
 7723 02d3 3B       		.uleb128 0x3b
 7724 02d4 05       		.uleb128 0x5
 7725 02d5 6E       		.uleb128 0x6e
 7726 02d6 08       		.uleb128 0x8
 7727 02d7 49       		.uleb128 0x49
 7728 02d8 13       		.uleb128 0x13
 7729 02d9 3C       		.uleb128 0x3c
 7730 02da 19       		.uleb128 0x19
 7731 02db 00       		.byte	0
 7732 02dc 00       		.byte	0
 7733 02dd 2E       		.uleb128 0x2e
 7734 02de 2E       		.uleb128 0x2e
 7735 02df 01       		.byte	0x1
 7736 02e0 3F       		.uleb128 0x3f
 7737 02e1 19       		.uleb128 0x19
 7738 02e2 03       		.uleb128 0x3
 7739 02e3 0E       		.uleb128 0xe
 7740 02e4 3A       		.uleb128 0x3a
 7741 02e5 0B       		.uleb128 0xb
 7742 02e6 3B       		.uleb128 0x3b
 7743 02e7 05       		.uleb128 0x5
 7744 02e8 32       		.uleb128 0x32
 7745 02e9 0B       		.uleb128 0xb
 7746 02ea 3C       		.uleb128 0x3c
 7747 02eb 19       		.uleb128 0x19
 7748 02ec 64       		.uleb128 0x64
 7749 02ed 13       		.uleb128 0x13
 7750 02ee 01       		.uleb128 0x1
 7751 02ef 13       		.uleb128 0x13
 7752 02f0 00       		.byte	0
 7753 02f1 00       		.byte	0
GAS LISTING C:\Users\NJLLMR~1\AppData\Local\Temp\cc5gZH1j.s 			page 173


 7754 02f2 2F       		.uleb128 0x2f
 7755 02f3 2E       		.uleb128 0x2e
 7756 02f4 01       		.byte	0x1
 7757 02f5 3F       		.uleb128 0x3f
 7758 02f6 19       		.uleb128 0x19
 7759 02f7 03       		.uleb128 0x3
 7760 02f8 0E       		.uleb128 0xe
 7761 02f9 3A       		.uleb128 0x3a
 7762 02fa 0B       		.uleb128 0xb
 7763 02fb 3B       		.uleb128 0x3b
 7764 02fc 0B       		.uleb128 0xb
 7765 02fd 32       		.uleb128 0x32
 7766 02fe 0B       		.uleb128 0xb
 7767 02ff 3C       		.uleb128 0x3c
 7768 0300 19       		.uleb128 0x19
 7769 0301 63       		.uleb128 0x63
 7770 0302 19       		.uleb128 0x19
 7771 0303 64       		.uleb128 0x64
 7772 0304 13       		.uleb128 0x13
 7773 0305 01       		.uleb128 0x1
 7774 0306 13       		.uleb128 0x13
 7775 0307 00       		.byte	0
 7776 0308 00       		.byte	0
 7777 0309 30       		.uleb128 0x30
 7778 030a 2E       		.uleb128 0x2e
 7779 030b 01       		.byte	0x1
 7780 030c 3F       		.uleb128 0x3f
 7781 030d 19       		.uleb128 0x19
 7782 030e 03       		.uleb128 0x3
 7783 030f 08       		.uleb128 0x8
 7784 0310 3A       		.uleb128 0x3a
 7785 0311 0B       		.uleb128 0xb
 7786 0312 3B       		.uleb128 0x3b
 7787 0313 05       		.uleb128 0x5
 7788 0314 32       		.uleb128 0x32
 7789 0315 0B       		.uleb128 0xb
 7790 0316 3C       		.uleb128 0x3c
 7791 0317 19       		.uleb128 0x19
 7792 0318 64       		.uleb128 0x64
 7793 0319 13       		.uleb128 0x13
 7794 031a 01       		.uleb128 0x1
 7795 031b 13       		.uleb128 0x13
 7796 031c 00       		.byte	0
 7797 031d 00       		.byte	0
 7798 031e 31       		.uleb128 0x31
 7799 031f 2E       		.uleb128 0x2e
 7800 0320 01       		.byte	0x1
 7801 0321 3F       		.uleb128 0x3f
 7802 0322 19       		.uleb128 0x19
 7803 0323 03       		.uleb128 0x3
 7804 0324 0E       		.uleb128 0xe
 7805 0325 3A       		.uleb128 0x3a
 7806 0326 0B       		.uleb128 0xb
 7807 0327 3B       		.uleb128 0x3b
 7808 0328 05       		.uleb128 0x5
 7809 0329 6E       		.uleb128 0x6e
 7810 032a 08       		.uleb128 0x8
GAS LISTING C:\Users\NJLLMR~1\AppData\Local\Temp\cc5gZH1j.s 			page 174


 7811 032b 49       		.uleb128 0x49
 7812 032c 13       		.uleb128 0x13
 7813 032d 32       		.uleb128 0x32
 7814 032e 0B       		.uleb128 0xb
 7815 032f 3C       		.uleb128 0x3c
 7816 0330 19       		.uleb128 0x19
 7817 0331 64       		.uleb128 0x64
 7818 0332 13       		.uleb128 0x13
 7819 0333 01       		.uleb128 0x1
 7820 0334 13       		.uleb128 0x13
 7821 0335 00       		.byte	0
 7822 0336 00       		.byte	0
 7823 0337 32       		.uleb128 0x32
 7824 0338 2E       		.uleb128 0x2e
 7825 0339 01       		.byte	0x1
 7826 033a 3F       		.uleb128 0x3f
 7827 033b 19       		.uleb128 0x19
 7828 033c 03       		.uleb128 0x3
 7829 033d 08       		.uleb128 0x8
 7830 033e 3A       		.uleb128 0x3a
 7831 033f 0B       		.uleb128 0xb
 7832 0340 3B       		.uleb128 0x3b
 7833 0341 05       		.uleb128 0x5
 7834 0342 6E       		.uleb128 0x6e
 7835 0343 08       		.uleb128 0x8
 7836 0344 49       		.uleb128 0x49
 7837 0345 13       		.uleb128 0x13
 7838 0346 32       		.uleb128 0x32
 7839 0347 0B       		.uleb128 0xb
 7840 0348 3C       		.uleb128 0x3c
 7841 0349 19       		.uleb128 0x19
 7842 034a 64       		.uleb128 0x64
 7843 034b 13       		.uleb128 0x13
 7844 034c 01       		.uleb128 0x1
 7845 034d 13       		.uleb128 0x13
 7846 034e 00       		.byte	0
 7847 034f 00       		.byte	0
 7848 0350 33       		.uleb128 0x33
 7849 0351 2E       		.uleb128 0x2e
 7850 0352 01       		.byte	0x1
 7851 0353 3F       		.uleb128 0x3f
 7852 0354 19       		.uleb128 0x19
 7853 0355 03       		.uleb128 0x3
 7854 0356 08       		.uleb128 0x8
 7855 0357 3A       		.uleb128 0x3a
 7856 0358 0B       		.uleb128 0xb
 7857 0359 3B       		.uleb128 0x3b
 7858 035a 05       		.uleb128 0x5
 7859 035b 6E       		.uleb128 0x6e
 7860 035c 08       		.uleb128 0x8
 7861 035d 32       		.uleb128 0x32
 7862 035e 0B       		.uleb128 0xb
 7863 035f 3C       		.uleb128 0x3c
 7864 0360 19       		.uleb128 0x19
 7865 0361 64       		.uleb128 0x64
 7866 0362 13       		.uleb128 0x13
 7867 0363 01       		.uleb128 0x1
GAS LISTING C:\Users\NJLLMR~1\AppData\Local\Temp\cc5gZH1j.s 			page 175


 7868 0364 13       		.uleb128 0x13
 7869 0365 00       		.byte	0
 7870 0366 00       		.byte	0
 7871 0367 34       		.uleb128 0x34
 7872 0368 2E       		.uleb128 0x2e
 7873 0369 01       		.byte	0x1
 7874 036a 3F       		.uleb128 0x3f
 7875 036b 19       		.uleb128 0x19
 7876 036c 03       		.uleb128 0x3
 7877 036d 0E       		.uleb128 0xe
 7878 036e 3A       		.uleb128 0x3a
 7879 036f 0B       		.uleb128 0xb
 7880 0370 3B       		.uleb128 0x3b
 7881 0371 0B       		.uleb128 0xb
 7882 0372 6E       		.uleb128 0x6e
 7883 0373 08       		.uleb128 0x8
 7884 0374 49       		.uleb128 0x49
 7885 0375 13       		.uleb128 0x13
 7886 0376 32       		.uleb128 0x32
 7887 0377 0B       		.uleb128 0xb
 7888 0378 3C       		.uleb128 0x3c
 7889 0379 19       		.uleb128 0x19
 7890 037a 64       		.uleb128 0x64
 7891 037b 13       		.uleb128 0x13
 7892 037c 01       		.uleb128 0x1
 7893 037d 13       		.uleb128 0x13
 7894 037e 00       		.byte	0
 7895 037f 00       		.byte	0
 7896 0380 35       		.uleb128 0x35
 7897 0381 2E       		.uleb128 0x2e
 7898 0382 01       		.byte	0x1
 7899 0383 3F       		.uleb128 0x3f
 7900 0384 19       		.uleb128 0x19
 7901 0385 03       		.uleb128 0x3
 7902 0386 0E       		.uleb128 0xe
 7903 0387 3A       		.uleb128 0x3a
 7904 0388 0B       		.uleb128 0xb
 7905 0389 3B       		.uleb128 0x3b
 7906 038a 05       		.uleb128 0x5
 7907 038b 6E       		.uleb128 0x6e
 7908 038c 08       		.uleb128 0x8
 7909 038d 32       		.uleb128 0x32
 7910 038e 0B       		.uleb128 0xb
 7911 038f 3C       		.uleb128 0x3c
 7912 0390 19       		.uleb128 0x19
 7913 0391 64       		.uleb128 0x64
 7914 0392 13       		.uleb128 0x13
 7915 0393 01       		.uleb128 0x1
 7916 0394 13       		.uleb128 0x13
 7917 0395 00       		.byte	0
 7918 0396 00       		.byte	0
 7919 0397 36       		.uleb128 0x36
 7920 0398 2F       		.uleb128 0x2f
 7921 0399 00       		.byte	0
 7922 039a 03       		.uleb128 0x3
 7923 039b 0E       		.uleb128 0xe
 7924 039c 49       		.uleb128 0x49
GAS LISTING C:\Users\NJLLMR~1\AppData\Local\Temp\cc5gZH1j.s 			page 176


 7925 039d 13       		.uleb128 0x13
 7926 039e 00       		.byte	0
 7927 039f 00       		.byte	0
 7928 03a0 37       		.uleb128 0x37
 7929 03a1 2F       		.uleb128 0x2f
 7930 03a2 00       		.byte	0
 7931 03a3 03       		.uleb128 0x3
 7932 03a4 0E       		.uleb128 0xe
 7933 03a5 49       		.uleb128 0x49
 7934 03a6 13       		.uleb128 0x13
 7935 03a7 1E       		.uleb128 0x1e
 7936 03a8 19       		.uleb128 0x19
 7937 03a9 00       		.byte	0
 7938 03aa 00       		.byte	0
 7939 03ab 38       		.uleb128 0x38
 7940 03ac 2F       		.uleb128 0x2f
 7941 03ad 00       		.byte	0
 7942 03ae 03       		.uleb128 0x3
 7943 03af 08       		.uleb128 0x8
 7944 03b0 49       		.uleb128 0x49
 7945 03b1 13       		.uleb128 0x13
 7946 03b2 1E       		.uleb128 0x1e
 7947 03b3 19       		.uleb128 0x19
 7948 03b4 00       		.byte	0
 7949 03b5 00       		.byte	0
 7950 03b6 39       		.uleb128 0x39
 7951 03b7 02       		.uleb128 0x2
 7952 03b8 00       		.byte	0
 7953 03b9 03       		.uleb128 0x3
 7954 03ba 08       		.uleb128 0x8
 7955 03bb 3C       		.uleb128 0x3c
 7956 03bc 19       		.uleb128 0x19
 7957 03bd 00       		.byte	0
 7958 03be 00       		.byte	0
 7959 03bf 3A       		.uleb128 0x3a
 7960 03c0 04       		.uleb128 0x4
 7961 03c1 01       		.byte	0x1
 7962 03c2 03       		.uleb128 0x3
 7963 03c3 08       		.uleb128 0x8
 7964 03c4 0B       		.uleb128 0xb
 7965 03c5 0B       		.uleb128 0xb
 7966 03c6 3A       		.uleb128 0x3a
 7967 03c7 0B       		.uleb128 0xb
 7968 03c8 3B       		.uleb128 0x3b
 7969 03c9 0B       		.uleb128 0xb
 7970 03ca 01       		.uleb128 0x1
 7971 03cb 13       		.uleb128 0x13
 7972 03cc 00       		.byte	0
 7973 03cd 00       		.byte	0
 7974 03ce 3B       		.uleb128 0x3b
 7975 03cf 28       		.uleb128 0x28
 7976 03d0 00       		.byte	0
 7977 03d1 03       		.uleb128 0x3
 7978 03d2 08       		.uleb128 0x8
 7979 03d3 1C       		.uleb128 0x1c
 7980 03d4 0D       		.uleb128 0xd
 7981 03d5 00       		.byte	0
GAS LISTING C:\Users\NJLLMR~1\AppData\Local\Temp\cc5gZH1j.s 			page 177


 7982 03d6 00       		.byte	0
 7983 03d7 3C       		.uleb128 0x3c
 7984 03d8 02       		.uleb128 0x2
 7985 03d9 01       		.byte	0x1
 7986 03da 03       		.uleb128 0x3
 7987 03db 08       		.uleb128 0x8
 7988 03dc 3C       		.uleb128 0x3c
 7989 03dd 19       		.uleb128 0x19
 7990 03de 01       		.uleb128 0x1
 7991 03df 13       		.uleb128 0x13
 7992 03e0 00       		.byte	0
 7993 03e1 00       		.byte	0
 7994 03e2 3D       		.uleb128 0x3d
 7995 03e3 02       		.uleb128 0x2
 7996 03e4 01       		.byte	0x1
 7997 03e5 03       		.uleb128 0x3
 7998 03e6 08       		.uleb128 0x8
 7999 03e7 0B       		.uleb128 0xb
 8000 03e8 0B       		.uleb128 0xb
 8001 03e9 3A       		.uleb128 0x3a
 8002 03ea 0B       		.uleb128 0xb
 8003 03eb 3B       		.uleb128 0x3b
 8004 03ec 05       		.uleb128 0x5
 8005 03ed 32       		.uleb128 0x32
 8006 03ee 0B       		.uleb128 0xb
 8007 03ef 01       		.uleb128 0x1
 8008 03f0 13       		.uleb128 0x13
 8009 03f1 00       		.byte	0
 8010 03f2 00       		.byte	0
 8011 03f3 3E       		.uleb128 0x3e
 8012 03f4 0D       		.uleb128 0xd
 8013 03f5 00       		.byte	0
 8014 03f6 03       		.uleb128 0x3
 8015 03f7 08       		.uleb128 0x8
 8016 03f8 3A       		.uleb128 0x3a
 8017 03f9 0B       		.uleb128 0xb
 8018 03fa 3B       		.uleb128 0x3b
 8019 03fb 05       		.uleb128 0x5
 8020 03fc 49       		.uleb128 0x49
 8021 03fd 13       		.uleb128 0x13
 8022 03fe 3F       		.uleb128 0x3f
 8023 03ff 19       		.uleb128 0x19
 8024 0400 3C       		.uleb128 0x3c
 8025 0401 19       		.uleb128 0x19
 8026 0402 00       		.byte	0
 8027 0403 00       		.byte	0
 8028 0404 3F       		.uleb128 0x3f
 8029 0405 2E       		.uleb128 0x2e
 8030 0406 01       		.byte	0x1
 8031 0407 3F       		.uleb128 0x3f
 8032 0408 19       		.uleb128 0x19
 8033 0409 03       		.uleb128 0x3
 8034 040a 08       		.uleb128 0x8
 8035 040b 3A       		.uleb128 0x3a
 8036 040c 0B       		.uleb128 0xb
 8037 040d 3B       		.uleb128 0x3b
 8038 040e 05       		.uleb128 0x5
GAS LISTING C:\Users\NJLLMR~1\AppData\Local\Temp\cc5gZH1j.s 			page 178


 8039 040f 32       		.uleb128 0x32
 8040 0410 0B       		.uleb128 0xb
 8041 0411 3C       		.uleb128 0x3c
 8042 0412 19       		.uleb128 0x19
 8043 0413 64       		.uleb128 0x64
 8044 0414 13       		.uleb128 0x13
 8045 0415 00       		.byte	0
 8046 0416 00       		.byte	0
 8047 0417 40       		.uleb128 0x40
 8048 0418 16       		.uleb128 0x16
 8049 0419 00       		.byte	0
 8050 041a 03       		.uleb128 0x3
 8051 041b 08       		.uleb128 0x8
 8052 041c 3A       		.uleb128 0x3a
 8053 041d 0B       		.uleb128 0xb
 8054 041e 3B       		.uleb128 0x3b
 8055 041f 05       		.uleb128 0x5
 8056 0420 49       		.uleb128 0x49
 8057 0421 13       		.uleb128 0x13
 8058 0422 32       		.uleb128 0x32
 8059 0423 0B       		.uleb128 0xb
 8060 0424 00       		.byte	0
 8061 0425 00       		.byte	0
 8062 0426 41       		.uleb128 0x41
 8063 0427 0D       		.uleb128 0xd
 8064 0428 00       		.byte	0
 8065 0429 03       		.uleb128 0x3
 8066 042a 08       		.uleb128 0x8
 8067 042b 3A       		.uleb128 0x3a
 8068 042c 0B       		.uleb128 0xb
 8069 042d 3B       		.uleb128 0x3b
 8070 042e 05       		.uleb128 0x5
 8071 042f 49       		.uleb128 0x49
 8072 0430 13       		.uleb128 0x13
 8073 0431 3F       		.uleb128 0x3f
 8074 0432 19       		.uleb128 0x19
 8075 0433 32       		.uleb128 0x32
 8076 0434 0B       		.uleb128 0xb
 8077 0435 3C       		.uleb128 0x3c
 8078 0436 19       		.uleb128 0x19
 8079 0437 1C       		.uleb128 0x1c
 8080 0438 0B       		.uleb128 0xb
 8081 0439 00       		.byte	0
 8082 043a 00       		.byte	0
 8083 043b 42       		.uleb128 0x42
 8084 043c 0D       		.uleb128 0xd
 8085 043d 00       		.byte	0
 8086 043e 03       		.uleb128 0x3
 8087 043f 08       		.uleb128 0x8
 8088 0440 3A       		.uleb128 0x3a
 8089 0441 0B       		.uleb128 0xb
 8090 0442 3B       		.uleb128 0x3b
 8091 0443 05       		.uleb128 0x5
 8092 0444 49       		.uleb128 0x49
 8093 0445 13       		.uleb128 0x13
 8094 0446 3F       		.uleb128 0x3f
 8095 0447 19       		.uleb128 0x19
GAS LISTING C:\Users\NJLLMR~1\AppData\Local\Temp\cc5gZH1j.s 			page 179


 8096 0448 32       		.uleb128 0x32
 8097 0449 0B       		.uleb128 0xb
 8098 044a 3C       		.uleb128 0x3c
 8099 044b 19       		.uleb128 0x19
 8100 044c 1C       		.uleb128 0x1c
 8101 044d 05       		.uleb128 0x5
 8102 044e 00       		.byte	0
 8103 044f 00       		.byte	0
 8104 0450 43       		.uleb128 0x43
 8105 0451 34       		.uleb128 0x34
 8106 0452 00       		.byte	0
 8107 0453 03       		.uleb128 0x3
 8108 0454 08       		.uleb128 0x8
 8109 0455 3A       		.uleb128 0x3a
 8110 0456 0B       		.uleb128 0xb
 8111 0457 3B       		.uleb128 0x3b
 8112 0458 0B       		.uleb128 0xb
 8113 0459 6E       		.uleb128 0x6e
 8114 045a 08       		.uleb128 0x8
 8115 045b 49       		.uleb128 0x49
 8116 045c 13       		.uleb128 0x13
 8117 045d 3F       		.uleb128 0x3f
 8118 045e 19       		.uleb128 0x19
 8119 045f 3C       		.uleb128 0x3c
 8120 0460 19       		.uleb128 0x19
 8121 0461 00       		.byte	0
 8122 0462 00       		.byte	0
 8123 0463 44       		.uleb128 0x44
 8124 0464 34       		.uleb128 0x34
 8125 0465 00       		.byte	0
 8126 0466 03       		.uleb128 0x3
 8127 0467 08       		.uleb128 0x8
 8128 0468 3A       		.uleb128 0x3a
 8129 0469 0B       		.uleb128 0xb
 8130 046a 3B       		.uleb128 0x3b
 8131 046b 0B       		.uleb128 0xb
 8132 046c 49       		.uleb128 0x49
 8133 046d 13       		.uleb128 0x13
 8134 046e 3C       		.uleb128 0x3c
 8135 046f 19       		.uleb128 0x19
 8136 0470 00       		.byte	0
 8137 0471 00       		.byte	0
 8138 0472 45       		.uleb128 0x45
 8139 0473 2E       		.uleb128 0x2e
 8140 0474 01       		.byte	0x1
 8141 0475 3F       		.uleb128 0x3f
 8142 0476 19       		.uleb128 0x19
 8143 0477 03       		.uleb128 0x3
 8144 0478 08       		.uleb128 0x8
 8145 0479 3A       		.uleb128 0x3a
 8146 047a 0B       		.uleb128 0xb
 8147 047b 3B       		.uleb128 0x3b
 8148 047c 05       		.uleb128 0x5
 8149 047d 49       		.uleb128 0x49
 8150 047e 13       		.uleb128 0x13
 8151 047f 3C       		.uleb128 0x3c
 8152 0480 19       		.uleb128 0x19
GAS LISTING C:\Users\NJLLMR~1\AppData\Local\Temp\cc5gZH1j.s 			page 180


 8153 0481 01       		.uleb128 0x1
 8154 0482 13       		.uleb128 0x13
 8155 0483 00       		.byte	0
 8156 0484 00       		.byte	0
 8157 0485 46       		.uleb128 0x46
 8158 0486 2E       		.uleb128 0x2e
 8159 0487 01       		.byte	0x1
 8160 0488 3F       		.uleb128 0x3f
 8161 0489 19       		.uleb128 0x19
 8162 048a 03       		.uleb128 0x3
 8163 048b 08       		.uleb128 0x8
 8164 048c 3A       		.uleb128 0x3a
 8165 048d 0B       		.uleb128 0xb
 8166 048e 3B       		.uleb128 0x3b
 8167 048f 0B       		.uleb128 0xb
 8168 0490 49       		.uleb128 0x49
 8169 0491 13       		.uleb128 0x13
 8170 0492 3C       		.uleb128 0x3c
 8171 0493 19       		.uleb128 0x19
 8172 0494 01       		.uleb128 0x1
 8173 0495 13       		.uleb128 0x13
 8174 0496 00       		.byte	0
 8175 0497 00       		.byte	0
 8176 0498 47       		.uleb128 0x47
 8177 0499 18       		.uleb128 0x18
 8178 049a 00       		.byte	0
 8179 049b 00       		.byte	0
 8180 049c 00       		.byte	0
 8181 049d 48       		.uleb128 0x48
 8182 049e 2E       		.uleb128 0x2e
 8183 049f 00       		.byte	0
 8184 04a0 3F       		.uleb128 0x3f
 8185 04a1 19       		.uleb128 0x19
 8186 04a2 03       		.uleb128 0x3
 8187 04a3 08       		.uleb128 0x8
 8188 04a4 3A       		.uleb128 0x3a
 8189 04a5 0B       		.uleb128 0xb
 8190 04a6 3B       		.uleb128 0x3b
 8191 04a7 0B       		.uleb128 0xb
 8192 04a8 49       		.uleb128 0x49
 8193 04a9 13       		.uleb128 0x13
 8194 04aa 3C       		.uleb128 0x3c
 8195 04ab 19       		.uleb128 0x19
 8196 04ac 00       		.byte	0
 8197 04ad 00       		.byte	0
 8198 04ae 49       		.uleb128 0x49
 8199 04af 2E       		.uleb128 0x2e
 8200 04b0 01       		.byte	0x1
 8201 04b1 3F       		.uleb128 0x3f
 8202 04b2 19       		.uleb128 0x19
 8203 04b3 03       		.uleb128 0x3
 8204 04b4 08       		.uleb128 0x8
 8205 04b5 3A       		.uleb128 0x3a
 8206 04b6 0B       		.uleb128 0xb
 8207 04b7 3B       		.uleb128 0x3b
 8208 04b8 0B       		.uleb128 0xb
 8209 04b9 6E       		.uleb128 0x6e
GAS LISTING C:\Users\NJLLMR~1\AppData\Local\Temp\cc5gZH1j.s 			page 181


 8210 04ba 08       		.uleb128 0x8
 8211 04bb 49       		.uleb128 0x49
 8212 04bc 13       		.uleb128 0x13
 8213 04bd 32       		.uleb128 0x32
 8214 04be 0B       		.uleb128 0xb
 8215 04bf 3C       		.uleb128 0x3c
 8216 04c0 19       		.uleb128 0x19
 8217 04c1 64       		.uleb128 0x64
 8218 04c2 13       		.uleb128 0x13
 8219 04c3 01       		.uleb128 0x1
 8220 04c4 13       		.uleb128 0x13
 8221 04c5 00       		.byte	0
 8222 04c6 00       		.byte	0
 8223 04c7 4A       		.uleb128 0x4a
 8224 04c8 2F       		.uleb128 0x2f
 8225 04c9 00       		.byte	0
 8226 04ca 03       		.uleb128 0x3
 8227 04cb 08       		.uleb128 0x8
 8228 04cc 49       		.uleb128 0x49
 8229 04cd 13       		.uleb128 0x13
 8230 04ce 00       		.byte	0
 8231 04cf 00       		.byte	0
 8232 04d0 4B       		.uleb128 0x4b
 8233 04d1 0D       		.uleb128 0xd
 8234 04d2 00       		.byte	0
 8235 04d3 03       		.uleb128 0x3
 8236 04d4 0E       		.uleb128 0xe
 8237 04d5 3A       		.uleb128 0x3a
 8238 04d6 0B       		.uleb128 0xb
 8239 04d7 3B       		.uleb128 0x3b
 8240 04d8 0B       		.uleb128 0xb
 8241 04d9 49       		.uleb128 0x49
 8242 04da 13       		.uleb128 0x13
 8243 04db 3F       		.uleb128 0x3f
 8244 04dc 19       		.uleb128 0x19
 8245 04dd 3C       		.uleb128 0x3c
 8246 04de 19       		.uleb128 0x19
 8247 04df 00       		.byte	0
 8248 04e0 00       		.byte	0
 8249 04e1 4C       		.uleb128 0x4c
 8250 04e2 13       		.uleb128 0x13
 8251 04e3 01       		.byte	0x1
 8252 04e4 03       		.uleb128 0x3
 8253 04e5 08       		.uleb128 0x8
 8254 04e6 0B       		.uleb128 0xb
 8255 04e7 0B       		.uleb128 0xb
 8256 04e8 3A       		.uleb128 0x3a
 8257 04e9 0B       		.uleb128 0xb
 8258 04ea 3B       		.uleb128 0x3b
 8259 04eb 0B       		.uleb128 0xb
 8260 04ec 00       		.byte	0
 8261 04ed 00       		.byte	0
 8262 04ee 4D       		.uleb128 0x4d
 8263 04ef 3A       		.uleb128 0x3a
 8264 04f0 00       		.byte	0
 8265 04f1 3A       		.uleb128 0x3a
 8266 04f2 0B       		.uleb128 0xb
GAS LISTING C:\Users\NJLLMR~1\AppData\Local\Temp\cc5gZH1j.s 			page 182


 8267 04f3 3B       		.uleb128 0x3b
 8268 04f4 0B       		.uleb128 0xb
 8269 04f5 18       		.uleb128 0x18
 8270 04f6 13       		.uleb128 0x13
 8271 04f7 00       		.byte	0
 8272 04f8 00       		.byte	0
 8273 04f9 4E       		.uleb128 0x4e
 8274 04fa 10       		.uleb128 0x10
 8275 04fb 00       		.byte	0
 8276 04fc 0B       		.uleb128 0xb
 8277 04fd 0B       		.uleb128 0xb
 8278 04fe 49       		.uleb128 0x49
 8279 04ff 13       		.uleb128 0x13
 8280 0500 00       		.byte	0
 8281 0501 00       		.byte	0
 8282 0502 4F       		.uleb128 0x4f
 8283 0503 0F       		.uleb128 0xf
 8284 0504 00       		.byte	0
 8285 0505 0B       		.uleb128 0xb
 8286 0506 0B       		.uleb128 0xb
 8287 0507 00       		.byte	0
 8288 0508 00       		.byte	0
 8289 0509 50       		.uleb128 0x50
 8290 050a 26       		.uleb128 0x26
 8291 050b 00       		.byte	0
 8292 050c 00       		.byte	0
 8293 050d 00       		.byte	0
 8294 050e 51       		.uleb128 0x51
 8295 050f 01       		.uleb128 0x1
 8296 0510 01       		.byte	0x1
 8297 0511 49       		.uleb128 0x49
 8298 0512 13       		.uleb128 0x13
 8299 0513 01       		.uleb128 0x1
 8300 0514 13       		.uleb128 0x13
 8301 0515 00       		.byte	0
 8302 0516 00       		.byte	0
 8303 0517 52       		.uleb128 0x52
 8304 0518 21       		.uleb128 0x21
 8305 0519 00       		.byte	0
 8306 051a 00       		.byte	0
 8307 051b 00       		.byte	0
 8308 051c 53       		.uleb128 0x53
 8309 051d 2E       		.uleb128 0x2e
 8310 051e 01       		.byte	0x1
 8311 051f 3F       		.uleb128 0x3f
 8312 0520 19       		.uleb128 0x19
 8313 0521 03       		.uleb128 0x3
 8314 0522 08       		.uleb128 0x8
 8315 0523 3A       		.uleb128 0x3a
 8316 0524 0B       		.uleb128 0xb
 8317 0525 3B       		.uleb128 0x3b
 8318 0526 05       		.uleb128 0x5
 8319 0527 3C       		.uleb128 0x3c
 8320 0528 19       		.uleb128 0x19
 8321 0529 01       		.uleb128 0x1
 8322 052a 13       		.uleb128 0x13
 8323 052b 00       		.byte	0
GAS LISTING C:\Users\NJLLMR~1\AppData\Local\Temp\cc5gZH1j.s 			page 183


 8324 052c 00       		.byte	0
 8325 052d 54       		.uleb128 0x54
 8326 052e 2E       		.uleb128 0x2e
 8327 052f 00       		.byte	0
 8328 0530 3F       		.uleb128 0x3f
 8329 0531 19       		.uleb128 0x19
 8330 0532 03       		.uleb128 0x3
 8331 0533 08       		.uleb128 0x8
 8332 0534 3A       		.uleb128 0x3a
 8333 0535 0B       		.uleb128 0xb
 8334 0536 3B       		.uleb128 0x3b
 8335 0537 05       		.uleb128 0x5
 8336 0538 49       		.uleb128 0x49
 8337 0539 13       		.uleb128 0x13
 8338 053a 3C       		.uleb128 0x3c
 8339 053b 19       		.uleb128 0x19
 8340 053c 00       		.byte	0
 8341 053d 00       		.byte	0
 8342 053e 55       		.uleb128 0x55
 8343 053f 2E       		.uleb128 0x2e
 8344 0540 01       		.byte	0x1
 8345 0541 3F       		.uleb128 0x3f
 8346 0542 19       		.uleb128 0x19
 8347 0543 03       		.uleb128 0x3
 8348 0544 08       		.uleb128 0x8
 8349 0545 3A       		.uleb128 0x3a
 8350 0546 0B       		.uleb128 0xb
 8351 0547 3B       		.uleb128 0x3b
 8352 0548 0B       		.uleb128 0xb
 8353 0549 3C       		.uleb128 0x3c
 8354 054a 19       		.uleb128 0x19
 8355 054b 01       		.uleb128 0x1
 8356 054c 13       		.uleb128 0x13
 8357 054d 00       		.byte	0
 8358 054e 00       		.byte	0
 8359 054f 56       		.uleb128 0x56
 8360 0550 02       		.uleb128 0x2
 8361 0551 01       		.byte	0x1
 8362 0552 03       		.uleb128 0x3
 8363 0553 0E       		.uleb128 0xe
 8364 0554 0B       		.uleb128 0xb
 8365 0555 0B       		.uleb128 0xb
 8366 0556 3A       		.uleb128 0x3a
 8367 0557 0B       		.uleb128 0xb
 8368 0558 3B       		.uleb128 0x3b
 8369 0559 0B       		.uleb128 0xb
 8370 055a 01       		.uleb128 0x1
 8371 055b 13       		.uleb128 0x13
 8372 055c 00       		.byte	0
 8373 055d 00       		.byte	0
 8374 055e 57       		.uleb128 0x57
 8375 055f 2E       		.uleb128 0x2e
 8376 0560 01       		.byte	0x1
 8377 0561 3F       		.uleb128 0x3f
 8378 0562 19       		.uleb128 0x19
 8379 0563 03       		.uleb128 0x3
 8380 0564 08       		.uleb128 0x8
GAS LISTING C:\Users\NJLLMR~1\AppData\Local\Temp\cc5gZH1j.s 			page 184


 8381 0565 3A       		.uleb128 0x3a
 8382 0566 0B       		.uleb128 0xb
 8383 0567 3B       		.uleb128 0x3b
 8384 0568 0B       		.uleb128 0xb
 8385 0569 6E       		.uleb128 0x6e
 8386 056a 08       		.uleb128 0x8
 8387 056b 49       		.uleb128 0x49
 8388 056c 13       		.uleb128 0x13
 8389 056d 32       		.uleb128 0x32
 8390 056e 0B       		.uleb128 0xb
 8391 056f 3C       		.uleb128 0x3c
 8392 0570 19       		.uleb128 0x19
 8393 0571 64       		.uleb128 0x64
 8394 0572 13       		.uleb128 0x13
 8395 0573 00       		.byte	0
 8396 0574 00       		.byte	0
 8397 0575 58       		.uleb128 0x58
 8398 0576 2E       		.uleb128 0x2e
 8399 0577 01       		.byte	0x1
 8400 0578 47       		.uleb128 0x47
 8401 0579 13       		.uleb128 0x13
 8402 057a 3A       		.uleb128 0x3a
 8403 057b 0B       		.uleb128 0xb
 8404 057c 3B       		.uleb128 0x3b
 8405 057d 0B       		.uleb128 0xb
 8406 057e 20       		.uleb128 0x20
 8407 057f 0B       		.uleb128 0xb
 8408 0580 64       		.uleb128 0x64
 8409 0581 13       		.uleb128 0x13
 8410 0582 01       		.uleb128 0x1
 8411 0583 13       		.uleb128 0x13
 8412 0584 00       		.byte	0
 8413 0585 00       		.byte	0
 8414 0586 59       		.uleb128 0x59
 8415 0587 05       		.uleb128 0x5
 8416 0588 00       		.byte	0
 8417 0589 03       		.uleb128 0x3
 8418 058a 0E       		.uleb128 0xe
 8419 058b 49       		.uleb128 0x49
 8420 058c 13       		.uleb128 0x13
 8421 058d 34       		.uleb128 0x34
 8422 058e 19       		.uleb128 0x19
 8423 058f 00       		.byte	0
 8424 0590 00       		.byte	0
 8425 0591 5A       		.uleb128 0x5a
 8426 0592 2E       		.uleb128 0x2e
 8427 0593 01       		.byte	0x1
 8428 0594 31       		.uleb128 0x31
 8429 0595 13       		.uleb128 0x13
 8430 0596 6E       		.uleb128 0x6e
 8431 0597 08       		.uleb128 0x8
 8432 0598 11       		.uleb128 0x11
 8433 0599 01       		.uleb128 0x1
 8434 059a 12       		.uleb128 0x12
 8435 059b 06       		.uleb128 0x6
 8436 059c 40       		.uleb128 0x40
 8437 059d 18       		.uleb128 0x18
GAS LISTING C:\Users\NJLLMR~1\AppData\Local\Temp\cc5gZH1j.s 			page 185


 8438 059e 64       		.uleb128 0x64
 8439 059f 13       		.uleb128 0x13
 8440 05a0 9742     		.uleb128 0x2117
 8441 05a2 19       		.uleb128 0x19
 8442 05a3 01       		.uleb128 0x1
 8443 05a4 13       		.uleb128 0x13
 8444 05a5 00       		.byte	0
 8445 05a6 00       		.byte	0
 8446 05a7 5B       		.uleb128 0x5b
 8447 05a8 05       		.uleb128 0x5
 8448 05a9 00       		.byte	0
 8449 05aa 31       		.uleb128 0x31
 8450 05ab 13       		.uleb128 0x13
 8451 05ac 02       		.uleb128 0x2
 8452 05ad 18       		.uleb128 0x18
 8453 05ae 00       		.byte	0
 8454 05af 00       		.byte	0
 8455 05b0 5C       		.uleb128 0x5c
 8456 05b1 2E       		.uleb128 0x2e
 8457 05b2 01       		.byte	0x1
 8458 05b3 47       		.uleb128 0x47
 8459 05b4 13       		.uleb128 0x13
 8460 05b5 3A       		.uleb128 0x3a
 8461 05b6 0B       		.uleb128 0xb
 8462 05b7 3B       		.uleb128 0x3b
 8463 05b8 0B       		.uleb128 0xb
 8464 05b9 11       		.uleb128 0x11
 8465 05ba 01       		.uleb128 0x1
 8466 05bb 12       		.uleb128 0x12
 8467 05bc 06       		.uleb128 0x6
 8468 05bd 40       		.uleb128 0x40
 8469 05be 18       		.uleb128 0x18
 8470 05bf 64       		.uleb128 0x64
 8471 05c0 13       		.uleb128 0x13
 8472 05c1 9642     		.uleb128 0x2116
 8473 05c3 19       		.uleb128 0x19
 8474 05c4 01       		.uleb128 0x1
 8475 05c5 13       		.uleb128 0x13
 8476 05c6 00       		.byte	0
 8477 05c7 00       		.byte	0
 8478 05c8 5D       		.uleb128 0x5d
 8479 05c9 05       		.uleb128 0x5
 8480 05ca 00       		.byte	0
 8481 05cb 03       		.uleb128 0x3
 8482 05cc 0E       		.uleb128 0xe
 8483 05cd 49       		.uleb128 0x49
 8484 05ce 13       		.uleb128 0x13
 8485 05cf 34       		.uleb128 0x34
 8486 05d0 19       		.uleb128 0x19
 8487 05d1 02       		.uleb128 0x2
 8488 05d2 18       		.uleb128 0x18
 8489 05d3 00       		.byte	0
 8490 05d4 00       		.byte	0
 8491 05d5 5E       		.uleb128 0x5e
 8492 05d6 0B       		.uleb128 0xb
 8493 05d7 01       		.byte	0x1
 8494 05d8 11       		.uleb128 0x11
GAS LISTING C:\Users\NJLLMR~1\AppData\Local\Temp\cc5gZH1j.s 			page 186


 8495 05d9 01       		.uleb128 0x1
 8496 05da 12       		.uleb128 0x12
 8497 05db 06       		.uleb128 0x6
 8498 05dc 00       		.byte	0
 8499 05dd 00       		.byte	0
 8500 05de 5F       		.uleb128 0x5f
 8501 05df 34       		.uleb128 0x34
 8502 05e0 00       		.byte	0
 8503 05e1 03       		.uleb128 0x3
 8504 05e2 08       		.uleb128 0x8
 8505 05e3 3A       		.uleb128 0x3a
 8506 05e4 0B       		.uleb128 0xb
 8507 05e5 3B       		.uleb128 0x3b
 8508 05e6 0B       		.uleb128 0xb
 8509 05e7 49       		.uleb128 0x49
 8510 05e8 13       		.uleb128 0x13
 8511 05e9 02       		.uleb128 0x2
 8512 05ea 18       		.uleb128 0x18
 8513 05eb 00       		.byte	0
 8514 05ec 00       		.byte	0
 8515 05ed 60       		.uleb128 0x60
 8516 05ee 0B       		.uleb128 0xb
 8517 05ef 01       		.byte	0x1
 8518 05f0 55       		.uleb128 0x55
 8519 05f1 17       		.uleb128 0x17
 8520 05f2 00       		.byte	0
 8521 05f3 00       		.byte	0
 8522 05f4 61       		.uleb128 0x61
 8523 05f5 2E       		.uleb128 0x2e
 8524 05f6 01       		.byte	0x1
 8525 05f7 47       		.uleb128 0x47
 8526 05f8 13       		.uleb128 0x13
 8527 05f9 3A       		.uleb128 0x3a
 8528 05fa 0B       		.uleb128 0xb
 8529 05fb 3B       		.uleb128 0x3b
 8530 05fc 0B       		.uleb128 0xb
 8531 05fd 11       		.uleb128 0x11
 8532 05fe 01       		.uleb128 0x1
 8533 05ff 12       		.uleb128 0x12
 8534 0600 06       		.uleb128 0x6
 8535 0601 40       		.uleb128 0x40
 8536 0602 18       		.uleb128 0x18
 8537 0603 64       		.uleb128 0x64
 8538 0604 13       		.uleb128 0x13
 8539 0605 9742     		.uleb128 0x2117
 8540 0607 19       		.uleb128 0x19
 8541 0608 01       		.uleb128 0x1
 8542 0609 13       		.uleb128 0x13
 8543 060a 00       		.byte	0
 8544 060b 00       		.byte	0
 8545 060c 62       		.uleb128 0x62
 8546 060d 2E       		.uleb128 0x2e
 8547 060e 00       		.byte	0
 8548 060f 03       		.uleb128 0x3
 8549 0610 08       		.uleb128 0x8
 8550 0611 34       		.uleb128 0x34
 8551 0612 19       		.uleb128 0x19
GAS LISTING C:\Users\NJLLMR~1\AppData\Local\Temp\cc5gZH1j.s 			page 187


 8552 0613 11       		.uleb128 0x11
 8553 0614 01       		.uleb128 0x1
 8554 0615 12       		.uleb128 0x12
 8555 0616 06       		.uleb128 0x6
 8556 0617 40       		.uleb128 0x40
 8557 0618 18       		.uleb128 0x18
 8558 0619 9642     		.uleb128 0x2116
 8559 061b 19       		.uleb128 0x19
 8560 061c 00       		.byte	0
 8561 061d 00       		.byte	0
 8562 061e 63       		.uleb128 0x63
 8563 061f 2E       		.uleb128 0x2e
 8564 0620 01       		.byte	0x1
 8565 0621 03       		.uleb128 0x3
 8566 0622 08       		.uleb128 0x8
 8567 0623 34       		.uleb128 0x34
 8568 0624 19       		.uleb128 0x19
 8569 0625 11       		.uleb128 0x11
 8570 0626 01       		.uleb128 0x1
 8571 0627 12       		.uleb128 0x12
 8572 0628 06       		.uleb128 0x6
 8573 0629 40       		.uleb128 0x40
 8574 062a 18       		.uleb128 0x18
 8575 062b 9642     		.uleb128 0x2116
 8576 062d 19       		.uleb128 0x19
 8577 062e 01       		.uleb128 0x1
 8578 062f 13       		.uleb128 0x13
 8579 0630 00       		.byte	0
 8580 0631 00       		.byte	0
 8581 0632 64       		.uleb128 0x64
 8582 0633 05       		.uleb128 0x5
 8583 0634 00       		.byte	0
 8584 0635 03       		.uleb128 0x3
 8585 0636 08       		.uleb128 0x8
 8586 0637 3A       		.uleb128 0x3a
 8587 0638 0B       		.uleb128 0xb
 8588 0639 3B       		.uleb128 0x3b
 8589 063a 0B       		.uleb128 0xb
 8590 063b 49       		.uleb128 0x49
 8591 063c 13       		.uleb128 0x13
 8592 063d 02       		.uleb128 0x2
 8593 063e 18       		.uleb128 0x18
 8594 063f 00       		.byte	0
 8595 0640 00       		.byte	0
 8596 0641 65       		.uleb128 0x65
 8597 0642 34       		.uleb128 0x34
 8598 0643 00       		.byte	0
 8599 0644 03       		.uleb128 0x3
 8600 0645 08       		.uleb128 0x8
 8601 0646 3A       		.uleb128 0x3a
 8602 0647 0B       		.uleb128 0xb
 8603 0648 3B       		.uleb128 0x3b
 8604 0649 0B       		.uleb128 0xb
 8605 064a 49       		.uleb128 0x49
 8606 064b 13       		.uleb128 0x13
 8607 064c 3F       		.uleb128 0x3f
 8608 064d 19       		.uleb128 0x19
GAS LISTING C:\Users\NJLLMR~1\AppData\Local\Temp\cc5gZH1j.s 			page 188


 8609 064e 3C       		.uleb128 0x3c
 8610 064f 19       		.uleb128 0x19
 8611 0650 00       		.byte	0
 8612 0651 00       		.byte	0
 8613 0652 66       		.uleb128 0x66
 8614 0653 34       		.uleb128 0x34
 8615 0654 00       		.byte	0
 8616 0655 47       		.uleb128 0x47
 8617 0656 13       		.uleb128 0x13
 8618 0657 02       		.uleb128 0x2
 8619 0658 18       		.uleb128 0x18
 8620 0659 00       		.byte	0
 8621 065a 00       		.byte	0
 8622 065b 67       		.uleb128 0x67
 8623 065c 34       		.uleb128 0x34
 8624 065d 00       		.byte	0
 8625 065e 47       		.uleb128 0x47
 8626 065f 13       		.uleb128 0x13
 8627 0660 6E       		.uleb128 0x6e
 8628 0661 08       		.uleb128 0x8
 8629 0662 1C       		.uleb128 0x1c
 8630 0663 0D       		.uleb128 0xd
 8631 0664 00       		.byte	0
 8632 0665 00       		.byte	0
 8633 0666 68       		.uleb128 0x68
 8634 0667 34       		.uleb128 0x34
 8635 0668 00       		.byte	0
 8636 0669 47       		.uleb128 0x47
 8637 066a 13       		.uleb128 0x13
 8638 066b 6E       		.uleb128 0x6e
 8639 066c 08       		.uleb128 0x8
 8640 066d 1C       		.uleb128 0x1c
 8641 066e 06       		.uleb128 0x6
 8642 066f 00       		.byte	0
 8643 0670 00       		.byte	0
 8644 0671 69       		.uleb128 0x69
 8645 0672 34       		.uleb128 0x34
 8646 0673 00       		.byte	0
 8647 0674 47       		.uleb128 0x47
 8648 0675 13       		.uleb128 0x13
 8649 0676 6E       		.uleb128 0x6e
 8650 0677 08       		.uleb128 0x8
 8651 0678 1C       		.uleb128 0x1c
 8652 0679 0B       		.uleb128 0xb
 8653 067a 00       		.byte	0
 8654 067b 00       		.byte	0
 8655 067c 6A       		.uleb128 0x6a
 8656 067d 34       		.uleb128 0x34
 8657 067e 00       		.byte	0
 8658 067f 47       		.uleb128 0x47
 8659 0680 13       		.uleb128 0x13
 8660 0681 6E       		.uleb128 0x6e
 8661 0682 08       		.uleb128 0x8
 8662 0683 1C       		.uleb128 0x1c
 8663 0684 05       		.uleb128 0x5
 8664 0685 00       		.byte	0
 8665 0686 00       		.byte	0
GAS LISTING C:\Users\NJLLMR~1\AppData\Local\Temp\cc5gZH1j.s 			page 189


 8666 0687 00       		.byte	0
 8667              		.section	.debug_aranges,"dr"
 8668 0000 1C000000 		.long	0x1c
 8669 0004 0200     		.word	0x2
 8670 0006 00000000 		.secrel32	Ldebug_info0
 8671 000a 04       		.byte	0x4
 8672 000b 00       		.byte	0
 8673 000c 0000     		.word	0
 8674 000e 0000     		.word	0
 8675 0010 00000000 		.long	Ltext0
 8676 0014 D00C0000 		.long	Letext0-Ltext0
 8677 0018 00000000 		.long	0
 8678 001c 00000000 		.long	0
 8679              		.section	.debug_ranges,"dr"
 8680              	Ldebug_ranges0:
 8681 0000 9B030000 		.long	LBB4-Ltext0
 8682 0004 00090000 		.long	LBE4-Ltext0
 8683 0008 6F090000 		.long	LBB7-Ltext0
 8684 000c 490B0000 		.long	LBE7-Ltext0
 8685 0010 00000000 		.long	0
 8686 0014 00000000 		.long	0
 8687 0018 A7030000 		.long	LBB5-Ltext0
 8688 001c F0080000 		.long	LBE5-Ltext0
 8689 0020 6F090000 		.long	LBB6-Ltext0
 8690 0024 490B0000 		.long	LBE6-Ltext0
 8691 0028 00000000 		.long	0
 8692 002c 00000000 		.long	0
 8693              		.section	.debug_line,"dr"
 8694              	Ldebug_line0:
 8695 0000 5A060000 		.section	.debug_str,"dr"
 8695      02005104 
 8695      00000101 
 8695      FB0E0D00 
 8695      01010101 
 8696              	LASF16:
 8697 0000 7265706C 		.ascii "replace\0"
 8697      61636500 
 8698              	LASF23:
 8699 0008 5F436861 		.ascii "_CharT\0"
 8699      725400
 8700              	LASF22:
 8701 000f 5F547261 		.ascii "_Traits\0"
 8701      69747300 
 8702              	LASF3:
 8703 0017 72656665 		.ascii "reference\0"
 8703      72656E63 
 8703      6500
 8704              	LASF26:
 8705 0021 5F5F6D61 		.ascii "__max\0"
 8705      7800
 8706              	LASF27:
 8707 0027 5F5F6973 		.ascii "__is_signed\0"
 8707      5F736967 
 8707      6E656400 
 8708              	LASF9:
 8709 0033 62617369 		.ascii "basic_string\0"
 8709      635F7374 
GAS LISTING C:\Users\NJLLMR~1\AppData\Local\Temp\cc5gZH1j.s 			page 190


 8709      72696E67 
 8709      00
 8710              	LASF12:
 8711 0040 6F706572 		.ascii "operator[]\0"
 8711      61746F72 
 8711      5B5D00
 8712              	LASF24:
 8713 004b 6E65775F 		.ascii "new_allocator\0"
 8713      616C6C6F 
 8713      6361746F 
 8713      7200
 8714              	LASF18:
 8715 0059 66696E64 		.ascii "find_first_of\0"
 8715      5F666972 
 8715      73745F6F 
 8715      6600
 8716              	LASF21:
 8717 0067 66696E64 		.ascii "find_last_not_of\0"
 8717      5F6C6173 
 8717      745F6E6F 
 8717      745F6F66 
 8717      00
 8718              	LASF25:
 8719 0078 5F5F6D69 		.ascii "__min\0"
 8719      6E00
 8720              	LASF31:
 8721 007e 74686973 		.ascii "this\0"
 8721      00
 8722              	LASF6:
 8723 0083 5F416C6C 		.ascii "_Alloc_hider\0"
 8723      6F635F68 
 8723      69646572 
 8723      00
 8724              	LASF30:
 8725 0090 56616C69 		.ascii "Validate\0"
 8725      64617465 
 8725      00
 8726              	LASF8:
 8727 0099 5F535F63 		.ascii "_S_copy_chars\0"
 8727      6F70795F 
 8727      63686172 
 8727      7300
 8728              	LASF17:
 8729 00a7 7266696E 		.ascii "rfind\0"
 8729      6400
 8730              	LASF4:
 8731 00ad 636F6E73 		.ascii "const_reference\0"
 8731      745F7265 
 8731      66657265 
 8731      6E636500 
 8732              	LASF28:
 8733 00bd 5F5F6469 		.ascii "__digits\0"
 8733      67697473 
 8733      00
 8734              	LASF11:
 8735 00c6 6D61785F 		.ascii "max_size\0"
 8735      73697A65 
GAS LISTING C:\Users\NJLLMR~1\AppData\Local\Temp\cc5gZH1j.s 			page 191


 8735      00
 8736              	LASF20:
 8737 00cf 66696E64 		.ascii "find_first_not_of\0"
 8737      5F666972 
 8737      73745F6E 
 8737      6F745F6F 
 8737      6600
 8738              	LASF13:
 8739 00e1 6F706572 		.ascii "operator+=\0"
 8739      61746F72 
 8739      2B3D00
 8740              	LASF15:
 8741 00ec 696E7365 		.ascii "insert\0"
 8741      727400
 8742              	LASF29:
 8743 00f3 5F56616C 		.ascii "_Value\0"
 8743      756500
 8744              	LASF19:
 8745 00fa 66696E64 		.ascii "find_last_of\0"
 8745      5F6C6173 
 8745      745F6F66 
 8745      00
 8746              	LASF2:
 8747 0107 73697A65 		.ascii "size_type\0"
 8747      5F747970 
 8747      6500
 8748              	LASF14:
 8749 0111 61707065 		.ascii "append\0"
 8749      6E6400
 8750              	LASF7:
 8751 0118 5F535F65 		.ascii "_S_empty_rep\0"
 8751      6D707479 
 8751      5F726570 
 8751      00
 8752              	LASF10:
 8753 0125 6F706572 		.ascii "operator=\0"
 8753      61746F72 
 8753      3D00
 8754              	LASF0:
 8755 012f 636F6D70 		.ascii "compare\0"
 8755      61726500 
 8756              	LASF1:
 8757 0137 61737369 		.ascii "assign\0"
 8757      676E00
 8758              	LASF5:
 8759 013e 616C6C6F 		.ascii "allocator\0"
 8759      6361746F 
 8759      7200
 8760              		.ident	"GCC: (tdm-1) 4.9.2"
GAS LISTING C:\Users\NJLLMR~1\AppData\Local\Temp\cc5gZH1j.s 			page 192


DEFINED SYMBOLS
                            *ABS*:00000000 Main_ui.cpp
                             .bss:00000000 __ZStL8__ioinit
C:\Users\NJLLMR~1\AppData\Local\Temp\cc5gZH1j.s:9      .text:00000000 __ZN7Main_uiC2Ev
C:\Users\NJLLMR~1\AppData\Local\Temp\cc5gZH1j.s:9      .text:00000000 __ZN7Main_uiC1Ev
C:\Users\NJLLMR~1\AppData\Local\Temp\cc5gZH1j.s:65     .text:0000000c __ZN7Main_ui9main_menuEv
C:\Users\NJLLMR~1\AppData\Local\Temp\cc5gZH1j.s:289    .text:000002b8 __ZN7Main_ui11addEmplMenuEv
C:\Users\NJLLMR~1\AppData\Local\Temp\cc5gZH1j.s:1042   .text:00000c52 __ZN7Main_ui11getRcrdMenuEv
C:\Users\NJLLMR~1\AppData\Local\Temp\cc5gZH1j.s:1063   .text:00000c5e __ZN7Main_ui12getYrPayMenuEv
C:\Users\NJLLMR~1\AppData\Local\Temp\cc5gZH1j.s:1084   .text:00000c6a __ZN7Main_ui12getHiPayMenuEv
C:\Users\NJLLMR~1\AppData\Local\Temp\cc5gZH1j.s:1103   .text:00000c75 ___tcf_0
C:\Users\NJLLMR~1\AppData\Local\Temp\cc5gZH1j.s:1124   .text:00000c87 __Z41__static_initialization_and_destruction_0ii
C:\Users\NJLLMR~1\AppData\Local\Temp\cc5gZH1j.s:1154   .text:00000cb4 __GLOBAL__sub_I__ZN7Main_uiC2Ev

UNDEFINED SYMBOLS
__ZSt4cout
__ZSt3cin
___gxx_personality_sj0
__Unwind_SjLj_Register
__Unwind_SjLj_Unregister
__ZStlsISt11char_traitsIcEERSt13basic_ostreamIcT_ES5_PKc
__ZSt4endlIcSt11char_traitsIcEERSt13basic_ostreamIT_T0_ES6_
__ZNSolsEPFRSoS_E
__ZStrsIcSt11char_traitsIcEERSt13basic_istreamIT_T0_ES6_RS3_
__ZN8ValidateC1Ev
__ZNSsC1Ev
__ZNSirsERi
__ZNSi6ignoreEv
__ZSt7getlineIcSt11char_traitsIcESaIcEERSt13basic_istreamIT_T0_ES7_RSbIS4_S5_T1_E
__ZStlsIcSt11char_traitsIcESaIcEERSt13basic_ostreamIT_T0_ES7_RKSbIS4_S5_T1_E
__ZNSsC1ERKSs
__ZN8Validate12validateNameESs
__ZNSsD1Ev
__ZStrsIcSt11char_traitsIcESaIcEERSt13basic_istreamIT_T0_ES7_RSbIS4_S5_T1_E
__ZN8Validate11validateSSNESs
__ZN8Validate14validateSalaryESs
__ZN8Validate13validateMonthESs
__ZN8Validate12validateYearESs
__ZN7ServiceC1Ev
__ZN7Service19writeEmployeeInFileESsSsSsSsSs
__ZN7ServiceD1Ev
__Unwind_SjLj_Resume
__ZNSt8ios_base4InitD1Ev
__ZNSt8ios_base4InitC1Ev
_atexit
