GAS LISTING C:\Users\NJLLMR~1\AppData\Local\Temp\ccWOhw13.s 			page 1


   1              		.file	"Main_ui.cpp"
   2              		.text
   3              	Ltext0:
   4              		.cfi_sections	.debug_frame
   5              	.lcomm __ZStL8__ioinit,1,1
   6              		.align 2
   7              		.globl	__ZN7Main_uiC2Ev
   9              	__ZN7Main_uiC2Ev:
  10              	LFB1137:
  11              		.file 1 "C:/Users/Nj\341ll M\375rdal/3viknanamskeid/LitidVerk1/Verkefni2/Vikuverk2/src/ui/Main_ui.
   1:C:/Users/Njáll Mýrdal/3viknanamskeid/LitidVerk1/Verkefni2/Vikuverk2/src/ui\Main_ui.cpp **** #include "Main_ui.h"
   2:C:/Users/Njáll Mýrdal/3viknanamskeid/LitidVerk1/Verkefni2/Vikuverk2/src/ui\Main_ui.cpp **** #include "Service.h"
   3:C:/Users/Njáll Mýrdal/3viknanamskeid/LitidVerk1/Verkefni2/Vikuverk2/src/ui\Main_ui.cpp **** #include "Validate.h"
   4:C:/Users/Njáll Mýrdal/3viknanamskeid/LitidVerk1/Verkefni2/Vikuverk2/src/ui\Main_ui.cpp **** #include <string>
   5:C:/Users/Njáll Mýrdal/3viknanamskeid/LitidVerk1/Verkefni2/Vikuverk2/src/ui\Main_ui.cpp **** #include <stdlib.h>
   6:C:/Users/Njáll Mýrdal/3viknanamskeid/LitidVerk1/Verkefni2/Vikuverk2/src/ui\Main_ui.cpp **** #include <iostream>
   7:C:/Users/Njáll Mýrdal/3viknanamskeid/LitidVerk1/Verkefni2/Vikuverk2/src/ui\Main_ui.cpp **** 
   8:C:/Users/Njáll Mýrdal/3viknanamskeid/LitidVerk1/Verkefni2/Vikuverk2/src/ui\Main_ui.cpp **** using namespace std;
   9:C:/Users/Njáll Mýrdal/3viknanamskeid/LitidVerk1/Verkefni2/Vikuverk2/src/ui\Main_ui.cpp **** 
  10:C:/Users/Njáll Mýrdal/3viknanamskeid/LitidVerk1/Verkefni2/Vikuverk2/src/ui\Main_ui.cpp **** Main_ui::Main_ui()
  12              		.loc 1 10 0
  13              		.cfi_startproc
  14 0000 55       		pushl	%ebp
  15              		.cfi_def_cfa_offset 8
  16              		.cfi_offset 5, -8
  17 0001 89E5     		movl	%esp, %ebp
  18              		.cfi_def_cfa_register 5
  19 0003 83EC04   		subl	$4, %esp
  20 0006 894DFC   		movl	%ecx, -4(%ebp)
  11:C:/Users/Njáll Mýrdal/3viknanamskeid/LitidVerk1/Verkefni2/Vikuverk2/src/ui\Main_ui.cpp **** {
  12:C:/Users/Njáll Mýrdal/3viknanamskeid/LitidVerk1/Verkefni2/Vikuverk2/src/ui\Main_ui.cpp ****     //ctor
  13:C:/Users/Njáll Mýrdal/3viknanamskeid/LitidVerk1/Verkefni2/Vikuverk2/src/ui\Main_ui.cpp **** }
  21              		.loc 1 13 0
  22 0009 C9       		leave
  23              		.cfi_restore 5
  24              		.cfi_def_cfa 4, 4
  25 000a C3       		ret
  26              		.cfi_endproc
  27              	LFE1137:
  28              		.globl	__ZN7Main_uiC1Ev
  30              		.set	__ZN7Main_uiC1Ev,__ZN7Main_uiC2Ev
  31              		.section .rdata,"dr"
  32              		.align 4
  33              	LC0:
  34 0000 20202020 		.ascii "        This is a salary registry menu             \0"
  34      20202020 
  34      54686973 
  34      20697320 
  34      61207361 
  35              		.align 4
  36              	LC1:
  37 0034 20202020 		.ascii "           Choose following things                 \0"
  37      20202020 
  37      20202043 
  37      686F6F73 
  37      6520666F 
  38              		.align 4
GAS LISTING C:\Users\NJLLMR~1\AppData\Local\Temp\ccWOhw13.s 			page 2


  39              	LC2:
  40 0068 2D2D2D2D 		.ascii "---------------------------------------------------\0"
  40      2D2D2D2D 
  40      2D2D2D2D 
  40      2D2D2D2D 
  40      2D2D2D2D 
  41              		.align 4
  42              	LC3:
  43 009c 7C20312E 		.ascii "| 1. Add an employee to the salary registry       |\0"
  43      20416464 
  43      20616E20 
  43      656D706C 
  43      6F796565 
  44              		.align 4
  45              	LC4:
  46 00d0 7C202020 		.ascii "|                                                 |\0"
  46      20202020 
  46      20202020 
  46      20202020 
  46      20202020 
  47              		.align 4
  48              	LC5:
  49 0104 7C20322E 		.ascii "| 2. Get salary records from an employee          |\0"
  49      20476574 
  49      2073616C 
  49      61727920 
  49      7265636F 
  50              		.align 4
  51              	LC6:
  52 0138 7C20332E 		.ascii "| 3. Get yearly salary from an employee           |\0"
  52      20476574 
  52      20796561 
  52      726C7920 
  52      73616C61 
  53              		.align 4
  54              	LC7:
  55 016c 7C20342E 		.ascii "| 4. Get the highest paid employee by year        |\0"
  55      20476574 
  55      20746865 
  55      20686967 
  55      68657374 
  56              		.align 4
  57              	LC8:
  58 01a0 7C20352E 		.ascii "| 5. quit the program                             |\0"
  58      20717569 
  58      74207468 
  58      65207072 
  58      6F677261 
  59              	LC9:
  60 01d4 7C20506C 		.ascii "| Please input a number : \0"
  60      65617365 
  60      20696E70 
  60      75742061 
  60      206E756D 
  61              	LC10:
  62 01ef 434C5300 		.ascii "CLS\0"
  63              	LC11:
GAS LISTING C:\Users\NJLLMR~1\AppData\Local\Temp\ccWOhw13.s 			page 3


  64 01f3 496E7661 		.ascii "Invalid input -- try again\0"
  64      6C696420 
  64      696E7075 
  64      74202D2D 
  64      20747279 
  65              		.text
  66 000b 90       		.align 2
  67              		.globl	__ZN7Main_ui9main_menuEv
  69              	__ZN7Main_ui9main_menuEv:
  70              	LFB1139:
  14:C:/Users/Njáll Mýrdal/3viknanamskeid/LitidVerk1/Verkefni2/Vikuverk2/src/ui\Main_ui.cpp **** 
  15:C:/Users/Njáll Mýrdal/3viknanamskeid/LitidVerk1/Verkefni2/Vikuverk2/src/ui\Main_ui.cpp **** void Main_ui::main_menu(){
  71              		.loc 1 15 0
  72              		.cfi_startproc
  73 000c 55       		pushl	%ebp
  74              		.cfi_def_cfa_offset 8
  75              		.cfi_offset 5, -8
  76 000d 89E5     		movl	%esp, %ebp
  77              		.cfi_def_cfa_register 5
  78 000f 83EC38   		subl	$56, %esp
  79 0012 894DE4   		movl	%ecx, -28(%ebp)
  80              	LBB2:
  16:C:/Users/Njáll Mýrdal/3viknanamskeid/LitidVerk1/Verkefni2/Vikuverk2/src/ui\Main_ui.cpp ****     char input = '\0';
  81              		.loc 1 16 0
  82 0015 C645F700 		movb	$0, -9(%ebp)
  83              	L10:
  17:C:/Users/Njáll Mýrdal/3viknanamskeid/LitidVerk1/Verkefni2/Vikuverk2/src/ui\Main_ui.cpp ****     
  18:C:/Users/Njáll Mýrdal/3viknanamskeid/LitidVerk1/Verkefni2/Vikuverk2/src/ui\Main_ui.cpp ****     while(true) {
  19:C:/Users/Njáll Mýrdal/3viknanamskeid/LitidVerk1/Verkefni2/Vikuverk2/src/ui\Main_ui.cpp ****         cout << "        This is a salary registry menu             " << endl;
  84              		.loc 1 19 0
  85 0019 C7442404 		movl	$LC0, 4(%esp)
  85      00000000 
  86 0021 C7042400 		movl	$__ZSt4cout, (%esp)
  86      000000
  87 0028 E8000000 		call	__ZStlsISt11char_traitsIcEERSt13basic_ostreamIcT_ES5_PKc
  87      00
  88 002d C7042400 		movl	$__ZSt4endlIcSt11char_traitsIcEERSt13basic_ostreamIT_T0_ES6_, (%esp)
  88      000000
  89 0034 89C1     		movl	%eax, %ecx
  90 0036 E8000000 		call	__ZNSolsEPFRSoS_E
  90      00
  91 003b 83EC04   		subl	$4, %esp
  20:C:/Users/Njáll Mýrdal/3viknanamskeid/LitidVerk1/Verkefni2/Vikuverk2/src/ui\Main_ui.cpp ****         cout << "           Choose following things                 " << endl;
  92              		.loc 1 20 0
  93 003e C7442404 		movl	$LC1, 4(%esp)
  93      34000000 
  94 0046 C7042400 		movl	$__ZSt4cout, (%esp)
  94      000000
  95 004d E8000000 		call	__ZStlsISt11char_traitsIcEERSt13basic_ostreamIcT_ES5_PKc
  95      00
  96 0052 C7042400 		movl	$__ZSt4endlIcSt11char_traitsIcEERSt13basic_ostreamIT_T0_ES6_, (%esp)
  96      000000
  97 0059 89C1     		movl	%eax, %ecx
  98 005b E8000000 		call	__ZNSolsEPFRSoS_E
  98      00
  99 0060 83EC04   		subl	$4, %esp
  21:C:/Users/Njáll Mýrdal/3viknanamskeid/LitidVerk1/Verkefni2/Vikuverk2/src/ui\Main_ui.cpp ****         cout << "---------------------------------------------------" << endl;
GAS LISTING C:\Users\NJLLMR~1\AppData\Local\Temp\ccWOhw13.s 			page 4


 100              		.loc 1 21 0
 101 0063 C7442404 		movl	$LC2, 4(%esp)
 101      68000000 
 102 006b C7042400 		movl	$__ZSt4cout, (%esp)
 102      000000
 103 0072 E8000000 		call	__ZStlsISt11char_traitsIcEERSt13basic_ostreamIcT_ES5_PKc
 103      00
 104 0077 C7042400 		movl	$__ZSt4endlIcSt11char_traitsIcEERSt13basic_ostreamIT_T0_ES6_, (%esp)
 104      000000
 105 007e 89C1     		movl	%eax, %ecx
 106 0080 E8000000 		call	__ZNSolsEPFRSoS_E
 106      00
 107 0085 83EC04   		subl	$4, %esp
  22:C:/Users/Njáll Mýrdal/3viknanamskeid/LitidVerk1/Verkefni2/Vikuverk2/src/ui\Main_ui.cpp ****         cout << "| 1. Add an employee to the salary registry       |" << endl;
 108              		.loc 1 22 0
 109 0088 C7442404 		movl	$LC3, 4(%esp)
 109      9C000000 
 110 0090 C7042400 		movl	$__ZSt4cout, (%esp)
 110      000000
 111 0097 E8000000 		call	__ZStlsISt11char_traitsIcEERSt13basic_ostreamIcT_ES5_PKc
 111      00
 112 009c C7042400 		movl	$__ZSt4endlIcSt11char_traitsIcEERSt13basic_ostreamIT_T0_ES6_, (%esp)
 112      000000
 113 00a3 89C1     		movl	%eax, %ecx
 114 00a5 E8000000 		call	__ZNSolsEPFRSoS_E
 114      00
 115 00aa 83EC04   		subl	$4, %esp
  23:C:/Users/Njáll Mýrdal/3viknanamskeid/LitidVerk1/Verkefni2/Vikuverk2/src/ui\Main_ui.cpp ****         cout << "|                                                 |" << endl;
 116              		.loc 1 23 0
 117 00ad C7442404 		movl	$LC4, 4(%esp)
 117      D0000000 
 118 00b5 C7042400 		movl	$__ZSt4cout, (%esp)
 118      000000
 119 00bc E8000000 		call	__ZStlsISt11char_traitsIcEERSt13basic_ostreamIcT_ES5_PKc
 119      00
 120 00c1 C7042400 		movl	$__ZSt4endlIcSt11char_traitsIcEERSt13basic_ostreamIT_T0_ES6_, (%esp)
 120      000000
 121 00c8 89C1     		movl	%eax, %ecx
 122 00ca E8000000 		call	__ZNSolsEPFRSoS_E
 122      00
 123 00cf 83EC04   		subl	$4, %esp
  24:C:/Users/Njáll Mýrdal/3viknanamskeid/LitidVerk1/Verkefni2/Vikuverk2/src/ui\Main_ui.cpp ****         cout << "| 2. Get salary records from an employee          |" << endl;
 124              		.loc 1 24 0
 125 00d2 C7442404 		movl	$LC5, 4(%esp)
 125      04010000 
 126 00da C7042400 		movl	$__ZSt4cout, (%esp)
 126      000000
 127 00e1 E8000000 		call	__ZStlsISt11char_traitsIcEERSt13basic_ostreamIcT_ES5_PKc
 127      00
 128 00e6 C7042400 		movl	$__ZSt4endlIcSt11char_traitsIcEERSt13basic_ostreamIT_T0_ES6_, (%esp)
 128      000000
 129 00ed 89C1     		movl	%eax, %ecx
 130 00ef E8000000 		call	__ZNSolsEPFRSoS_E
 130      00
 131 00f4 83EC04   		subl	$4, %esp
  25:C:/Users/Njáll Mýrdal/3viknanamskeid/LitidVerk1/Verkefni2/Vikuverk2/src/ui\Main_ui.cpp ****         cout << "|                                                 |" << endl;
 132              		.loc 1 25 0
GAS LISTING C:\Users\NJLLMR~1\AppData\Local\Temp\ccWOhw13.s 			page 5


 133 00f7 C7442404 		movl	$LC4, 4(%esp)
 133      D0000000 
 134 00ff C7042400 		movl	$__ZSt4cout, (%esp)
 134      000000
 135 0106 E8000000 		call	__ZStlsISt11char_traitsIcEERSt13basic_ostreamIcT_ES5_PKc
 135      00
 136 010b C7042400 		movl	$__ZSt4endlIcSt11char_traitsIcEERSt13basic_ostreamIT_T0_ES6_, (%esp)
 136      000000
 137 0112 89C1     		movl	%eax, %ecx
 138 0114 E8000000 		call	__ZNSolsEPFRSoS_E
 138      00
 139 0119 83EC04   		subl	$4, %esp
  26:C:/Users/Njáll Mýrdal/3viknanamskeid/LitidVerk1/Verkefni2/Vikuverk2/src/ui\Main_ui.cpp ****         cout << "| 3. Get yearly salary from an employee           |" << endl;
 140              		.loc 1 26 0
 141 011c C7442404 		movl	$LC6, 4(%esp)
 141      38010000 
 142 0124 C7042400 		movl	$__ZSt4cout, (%esp)
 142      000000
 143 012b E8000000 		call	__ZStlsISt11char_traitsIcEERSt13basic_ostreamIcT_ES5_PKc
 143      00
 144 0130 C7042400 		movl	$__ZSt4endlIcSt11char_traitsIcEERSt13basic_ostreamIT_T0_ES6_, (%esp)
 144      000000
 145 0137 89C1     		movl	%eax, %ecx
 146 0139 E8000000 		call	__ZNSolsEPFRSoS_E
 146      00
 147 013e 83EC04   		subl	$4, %esp
  27:C:/Users/Njáll Mýrdal/3viknanamskeid/LitidVerk1/Verkefni2/Vikuverk2/src/ui\Main_ui.cpp ****         cout << "|                                                 |" << endl;
 148              		.loc 1 27 0
 149 0141 C7442404 		movl	$LC4, 4(%esp)
 149      D0000000 
 150 0149 C7042400 		movl	$__ZSt4cout, (%esp)
 150      000000
 151 0150 E8000000 		call	__ZStlsISt11char_traitsIcEERSt13basic_ostreamIcT_ES5_PKc
 151      00
 152 0155 C7042400 		movl	$__ZSt4endlIcSt11char_traitsIcEERSt13basic_ostreamIT_T0_ES6_, (%esp)
 152      000000
 153 015c 89C1     		movl	%eax, %ecx
 154 015e E8000000 		call	__ZNSolsEPFRSoS_E
 154      00
 155 0163 83EC04   		subl	$4, %esp
  28:C:/Users/Njáll Mýrdal/3viknanamskeid/LitidVerk1/Verkefni2/Vikuverk2/src/ui\Main_ui.cpp ****         cout << "| 4. Get the highest paid employee by year        |" << endl;
 156              		.loc 1 28 0
 157 0166 C7442404 		movl	$LC7, 4(%esp)
 157      6C010000 
 158 016e C7042400 		movl	$__ZSt4cout, (%esp)
 158      000000
 159 0175 E8000000 		call	__ZStlsISt11char_traitsIcEERSt13basic_ostreamIcT_ES5_PKc
 159      00
 160 017a C7042400 		movl	$__ZSt4endlIcSt11char_traitsIcEERSt13basic_ostreamIT_T0_ES6_, (%esp)
 160      000000
 161 0181 89C1     		movl	%eax, %ecx
 162 0183 E8000000 		call	__ZNSolsEPFRSoS_E
 162      00
 163 0188 83EC04   		subl	$4, %esp
  29:C:/Users/Njáll Mýrdal/3viknanamskeid/LitidVerk1/Verkefni2/Vikuverk2/src/ui\Main_ui.cpp ****         cout << "|                                                 |" << endl;
 164              		.loc 1 29 0
 165 018b C7442404 		movl	$LC4, 4(%esp)
GAS LISTING C:\Users\NJLLMR~1\AppData\Local\Temp\ccWOhw13.s 			page 6


 165      D0000000 
 166 0193 C7042400 		movl	$__ZSt4cout, (%esp)
 166      000000
 167 019a E8000000 		call	__ZStlsISt11char_traitsIcEERSt13basic_ostreamIcT_ES5_PKc
 167      00
 168 019f C7042400 		movl	$__ZSt4endlIcSt11char_traitsIcEERSt13basic_ostreamIT_T0_ES6_, (%esp)
 168      000000
 169 01a6 89C1     		movl	%eax, %ecx
 170 01a8 E8000000 		call	__ZNSolsEPFRSoS_E
 170      00
 171 01ad 83EC04   		subl	$4, %esp
  30:C:/Users/Njáll Mýrdal/3viknanamskeid/LitidVerk1/Verkefni2/Vikuverk2/src/ui\Main_ui.cpp ****         cout << "| 5. quit the program                             |" << endl;
 172              		.loc 1 30 0
 173 01b0 C7442404 		movl	$LC8, 4(%esp)
 173      A0010000 
 174 01b8 C7042400 		movl	$__ZSt4cout, (%esp)
 174      000000
 175 01bf E8000000 		call	__ZStlsISt11char_traitsIcEERSt13basic_ostreamIcT_ES5_PKc
 175      00
 176 01c4 C7042400 		movl	$__ZSt4endlIcSt11char_traitsIcEERSt13basic_ostreamIT_T0_ES6_, (%esp)
 176      000000
 177 01cb 89C1     		movl	%eax, %ecx
 178 01cd E8000000 		call	__ZNSolsEPFRSoS_E
 178      00
 179 01d2 83EC04   		subl	$4, %esp
  31:C:/Users/Njáll Mýrdal/3viknanamskeid/LitidVerk1/Verkefni2/Vikuverk2/src/ui\Main_ui.cpp ****         cout << "|                                                 |" << endl;
 180              		.loc 1 31 0
 181 01d5 C7442404 		movl	$LC4, 4(%esp)
 181      D0000000 
 182 01dd C7042400 		movl	$__ZSt4cout, (%esp)
 182      000000
 183 01e4 E8000000 		call	__ZStlsISt11char_traitsIcEERSt13basic_ostreamIcT_ES5_PKc
 183      00
 184 01e9 C7042400 		movl	$__ZSt4endlIcSt11char_traitsIcEERSt13basic_ostreamIT_T0_ES6_, (%esp)
 184      000000
 185 01f0 89C1     		movl	%eax, %ecx
 186 01f2 E8000000 		call	__ZNSolsEPFRSoS_E
 186      00
 187 01f7 83EC04   		subl	$4, %esp
  32:C:/Users/Njáll Mýrdal/3viknanamskeid/LitidVerk1/Verkefni2/Vikuverk2/src/ui\Main_ui.cpp ****         cout << "---------------------------------------------------" << endl;
 188              		.loc 1 32 0
 189 01fa C7442404 		movl	$LC2, 4(%esp)
 189      68000000 
 190 0202 C7042400 		movl	$__ZSt4cout, (%esp)
 190      000000
 191 0209 E8000000 		call	__ZStlsISt11char_traitsIcEERSt13basic_ostreamIcT_ES5_PKc
 191      00
 192 020e C7042400 		movl	$__ZSt4endlIcSt11char_traitsIcEERSt13basic_ostreamIT_T0_ES6_, (%esp)
 192      000000
 193 0215 89C1     		movl	%eax, %ecx
 194 0217 E8000000 		call	__ZNSolsEPFRSoS_E
 194      00
 195 021c 83EC04   		subl	$4, %esp
  33:C:/Users/Njáll Mýrdal/3viknanamskeid/LitidVerk1/Verkefni2/Vikuverk2/src/ui\Main_ui.cpp ****         cout << "| Please input a number : ";
 196              		.loc 1 33 0
 197 021f C7442404 		movl	$LC9, 4(%esp)
 197      D4010000 
GAS LISTING C:\Users\NJLLMR~1\AppData\Local\Temp\ccWOhw13.s 			page 7


 198 0227 C7042400 		movl	$__ZSt4cout, (%esp)
 198      000000
 199 022e E8000000 		call	__ZStlsISt11char_traitsIcEERSt13basic_ostreamIcT_ES5_PKc
 199      00
  34:C:/Users/Njáll Mýrdal/3viknanamskeid/LitidVerk1/Verkefni2/Vikuverk2/src/ui\Main_ui.cpp ****         cin >> input;
 200              		.loc 1 34 0
 201 0233 8D45F7   		leal	-9(%ebp), %eax
 202 0236 89442404 		movl	%eax, 4(%esp)
 203 023a C7042400 		movl	$__ZSt3cin, (%esp)
 203      000000
 204 0241 E8000000 		call	__ZStrsIcSt11char_traitsIcEERSt13basic_istreamIT_T0_ES6_RS3_
 204      00
  35:C:/Users/Njáll Mýrdal/3viknanamskeid/LitidVerk1/Verkefni2/Vikuverk2/src/ui\Main_ui.cpp ****         if (input == '1') {
 205              		.loc 1 35 0
 206 0246 0FB645F7 		movzbl	-9(%ebp), %eax
 207 024a 3C31     		cmpb	$49, %al
 208 024c 7518     		jne	L3
  36:C:/Users/Njáll Mýrdal/3viknanamskeid/LitidVerk1/Verkefni2/Vikuverk2/src/ui\Main_ui.cpp ****             system("CLS");
 209              		.loc 1 36 0
 210 024e C70424EF 		movl	$LC10, (%esp)
 210      010000
 211 0255 E8000000 		call	_system
 211      00
  37:C:/Users/Njáll Mýrdal/3viknanamskeid/LitidVerk1/Verkefni2/Vikuverk2/src/ui\Main_ui.cpp ****             addEmplMenu();
 212              		.loc 1 37 0
 213 025a 8B45E4   		movl	-28(%ebp), %eax
 214 025d 89C1     		movl	%eax, %ecx
 215 025f E8740000 		call	__ZN7Main_ui11addEmplMenuEv
 215      00
 216 0264 EB6B     		jmp	L4
 217              	L3:
  38:C:/Users/Njáll Mýrdal/3viknanamskeid/LitidVerk1/Verkefni2/Vikuverk2/src/ui\Main_ui.cpp ****         }
  39:C:/Users/Njáll Mýrdal/3viknanamskeid/LitidVerk1/Verkefni2/Vikuverk2/src/ui\Main_ui.cpp ****         else if(input == '2') {
 218              		.loc 1 39 0
 219 0266 0FB645F7 		movzbl	-9(%ebp), %eax
 220 026a 3C32     		cmpb	$50, %al
 221 026c 750C     		jne	L5
  40:C:/Users/Njáll Mýrdal/3viknanamskeid/LitidVerk1/Verkefni2/Vikuverk2/src/ui\Main_ui.cpp ****             getRcrdMenu();
 222              		.loc 1 40 0
 223 026e 8B45E4   		movl	-28(%ebp), %eax
 224 0271 89C1     		movl	%eax, %ecx
 225 0273 E8AC0A00 		call	__ZN7Main_ui11getRcrdMenuEv
 225      00
 226 0278 EB57     		jmp	L4
 227              	L5:
  41:C:/Users/Njáll Mýrdal/3viknanamskeid/LitidVerk1/Verkefni2/Vikuverk2/src/ui\Main_ui.cpp ****         }
  42:C:/Users/Njáll Mýrdal/3viknanamskeid/LitidVerk1/Verkefni2/Vikuverk2/src/ui\Main_ui.cpp ****         else if(input == '3'){
 228              		.loc 1 42 0
 229 027a 0FB645F7 		movzbl	-9(%ebp), %eax
 230 027e 3C33     		cmpb	$51, %al
 231 0280 750C     		jne	L6
  43:C:/Users/Njáll Mýrdal/3viknanamskeid/LitidVerk1/Verkefni2/Vikuverk2/src/ui\Main_ui.cpp ****             getYrPayMenu();
 232              		.loc 1 43 0
 233 0282 8B45E4   		movl	-28(%ebp), %eax
 234 0285 89C1     		movl	%eax, %ecx
 235 0287 E8A40A00 		call	__ZN7Main_ui12getYrPayMenuEv
 235      00
GAS LISTING C:\Users\NJLLMR~1\AppData\Local\Temp\ccWOhw13.s 			page 8


 236 028c EB43     		jmp	L4
 237              	L6:
  44:C:/Users/Njáll Mýrdal/3viknanamskeid/LitidVerk1/Verkefni2/Vikuverk2/src/ui\Main_ui.cpp ****         }
  45:C:/Users/Njáll Mýrdal/3viknanamskeid/LitidVerk1/Verkefni2/Vikuverk2/src/ui\Main_ui.cpp ****         else if(input == '4') {
 238              		.loc 1 45 0
 239 028e 0FB645F7 		movzbl	-9(%ebp), %eax
 240 0292 3C34     		cmpb	$52, %al
 241 0294 750C     		jne	L7
  46:C:/Users/Njáll Mýrdal/3viknanamskeid/LitidVerk1/Verkefni2/Vikuverk2/src/ui\Main_ui.cpp ****             getHiPayMenu();
 242              		.loc 1 46 0
 243 0296 8B45E4   		movl	-28(%ebp), %eax
 244 0299 89C1     		movl	%eax, %ecx
 245 029b E89C0A00 		call	__ZN7Main_ui12getHiPayMenuEv
 245      00
 246 02a0 EB2F     		jmp	L4
 247              	L7:
  47:C:/Users/Njáll Mýrdal/3viknanamskeid/LitidVerk1/Verkefni2/Vikuverk2/src/ui\Main_ui.cpp ****         }
  48:C:/Users/Njáll Mýrdal/3viknanamskeid/LitidVerk1/Verkefni2/Vikuverk2/src/ui\Main_ui.cpp ****         else if (input == '5') {
 248              		.loc 1 48 0
 249 02a2 0FB645F7 		movzbl	-9(%ebp), %eax
 250 02a6 3C35     		cmpb	$53, %al
 251 02a8 7502     		jne	L8
  49:C:/Users/Njáll Mýrdal/3viknanamskeid/LitidVerk1/Verkefni2/Vikuverk2/src/ui\Main_ui.cpp ****             break;
 252              		.loc 1 49 0
 253 02aa EB2A     		jmp	L11
 254              	L8:
  50:C:/Users/Njáll Mýrdal/3viknanamskeid/LitidVerk1/Verkefni2/Vikuverk2/src/ui\Main_ui.cpp ****         }
  51:C:/Users/Njáll Mýrdal/3viknanamskeid/LitidVerk1/Verkefni2/Vikuverk2/src/ui\Main_ui.cpp ****         else {
  52:C:/Users/Njáll Mýrdal/3viknanamskeid/LitidVerk1/Verkefni2/Vikuverk2/src/ui\Main_ui.cpp ****             cout << "Invalid input -- try again" << endl;
 255              		.loc 1 52 0
 256 02ac C7442404 		movl	$LC11, 4(%esp)
 256      F3010000 
 257 02b4 C7042400 		movl	$__ZSt4cout, (%esp)
 257      000000
 258 02bb E8000000 		call	__ZStlsISt11char_traitsIcEERSt13basic_ostreamIcT_ES5_PKc
 258      00
 259 02c0 C7042400 		movl	$__ZSt4endlIcSt11char_traitsIcEERSt13basic_ostreamIT_T0_ES6_, (%esp)
 259      000000
 260 02c7 89C1     		movl	%eax, %ecx
 261 02c9 E8000000 		call	__ZNSolsEPFRSoS_E
 261      00
 262 02ce 83EC04   		subl	$4, %esp
 263              	L4:
  53:C:/Users/Njáll Mýrdal/3viknanamskeid/LitidVerk1/Verkefni2/Vikuverk2/src/ui\Main_ui.cpp ****         }
  54:C:/Users/Njáll Mýrdal/3viknanamskeid/LitidVerk1/Verkefni2/Vikuverk2/src/ui\Main_ui.cpp ****         
  55:C:/Users/Njáll Mýrdal/3viknanamskeid/LitidVerk1/Verkefni2/Vikuverk2/src/ui\Main_ui.cpp ****     }
 264              		.loc 1 55 0
 265 02d1 E943FDFF 		jmp	L10
 265      FF
 266              	L11:
 267              	LBE2:
  56:C:/Users/Njáll Mýrdal/3viknanamskeid/LitidVerk1/Verkefni2/Vikuverk2/src/ui\Main_ui.cpp ****     
  57:C:/Users/Njáll Mýrdal/3viknanamskeid/LitidVerk1/Verkefni2/Vikuverk2/src/ui\Main_ui.cpp ****     
  58:C:/Users/Njáll Mýrdal/3viknanamskeid/LitidVerk1/Verkefni2/Vikuverk2/src/ui\Main_ui.cpp **** }
 268              		.loc 1 58 0
 269 02d6 C9       		leave
 270              		.cfi_restore 5
GAS LISTING C:\Users\NJLLMR~1\AppData\Local\Temp\ccWOhw13.s 			page 9


 271              		.cfi_def_cfa 4, 4
 272 02d7 C3       		ret
 273              		.cfi_endproc
 274              	LFE1139:
 275              		.section .rdata,"dr"
 276 020e 0000     		.align 4
 277              	LC12:
 278 0210 20202020 		.ascii "                                                   \0"
 278      20202020 
 278      20202020 
 278      20202020 
 278      20202020 
 279              		.align 4
 280              	LC13:
 281 0244 20202020 		.ascii "    Here you can add employees to the registry     \0"
 281      48657265 
 281      20796F75 
 281      2063616E 
 281      20616464 
 282              		.align 4
 283              	LC14:
 284 0278 7C202020 		.ascii "|                                                  \0"
 284      20202020 
 284      20202020 
 284      20202020 
 284      20202020 
 285              		.align 4
 286              	LC15:
 287 02ac 7C20486F 		.ascii "| How many employees do you wan't to add? : \0"
 287      77206D61 
 287      6E792065 
 287      6D706C6F 
 287      79656573 
 288              	LC16:
 289 02d9 7C20456E 		.ascii "| Enter a name: \0"
 289      74657220 
 289      61206E61 
 289      6D653A20 
 289      00
 290              	LC17:
 291 02ea 7C20696E 		.ascii "| invalid input -- try again\0"
 291      76616C69 
 291      6420696E 
 291      70757420 
 291      2D2D2074 
 292 0307 00       		.align 4
 293              	LC18:
 294 0308 7C20536F 		.ascii "| Social Security Number (10 digits only): \0"
 294      6369616C 
 294      20536563 
 294      75726974 
 294      79204E75 
 295              	LC19:
 296 0334 7C20456E 		.ascii "| Enter monthly salary: \0"
 296      74657220 
 296      6D6F6E74 
 296      686C7920 
GAS LISTING C:\Users\NJLLMR~1\AppData\Local\Temp\ccWOhw13.s 			page 10


 296      73616C61 
 297              	LC20:
 298 034d 7C20456E 		.ascii "| Enter a month (1 - 12): \0"
 298      74657220 
 298      61206D6F 
 298      6E746820 
 298      2831202D 
 299              	LC21:
 300 0368 7C20456E 		.ascii "| Enter a year :\0"
 300      74657220 
 300      61207965 
 300      6172203A 
 300      00
 301 0379 000000   		.align 4
 302              	LC22:
 303 037c 7C20696E 		.ascii "| invalid input -- Month (1 - 12) Year (2017 or below)\0"
 303      76616C69 
 303      6420696E 
 303      70757420 
 303      2D2D204D 
 304              	LC23:
 305 03b3 7C00     		.ascii "|\0"
 306 03b5 000000   		.align 4
 307              	LC24:
 308 03b8 7C20506C 		.ascii "| Please input another employee: \0"
 308      65617365 
 308      20696E70 
 308      75742061 
 308      6E6F7468 
 312              		.text
 313              		.align 2
 314              		.globl	__ZN7Main_ui11addEmplMenuEv
 316              	__ZN7Main_ui11addEmplMenuEv:
 317              	LFB1140:
  59:C:/Users/Njáll Mýrdal/3viknanamskeid/LitidVerk1/Verkefni2/Vikuverk2/src/ui\Main_ui.cpp **** 
  60:C:/Users/Njáll Mýrdal/3viknanamskeid/LitidVerk1/Verkefni2/Vikuverk2/src/ui\Main_ui.cpp **** void Main_ui::addEmplMenu(){
 318              		.loc 1 60 0
 319              		.cfi_startproc
 320              		.cfi_personality 0,___gxx_personality_sj0
 321              		.cfi_lsda 0,LLSDA1140
 322 02d8 55       		pushl	%ebp
 323              		.cfi_def_cfa_offset 8
 324              		.cfi_offset 5, -8
 325 02d9 89E5     		movl	%esp, %ebp
 326              		.cfi_def_cfa_register 5
 327 02db 57       		pushl	%edi
 328 02dc 56       		pushl	%esi
 329 02dd 53       		pushl	%ebx
 330 02de 81ECCC00 		subl	$204, %esp
 330      0000
 331              		.cfi_offset 7, -12
 332              		.cfi_offset 6, -16
 333              		.cfi_offset 3, -20
 334 02e4 894D94   		movl	%ecx, -108(%ebp)
 335 02e7 C78578FF 		movl	$___gxx_personality_sj0, -136(%ebp)
 335      FFFF0000 
 335      0000
GAS LISTING C:\Users\NJLLMR~1\AppData\Local\Temp\ccWOhw13.s 			page 11


 336 02f1 C7857CFF 		movl	$LLSDA1140, -132(%ebp)
 336      FFFF0000 
 336      0000
 337 02fb 8D4580   		leal	-128(%ebp), %eax
 338 02fe 8D5DE8   		leal	-24(%ebp), %ebx
 339 0301 8918     		movl	%ebx, (%eax)
 340 0303 BAB40C00 		movl	$L51, %edx
 340      00
 341 0308 895004   		movl	%edx, 4(%eax)
 342 030b 896008   		movl	%esp, 8(%eax)
 343 030e 8D8560FF 		leal	-160(%ebp), %eax
 343      FFFF
 344 0314 890424   		movl	%eax, (%esp)
 345 0317 E8000000 		call	__Unwind_SjLj_Register
 345      00
 346              	LBB3:
  61:C:/Users/Njáll Mýrdal/3viknanamskeid/LitidVerk1/Verkefni2/Vikuverk2/src/ui\Main_ui.cpp **** 
  62:C:/Users/Njáll Mýrdal/3viknanamskeid/LitidVerk1/Verkefni2/Vikuverk2/src/ui\Main_ui.cpp ****     Validate validate;
 347              		.loc 1 62 0
 348 031c 8D45B7   		leal	-73(%ebp), %eax
 349 031f C78564FF 		movl	$-1, -156(%ebp)
 349      FFFFFFFF 
 349      FFFF
 350 0329 89C1     		movl	%eax, %ecx
 351 032b E8000000 		call	__ZN8ValidateC1Ev
 351      00
  63:C:/Users/Njáll Mýrdal/3viknanamskeid/LitidVerk1/Verkefni2/Vikuverk2/src/ui\Main_ui.cpp ****     char input_ch = '\0';
 352              		.loc 1 63 0
 353 0330 C645B600 		movb	$0, -74(%ebp)
  64:C:/Users/Njáll Mýrdal/3viknanamskeid/LitidVerk1/Verkefni2/Vikuverk2/src/ui\Main_ui.cpp ****     string tmpName;
 354              		.loc 1 64 0
 355 0334 8D45B0   		leal	-80(%ebp), %eax
 356 0337 89C1     		movl	%eax, %ecx
 357 0339 E8000000 		call	__ZNSsC1Ev
 357      00
  65:C:/Users/Njáll Mýrdal/3viknanamskeid/LitidVerk1/Verkefni2/Vikuverk2/src/ui\Main_ui.cpp ****     string tmpSSN;
 358              		.loc 1 65 0
 359 033e 8D45AC   		leal	-84(%ebp), %eax
 360 0341 C78564FF 		movl	$1, -156(%ebp)
 360      FFFF0100 
 360      0000
 361 034b 89C1     		movl	%eax, %ecx
 362 034d E8000000 		call	__ZNSsC1Ev
 362      00
  66:C:/Users/Njáll Mýrdal/3viknanamskeid/LitidVerk1/Verkefni2/Vikuverk2/src/ui\Main_ui.cpp ****     string tmpSalary;
 363              		.loc 1 66 0
 364 0352 8D45A8   		leal	-88(%ebp), %eax
 365 0355 C78564FF 		movl	$2, -156(%ebp)
 365      FFFF0200 
 365      0000
 366 035f 89C1     		movl	%eax, %ecx
 367 0361 E8000000 		call	__ZNSsC1Ev
 367      00
  67:C:/Users/Njáll Mýrdal/3viknanamskeid/LitidVerk1/Verkefni2/Vikuverk2/src/ui\Main_ui.cpp ****     string tmpMonth, tmpYear;
 368              		.loc 1 67 0
 369 0366 8D45A4   		leal	-92(%ebp), %eax
 370 0369 C78564FF 		movl	$3, -156(%ebp)
GAS LISTING C:\Users\NJLLMR~1\AppData\Local\Temp\ccWOhw13.s 			page 12


 370      FFFF0300 
 370      0000
 371 0373 89C1     		movl	%eax, %ecx
 372 0375 E8000000 		call	__ZNSsC1Ev
 372      00
 373              		.loc 1 67 0 is_stmt 0 discriminator 1
 374 037a 8D45A0   		leal	-96(%ebp), %eax
 375 037d C78564FF 		movl	$4, -156(%ebp)
 375      FFFF0400 
 375      0000
 376 0387 89C1     		movl	%eax, %ecx
 377 0389 E8000000 		call	__ZNSsC1Ev
 377      00
  68:C:/Users/Njáll Mýrdal/3viknanamskeid/LitidVerk1/Verkefni2/Vikuverk2/src/ui\Main_ui.cpp ****     cout << "                                                   " << endl;
 378              		.loc 1 68 0 is_stmt 1
 379 038e C7442404 		movl	$LC12, 4(%esp)
 379      10020000 
 380 0396 C7042400 		movl	$__ZSt4cout, (%esp)
 380      000000
 381 039d C78564FF 		movl	$5, -156(%ebp)
 381      FFFF0500 
 381      0000
 382 03a7 E8000000 		call	__ZStlsISt11char_traitsIcEERSt13basic_ostreamIcT_ES5_PKc
 382      00
 383 03ac C7042400 		movl	$__ZSt4endlIcSt11char_traitsIcEERSt13basic_ostreamIT_T0_ES6_, (%esp)
 383      000000
 384 03b3 89C1     		movl	%eax, %ecx
 385 03b5 E8000000 		call	__ZNSolsEPFRSoS_E
 385      00
 386              		.loc 1 68 0 is_stmt 0 discriminator 1
 387 03ba 83EC04   		subl	$4, %esp
  69:C:/Users/Njáll Mýrdal/3viknanamskeid/LitidVerk1/Verkefni2/Vikuverk2/src/ui\Main_ui.cpp ****     cout << "    Here you can add employees to the registry     " << endl;
 388              		.loc 1 69 0 is_stmt 1 discriminator 1
 389 03bd C7442404 		movl	$LC13, 4(%esp)
 389      44020000 
 390 03c5 C7042400 		movl	$__ZSt4cout, (%esp)
 390      000000
 391 03cc E8000000 		call	__ZStlsISt11char_traitsIcEERSt13basic_ostreamIcT_ES5_PKc
 391      00
 392              		.loc 1 69 0 is_stmt 0
 393 03d1 C7042400 		movl	$__ZSt4endlIcSt11char_traitsIcEERSt13basic_ostreamIT_T0_ES6_, (%esp)
 393      000000
 394 03d8 89C1     		movl	%eax, %ecx
 395 03da E8000000 		call	__ZNSolsEPFRSoS_E
 395      00
 396              		.loc 1 69 0 discriminator 1
 397 03df 83EC04   		subl	$4, %esp
  70:C:/Users/Njáll Mýrdal/3viknanamskeid/LitidVerk1/Verkefni2/Vikuverk2/src/ui\Main_ui.cpp ****     cout << "---------------------------------------------------" << endl;
 398              		.loc 1 70 0 is_stmt 1 discriminator 1
 399 03e2 C7442404 		movl	$LC2, 4(%esp)
 399      68000000 
 400 03ea C7042400 		movl	$__ZSt4cout, (%esp)
 400      000000
 401 03f1 E8000000 		call	__ZStlsISt11char_traitsIcEERSt13basic_ostreamIcT_ES5_PKc
 401      00
 402              		.loc 1 70 0 is_stmt 0
 403 03f6 C7042400 		movl	$__ZSt4endlIcSt11char_traitsIcEERSt13basic_ostreamIT_T0_ES6_, (%esp)
GAS LISTING C:\Users\NJLLMR~1\AppData\Local\Temp\ccWOhw13.s 			page 13


 403      000000
 404 03fd 89C1     		movl	%eax, %ecx
 405 03ff E8000000 		call	__ZNSolsEPFRSoS_E
 405      00
 406              		.loc 1 70 0 discriminator 1
 407 0404 83EC04   		subl	$4, %esp
  71:C:/Users/Njáll Mýrdal/3viknanamskeid/LitidVerk1/Verkefni2/Vikuverk2/src/ui\Main_ui.cpp ****     cout << "|                                                  " << endl;
 408              		.loc 1 71 0 is_stmt 1 discriminator 1
 409 0407 C7442404 		movl	$LC14, 4(%esp)
 409      78020000 
 410 040f C7042400 		movl	$__ZSt4cout, (%esp)
 410      000000
 411 0416 E8000000 		call	__ZStlsISt11char_traitsIcEERSt13basic_ostreamIcT_ES5_PKc
 411      00
 412              		.loc 1 71 0 is_stmt 0
 413 041b C7042400 		movl	$__ZSt4endlIcSt11char_traitsIcEERSt13basic_ostreamIT_T0_ES6_, (%esp)
 413      000000
 414 0422 89C1     		movl	%eax, %ecx
 415 0424 E8000000 		call	__ZNSolsEPFRSoS_E
 415      00
 416              		.loc 1 71 0 discriminator 1
 417 0429 83EC04   		subl	$4, %esp
  72:C:/Users/Njáll Mýrdal/3viknanamskeid/LitidVerk1/Verkefni2/Vikuverk2/src/ui\Main_ui.cpp ****     cout << "| How many employees do you wan't to add? : ";
 418              		.loc 1 72 0 is_stmt 1 discriminator 1
 419 042c C7442404 		movl	$LC15, 4(%esp)
 419      AC020000 
 420 0434 C7042400 		movl	$__ZSt4cout, (%esp)
 420      000000
 421 043b E8000000 		call	__ZStlsISt11char_traitsIcEERSt13basic_ostreamIcT_ES5_PKc
 421      00
  73:C:/Users/Njáll Mýrdal/3viknanamskeid/LitidVerk1/Verkefni2/Vikuverk2/src/ui\Main_ui.cpp ****     cin >> input_ch;
 422              		.loc 1 73 0
 423 0440 8D45B6   		leal	-74(%ebp), %eax
 424 0443 89442404 		movl	%eax, 4(%esp)
 425 0447 C7042400 		movl	$__ZSt3cin, (%esp)
 425      000000
 426 044e E8000000 		call	__ZStrsIcSt11char_traitsIcEERSt13basic_istreamIT_T0_ES6_RS3_
 426      00
  74:C:/Users/Njáll Mýrdal/3viknanamskeid/LitidVerk1/Verkefni2/Vikuverk2/src/ui\Main_ui.cpp ****     int input = input_ch - '0';
 427              		.loc 1 74 0
 428 0453 0FB645B6 		movzbl	-74(%ebp), %eax
 429 0457 0FBEC0   		movsbl	%al, %eax
 430 045a 83E830   		subl	$48, %eax
 431 045d 8945E0   		movl	%eax, -32(%ebp)
 432              	LBB4:
  75:C:/Users/Njáll Mýrdal/3viknanamskeid/LitidVerk1/Verkefni2/Vikuverk2/src/ui\Main_ui.cpp ****     for(int i = 0; i < input; i++){
 433              		.loc 1 75 0
 434 0460 C745E400 		movl	$0, -28(%ebp)
 434      000000
 435 0467 E94D0500 		jmp	L13
 435      00
 436              	L17:
 437              	LBB5:
  76:C:/Users/Njáll Mýrdal/3viknanamskeid/LitidVerk1/Verkefni2/Vikuverk2/src/ui\Main_ui.cpp ****             
  77:C:/Users/Njáll Mýrdal/3viknanamskeid/LitidVerk1/Verkefni2/Vikuverk2/src/ui\Main_ui.cpp ****         while(true){
  78:C:/Users/Njáll Mýrdal/3viknanamskeid/LitidVerk1/Verkefni2/Vikuverk2/src/ui\Main_ui.cpp ****             cout << "| Enter a name: ";
 438              		.loc 1 78 0
GAS LISTING C:\Users\NJLLMR~1\AppData\Local\Temp\ccWOhw13.s 			page 14


 439 046c C7442404 		movl	$LC16, 4(%esp)
 439      D9020000 
 440 0474 C7042400 		movl	$__ZSt4cout, (%esp)
 440      000000
 441 047b C78564FF 		movl	$5, -156(%ebp)
 441      FFFF0500 
 441      0000
 442 0485 E8000000 		call	__ZStlsISt11char_traitsIcEERSt13basic_ostreamIcT_ES5_PKc
 442      00
  79:C:/Users/Njáll Mýrdal/3viknanamskeid/LitidVerk1/Verkefni2/Vikuverk2/src/ui\Main_ui.cpp ****             cin.ignore();
 443              		.loc 1 79 0
 444 048a B9000000 		movl	$__ZSt3cin, %ecx
 444      00
 445 048f E8000000 		call	__ZNSi6ignoreEv
 445      00
  80:C:/Users/Njáll Mýrdal/3viknanamskeid/LitidVerk1/Verkefni2/Vikuverk2/src/ui\Main_ui.cpp ****             getline(cin, tmpName);
 446              		.loc 1 80 0
 447 0494 8D45B0   		leal	-80(%ebp), %eax
 448 0497 89442404 		movl	%eax, 4(%esp)
 449 049b C7042400 		movl	$__ZSt3cin, (%esp)
 449      000000
 450 04a2 E8000000 		call	__ZSt7getlineIcSt11char_traitsIcESaIcEERSt13basic_istreamIT_T0_ES7_RSbIS4_S5_T1_E
 450      00
  81:C:/Users/Njáll Mýrdal/3viknanamskeid/LitidVerk1/Verkefni2/Vikuverk2/src/ui\Main_ui.cpp ****             if (!validate.validateName(tmpName)){
 451              		.loc 1 81 0
 452 04a7 8D45B8   		leal	-72(%ebp), %eax
 453 04aa 8D55B0   		leal	-80(%ebp), %edx
 454 04ad 891424   		movl	%edx, (%esp)
 455 04b0 89C1     		movl	%eax, %ecx
 456 04b2 E8000000 		call	__ZNSsC1ERKSs
 456      00
 457 04b7 83EC04   		subl	$4, %esp
 458 04ba 8D45B7   		leal	-73(%ebp), %eax
 459 04bd 8D55B8   		leal	-72(%ebp), %edx
 460 04c0 891424   		movl	%edx, (%esp)
 461 04c3 C78564FF 		movl	$6, -156(%ebp)
 461      FFFF0600 
 461      0000
 462 04cd 89C1     		movl	%eax, %ecx
 463 04cf E8000000 		call	__ZN8Validate12validateNameESs
 463      00
 464              		.loc 1 81 0 is_stmt 0 discriminator 1
 465 04d4 83EC04   		subl	$4, %esp
 466 04d7 83F001   		xorl	$1, %eax
 467 04da 888554FF 		movb	%al, -172(%ebp)
 467      FFFF
 468 04e0 8D45B8   		leal	-72(%ebp), %eax
 469 04e3 C78564FF 		movl	$5, -156(%ebp)
 469      FFFF0500 
 469      0000
 470 04ed 89C1     		movl	%eax, %ecx
 471 04ef E8000000 		call	__ZNSsD1Ev
 471      00
 472              		.loc 1 81 0 discriminator 4
 473 04f4 80BD54FF 		cmpb	$0, -172(%ebp)
 473      FFFF00
 474 04fb 742A     		je	L14
GAS LISTING C:\Users\NJLLMR~1\AppData\Local\Temp\ccWOhw13.s 			page 15


  82:C:/Users/Njáll Mýrdal/3viknanamskeid/LitidVerk1/Verkefni2/Vikuverk2/src/ui\Main_ui.cpp ****                 cout << "| invalid input -- try again" << endl;
 475              		.loc 1 82 0 is_stmt 1
 476 04fd C7442404 		movl	$LC17, 4(%esp)
 476      EA020000 
 477 0505 C7042400 		movl	$__ZSt4cout, (%esp)
 477      000000
 478 050c E8000000 		call	__ZStlsISt11char_traitsIcEERSt13basic_ostreamIcT_ES5_PKc
 478      00
 479 0511 C7042400 		movl	$__ZSt4endlIcSt11char_traitsIcEERSt13basic_ostreamIT_T0_ES6_, (%esp)
 479      000000
 480 0518 89C1     		movl	%eax, %ecx
 481 051a E8000000 		call	__ZNSolsEPFRSoS_E
 481      00
 482              		.loc 1 82 0 is_stmt 0 discriminator 1
 483 051f 83EC04   		subl	$4, %esp
 484 0522 E945FFFF 		jmp	L17
 484      FF
 485              	L14:
 486              	L16:
  83:C:/Users/Njáll Mýrdal/3viknanamskeid/LitidVerk1/Verkefni2/Vikuverk2/src/ui\Main_ui.cpp ****             }
  84:C:/Users/Njáll Mýrdal/3viknanamskeid/LitidVerk1/Verkefni2/Vikuverk2/src/ui\Main_ui.cpp ****             else{
  85:C:/Users/Njáll Mýrdal/3viknanamskeid/LitidVerk1/Verkefni2/Vikuverk2/src/ui\Main_ui.cpp ****                 break;
  86:C:/Users/Njáll Mýrdal/3viknanamskeid/LitidVerk1/Verkefni2/Vikuverk2/src/ui\Main_ui.cpp ****             }
  87:C:/Users/Njáll Mýrdal/3viknanamskeid/LitidVerk1/Verkefni2/Vikuverk2/src/ui\Main_ui.cpp ****         }
  88:C:/Users/Njáll Mýrdal/3viknanamskeid/LitidVerk1/Verkefni2/Vikuverk2/src/ui\Main_ui.cpp ****         while(true) {
  89:C:/Users/Njáll Mýrdal/3viknanamskeid/LitidVerk1/Verkefni2/Vikuverk2/src/ui\Main_ui.cpp ****             cout << "| Social Security Number (10 digits only): ";
 487              		.loc 1 89 0 is_stmt 1
 488 0527 C7442404 		movl	$LC18, 4(%esp)
 488      08030000 
 489 052f C7042400 		movl	$__ZSt4cout, (%esp)
 489      000000
 490 0536 C78564FF 		movl	$5, -156(%ebp)
 490      FFFF0500 
 490      0000
 491 0540 E8000000 		call	__ZStlsISt11char_traitsIcEERSt13basic_ostreamIcT_ES5_PKc
 491      00
  90:C:/Users/Njáll Mýrdal/3viknanamskeid/LitidVerk1/Verkefni2/Vikuverk2/src/ui\Main_ui.cpp ****             cin >> tmpSSN;
 492              		.loc 1 90 0
 493 0545 8D45AC   		leal	-84(%ebp), %eax
 494 0548 89442404 		movl	%eax, 4(%esp)
 495 054c C7042400 		movl	$__ZSt3cin, (%esp)
 495      000000
 496 0553 E8000000 		call	__ZStrsIcSt11char_traitsIcESaIcEERSt13basic_istreamIT_T0_ES7_RSbIS4_S5_T1_E
 496      00
  91:C:/Users/Njáll Mýrdal/3viknanamskeid/LitidVerk1/Verkefni2/Vikuverk2/src/ui\Main_ui.cpp ****             if(!validate.validateSSN(tmpSSN)) {
 497              		.loc 1 91 0
 498 0558 8D45BC   		leal	-68(%ebp), %eax
 499 055b 8D55AC   		leal	-84(%ebp), %edx
 500 055e 891424   		movl	%edx, (%esp)
 501 0561 89C1     		movl	%eax, %ecx
 502 0563 E8000000 		call	__ZNSsC1ERKSs
 502      00
 503 0568 83EC04   		subl	$4, %esp
 504 056b 8D45B7   		leal	-73(%ebp), %eax
 505 056e 8D55BC   		leal	-68(%ebp), %edx
 506 0571 891424   		movl	%edx, (%esp)
 507 0574 C78564FF 		movl	$7, -156(%ebp)
GAS LISTING C:\Users\NJLLMR~1\AppData\Local\Temp\ccWOhw13.s 			page 16


 507      FFFF0700 
 507      0000
 508 057e 89C1     		movl	%eax, %ecx
 509 0580 E8000000 		call	__ZN8Validate11validateSSNESs
 509      00
 510              		.loc 1 91 0 is_stmt 0 discriminator 1
 511 0585 83EC04   		subl	$4, %esp
 512 0588 83F001   		xorl	$1, %eax
 513 058b 888554FF 		movb	%al, -172(%ebp)
 513      FFFF
 514 0591 8D45BC   		leal	-68(%ebp), %eax
 515 0594 C78564FF 		movl	$5, -156(%ebp)
 515      FFFF0500 
 515      0000
 516 059e 89C1     		movl	%eax, %ecx
 517 05a0 E8000000 		call	__ZNSsD1Ev
 517      00
 518              		.loc 1 91 0 discriminator 4
 519 05a5 80BD54FF 		cmpb	$0, -172(%ebp)
 519      FFFF00
 520 05ac 742A     		je	L18
  92:C:/Users/Njáll Mýrdal/3viknanamskeid/LitidVerk1/Verkefni2/Vikuverk2/src/ui\Main_ui.cpp ****                 cout << "| invalid input -- try again" << endl;
 521              		.loc 1 92 0 is_stmt 1
 522 05ae C7442404 		movl	$LC17, 4(%esp)
 522      EA020000 
 523 05b6 C7042400 		movl	$__ZSt4cout, (%esp)
 523      000000
 524 05bd E8000000 		call	__ZStlsISt11char_traitsIcEERSt13basic_ostreamIcT_ES5_PKc
 524      00
 525 05c2 C7042400 		movl	$__ZSt4endlIcSt11char_traitsIcEERSt13basic_ostreamIT_T0_ES6_, (%esp)
 525      000000
 526 05c9 89C1     		movl	%eax, %ecx
 527 05cb E8000000 		call	__ZNSolsEPFRSoS_E
 527      00
 528              		.loc 1 92 0 is_stmt 0 discriminator 1
 529 05d0 83EC04   		subl	$4, %esp
 530 05d3 E94FFFFF 		jmp	L16
 530      FF
 531              	L18:
 532              	L20:
  93:C:/Users/Njáll Mýrdal/3viknanamskeid/LitidVerk1/Verkefni2/Vikuverk2/src/ui\Main_ui.cpp ****             }
  94:C:/Users/Njáll Mýrdal/3viknanamskeid/LitidVerk1/Verkefni2/Vikuverk2/src/ui\Main_ui.cpp ****             else {
  95:C:/Users/Njáll Mýrdal/3viknanamskeid/LitidVerk1/Verkefni2/Vikuverk2/src/ui\Main_ui.cpp ****                 break;
  96:C:/Users/Njáll Mýrdal/3viknanamskeid/LitidVerk1/Verkefni2/Vikuverk2/src/ui\Main_ui.cpp ****             }
  97:C:/Users/Njáll Mýrdal/3viknanamskeid/LitidVerk1/Verkefni2/Vikuverk2/src/ui\Main_ui.cpp ****         }
  98:C:/Users/Njáll Mýrdal/3viknanamskeid/LitidVerk1/Verkefni2/Vikuverk2/src/ui\Main_ui.cpp ****         while(true) {
  99:C:/Users/Njáll Mýrdal/3viknanamskeid/LitidVerk1/Verkefni2/Vikuverk2/src/ui\Main_ui.cpp ****             cout << "| Enter monthly salary: ";
 533              		.loc 1 99 0 is_stmt 1
 534 05d8 C7442404 		movl	$LC19, 4(%esp)
 534      34030000 
 535 05e0 C7042400 		movl	$__ZSt4cout, (%esp)
 535      000000
 536 05e7 C78564FF 		movl	$5, -156(%ebp)
 536      FFFF0500 
 536      0000
 537 05f1 E8000000 		call	__ZStlsISt11char_traitsIcEERSt13basic_ostreamIcT_ES5_PKc
 537      00
GAS LISTING C:\Users\NJLLMR~1\AppData\Local\Temp\ccWOhw13.s 			page 17


 100:C:/Users/Njáll Mýrdal/3viknanamskeid/LitidVerk1/Verkefni2/Vikuverk2/src/ui\Main_ui.cpp ****                 cin >> tmpSalary;
 538              		.loc 1 100 0
 539 05f6 8D45A8   		leal	-88(%ebp), %eax
 540 05f9 89442404 		movl	%eax, 4(%esp)
 541 05fd C7042400 		movl	$__ZSt3cin, (%esp)
 541      000000
 542 0604 E8000000 		call	__ZStrsIcSt11char_traitsIcESaIcEERSt13basic_istreamIT_T0_ES7_RSbIS4_S5_T1_E
 542      00
 101:C:/Users/Njáll Mýrdal/3viknanamskeid/LitidVerk1/Verkefni2/Vikuverk2/src/ui\Main_ui.cpp ****             if(!validate.validateSalary(tmpSalary)) {
 543              		.loc 1 101 0
 544 0609 8D45C0   		leal	-64(%ebp), %eax
 545 060c 8D55A8   		leal	-88(%ebp), %edx
 546 060f 891424   		movl	%edx, (%esp)
 547 0612 89C1     		movl	%eax, %ecx
 548 0614 E8000000 		call	__ZNSsC1ERKSs
 548      00
 549 0619 83EC04   		subl	$4, %esp
 550 061c 8D45B7   		leal	-73(%ebp), %eax
 551 061f 8D55C0   		leal	-64(%ebp), %edx
 552 0622 891424   		movl	%edx, (%esp)
 553 0625 C78564FF 		movl	$8, -156(%ebp)
 553      FFFF0800 
 553      0000
 554 062f 89C1     		movl	%eax, %ecx
 555 0631 E8000000 		call	__ZN8Validate14validateSalaryESs
 555      00
 556              		.loc 1 101 0 is_stmt 0 discriminator 1
 557 0636 83EC04   		subl	$4, %esp
 558 0639 83F001   		xorl	$1, %eax
 559 063c 888554FF 		movb	%al, -172(%ebp)
 559      FFFF
 560 0642 8D45C0   		leal	-64(%ebp), %eax
 561 0645 C78564FF 		movl	$5, -156(%ebp)
 561      FFFF0500 
 561      0000
 562 064f 89C1     		movl	%eax, %ecx
 563 0651 E8000000 		call	__ZNSsD1Ev
 563      00
 564              		.loc 1 101 0 discriminator 4
 565 0656 80BD54FF 		cmpb	$0, -172(%ebp)
 565      FFFF00
 566 065d 742A     		je	L21
 102:C:/Users/Njáll Mýrdal/3viknanamskeid/LitidVerk1/Verkefni2/Vikuverk2/src/ui\Main_ui.cpp ****                 cout << "| invalid input -- try again" << endl;
 567              		.loc 1 102 0 is_stmt 1
 568 065f C7442404 		movl	$LC17, 4(%esp)
 568      EA020000 
 569 0667 C7042400 		movl	$__ZSt4cout, (%esp)
 569      000000
 570 066e E8000000 		call	__ZStlsISt11char_traitsIcEERSt13basic_ostreamIcT_ES5_PKc
 570      00
 571 0673 C7042400 		movl	$__ZSt4endlIcSt11char_traitsIcEERSt13basic_ostreamIT_T0_ES6_, (%esp)
 571      000000
 572 067a 89C1     		movl	%eax, %ecx
 573 067c E8000000 		call	__ZNSolsEPFRSoS_E
 573      00
 574              		.loc 1 102 0 is_stmt 0 discriminator 1
 575 0681 83EC04   		subl	$4, %esp
GAS LISTING C:\Users\NJLLMR~1\AppData\Local\Temp\ccWOhw13.s 			page 18


 576 0684 E94FFFFF 		jmp	L20
 576      FF
 577              	L21:
 578              	L23:
 103:C:/Users/Njáll Mýrdal/3viknanamskeid/LitidVerk1/Verkefni2/Vikuverk2/src/ui\Main_ui.cpp ****             }
 104:C:/Users/Njáll Mýrdal/3viknanamskeid/LitidVerk1/Verkefni2/Vikuverk2/src/ui\Main_ui.cpp ****             else {
 105:C:/Users/Njáll Mýrdal/3viknanamskeid/LitidVerk1/Verkefni2/Vikuverk2/src/ui\Main_ui.cpp ****                 break;
 106:C:/Users/Njáll Mýrdal/3viknanamskeid/LitidVerk1/Verkefni2/Vikuverk2/src/ui\Main_ui.cpp ****             }
 107:C:/Users/Njáll Mýrdal/3viknanamskeid/LitidVerk1/Verkefni2/Vikuverk2/src/ui\Main_ui.cpp ****         } 
 108:C:/Users/Njáll Mýrdal/3viknanamskeid/LitidVerk1/Verkefni2/Vikuverk2/src/ui\Main_ui.cpp ****         while(true) {
 109:C:/Users/Njáll Mýrdal/3viknanamskeid/LitidVerk1/Verkefni2/Vikuverk2/src/ui\Main_ui.cpp ****             cout << "| Enter a month (1 - 12): ";
 579              		.loc 1 109 0 is_stmt 1
 580 0689 C7442404 		movl	$LC20, 4(%esp)
 580      4D030000 
 581 0691 C7042400 		movl	$__ZSt4cout, (%esp)
 581      000000
 582 0698 C78564FF 		movl	$5, -156(%ebp)
 582      FFFF0500 
 582      0000
 583 06a2 E8000000 		call	__ZStlsISt11char_traitsIcEERSt13basic_ostreamIcT_ES5_PKc
 583      00
 110:C:/Users/Njáll Mýrdal/3viknanamskeid/LitidVerk1/Verkefni2/Vikuverk2/src/ui\Main_ui.cpp ****                 cin >> tmpMonth;
 584              		.loc 1 110 0
 585 06a7 8D45A4   		leal	-92(%ebp), %eax
 586 06aa 89442404 		movl	%eax, 4(%esp)
 587 06ae C7042400 		movl	$__ZSt3cin, (%esp)
 587      000000
 588 06b5 E8000000 		call	__ZStrsIcSt11char_traitsIcESaIcEERSt13basic_istreamIT_T0_ES7_RSbIS4_S5_T1_E
 588      00
 111:C:/Users/Njáll Mýrdal/3viknanamskeid/LitidVerk1/Verkefni2/Vikuverk2/src/ui\Main_ui.cpp ****             cout << "| Enter a year :";
 589              		.loc 1 111 0
 590 06ba C7442404 		movl	$LC21, 4(%esp)
 590      68030000 
 591 06c2 C7042400 		movl	$__ZSt4cout, (%esp)
 591      000000
 592 06c9 E8000000 		call	__ZStlsISt11char_traitsIcEERSt13basic_ostreamIcT_ES5_PKc
 592      00
 112:C:/Users/Njáll Mýrdal/3viknanamskeid/LitidVerk1/Verkefni2/Vikuverk2/src/ui\Main_ui.cpp ****                 cin >> tmpYear;
 593              		.loc 1 112 0
 594 06ce 8D45A0   		leal	-96(%ebp), %eax
 595 06d1 89442404 		movl	%eax, 4(%esp)
 596 06d5 C7042400 		movl	$__ZSt3cin, (%esp)
 596      000000
 597 06dc E8000000 		call	__ZStrsIcSt11char_traitsIcESaIcEERSt13basic_istreamIT_T0_ES7_RSbIS4_S5_T1_E
 597      00
 113:C:/Users/Njáll Mýrdal/3viknanamskeid/LitidVerk1/Verkefni2/Vikuverk2/src/ui\Main_ui.cpp ****             if(!validate.validateMonth(tmpMonth) || !validate.validateYear(tmpYear)) {
 598              		.loc 1 113 0
 599 06e1 C6855CFF 		movb	$0, -164(%ebp)
 599      FFFF00
 600 06e8 C68558FF 		movb	$0, -168(%ebp)
 600      FFFF00
 601 06ef 8D45C4   		leal	-60(%ebp), %eax
 602 06f2 8D55A4   		leal	-92(%ebp), %edx
 603 06f5 891424   		movl	%edx, (%esp)
 604 06f8 C78564FF 		movl	$9, -156(%ebp)
 604      FFFF0900 
 604      0000
GAS LISTING C:\Users\NJLLMR~1\AppData\Local\Temp\ccWOhw13.s 			page 19


 605 0702 89C1     		movl	%eax, %ecx
 606 0704 E8000000 		call	__ZNSsC1ERKSs
 606      00
 607 0709 83EC04   		subl	$4, %esp
 608 070c C6855CFF 		movb	$1, -164(%ebp)
 608      FFFF01
 609 0713 8D45B7   		leal	-73(%ebp), %eax
 610 0716 8D55C4   		leal	-60(%ebp), %edx
 611 0719 891424   		movl	%edx, (%esp)
 612 071c 89C1     		movl	%eax, %ecx
 613 071e E8000000 		call	__ZN8Validate13validateMonthESs
 613      00
 614              		.loc 1 113 0 is_stmt 0 discriminator 2
 615 0723 83EC04   		subl	$4, %esp
 616 0726 83F001   		xorl	$1, %eax
 617 0729 84C0     		testb	%al, %al
 618 072b 7534     		jne	L24
 619              		.loc 1 113 0 discriminator 6
 620 072d 8D45C8   		leal	-56(%ebp), %eax
 621 0730 8D55A0   		leal	-96(%ebp), %edx
 622 0733 891424   		movl	%edx, (%esp)
 623 0736 89C1     		movl	%eax, %ecx
 624 0738 E8000000 		call	__ZNSsC1ERKSs
 624      00
 625 073d 83EC04   		subl	$4, %esp
 626 0740 C68558FF 		movb	$1, -168(%ebp)
 626      FFFF01
 627 0747 8D45B7   		leal	-73(%ebp), %eax
 628 074a 8D55C8   		leal	-56(%ebp), %edx
 629 074d 891424   		movl	%edx, (%esp)
 630 0750 89C1     		movl	%eax, %ecx
 631 0752 E8000000 		call	__ZN8Validate12validateYearESs
 631      00
 632              		.loc 1 113 0 discriminator 8
 633 0757 83EC04   		subl	$4, %esp
 634 075a 83F001   		xorl	$1, %eax
 635 075d 84C0     		testb	%al, %al
 636 075f 7409     		je	L25
 637              	L24:
 638              		.loc 1 113 0 discriminator 11
 639 0761 C68554FF 		movb	$1, -172(%ebp)
 639      FFFF01
 640 0768 EB07     		jmp	L26
 641              	L25:
 642              		.loc 1 113 0 discriminator 12
 643 076a C68554FF 		movb	$0, -172(%ebp)
 643      FFFF00
 644              	L26:
 645              		.loc 1 113 0 discriminator 14
 646 0771 80BD58FF 		cmpb	$0, -168(%ebp)
 646      FFFF00
 647 0778 7414     		je	L27
 648              		.loc 1 113 0 discriminator 15
 649 077a 8D45C8   		leal	-56(%ebp), %eax
 650 077d C78564FF 		movl	$10, -156(%ebp)
 650      FFFF0A00 
 650      0000
GAS LISTING C:\Users\NJLLMR~1\AppData\Local\Temp\ccWOhw13.s 			page 20


 651 0787 89C1     		movl	%eax, %ecx
 652 0789 E8000000 		call	__ZNSsD1Ev
 652      00
 653              	L27:
 654              		.loc 1 113 0 discriminator 19
 655 078e 80BD5CFF 		cmpb	$0, -164(%ebp)
 655      FFFF00
 656 0795 7415     		je	L28
 657              		.loc 1 113 0
 658 0797 90       		nop
 659 0798 8D45C4   		leal	-60(%ebp), %eax
 660 079b C78564FF 		movl	$5, -156(%ebp)
 660      FFFF0500 
 660      0000
 661 07a5 89C1     		movl	%eax, %ecx
 662 07a7 E8000000 		call	__ZNSsD1Ev
 662      00
 663              	L28:
 664              		.loc 1 113 0 discriminator 23
 665 07ac 80BD54FF 		cmpb	$0, -172(%ebp)
 665      FFFF00
 666 07b3 7434     		je	L29
 114:C:/Users/Njáll Mýrdal/3viknanamskeid/LitidVerk1/Verkefni2/Vikuverk2/src/ui\Main_ui.cpp ****                 cout << "| invalid input -- Month (1 - 12) Year (2017 or below)"  << endl;
 667              		.loc 1 114 0 is_stmt 1
 668 07b5 C7442404 		movl	$LC22, 4(%esp)
 668      7C030000 
 669 07bd C7042400 		movl	$__ZSt4cout, (%esp)
 669      000000
 670 07c4 C78564FF 		movl	$5, -156(%ebp)
 670      FFFF0500 
 670      0000
 671 07ce E8000000 		call	__ZStlsISt11char_traitsIcEERSt13basic_ostreamIcT_ES5_PKc
 671      00
 672 07d3 C7042400 		movl	$__ZSt4endlIcSt11char_traitsIcEERSt13basic_ostreamIT_T0_ES6_, (%esp)
 672      000000
 673 07da 89C1     		movl	%eax, %ecx
 674 07dc E8000000 		call	__ZNSolsEPFRSoS_E
 674      00
 675              		.loc 1 114 0 is_stmt 0 discriminator 1
 676 07e1 83EC04   		subl	$4, %esp
 677 07e4 E9A0FEFF 		jmp	L23
 677      FF
 678              	L29:
 115:C:/Users/Njáll Mýrdal/3viknanamskeid/LitidVerk1/Verkefni2/Vikuverk2/src/ui\Main_ui.cpp ****             }
 116:C:/Users/Njáll Mýrdal/3viknanamskeid/LitidVerk1/Verkefni2/Vikuverk2/src/ui\Main_ui.cpp ****             else {
 117:C:/Users/Njáll Mýrdal/3viknanamskeid/LitidVerk1/Verkefni2/Vikuverk2/src/ui\Main_ui.cpp ****                 break;
 679              		.loc 1 117 0 is_stmt 1
 680 07e9 90       		nop
 118:C:/Users/Njáll Mýrdal/3viknanamskeid/LitidVerk1/Verkefni2/Vikuverk2/src/ui\Main_ui.cpp ****             }
 119:C:/Users/Njáll Mýrdal/3viknanamskeid/LitidVerk1/Verkefni2/Vikuverk2/src/ui\Main_ui.cpp ****         }
 120:C:/Users/Njáll Mýrdal/3viknanamskeid/LitidVerk1/Verkefni2/Vikuverk2/src/ui\Main_ui.cpp ****     Service newEmployee;
 681              		.loc 1 120 0
 682 07ea 8D459F   		leal	-97(%ebp), %eax
 683 07ed C78564FF 		movl	$5, -156(%ebp)
 683      FFFF0500 
 683      0000
 684 07f7 89C1     		movl	%eax, %ecx
GAS LISTING C:\Users\NJLLMR~1\AppData\Local\Temp\ccWOhw13.s 			page 21


 685 07f9 E8000000 		call	__ZN7ServiceC1Ev
 685      00
 121:C:/Users/Njáll Mýrdal/3viknanamskeid/LitidVerk1/Verkefni2/Vikuverk2/src/ui\Main_ui.cpp ****     newEmployee.writeEmployeeInFile(tmpName, tmpSSN, tmpSalary, tmpMonth, tmpYear);
 686              		.loc 1 121 0
 687 07fe 8D45CC   		leal	-52(%ebp), %eax
 688 0801 8D55A0   		leal	-96(%ebp), %edx
 689 0804 891424   		movl	%edx, (%esp)
 690 0807 C78564FF 		movl	$11, -156(%ebp)
 690      FFFF0B00 
 690      0000
 691 0811 89C1     		movl	%eax, %ecx
 692 0813 E8000000 		call	__ZNSsC1ERKSs
 692      00
 693 0818 83EC04   		subl	$4, %esp
 694 081b 8D45D0   		leal	-48(%ebp), %eax
 695 081e 8D55A4   		leal	-92(%ebp), %edx
 696 0821 891424   		movl	%edx, (%esp)
 697 0824 C78564FF 		movl	$12, -156(%ebp)
 697      FFFF0C00 
 697      0000
 698 082e 89C1     		movl	%eax, %ecx
 699 0830 E8000000 		call	__ZNSsC1ERKSs
 699      00
 700              		.loc 1 121 0 is_stmt 0 discriminator 1
 701 0835 83EC04   		subl	$4, %esp
 702 0838 8D45D4   		leal	-44(%ebp), %eax
 703 083b 8D55A8   		leal	-88(%ebp), %edx
 704 083e 891424   		movl	%edx, (%esp)
 705 0841 C78564FF 		movl	$13, -156(%ebp)
 705      FFFF0D00 
 705      0000
 706 084b 89C1     		movl	%eax, %ecx
 707 084d E8000000 		call	__ZNSsC1ERKSs
 707      00
 708              		.loc 1 121 0 discriminator 3
 709 0852 83EC04   		subl	$4, %esp
 710 0855 8D45D8   		leal	-40(%ebp), %eax
 711 0858 8D55AC   		leal	-84(%ebp), %edx
 712 085b 891424   		movl	%edx, (%esp)
 713 085e C78564FF 		movl	$14, -156(%ebp)
 713      FFFF0E00 
 713      0000
 714 0868 89C1     		movl	%eax, %ecx
 715 086a E8000000 		call	__ZNSsC1ERKSs
 715      00
 716              		.loc 1 121 0 discriminator 5
 717 086f 83EC04   		subl	$4, %esp
 718 0872 8D45DC   		leal	-36(%ebp), %eax
 719 0875 8D55B0   		leal	-80(%ebp), %edx
 720 0878 891424   		movl	%edx, (%esp)
 721 087b C78564FF 		movl	$15, -156(%ebp)
 721      FFFF0F00 
 721      0000
 722 0885 89C1     		movl	%eax, %ecx
 723 0887 E8000000 		call	__ZNSsC1ERKSs
 723      00
 724              		.loc 1 121 0 discriminator 7
GAS LISTING C:\Users\NJLLMR~1\AppData\Local\Temp\ccWOhw13.s 			page 22


 725 088c 83EC04   		subl	$4, %esp
 726 088f 8D459F   		leal	-97(%ebp), %eax
 727 0892 8D55CC   		leal	-52(%ebp), %edx
 728 0895 89542410 		movl	%edx, 16(%esp)
 729 0899 8D55D0   		leal	-48(%ebp), %edx
 730 089c 8954240C 		movl	%edx, 12(%esp)
 731 08a0 8D55D4   		leal	-44(%ebp), %edx
 732 08a3 89542408 		movl	%edx, 8(%esp)
 733 08a7 8D55D8   		leal	-40(%ebp), %edx
 734 08aa 89542404 		movl	%edx, 4(%esp)
 735 08ae 8D55DC   		leal	-36(%ebp), %edx
 736 08b1 891424   		movl	%edx, (%esp)
 737 08b4 C78564FF 		movl	$16, -156(%ebp)
 737      FFFF1000 
 737      0000
 738 08be 89C1     		movl	%eax, %ecx
 739 08c0 E8000000 		call	__ZN7Service19writeEmployeeInFileESsSsSsSsSs
 739      00
 740              		.loc 1 121 0 discriminator 9
 741 08c5 83EC14   		subl	$20, %esp
 742 08c8 8D45DC   		leal	-36(%ebp), %eax
 743 08cb C78564FF 		movl	$15, -156(%ebp)
 743      FFFF0F00 
 743      0000
 744 08d5 89C1     		movl	%eax, %ecx
 745 08d7 E8000000 		call	__ZNSsD1Ev
 745      00
 746              		.loc 1 121 0 discriminator 13
 747 08dc 8D45D8   		leal	-40(%ebp), %eax
 748 08df C78564FF 		movl	$14, -156(%ebp)
 748      FFFF0E00 
 748      0000
 749 08e9 89C1     		movl	%eax, %ecx
 750 08eb E8000000 		call	__ZNSsD1Ev
 750      00
 751              		.loc 1 121 0 discriminator 15
 752 08f0 8D45D4   		leal	-44(%ebp), %eax
 753 08f3 C78564FF 		movl	$13, -156(%ebp)
 753      FFFF0D00 
 753      0000
 754 08fd 89C1     		movl	%eax, %ecx
 755 08ff E8000000 		call	__ZNSsD1Ev
 755      00
 756              		.loc 1 121 0 discriminator 17
 757 0904 8D45D0   		leal	-48(%ebp), %eax
 758 0907 C78564FF 		movl	$12, -156(%ebp)
 758      FFFF0C00 
 758      0000
 759 0911 89C1     		movl	%eax, %ecx
 760 0913 E8000000 		call	__ZNSsD1Ev
 760      00
 761              		.loc 1 121 0 discriminator 19
 762 0918 8D45CC   		leal	-52(%ebp), %eax
 763 091b C78564FF 		movl	$11, -156(%ebp)
 763      FFFF0B00 
 763      0000
 764 0925 89C1     		movl	%eax, %ecx
GAS LISTING C:\Users\NJLLMR~1\AppData\Local\Temp\ccWOhw13.s 			page 23


 765 0927 E8000000 		call	__ZNSsD1Ev
 765      00
 122:C:/Users/Njáll Mýrdal/3viknanamskeid/LitidVerk1/Verkefni2/Vikuverk2/src/ui\Main_ui.cpp ****         if(input > 1) {
 766              		.loc 1 122 0 is_stmt 1 discriminator 20
 767 092c 837DE001 		cmpl	$1, -32(%ebp)
 768 0930 7E6F     		jle	L32
 123:C:/Users/Njáll Mýrdal/3viknanamskeid/LitidVerk1/Verkefni2/Vikuverk2/src/ui\Main_ui.cpp ****             cout << "|" << endl;
 769              		.loc 1 123 0
 770 0932 C7442404 		movl	$LC23, 4(%esp)
 770      B3030000 
 771 093a C7042400 		movl	$__ZSt4cout, (%esp)
 771      000000
 772 0941 E8000000 		call	__ZStlsISt11char_traitsIcEERSt13basic_ostreamIcT_ES5_PKc
 772      00
 773 0946 C7042400 		movl	$__ZSt4endlIcSt11char_traitsIcEERSt13basic_ostreamIT_T0_ES6_, (%esp)
 773      000000
 774 094d 89C1     		movl	%eax, %ecx
 775 094f E8000000 		call	__ZNSolsEPFRSoS_E
 775      00
 776              		.loc 1 123 0 is_stmt 0 discriminator 1
 777 0954 83EC04   		subl	$4, %esp
 124:C:/Users/Njáll Mýrdal/3viknanamskeid/LitidVerk1/Verkefni2/Vikuverk2/src/ui\Main_ui.cpp ****                 cout << "| Please input another employee: " << endl;
 778              		.loc 1 124 0 is_stmt 1 discriminator 1
 779 0957 C7442404 		movl	$LC24, 4(%esp)
 779      B8030000 
 780 095f C7042400 		movl	$__ZSt4cout, (%esp)
 780      000000
 781 0966 E8000000 		call	__ZStlsISt11char_traitsIcEERSt13basic_ostreamIcT_ES5_PKc
 781      00
 782              		.loc 1 124 0 is_stmt 0
 783 096b C7042400 		movl	$__ZSt4endlIcSt11char_traitsIcEERSt13basic_ostreamIT_T0_ES6_, (%esp)
 783      000000
 784 0972 89C1     		movl	%eax, %ecx
 785 0974 E8000000 		call	__ZNSolsEPFRSoS_E
 785      00
 786              		.loc 1 124 0 discriminator 1
 787 0979 83EC04   		subl	$4, %esp
 125:C:/Users/Njáll Mýrdal/3viknanamskeid/LitidVerk1/Verkefni2/Vikuverk2/src/ui\Main_ui.cpp ****             cout <<  "|" << endl;
 788              		.loc 1 125 0 is_stmt 1 discriminator 1
 789 097c C7442404 		movl	$LC23, 4(%esp)
 789      B3030000 
 790 0984 C7042400 		movl	$__ZSt4cout, (%esp)
 790      000000
 791 098b E8000000 		call	__ZStlsISt11char_traitsIcEERSt13basic_ostreamIcT_ES5_PKc
 791      00
 792              		.loc 1 125 0 is_stmt 0
 793 0990 C7042400 		movl	$__ZSt4endlIcSt11char_traitsIcEERSt13basic_ostreamIT_T0_ES6_, (%esp)
 793      000000
 794 0997 89C1     		movl	%eax, %ecx
 795 0999 E8000000 		call	__ZNSolsEPFRSoS_E
 795      00
 796              		.loc 1 125 0 discriminator 1
 797 099e 83EC04   		subl	$4, %esp
 798              	L32:
 126:C:/Users/Njáll Mýrdal/3viknanamskeid/LitidVerk1/Verkefni2/Vikuverk2/src/ui\Main_ui.cpp ****         }
 127:C:/Users/Njáll Mýrdal/3viknanamskeid/LitidVerk1/Verkefni2/Vikuverk2/src/ui\Main_ui.cpp **** 
 128:C:/Users/Njáll Mýrdal/3viknanamskeid/LitidVerk1/Verkefni2/Vikuverk2/src/ui\Main_ui.cpp ****     }
GAS LISTING C:\Users\NJLLMR~1\AppData\Local\Temp\ccWOhw13.s 			page 24


 799              		.loc 1 128 0 is_stmt 1
 800 09a1 8D459F   		leal	-97(%ebp), %eax
 801 09a4 C78564FF 		movl	$5, -156(%ebp)
 801      FFFF0500 
 801      0000
 802 09ae 89C1     		movl	%eax, %ecx
 803 09b0 E8000000 		call	__ZN7ServiceD1Ev
 803      00
 804              	LBE5:
  75:C:/Users/Njáll Mýrdal/3viknanamskeid/LitidVerk1/Verkefni2/Vikuverk2/src/ui\Main_ui.cpp ****             
 805              		.loc 1 75 0 discriminator 2
 806 09b5 8345E401 		addl	$1, -28(%ebp)
 807              	L13:
  75:C:/Users/Njáll Mýrdal/3viknanamskeid/LitidVerk1/Verkefni2/Vikuverk2/src/ui\Main_ui.cpp ****             
 808              		.loc 1 75 0 is_stmt 0 discriminator 1
 809 09b9 8B45E4   		movl	-28(%ebp), %eax
 810 09bc 3B45E0   		cmpl	-32(%ebp), %eax
 811 09bf 0F8CA7FA 		jl	L17
 811      FFFF
 812              	LBE4:
 129:C:/Users/Njáll Mýrdal/3viknanamskeid/LitidVerk1/Verkefni2/Vikuverk2/src/ui\Main_ui.cpp **** system("CLS");
 813              		.loc 1 129 0 is_stmt 1 discriminator 3
 814 09c5 C70424EF 		movl	$LC10, (%esp)
 814      010000
 815 09cc E8000000 		call	_system
 815      00
  67:C:/Users/Njáll Mýrdal/3viknanamskeid/LitidVerk1/Verkefni2/Vikuverk2/src/ui\Main_ui.cpp ****     cout << "                                                   " << endl;
 816              		.loc 1 67 0 discriminator 3
 817 09d1 8D45A0   		leal	-96(%ebp), %eax
 818 09d4 C78564FF 		movl	$4, -156(%ebp)
 818      FFFF0400 
 818      0000
 819 09de 89C1     		movl	%eax, %ecx
 820 09e0 E8000000 		call	__ZNSsD1Ev
 820      00
  67:C:/Users/Njáll Mýrdal/3viknanamskeid/LitidVerk1/Verkefni2/Vikuverk2/src/ui\Main_ui.cpp ****     cout << "                                                   " << endl;
 821              		.loc 1 67 0 is_stmt 0 discriminator 4
 822 09e5 8D45A4   		leal	-92(%ebp), %eax
 823 09e8 C78564FF 		movl	$3, -156(%ebp)
 823      FFFF0300 
 823      0000
 824 09f2 89C1     		movl	%eax, %ecx
 825 09f4 E8000000 		call	__ZNSsD1Ev
 825      00
  66:C:/Users/Njáll Mýrdal/3viknanamskeid/LitidVerk1/Verkefni2/Vikuverk2/src/ui\Main_ui.cpp ****     string tmpMonth, tmpYear;
 826              		.loc 1 66 0 is_stmt 1
 827 09f9 8D45A8   		leal	-88(%ebp), %eax
 828 09fc C78564FF 		movl	$2, -156(%ebp)
 828      FFFF0200 
 828      0000
 829 0a06 89C1     		movl	%eax, %ecx
 830 0a08 E8000000 		call	__ZNSsD1Ev
 830      00
  65:C:/Users/Njáll Mýrdal/3viknanamskeid/LitidVerk1/Verkefni2/Vikuverk2/src/ui\Main_ui.cpp ****     string tmpSalary;
 831              		.loc 1 65 0
 832 0a0d 8D45AC   		leal	-84(%ebp), %eax
 833 0a10 C78564FF 		movl	$1, -156(%ebp)
GAS LISTING C:\Users\NJLLMR~1\AppData\Local\Temp\ccWOhw13.s 			page 25


 833      FFFF0100 
 833      0000
 834 0a1a 89C1     		movl	%eax, %ecx
 835 0a1c E8000000 		call	__ZNSsD1Ev
 835      00
 836              		.loc 1 129 0
 837 0a21 8D45B0   		leal	-80(%ebp), %eax
 838 0a24 C78564FF 		movl	$-1, -156(%ebp)
 838      FFFFFFFF 
 838      FFFF
 839 0a2e 89C1     		movl	%eax, %ecx
 840 0a30 E8000000 		call	__ZNSsD1Ev
 840      00
 841 0a35 E9D30200 		jmp	L75
 841      00
 842              	L57:
 843 0a3a 89855CFF 		movl	%eax, -164(%ebp)
 843      FFFF
 844              	LBB7:
 845              	LBB6:
  81:C:/Users/Njáll Mýrdal/3viknanamskeid/LitidVerk1/Verkefni2/Vikuverk2/src/ui\Main_ui.cpp ****                 cout << "| invalid input -- try again" << endl;
 846              		.loc 1 81 0
 847 0a40 8D45B8   		leal	-72(%ebp), %eax
 848 0a43 C78564FF 		movl	$0, -156(%ebp)
 848      FFFF0000 
 848      0000
 849 0a4d 89C1     		movl	%eax, %ecx
 850 0a4f E8000000 		call	__ZNSsD1Ev
 850      00
 851 0a54 8B855CFF 		movl	-164(%ebp), %eax
 851      FFFF
 852 0a5a 89855CFF 		movl	%eax, -164(%ebp)
 852      FFFF
 853 0a60 E9B50100 		jmp	L34
 853      00
 854              	L58:
 855 0a65 89855CFF 		movl	%eax, -164(%ebp)
 855      FFFF
  91:C:/Users/Njáll Mýrdal/3viknanamskeid/LitidVerk1/Verkefni2/Vikuverk2/src/ui\Main_ui.cpp ****                 cout << "| invalid input -- try again" << endl;
 856              		.loc 1 91 0
 857 0a6b 8D45BC   		leal	-68(%ebp), %eax
 858 0a6e C78564FF 		movl	$0, -156(%ebp)
 858      FFFF0000 
 858      0000
 859 0a78 89C1     		movl	%eax, %ecx
 860 0a7a E8000000 		call	__ZNSsD1Ev
 860      00
 861 0a7f 8B855CFF 		movl	-164(%ebp), %eax
 861      FFFF
 862 0a85 89855CFF 		movl	%eax, -164(%ebp)
 862      FFFF
 863 0a8b E98A0100 		jmp	L34
 863      00
 864              	L59:
 865 0a90 89855CFF 		movl	%eax, -164(%ebp)
 865      FFFF
 101:C:/Users/Njáll Mýrdal/3viknanamskeid/LitidVerk1/Verkefni2/Vikuverk2/src/ui\Main_ui.cpp ****                 cout << "| invalid input -- try again" << endl;
GAS LISTING C:\Users\NJLLMR~1\AppData\Local\Temp\ccWOhw13.s 			page 26


 866              		.loc 1 101 0
 867 0a96 8D45C0   		leal	-64(%ebp), %eax
 868 0a99 C78564FF 		movl	$0, -156(%ebp)
 868      FFFF0000 
 868      0000
 869 0aa3 89C1     		movl	%eax, %ecx
 870 0aa5 E8000000 		call	__ZNSsD1Ev
 870      00
 871 0aaa 8B855CFF 		movl	-164(%ebp), %eax
 871      FFFF
 872 0ab0 89855CFF 		movl	%eax, -164(%ebp)
 872      FFFF
 873 0ab6 E95F0100 		jmp	L34
 873      00
 874              	L60:
 875 0abb 898554FF 		movl	%eax, -172(%ebp)
 875      FFFF
 113:C:/Users/Njáll Mýrdal/3viknanamskeid/LitidVerk1/Verkefni2/Vikuverk2/src/ui\Main_ui.cpp ****                 cout << "| invalid input -- Month (1 - 12) Year (2017 or below)"  << endl;
 876              		.loc 1 113 0
 877 0ac1 80BD58FF 		cmpb	$0, -168(%ebp)
 877      FFFF00
 878 0ac8 7414     		je	L38
 113:C:/Users/Njáll Mýrdal/3viknanamskeid/LitidVerk1/Verkefni2/Vikuverk2/src/ui\Main_ui.cpp ****                 cout << "| invalid input -- Month (1 - 12) Year (2017 or below)"  << endl;
 879              		.loc 1 113 0 is_stmt 0 discriminator 24
 880 0aca 8D45C8   		leal	-56(%ebp), %eax
 881 0acd C78564FF 		movl	$0, -156(%ebp)
 881      FFFF0000 
 881      0000
 882 0ad7 89C1     		movl	%eax, %ecx
 883 0ad9 E8000000 		call	__ZNSsD1Ev
 883      00
 884              	L38:
 885 0ade 8B8554FF 		movl	-172(%ebp), %eax
 885      FFFF
 886 0ae4 898558FF 		movl	%eax, -168(%ebp)
 886      FFFF
 887 0aea EB06     		jmp	L39
 888              	L61:
 889 0aec 898558FF 		movl	%eax, -168(%ebp)
 889      FFFF
 890              	L39:
 113:C:/Users/Njáll Mýrdal/3viknanamskeid/LitidVerk1/Verkefni2/Vikuverk2/src/ui\Main_ui.cpp ****                 cout << "| invalid input -- Month (1 - 12) Year (2017 or below)"  << endl;
 891              		.loc 1 113 0 discriminator 17
 892 0af2 80BD5CFF 		cmpb	$0, -164(%ebp)
 892      FFFF00
 893 0af9 7417     		je	L76
 113:C:/Users/Njáll Mýrdal/3viknanamskeid/LitidVerk1/Verkefni2/Vikuverk2/src/ui\Main_ui.cpp ****                 cout << "| invalid input -- Month (1 - 12) Year (2017 or below)"  << endl;
 894              		.loc 1 113 0
 895 0afb 90       		nop
 896 0afc 8D45C4   		leal	-60(%ebp), %eax
 897 0aff C78564FF 		movl	$0, -156(%ebp)
 897      FFFF0000 
 897      0000
 898 0b09 89C1     		movl	%eax, %ecx
 899 0b0b E8000000 		call	__ZNSsD1Ev
 899      00
 900 0b10 EB01     		jmp	L40
GAS LISTING C:\Users\NJLLMR~1\AppData\Local\Temp\ccWOhw13.s 			page 27


 901              	L76:
 902 0b12 90       		nop
 903              	L40:
 904 0b13 8B8558FF 		movl	-168(%ebp), %eax
 904      FFFF
 905 0b19 89855CFF 		movl	%eax, -164(%ebp)
 905      FFFF
 906 0b1f E9F60000 		jmp	L34
 906      00
 907              	L67:
 908 0b24 89855CFF 		movl	%eax, -164(%ebp)
 908      FFFF
 121:C:/Users/Njáll Mýrdal/3viknanamskeid/LitidVerk1/Verkefni2/Vikuverk2/src/ui\Main_ui.cpp ****         if(input > 1) {
 909              		.loc 1 121 0 is_stmt 1
 910 0b2a 8D45DC   		leal	-36(%ebp), %eax
 911 0b2d C78564FF 		movl	$0, -156(%ebp)
 911      FFFF0000 
 911      0000
 912 0b37 89C1     		movl	%eax, %ecx
 913 0b39 E8000000 		call	__ZNSsD1Ev
 913      00
 914 0b3e 8B855CFF 		movl	-164(%ebp), %eax
 914      FFFF
 915 0b44 89855CFF 		movl	%eax, -164(%ebp)
 915      FFFF
 916 0b4a EB06     		jmp	L42
 917              	L66:
 918 0b4c 89855CFF 		movl	%eax, -164(%ebp)
 918      FFFF
 919              	L42:
 121:C:/Users/Njáll Mýrdal/3viknanamskeid/LitidVerk1/Verkefni2/Vikuverk2/src/ui\Main_ui.cpp ****         if(input > 1) {
 920              		.loc 1 121 0 is_stmt 0 discriminator 12
 921 0b52 8D45D8   		leal	-40(%ebp), %eax
 922 0b55 C78564FF 		movl	$0, -156(%ebp)
 922      FFFF0000 
 922      0000
 923 0b5f 89C1     		movl	%eax, %ecx
 924 0b61 E8000000 		call	__ZNSsD1Ev
 924      00
 925 0b66 8B855CFF 		movl	-164(%ebp), %eax
 925      FFFF
 926 0b6c 89855CFF 		movl	%eax, -164(%ebp)
 926      FFFF
 927 0b72 EB06     		jmp	L43
 928              	L65:
 929 0b74 89855CFF 		movl	%eax, -164(%ebp)
 929      FFFF
 930              	L43:
 121:C:/Users/Njáll Mýrdal/3viknanamskeid/LitidVerk1/Verkefni2/Vikuverk2/src/ui\Main_ui.cpp ****         if(input > 1) {
 931              		.loc 1 121 0 discriminator 14
 932 0b7a 8D45D4   		leal	-44(%ebp), %eax
 933 0b7d C78564FF 		movl	$0, -156(%ebp)
 933      FFFF0000 
 933      0000
 934 0b87 89C1     		movl	%eax, %ecx
 935 0b89 E8000000 		call	__ZNSsD1Ev
 935      00
GAS LISTING C:\Users\NJLLMR~1\AppData\Local\Temp\ccWOhw13.s 			page 28


 936 0b8e 8B855CFF 		movl	-164(%ebp), %eax
 936      FFFF
 937 0b94 89855CFF 		movl	%eax, -164(%ebp)
 937      FFFF
 938 0b9a EB06     		jmp	L44
 939              	L64:
 940 0b9c 89855CFF 		movl	%eax, -164(%ebp)
 940      FFFF
 941              	L44:
 121:C:/Users/Njáll Mýrdal/3viknanamskeid/LitidVerk1/Verkefni2/Vikuverk2/src/ui\Main_ui.cpp ****         if(input > 1) {
 942              		.loc 1 121 0 discriminator 16
 943 0ba2 8D45D0   		leal	-48(%ebp), %eax
 944 0ba5 C78564FF 		movl	$0, -156(%ebp)
 944      FFFF0000 
 944      0000
 945 0baf 89C1     		movl	%eax, %ecx
 946 0bb1 E8000000 		call	__ZNSsD1Ev
 946      00
 947 0bb6 8B855CFF 		movl	-164(%ebp), %eax
 947      FFFF
 948 0bbc 89855CFF 		movl	%eax, -164(%ebp)
 948      FFFF
 949 0bc2 EB06     		jmp	L45
 950              	L63:
 951 0bc4 89855CFF 		movl	%eax, -164(%ebp)
 951      FFFF
 952              	L45:
 121:C:/Users/Njáll Mýrdal/3viknanamskeid/LitidVerk1/Verkefni2/Vikuverk2/src/ui\Main_ui.cpp ****         if(input > 1) {
 953              		.loc 1 121 0 discriminator 18
 954 0bca 8D45CC   		leal	-52(%ebp), %eax
 955 0bcd C78564FF 		movl	$0, -156(%ebp)
 955      FFFF0000 
 955      0000
 956 0bd7 89C1     		movl	%eax, %ecx
 957 0bd9 E8000000 		call	__ZNSsD1Ev
 957      00
 958 0bde 8B855CFF 		movl	-164(%ebp), %eax
 958      FFFF
 959 0be4 89855CFF 		movl	%eax, -164(%ebp)
 959      FFFF
 960 0bea EB06     		jmp	L46
 961              	L62:
 962 0bec 89855CFF 		movl	%eax, -164(%ebp)
 962      FFFF
 963              	L46:
 128:C:/Users/Njáll Mýrdal/3viknanamskeid/LitidVerk1/Verkefni2/Vikuverk2/src/ui\Main_ui.cpp **** system("CLS");
 964              		.loc 1 128 0 is_stmt 1
 965 0bf2 8D459F   		leal	-97(%ebp), %eax
 966 0bf5 C78564FF 		movl	$0, -156(%ebp)
 966      FFFF0000 
 966      0000
 967 0bff 89C1     		movl	%eax, %ecx
 968 0c01 E8000000 		call	__ZN7ServiceD1Ev
 968      00
 969 0c06 8B855CFF 		movl	-164(%ebp), %eax
 969      FFFF
 970 0c0c 89855CFF 		movl	%eax, -164(%ebp)
GAS LISTING C:\Users\NJLLMR~1\AppData\Local\Temp\ccWOhw13.s 			page 29


 970      FFFF
 971 0c12 EB06     		jmp	L34
 972              	L56:
 973 0c14 89855CFF 		movl	%eax, -164(%ebp)
 973      FFFF
 974              	L34:
 975              	LBE6:
 976              	LBE7:
  67:C:/Users/Njáll Mýrdal/3viknanamskeid/LitidVerk1/Verkefni2/Vikuverk2/src/ui\Main_ui.cpp ****     cout << "                                                   " << endl;
 977              		.loc 1 67 0
 978 0c1a 8D45A0   		leal	-96(%ebp), %eax
 979 0c1d C78564FF 		movl	$0, -156(%ebp)
 979      FFFF0000 
 979      0000
 980 0c27 89C1     		movl	%eax, %ecx
 981 0c29 E8000000 		call	__ZNSsD1Ev
 981      00
 982 0c2e 8B855CFF 		movl	-164(%ebp), %eax
 982      FFFF
 983 0c34 89855CFF 		movl	%eax, -164(%ebp)
 983      FFFF
 984 0c3a EB06     		jmp	L47
 985              	L55:
 986 0c3c 89855CFF 		movl	%eax, -164(%ebp)
 986      FFFF
 987              	L47:
  67:C:/Users/Njáll Mýrdal/3viknanamskeid/LitidVerk1/Verkefni2/Vikuverk2/src/ui\Main_ui.cpp ****     cout << "                                                   " << endl;
 988              		.loc 1 67 0 is_stmt 0 discriminator 2
 989 0c42 8D45A4   		leal	-92(%ebp), %eax
 990 0c45 C78564FF 		movl	$0, -156(%ebp)
 990      FFFF0000 
 990      0000
 991 0c4f 89C1     		movl	%eax, %ecx
 992 0c51 E8000000 		call	__ZNSsD1Ev
 992      00
 993 0c56 8B855CFF 		movl	-164(%ebp), %eax
 993      FFFF
 994 0c5c 89855CFF 		movl	%eax, -164(%ebp)
 994      FFFF
 995 0c62 EB06     		jmp	L48
 996              	L54:
 997 0c64 89855CFF 		movl	%eax, -164(%ebp)
 997      FFFF
 998              	L48:
  66:C:/Users/Njáll Mýrdal/3viknanamskeid/LitidVerk1/Verkefni2/Vikuverk2/src/ui\Main_ui.cpp ****     string tmpMonth, tmpYear;
 999              		.loc 1 66 0 is_stmt 1
 1000 0c6a 8D45A8   		leal	-88(%ebp), %eax
 1001 0c6d C78564FF 		movl	$0, -156(%ebp)
 1001      FFFF0000 
 1001      0000
 1002 0c77 89C1     		movl	%eax, %ecx
 1003 0c79 E8000000 		call	__ZNSsD1Ev
 1003      00
 1004 0c7e 8B855CFF 		movl	-164(%ebp), %eax
 1004      FFFF
 1005 0c84 89855CFF 		movl	%eax, -164(%ebp)
 1005      FFFF
GAS LISTING C:\Users\NJLLMR~1\AppData\Local\Temp\ccWOhw13.s 			page 30


 1006 0c8a EB06     		jmp	L49
 1007              	L53:
 1008 0c8c 89855CFF 		movl	%eax, -164(%ebp)
 1008      FFFF
 1009              	L49:
  65:C:/Users/Njáll Mýrdal/3viknanamskeid/LitidVerk1/Verkefni2/Vikuverk2/src/ui\Main_ui.cpp ****     string tmpSalary;
 1010              		.loc 1 65 0
 1011 0c92 8D45AC   		leal	-84(%ebp), %eax
 1012 0c95 C78564FF 		movl	$0, -156(%ebp)
 1012      FFFF0000 
 1012      0000
 1013 0c9f 89C1     		movl	%eax, %ecx
 1014 0ca1 E8000000 		call	__ZNSsD1Ev
 1014      00
 1015 0ca6 8B855CFF 		movl	-164(%ebp), %eax
 1015      FFFF
 1016 0cac 89855CFF 		movl	%eax, -164(%ebp)
 1016      FFFF
 1017 0cb2 EB2D     		jmp	L50
 1018              	L51:
 1019 0cb4 8D6D18   		leal	24(%ebp), %ebp
 1020 0cb7 8B8568FF 		movl	-152(%ebp), %eax
 1020      FFFF
 1021 0cbd 83BD64FF 		cmpl	$15, -156(%ebp)
 1021      FFFF0F
 1022 0cc4 7713     		ja	L68
 1023 0cc6 8B9564FF 		movl	-156(%ebp), %edx
 1023      FFFF
 1024 0ccc C1E202   		sall	$2, %edx
 1025 0ccf 81C2DC03 		addl	$L69, %edx
 1025      0000
 1026 0cd5 8B12     		movl	(%edx), %edx
 1027 0cd7 FFE2     		jmp	*%edx
 1028              		.section .rdata,"dr"
 1029 03da 0000     		.align 4
 1030              	L69:
 1031 03dc DB0C0000 		.long	L52
 1032 03e0 8C0C0000 		.long	L53
 1033 03e4 640C0000 		.long	L54
 1034 03e8 3C0C0000 		.long	L55
 1035 03ec 140C0000 		.long	L56
 1036 03f0 3A0A0000 		.long	L57
 1037 03f4 650A0000 		.long	L58
 1038 03f8 900A0000 		.long	L59
 1039 03fc BB0A0000 		.long	L60
 1040 0400 EC0A0000 		.long	L61
 1041 0404 EC0B0000 		.long	L62
 1042 0408 C40B0000 		.long	L63
 1043 040c 9C0B0000 		.long	L64
 1044 0410 740B0000 		.long	L65
 1045 0414 4C0B0000 		.long	L66
 1046 0418 240B0000 		.long	L67
 1047              		.text
 1048              	L68:
 1049 0cd9 0F0B     		ud2
 1050              	L52:
 1051 0cdb 89855CFF 		movl	%eax, -164(%ebp)
GAS LISTING C:\Users\NJLLMR~1\AppData\Local\Temp\ccWOhw13.s 			page 31


 1051      FFFF
 1052              	L50:
 1053              		.loc 1 129 0
 1054 0ce1 8D45B0   		leal	-80(%ebp), %eax
 1055 0ce4 C78564FF 		movl	$0, -156(%ebp)
 1055      FFFF0000 
 1055      0000
 1056 0cee 89C1     		movl	%eax, %ecx
 1057 0cf0 E8000000 		call	__ZNSsD1Ev
 1057      00
 1058 0cf5 8B855CFF 		movl	-164(%ebp), %eax
 1058      FFFF
 1059 0cfb 890424   		movl	%eax, (%esp)
 1060 0cfe C78564FF 		movl	$-1, -156(%ebp)
 1060      FFFFFFFF 
 1060      FFFF
 1061 0d08 E8000000 		call	__Unwind_SjLj_Resume
 1061      00
 1062              	L75:
 1063 0d0d 8D8560FF 		leal	-160(%ebp), %eax
 1063      FFFF
 1064 0d13 890424   		movl	%eax, (%esp)
 1065 0d16 E8000000 		call	__Unwind_SjLj_Unregister
 1065      00
 1066              	LBE3:
 130:C:/Users/Njáll Mýrdal/3viknanamskeid/LitidVerk1/Verkefni2/Vikuverk2/src/ui\Main_ui.cpp **** }
 1067              		.loc 1 130 0
 1068 0d1b 8D65F4   		leal	-12(%ebp), %esp
 1069 0d1e 5B       		popl	%ebx
 1070              		.cfi_restore 3
 1071 0d1f 5E       		popl	%esi
 1072              		.cfi_restore 6
 1073 0d20 5F       		popl	%edi
 1074              		.cfi_restore 7
 1075 0d21 5D       		popl	%ebp
 1076              		.cfi_restore 5
 1077              		.cfi_def_cfa 4, 4
 1078 0d22 C3       		ret
 1079              		.cfi_endproc
 1080              	LFE1140:
 1081              		.section	.gcc_except_table,"w"
 1082              	LLSDA1140:
 1083 0000 FF       		.byte	0xff
 1084 0001 FF       		.byte	0xff
 1085 0002 01       		.byte	0x1
 1086 0003 20       		.uleb128 LLSDACSE1140-LLSDACSB1140
 1087              	LLSDACSB1140:
 1088 0004 00       		.uleb128 0
 1089 0005 00       		.uleb128 0
 1090 0006 01       		.uleb128 0x1
 1091 0007 00       		.uleb128 0
 1092 0008 02       		.uleb128 0x2
 1093 0009 00       		.uleb128 0
 1094 000a 03       		.uleb128 0x3
 1095 000b 00       		.uleb128 0
 1096 000c 04       		.uleb128 0x4
 1097 000d 00       		.uleb128 0
GAS LISTING C:\Users\NJLLMR~1\AppData\Local\Temp\ccWOhw13.s 			page 32


 1098 000e 05       		.uleb128 0x5
 1099 000f 00       		.uleb128 0
 1100 0010 06       		.uleb128 0x6
 1101 0011 00       		.uleb128 0
 1102 0012 07       		.uleb128 0x7
 1103 0013 00       		.uleb128 0
 1104 0014 08       		.uleb128 0x8
 1105 0015 00       		.uleb128 0
 1106 0016 09       		.uleb128 0x9
 1107 0017 00       		.uleb128 0
 1108 0018 0A       		.uleb128 0xa
 1109 0019 00       		.uleb128 0
 1110 001a 0B       		.uleb128 0xb
 1111 001b 00       		.uleb128 0
 1112 001c 0C       		.uleb128 0xc
 1113 001d 00       		.uleb128 0
 1114 001e 0D       		.uleb128 0xd
 1115 001f 00       		.uleb128 0
 1116 0020 0E       		.uleb128 0xe
 1117 0021 00       		.uleb128 0
 1118 0022 0F       		.uleb128 0xf
 1119 0023 00       		.uleb128 0
 1120              	LLSDACSE1140:
 1121              		.text
 1122 0d23 90       		.align 2
 1123              		.globl	__ZN7Main_ui11getRcrdMenuEv
 1125              	__ZN7Main_ui11getRcrdMenuEv:
 1126              	LFB1141:
 131:C:/Users/Njáll Mýrdal/3viknanamskeid/LitidVerk1/Verkefni2/Vikuverk2/src/ui\Main_ui.cpp **** 
 132:C:/Users/Njáll Mýrdal/3viknanamskeid/LitidVerk1/Verkefni2/Vikuverk2/src/ui\Main_ui.cpp **** void Main_ui::getRcrdMenu() {
 1127              		.loc 1 132 0
 1128              		.cfi_startproc
 1129 0d24 55       		pushl	%ebp
 1130              		.cfi_def_cfa_offset 8
 1131              		.cfi_offset 5, -8
 1132 0d25 89E5     		movl	%esp, %ebp
 1133              		.cfi_def_cfa_register 5
 1134 0d27 83EC04   		subl	$4, %esp
 1135 0d2a 894DFC   		movl	%ecx, -4(%ebp)
 133:C:/Users/Njáll Mýrdal/3viknanamskeid/LitidVerk1/Verkefni2/Vikuverk2/src/ui\Main_ui.cpp **** 
 134:C:/Users/Njáll Mýrdal/3viknanamskeid/LitidVerk1/Verkefni2/Vikuverk2/src/ui\Main_ui.cpp **** }
 1136              		.loc 1 134 0
 1137 0d2d C9       		leave
 1138              		.cfi_restore 5
 1139              		.cfi_def_cfa 4, 4
 1140 0d2e C3       		ret
 1141              		.cfi_endproc
 1142              	LFE1141:
 1143 0d2f 90       		.align 2
 1144              		.globl	__ZN7Main_ui12getYrPayMenuEv
 1146              	__ZN7Main_ui12getYrPayMenuEv:
 1147              	LFB1142:
 135:C:/Users/Njáll Mýrdal/3viknanamskeid/LitidVerk1/Verkefni2/Vikuverk2/src/ui\Main_ui.cpp **** 
 136:C:/Users/Njáll Mýrdal/3viknanamskeid/LitidVerk1/Verkefni2/Vikuverk2/src/ui\Main_ui.cpp **** void Main_ui::getYrPayMenu(){
 1148              		.loc 1 136 0
 1149              		.cfi_startproc
 1150 0d30 55       		pushl	%ebp
GAS LISTING C:\Users\NJLLMR~1\AppData\Local\Temp\ccWOhw13.s 			page 33


 1151              		.cfi_def_cfa_offset 8
 1152              		.cfi_offset 5, -8
 1153 0d31 89E5     		movl	%esp, %ebp
 1154              		.cfi_def_cfa_register 5
 1155 0d33 83EC04   		subl	$4, %esp
 1156 0d36 894DFC   		movl	%ecx, -4(%ebp)
 137:C:/Users/Njáll Mýrdal/3viknanamskeid/LitidVerk1/Verkefni2/Vikuverk2/src/ui\Main_ui.cpp **** 
 138:C:/Users/Njáll Mýrdal/3viknanamskeid/LitidVerk1/Verkefni2/Vikuverk2/src/ui\Main_ui.cpp **** }
 1157              		.loc 1 138 0
 1158 0d39 C9       		leave
 1159              		.cfi_restore 5
 1160              		.cfi_def_cfa 4, 4
 1161 0d3a C3       		ret
 1162              		.cfi_endproc
 1163              	LFE1142:
 1164 0d3b 90       		.align 2
 1165              		.globl	__ZN7Main_ui12getHiPayMenuEv
 1167              	__ZN7Main_ui12getHiPayMenuEv:
 1168              	LFB1143:
 139:C:/Users/Njáll Mýrdal/3viknanamskeid/LitidVerk1/Verkefni2/Vikuverk2/src/ui\Main_ui.cpp **** 
 140:C:/Users/Njáll Mýrdal/3viknanamskeid/LitidVerk1/Verkefni2/Vikuverk2/src/ui\Main_ui.cpp **** void Main_ui::getHiPayMenu(){
 1169              		.loc 1 140 0
 1170              		.cfi_startproc
 1171 0d3c 55       		pushl	%ebp
 1172              		.cfi_def_cfa_offset 8
 1173              		.cfi_offset 5, -8
 1174 0d3d 89E5     		movl	%esp, %ebp
 1175              		.cfi_def_cfa_register 5
 1176 0d3f 83EC04   		subl	$4, %esp
 1177 0d42 894DFC   		movl	%ecx, -4(%ebp)
 141:C:/Users/Njáll Mýrdal/3viknanamskeid/LitidVerk1/Verkefni2/Vikuverk2/src/ui\Main_ui.cpp **** 
 142:C:/Users/Njáll Mýrdal/3viknanamskeid/LitidVerk1/Verkefni2/Vikuverk2/src/ui\Main_ui.cpp **** }
 1178              		.loc 1 142 0
 1179 0d45 C9       		leave
 1180              		.cfi_restore 5
 1181              		.cfi_def_cfa 4, 4
 1182 0d46 C3       		ret
 1183              		.cfi_endproc
 1184              	LFE1143:
 1186              	___tcf_0:
 1187              	LFB1188:
 1188              		.file 2 "C:/Program Files (x86)/CodeBlocks/MinGW/lib/gcc/mingw32/4.9.2/include/c++/iostream"
   1:C:/Program Files (x86)/CodeBlocks/MinGW/lib/gcc/mingw32/4.9.2/include/c++\iostream **** // Standard iostream objects -*- C++ -*-
   2:C:/Program Files (x86)/CodeBlocks/MinGW/lib/gcc/mingw32/4.9.2/include/c++\iostream **** 
   3:C:/Program Files (x86)/CodeBlocks/MinGW/lib/gcc/mingw32/4.9.2/include/c++\iostream **** // Copyright (C) 1997-2014 Free Software Foundation, Inc.
   4:C:/Program Files (x86)/CodeBlocks/MinGW/lib/gcc/mingw32/4.9.2/include/c++\iostream **** //
   5:C:/Program Files (x86)/CodeBlocks/MinGW/lib/gcc/mingw32/4.9.2/include/c++\iostream **** // This file is part of the GNU ISO C++ Library.  This library is free
   6:C:/Program Files (x86)/CodeBlocks/MinGW/lib/gcc/mingw32/4.9.2/include/c++\iostream **** // software; you can redistribute it and/or modify it under the
   7:C:/Program Files (x86)/CodeBlocks/MinGW/lib/gcc/mingw32/4.9.2/include/c++\iostream **** // terms of the GNU General Public License as published by the
   8:C:/Program Files (x86)/CodeBlocks/MinGW/lib/gcc/mingw32/4.9.2/include/c++\iostream **** // Free Software Foundation; either version 3, or (at your option)
   9:C:/Program Files (x86)/CodeBlocks/MinGW/lib/gcc/mingw32/4.9.2/include/c++\iostream **** // any later version.
  10:C:/Program Files (x86)/CodeBlocks/MinGW/lib/gcc/mingw32/4.9.2/include/c++\iostream **** 
  11:C:/Program Files (x86)/CodeBlocks/MinGW/lib/gcc/mingw32/4.9.2/include/c++\iostream **** // This library is distributed in the hope that it will be useful,
  12:C:/Program Files (x86)/CodeBlocks/MinGW/lib/gcc/mingw32/4.9.2/include/c++\iostream **** // but WITHOUT ANY WARRANTY; without even the implied warranty of
  13:C:/Program Files (x86)/CodeBlocks/MinGW/lib/gcc/mingw32/4.9.2/include/c++\iostream **** // MERCHANTABILITY or FITNESS FOR A PARTICULAR PURPOSE.  See the
  14:C:/Program Files (x86)/CodeBlocks/MinGW/lib/gcc/mingw32/4.9.2/include/c++\iostream **** // GNU General Public License for more details.
  15:C:/Program Files (x86)/CodeBlocks/MinGW/lib/gcc/mingw32/4.9.2/include/c++\iostream **** 
GAS LISTING C:\Users\NJLLMR~1\AppData\Local\Temp\ccWOhw13.s 			page 34


  16:C:/Program Files (x86)/CodeBlocks/MinGW/lib/gcc/mingw32/4.9.2/include/c++\iostream **** // Under Section 7 of GPL version 3, you are granted additional
  17:C:/Program Files (x86)/CodeBlocks/MinGW/lib/gcc/mingw32/4.9.2/include/c++\iostream **** // permissions described in the GCC Runtime Library Exception, version
  18:C:/Program Files (x86)/CodeBlocks/MinGW/lib/gcc/mingw32/4.9.2/include/c++\iostream **** // 3.1, as published by the Free Software Foundation.
  19:C:/Program Files (x86)/CodeBlocks/MinGW/lib/gcc/mingw32/4.9.2/include/c++\iostream **** 
  20:C:/Program Files (x86)/CodeBlocks/MinGW/lib/gcc/mingw32/4.9.2/include/c++\iostream **** // You should have received a copy of the GNU General Public License and
  21:C:/Program Files (x86)/CodeBlocks/MinGW/lib/gcc/mingw32/4.9.2/include/c++\iostream **** // a copy of the GCC Runtime Library Exception along with this program;
  22:C:/Program Files (x86)/CodeBlocks/MinGW/lib/gcc/mingw32/4.9.2/include/c++\iostream **** // see the files COPYING3 and COPYING.RUNTIME respectively.  If not, see
  23:C:/Program Files (x86)/CodeBlocks/MinGW/lib/gcc/mingw32/4.9.2/include/c++\iostream **** // <http://www.gnu.org/licenses/>.
  24:C:/Program Files (x86)/CodeBlocks/MinGW/lib/gcc/mingw32/4.9.2/include/c++\iostream **** 
  25:C:/Program Files (x86)/CodeBlocks/MinGW/lib/gcc/mingw32/4.9.2/include/c++\iostream **** /** @file include/iostream
  26:C:/Program Files (x86)/CodeBlocks/MinGW/lib/gcc/mingw32/4.9.2/include/c++\iostream ****  *  This is a Standard C++ Library header.
  27:C:/Program Files (x86)/CodeBlocks/MinGW/lib/gcc/mingw32/4.9.2/include/c++\iostream ****  */
  28:C:/Program Files (x86)/CodeBlocks/MinGW/lib/gcc/mingw32/4.9.2/include/c++\iostream **** 
  29:C:/Program Files (x86)/CodeBlocks/MinGW/lib/gcc/mingw32/4.9.2/include/c++\iostream **** //
  30:C:/Program Files (x86)/CodeBlocks/MinGW/lib/gcc/mingw32/4.9.2/include/c++\iostream **** // ISO C++ 14882: 27.3  Standard iostream objects
  31:C:/Program Files (x86)/CodeBlocks/MinGW/lib/gcc/mingw32/4.9.2/include/c++\iostream **** //
  32:C:/Program Files (x86)/CodeBlocks/MinGW/lib/gcc/mingw32/4.9.2/include/c++\iostream **** 
  33:C:/Program Files (x86)/CodeBlocks/MinGW/lib/gcc/mingw32/4.9.2/include/c++\iostream **** #ifndef _GLIBCXX_IOSTREAM
  34:C:/Program Files (x86)/CodeBlocks/MinGW/lib/gcc/mingw32/4.9.2/include/c++\iostream **** #define _GLIBCXX_IOSTREAM 1
  35:C:/Program Files (x86)/CodeBlocks/MinGW/lib/gcc/mingw32/4.9.2/include/c++\iostream **** 
  36:C:/Program Files (x86)/CodeBlocks/MinGW/lib/gcc/mingw32/4.9.2/include/c++\iostream **** #pragma GCC system_header
  37:C:/Program Files (x86)/CodeBlocks/MinGW/lib/gcc/mingw32/4.9.2/include/c++\iostream **** 
  38:C:/Program Files (x86)/CodeBlocks/MinGW/lib/gcc/mingw32/4.9.2/include/c++\iostream **** #include <bits/c++config.h>
  39:C:/Program Files (x86)/CodeBlocks/MinGW/lib/gcc/mingw32/4.9.2/include/c++\iostream **** #include <ostream>
  40:C:/Program Files (x86)/CodeBlocks/MinGW/lib/gcc/mingw32/4.9.2/include/c++\iostream **** #include <istream>
  41:C:/Program Files (x86)/CodeBlocks/MinGW/lib/gcc/mingw32/4.9.2/include/c++\iostream **** 
  42:C:/Program Files (x86)/CodeBlocks/MinGW/lib/gcc/mingw32/4.9.2/include/c++\iostream **** namespace std _GLIBCXX_VISIBILITY(default)
  43:C:/Program Files (x86)/CodeBlocks/MinGW/lib/gcc/mingw32/4.9.2/include/c++\iostream **** {
  44:C:/Program Files (x86)/CodeBlocks/MinGW/lib/gcc/mingw32/4.9.2/include/c++\iostream **** _GLIBCXX_BEGIN_NAMESPACE_VERSION
  45:C:/Program Files (x86)/CodeBlocks/MinGW/lib/gcc/mingw32/4.9.2/include/c++\iostream **** 
  46:C:/Program Files (x86)/CodeBlocks/MinGW/lib/gcc/mingw32/4.9.2/include/c++\iostream ****   /**
  47:C:/Program Files (x86)/CodeBlocks/MinGW/lib/gcc/mingw32/4.9.2/include/c++\iostream ****    *  @name Standard Stream Objects
  48:C:/Program Files (x86)/CodeBlocks/MinGW/lib/gcc/mingw32/4.9.2/include/c++\iostream ****    *
  49:C:/Program Files (x86)/CodeBlocks/MinGW/lib/gcc/mingw32/4.9.2/include/c++\iostream ****    *  The &lt;iostream&gt; header declares the eight <em>standard stream
  50:C:/Program Files (x86)/CodeBlocks/MinGW/lib/gcc/mingw32/4.9.2/include/c++\iostream ****    *  objects</em>.  For other declarations, see
  51:C:/Program Files (x86)/CodeBlocks/MinGW/lib/gcc/mingw32/4.9.2/include/c++\iostream ****    *  http://gcc.gnu.org/onlinedocs/libstdc++/manual/io.html
  52:C:/Program Files (x86)/CodeBlocks/MinGW/lib/gcc/mingw32/4.9.2/include/c++\iostream ****    *  and the @link iosfwd I/O forward declarations @endlink
  53:C:/Program Files (x86)/CodeBlocks/MinGW/lib/gcc/mingw32/4.9.2/include/c++\iostream ****    *
  54:C:/Program Files (x86)/CodeBlocks/MinGW/lib/gcc/mingw32/4.9.2/include/c++\iostream ****    *  They are required by default to cooperate with the global C
  55:C:/Program Files (x86)/CodeBlocks/MinGW/lib/gcc/mingw32/4.9.2/include/c++\iostream ****    *  library's @c FILE streams, and to be available during program
  56:C:/Program Files (x86)/CodeBlocks/MinGW/lib/gcc/mingw32/4.9.2/include/c++\iostream ****    *  startup and termination. For more information, see the section of the
  57:C:/Program Files (x86)/CodeBlocks/MinGW/lib/gcc/mingw32/4.9.2/include/c++\iostream ****    *  manual linked to above.
  58:C:/Program Files (x86)/CodeBlocks/MinGW/lib/gcc/mingw32/4.9.2/include/c++\iostream ****   */
  59:C:/Program Files (x86)/CodeBlocks/MinGW/lib/gcc/mingw32/4.9.2/include/c++\iostream ****   //@{
  60:C:/Program Files (x86)/CodeBlocks/MinGW/lib/gcc/mingw32/4.9.2/include/c++\iostream ****   extern istream cin;		/// Linked to standard input
  61:C:/Program Files (x86)/CodeBlocks/MinGW/lib/gcc/mingw32/4.9.2/include/c++\iostream ****   extern ostream cout;		/// Linked to standard output
  62:C:/Program Files (x86)/CodeBlocks/MinGW/lib/gcc/mingw32/4.9.2/include/c++\iostream ****   extern ostream cerr;		/// Linked to standard error (unbuffered)
  63:C:/Program Files (x86)/CodeBlocks/MinGW/lib/gcc/mingw32/4.9.2/include/c++\iostream ****   extern ostream clog;		/// Linked to standard error (buffered)
  64:C:/Program Files (x86)/CodeBlocks/MinGW/lib/gcc/mingw32/4.9.2/include/c++\iostream **** 
  65:C:/Program Files (x86)/CodeBlocks/MinGW/lib/gcc/mingw32/4.9.2/include/c++\iostream **** #ifdef _GLIBCXX_USE_WCHAR_T
  66:C:/Program Files (x86)/CodeBlocks/MinGW/lib/gcc/mingw32/4.9.2/include/c++\iostream ****   extern wistream wcin;		/// Linked to standard input
  67:C:/Program Files (x86)/CodeBlocks/MinGW/lib/gcc/mingw32/4.9.2/include/c++\iostream ****   extern wostream wcout;	/// Linked to standard output
  68:C:/Program Files (x86)/CodeBlocks/MinGW/lib/gcc/mingw32/4.9.2/include/c++\iostream ****   extern wostream wcerr;	/// Linked to standard error (unbuffered)
  69:C:/Program Files (x86)/CodeBlocks/MinGW/lib/gcc/mingw32/4.9.2/include/c++\iostream ****   extern wostream wclog;	/// Linked to standard error (buffered)
  70:C:/Program Files (x86)/CodeBlocks/MinGW/lib/gcc/mingw32/4.9.2/include/c++\iostream **** #endif
  71:C:/Program Files (x86)/CodeBlocks/MinGW/lib/gcc/mingw32/4.9.2/include/c++\iostream ****   //@}
  72:C:/Program Files (x86)/CodeBlocks/MinGW/lib/gcc/mingw32/4.9.2/include/c++\iostream **** 
GAS LISTING C:\Users\NJLLMR~1\AppData\Local\Temp\ccWOhw13.s 			page 35


  73:C:/Program Files (x86)/CodeBlocks/MinGW/lib/gcc/mingw32/4.9.2/include/c++\iostream ****   // For construction of filebuffers for cout, cin, cerr, clog et. al.
  74:C:/Program Files (x86)/CodeBlocks/MinGW/lib/gcc/mingw32/4.9.2/include/c++\iostream ****   static ios_base::Init __ioinit;
 1189              		.loc 2 74 0
 1190              		.cfi_startproc
 1191 0d47 55       		pushl	%ebp
 1192              		.cfi_def_cfa_offset 8
 1193              		.cfi_offset 5, -8
 1194 0d48 89E5     		movl	%esp, %ebp
 1195              		.cfi_def_cfa_register 5
 1196 0d4a 83EC08   		subl	$8, %esp
 1197              		.loc 2 74 0
 1198 0d4d B9000000 		movl	$__ZStL8__ioinit, %ecx
 1198      00
 1199 0d52 E8000000 		call	__ZNSt8ios_base4InitD1Ev
 1199      00
 1200 0d57 C9       		leave
 1201              		.cfi_restore 5
 1202              		.cfi_def_cfa 4, 4
 1203 0d58 C3       		ret
 1204              		.cfi_endproc
 1205              	LFE1188:
 1207              	__Z41__static_initialization_and_destruction_0ii:
 1208              	LFB1187:
 1209              		.loc 1 142 0
 1210              		.cfi_startproc
 1211 0d59 55       		pushl	%ebp
 1212              		.cfi_def_cfa_offset 8
 1213              		.cfi_offset 5, -8
 1214 0d5a 89E5     		movl	%esp, %ebp
 1215              		.cfi_def_cfa_register 5
 1216 0d5c 83EC18   		subl	$24, %esp
 1217              		.loc 1 142 0
 1218 0d5f 837D0801 		cmpl	$1, 8(%ebp)
 1219 0d63 751F     		jne	L81
 1220              		.loc 1 142 0 is_stmt 0 discriminator 1
 1221 0d65 817D0CFF 		cmpl	$65535, 12(%ebp)
 1221      FF0000
 1222 0d6c 7516     		jne	L81
 1223              		.loc 2 74 0 is_stmt 1
 1224 0d6e B9000000 		movl	$__ZStL8__ioinit, %ecx
 1224      00
 1225 0d73 E8000000 		call	__ZNSt8ios_base4InitC1Ev
 1225      00
 1226 0d78 C7042447 		movl	$___tcf_0, (%esp)
 1226      0D0000
 1227 0d7f E8000000 		call	_atexit
 1227      00
 1228              	L81:
 1229              		.loc 1 142 0
 1230 0d84 C9       		leave
 1231              		.cfi_restore 5
 1232              		.cfi_def_cfa 4, 4
 1233 0d85 C3       		ret
 1234              		.cfi_endproc
 1235              	LFE1187:
 1237              	__GLOBAL__sub_I__ZN7Main_uiC2Ev:
 1238              	LFB1189:
GAS LISTING C:\Users\NJLLMR~1\AppData\Local\Temp\ccWOhw13.s 			page 36


 1239              		.loc 1 142 0
 1240              		.cfi_startproc
 1241 0d86 55       		pushl	%ebp
 1242              		.cfi_def_cfa_offset 8
 1243              		.cfi_offset 5, -8
 1244 0d87 89E5     		movl	%esp, %ebp
 1245              		.cfi_def_cfa_register 5
 1246 0d89 83EC18   		subl	$24, %esp
 1247              		.loc 1 142 0
 1248 0d8c C7442404 		movl	$65535, 4(%esp)
 1248      FFFF0000 
 1249 0d94 C7042401 		movl	$1, (%esp)
 1249      000000
 1250 0d9b E8B9FFFF 		call	__Z41__static_initialization_and_destruction_0ii
 1250      FF
 1251 0da0 C9       		leave
 1252              		.cfi_restore 5
 1253              		.cfi_def_cfa 4, 4
 1254 0da1 C3       		ret
 1255              		.cfi_endproc
 1256              	LFE1189:
 1257              		.section	.ctors,"w"
 1258              		.align 4
 1259 0000 860D0000 		.long	__GLOBAL__sub_I__ZN7Main_uiC2Ev
 1260              		.text
 1261              	Letext0:
 1262              		.file 3 "include/ui/Main_ui.h"
 1263              		.file 4 "C:/Program Files (x86)/CodeBlocks/MinGW/lib/gcc/mingw32/4.9.2/include/stddef.h"
 1264              		.file 5 "C:/Program Files (x86)/CodeBlocks/MinGW/include/wctype.h"
 1265              		.file 6 "C:/Program Files (x86)/CodeBlocks/MinGW/include/wchar.h"
 1266              		.file 7 "C:/Program Files (x86)/CodeBlocks/MinGW/lib/gcc/mingw32/4.9.2/include/c++/cwchar"
 1267              		.file 8 "C:/Program Files (x86)/CodeBlocks/MinGW/lib/gcc/mingw32/4.9.2/include/c++/bits/char_trait
 1268              		.file 9 "C:/Program Files (x86)/CodeBlocks/MinGW/lib/gcc/mingw32/4.9.2/include/c++/mingw32/bits/c+
 1269              		.file 10 "C:/Program Files (x86)/CodeBlocks/MinGW/lib/gcc/mingw32/4.9.2/include/c++/clocale"
 1270              		.file 11 "C:/Program Files (x86)/CodeBlocks/MinGW/lib/gcc/mingw32/4.9.2/include/c++/bits/allocator
 1271              		.file 12 "C:/Program Files (x86)/CodeBlocks/MinGW/lib/gcc/mingw32/4.9.2/include/c++/bits/basic_str
 1272              		.file 13 "C:/Program Files (x86)/CodeBlocks/MinGW/lib/gcc/mingw32/4.9.2/include/c++/bits/basic_str
 1273              		.file 14 "C:/Program Files (x86)/CodeBlocks/MinGW/lib/gcc/mingw32/4.9.2/include/c++/bits/stringfwd
 1274              		.file 15 "C:/Program Files (x86)/CodeBlocks/MinGW/lib/gcc/mingw32/4.9.2/include/c++/bits/ios_base.
 1275              		.file 16 "C:/Program Files (x86)/CodeBlocks/MinGW/lib/gcc/mingw32/4.9.2/include/c++/cwctype"
 1276              		.file 17 "C:/Program Files (x86)/CodeBlocks/MinGW/lib/gcc/mingw32/4.9.2/include/c++/cstdio"
 1277              		.file 18 "C:/Program Files (x86)/CodeBlocks/MinGW/lib/gcc/mingw32/4.9.2/include/c++/iosfwd"
 1278              		.file 19 "<built-in>"
 1279              		.file 20 "C:/Program Files (x86)/CodeBlocks/MinGW/lib/gcc/mingw32/4.9.2/include/c++/debug/debug.h"
 1280              		.file 21 "C:/Program Files (x86)/CodeBlocks/MinGW/lib/gcc/mingw32/4.9.2/include/c++/bits/predefine
 1281              		.file 22 "C:/Program Files (x86)/CodeBlocks/MinGW/lib/gcc/mingw32/4.9.2/include/c++/ext/new_alloca
 1282              		.file 23 "C:/Program Files (x86)/CodeBlocks/MinGW/lib/gcc/mingw32/4.9.2/include/c++/ext/numeric_tr
 1283              		.file 24 "C:/Program Files (x86)/CodeBlocks/MinGW/include/locale.h"
 1284              		.file 25 "C:/Program Files (x86)/CodeBlocks/MinGW/lib/gcc/mingw32/4.9.2/include/c++/mingw32/bits/a
 1285              		.file 26 "C:/Program Files (x86)/CodeBlocks/MinGW/include/ctype.h"
 1286              		.file 27 "C:/Program Files (x86)/CodeBlocks/MinGW/include/stdio.h"
 1287              		.file 28 "include/models/Employee.h"
 1288              		.file 29 "include/Repository/Repository.h"
 1289              		.file 30 "include/services/Service.h"
 1290              		.file 31 "include/services/Validate.h"
 1291 0da2 9090     		.section	.debug_info,"dr"
 1292              	Ldebug_info0:
GAS LISTING C:\Users\NJLLMR~1\AppData\Local\Temp\ccWOhw13.s 			page 37


 1293 0000 5E500000 		.long	0x505e
 1294 0004 0400     		.word	0x4
 1295 0006 00000000 		.secrel32	Ldebug_abbrev0
 1296 000a 04       		.byte	0x4
 1297 000b 01       		.uleb128 0x1
 1298 000c 474E5520 		.ascii "GNU C++ 4.9.2 -mtune=generic -march=pentiumpro -g -fexceptions\0"
 1298      432B2B20 
 1298      342E392E 
 1298      32202D6D 
 1298      74756E65 
 1299 004b 04       		.byte	0x4
 1300 004c 433A5C55 		.ascii "C:\\Users\\Nj\341ll M\375rdal\\3viknanamskeid\\LitidVerk1\\Verkefni2\\Vikuverk2\\src\\ui\\
 1300      73657273 
 1300      5C4E6AE1 
 1300      6C6C204D 
 1300      FD726461 
 1301 00a3 433A5C55 		.ascii "C:\\Users\\Nj\341ll M\375rdal\\3viknanamskeid\\LitidVerk1\\Verkefni2\\Vikuverk2\0"
 1301      73657273 
 1301      5C4E6AE1 
 1301      6C6C204D 
 1301      FD726461 
 1302 00e7 00000000 		.long	Ltext0
 1303 00eb A20D0000 		.long	Letext0-Ltext0
 1304 00ef 00000000 		.secrel32	Ldebug_line0
 1305 00f3 02       		.uleb128 0x2
 1306 00f4 4D61696E 		.ascii "Main_ui\0"
 1306      5F756900 
 1307 00fc 01       		.byte	0x1
 1308 00fd 03       		.byte	0x3
 1309 00fe 05       		.byte	0x5
 1310 00ff 36020000 		.long	0x236
 1311 0103 03       		.uleb128 0x3
 1312 0104 4D61696E 		.ascii "Main_ui\0"
 1312      5F756900 
 1313 010c 03       		.byte	0x3
 1314 010d 08       		.byte	0x8
 1315 010e 01       		.byte	0x1
 1316 010f 17010000 		.long	0x117
 1317 0113 1D010000 		.long	0x11d
 1318 0117 04       		.uleb128 0x4
 1319 0118 36020000 		.long	0x236
 1320 011c 00       		.byte	0
 1321 011d 05       		.uleb128 0x5
 1322 011e 6D61696E 		.ascii "main_menu\0"
 1322      5F6D656E 
 1322      7500
 1323 0128 03       		.byte	0x3
 1324 0129 0A       		.byte	0xa
 1325 012a 5F5A4E37 		.ascii "_ZN7Main_ui9main_menuEv\0"
 1325      4D61696E 
 1325      5F756939 
 1325      6D61696E 
 1325      5F6D656E 
 1326 0142 01       		.byte	0x1
 1327 0143 4B010000 		.long	0x14b
 1328 0147 51010000 		.long	0x151
 1329 014b 04       		.uleb128 0x4
GAS LISTING C:\Users\NJLLMR~1\AppData\Local\Temp\ccWOhw13.s 			page 38


 1330 014c 36020000 		.long	0x236
 1331 0150 00       		.byte	0
 1332 0151 05       		.uleb128 0x5
 1333 0152 67657452 		.ascii "getRcrdMenu\0"
 1333      6372644D 
 1333      656E7500 
 1334 015e 03       		.byte	0x3
 1335 015f 0C       		.byte	0xc
 1336 0160 5F5A4E37 		.ascii "_ZN7Main_ui11getRcrdMenuEv\0"
 1336      4D61696E 
 1336      5F756931 
 1336      31676574 
 1336      52637264 
 1337 017b 01       		.byte	0x1
 1338 017c 84010000 		.long	0x184
 1339 0180 8A010000 		.long	0x18a
 1340 0184 04       		.uleb128 0x4
 1341 0185 36020000 		.long	0x236
 1342 0189 00       		.byte	0
 1343 018a 05       		.uleb128 0x5
 1344 018b 61646445 		.ascii "addEmplMenu\0"
 1344      6D706C4D 
 1344      656E7500 
 1345 0197 03       		.byte	0x3
 1346 0198 0E       		.byte	0xe
 1347 0199 5F5A4E37 		.ascii "_ZN7Main_ui11addEmplMenuEv\0"
 1347      4D61696E 
 1347      5F756931 
 1347      31616464 
 1347      456D706C 
 1348 01b4 01       		.byte	0x1
 1349 01b5 BD010000 		.long	0x1bd
 1350 01b9 C3010000 		.long	0x1c3
 1351 01bd 04       		.uleb128 0x4
 1352 01be 36020000 		.long	0x236
 1353 01c2 00       		.byte	0
 1354 01c3 05       		.uleb128 0x5
 1355 01c4 67657448 		.ascii "getHiPayMenu\0"
 1355      69506179 
 1355      4D656E75 
 1355      00
 1356 01d1 03       		.byte	0x3
 1357 01d2 10       		.byte	0x10
 1358 01d3 5F5A4E37 		.ascii "_ZN7Main_ui12getHiPayMenuEv\0"
 1358      4D61696E 
 1358      5F756931 
 1358      32676574 
 1358      48695061 
 1359 01ef 01       		.byte	0x1
 1360 01f0 F8010000 		.long	0x1f8
 1361 01f4 FE010000 		.long	0x1fe
 1362 01f8 04       		.uleb128 0x4
 1363 01f9 36020000 		.long	0x236
 1364 01fd 00       		.byte	0
 1365 01fe 06       		.uleb128 0x6
 1366 01ff 67657459 		.ascii "getYrPayMenu\0"
 1366      72506179 
GAS LISTING C:\Users\NJLLMR~1\AppData\Local\Temp\ccWOhw13.s 			page 39


 1366      4D656E75 
 1366      00
 1367 020c 03       		.byte	0x3
 1368 020d 12       		.byte	0x12
 1369 020e 5F5A4E37 		.ascii "_ZN7Main_ui12getYrPayMenuEv\0"
 1369      4D61696E 
 1369      5F756931 
 1369      32676574 
 1369      59725061 
 1370 022a 01       		.byte	0x1
 1371 022b 2F020000 		.long	0x22f
 1372 022f 04       		.uleb128 0x4
 1373 0230 36020000 		.long	0x236
 1374 0234 00       		.byte	0
 1375 0235 00       		.byte	0
 1376 0236 07       		.uleb128 0x7
 1377 0237 04       		.byte	0x4
 1378 0238 F3000000 		.long	0xf3
 1379 023c 08       		.uleb128 0x8
 1380 023d 73697A65 		.ascii "size_t\0"
 1380      5F7400
 1381 0244 04       		.byte	0x4
 1382 0245 D4       		.byte	0xd4
 1383 0246 4A020000 		.long	0x24a
 1384 024a 09       		.uleb128 0x9
 1385 024b 04       		.byte	0x4
 1386 024c 07       		.byte	0x7
 1387 024d 756E7369 		.ascii "unsigned int\0"
 1387      676E6564 
 1387      20696E74 
 1387      00
 1388 025a 0A       		.uleb128 0xa
 1389 025b 77696E74 		.ascii "wint_t\0"
 1389      5F7400
 1390 0262 04       		.byte	0x4
 1391 0263 6101     		.word	0x161
 1392 0265 69020000 		.long	0x269
 1393 0269 09       		.uleb128 0x9
 1394 026a 02       		.byte	0x2
 1395 026b 07       		.byte	0x7
 1396 026c 73686F72 		.ascii "short unsigned int\0"
 1396      7420756E 
 1396      7369676E 
 1396      65642069 
 1396      6E7400
 1397 027f 0B       		.uleb128 0xb
 1398 0280 04       		.byte	0x4
 1399 0281 5F5F6275 		.ascii "__builtin_va_list\0"
 1399      696C7469 
 1399      6E5F7661 
 1399      5F6C6973 
 1399      7400
 1400 0293 97020000 		.long	0x297
 1401 0297 09       		.uleb128 0x9
 1402 0298 01       		.byte	0x1
 1403 0299 06       		.byte	0x6
 1404 029a 63686172 		.ascii "char\0"
GAS LISTING C:\Users\NJLLMR~1\AppData\Local\Temp\ccWOhw13.s 			page 40


 1404      00
 1405 029f 08       		.uleb128 0x8
 1406 02a0 77637479 		.ascii "wctype_t\0"
 1406      70655F74 
 1406      00
 1407 02a9 05       		.byte	0x5
 1408 02aa 3E       		.byte	0x3e
 1409 02ab AF020000 		.long	0x2af
 1410 02af 09       		.uleb128 0x9
 1411 02b0 02       		.byte	0x2
 1412 02b1 07       		.byte	0x7
 1413 02b2 77636861 		.ascii "wchar_t\0"
 1413      725F7400 
 1414 02ba 08       		.uleb128 0x8
 1415 02bb 77637472 		.ascii "wctrans_t\0"
 1415      616E735F 
 1415      7400
 1416 02c5 05       		.byte	0x5
 1417 02c6 94       		.byte	0x94
 1418 02c7 AF020000 		.long	0x2af
 1419 02cb 09       		.uleb128 0x9
 1420 02cc 04       		.byte	0x4
 1421 02cd 05       		.byte	0x5
 1422 02ce 696E7400 		.ascii "int\0"
 1423 02d2 09       		.uleb128 0x9
 1424 02d3 04       		.byte	0x4
 1425 02d4 05       		.byte	0x5
 1426 02d5 6C6F6E67 		.ascii "long int\0"
 1426      20696E74 
 1426      00
 1427 02de 09       		.uleb128 0x9
 1428 02df 08       		.byte	0x8
 1429 02e0 05       		.byte	0x5
 1430 02e1 6C6F6E67 		.ascii "long long int\0"
 1430      206C6F6E 
 1430      6720696E 
 1430      7400
 1431 02ef 09       		.uleb128 0x9
 1432 02f0 02       		.byte	0x2
 1433 02f1 05       		.byte	0x5
 1434 02f2 73686F72 		.ascii "short int\0"
 1434      7420696E 
 1434      7400
 1435 02fc 0C       		.uleb128 0xc
 1436 02fd 5F696F62 		.ascii "_iobuf\0"
 1436      756600
 1437 0304 20       		.byte	0x20
 1438 0305 06       		.byte	0x6
 1439 0306 44       		.byte	0x44
 1440 0307 83030000 		.long	0x383
 1441 030b 0D       		.uleb128 0xd
 1442 030c 5F707472 		.ascii "_ptr\0"
 1442      00
 1443 0311 06       		.byte	0x6
 1444 0312 46       		.byte	0x46
 1445 0313 83030000 		.long	0x383
 1446 0317 00       		.byte	0
GAS LISTING C:\Users\NJLLMR~1\AppData\Local\Temp\ccWOhw13.s 			page 41


 1447 0318 0D       		.uleb128 0xd
 1448 0319 5F636E74 		.ascii "_cnt\0"
 1448      00
 1449 031e 06       		.byte	0x6
 1450 031f 47       		.byte	0x47
 1451 0320 CB020000 		.long	0x2cb
 1452 0324 04       		.byte	0x4
 1453 0325 0D       		.uleb128 0xd
 1454 0326 5F626173 		.ascii "_base\0"
 1454      6500
 1455 032c 06       		.byte	0x6
 1456 032d 48       		.byte	0x48
 1457 032e 83030000 		.long	0x383
 1458 0332 08       		.byte	0x8
 1459 0333 0D       		.uleb128 0xd
 1460 0334 5F666C61 		.ascii "_flag\0"
 1460      6700
 1461 033a 06       		.byte	0x6
 1462 033b 49       		.byte	0x49
 1463 033c CB020000 		.long	0x2cb
 1464 0340 0C       		.byte	0xc
 1465 0341 0D       		.uleb128 0xd
 1466 0342 5F66696C 		.ascii "_file\0"
 1466      6500
 1467 0348 06       		.byte	0x6
 1468 0349 4A       		.byte	0x4a
 1469 034a CB020000 		.long	0x2cb
 1470 034e 10       		.byte	0x10
 1471 034f 0D       		.uleb128 0xd
 1472 0350 5F636861 		.ascii "_charbuf\0"
 1472      72627566 
 1472      00
 1473 0359 06       		.byte	0x6
 1474 035a 4B       		.byte	0x4b
 1475 035b CB020000 		.long	0x2cb
 1476 035f 14       		.byte	0x14
 1477 0360 0D       		.uleb128 0xd
 1478 0361 5F627566 		.ascii "_bufsiz\0"
 1478      73697A00 
 1479 0369 06       		.byte	0x6
 1480 036a 4C       		.byte	0x4c
 1481 036b CB020000 		.long	0x2cb
 1482 036f 18       		.byte	0x18
 1483 0370 0D       		.uleb128 0xd
 1484 0371 5F746D70 		.ascii "_tmpfname\0"
 1484      666E616D 
 1484      6500
 1485 037b 06       		.byte	0x6
 1486 037c 4D       		.byte	0x4d
 1487 037d 83030000 		.long	0x383
 1488 0381 1C       		.byte	0x1c
 1489 0382 00       		.byte	0
 1490 0383 07       		.uleb128 0x7
 1491 0384 04       		.byte	0x4
 1492 0385 97020000 		.long	0x297
 1493 0389 08       		.uleb128 0x8
 1494 038a 46494C45 		.ascii "FILE\0"
GAS LISTING C:\Users\NJLLMR~1\AppData\Local\Temp\ccWOhw13.s 			page 42


 1494      00
 1495 038f 06       		.byte	0x6
 1496 0390 4E       		.byte	0x4e
 1497 0391 FC020000 		.long	0x2fc
 1498 0395 0C       		.uleb128 0xc
 1499 0396 746D00   		.ascii "tm\0"
 1500 0399 24       		.byte	0x24
 1501 039a 06       		.byte	0x6
 1502 039b 57       		.byte	0x57
 1503 039c 2F040000 		.long	0x42f
 1504 03a0 0D       		.uleb128 0xd
 1505 03a1 746D5F73 		.ascii "tm_sec\0"
 1505      656300
 1506 03a8 06       		.byte	0x6
 1507 03a9 58       		.byte	0x58
 1508 03aa CB020000 		.long	0x2cb
 1509 03ae 00       		.byte	0
 1510 03af 0D       		.uleb128 0xd
 1511 03b0 746D5F6D 		.ascii "tm_min\0"
 1511      696E00
 1512 03b7 06       		.byte	0x6
 1513 03b8 59       		.byte	0x59
 1514 03b9 CB020000 		.long	0x2cb
 1515 03bd 04       		.byte	0x4
 1516 03be 0D       		.uleb128 0xd
 1517 03bf 746D5F68 		.ascii "tm_hour\0"
 1517      6F757200 
 1518 03c7 06       		.byte	0x6
 1519 03c8 5A       		.byte	0x5a
 1520 03c9 CB020000 		.long	0x2cb
 1521 03cd 08       		.byte	0x8
 1522 03ce 0D       		.uleb128 0xd
 1523 03cf 746D5F6D 		.ascii "tm_mday\0"
 1523      64617900 
 1524 03d7 06       		.byte	0x6
 1525 03d8 5B       		.byte	0x5b
 1526 03d9 CB020000 		.long	0x2cb
 1527 03dd 0C       		.byte	0xc
 1528 03de 0D       		.uleb128 0xd
 1529 03df 746D5F6D 		.ascii "tm_mon\0"
 1529      6F6E00
 1530 03e6 06       		.byte	0x6
 1531 03e7 5C       		.byte	0x5c
 1532 03e8 CB020000 		.long	0x2cb
 1533 03ec 10       		.byte	0x10
 1534 03ed 0D       		.uleb128 0xd
 1535 03ee 746D5F79 		.ascii "tm_year\0"
 1535      65617200 
 1536 03f6 06       		.byte	0x6
 1537 03f7 5D       		.byte	0x5d
 1538 03f8 CB020000 		.long	0x2cb
 1539 03fc 14       		.byte	0x14
 1540 03fd 0D       		.uleb128 0xd
 1541 03fe 746D5F77 		.ascii "tm_wday\0"
 1541      64617900 
 1542 0406 06       		.byte	0x6
 1543 0407 5E       		.byte	0x5e
GAS LISTING C:\Users\NJLLMR~1\AppData\Local\Temp\ccWOhw13.s 			page 43


 1544 0408 CB020000 		.long	0x2cb
 1545 040c 18       		.byte	0x18
 1546 040d 0D       		.uleb128 0xd
 1547 040e 746D5F79 		.ascii "tm_yday\0"
 1547      64617900 
 1548 0416 06       		.byte	0x6
 1549 0417 5F       		.byte	0x5f
 1550 0418 CB020000 		.long	0x2cb
 1551 041c 1C       		.byte	0x1c
 1552 041d 0D       		.uleb128 0xd
 1553 041e 746D5F69 		.ascii "tm_isdst\0"
 1553      73647374 
 1553      00
 1554 0427 06       		.byte	0x6
 1555 0428 60       		.byte	0x60
 1556 0429 CB020000 		.long	0x2cb
 1557 042d 20       		.byte	0x20
 1558 042e 00       		.byte	0
 1559 042f 0A       		.uleb128 0xa
 1560 0430 6D627374 		.ascii "mbstate_t\0"
 1560      6174655F 
 1560      7400
 1561 043a 06       		.byte	0x6
 1562 043b 2701     		.word	0x127
 1563 043d CB020000 		.long	0x2cb
 1564 0441 09       		.uleb128 0x9
 1565 0442 04       		.byte	0x4
 1566 0443 07       		.byte	0x7
 1567 0444 6C6F6E67 		.ascii "long unsigned int\0"
 1567      20756E73 
 1567      69676E65 
 1567      6420696E 
 1567      7400
 1568 0456 09       		.uleb128 0x9
 1569 0457 04       		.byte	0x4
 1570 0458 07       		.byte	0x7
 1571 0459 73697A65 		.ascii "sizetype\0"
 1571      74797065 
 1571      00
 1572 0462 09       		.uleb128 0x9
 1573 0463 01       		.byte	0x1
 1574 0464 06       		.byte	0x6
 1575 0465 7369676E 		.ascii "signed char\0"
 1575      65642063 
 1575      68617200 
 1576 0471 09       		.uleb128 0x9
 1577 0472 01       		.byte	0x1
 1578 0473 08       		.byte	0x8
 1579 0474 756E7369 		.ascii "unsigned char\0"
 1579      676E6564 
 1579      20636861 
 1579      7200
 1580 0482 09       		.uleb128 0x9
 1581 0483 08       		.byte	0x8
 1582 0484 07       		.byte	0x7
 1583 0485 6C6F6E67 		.ascii "long long unsigned int\0"
 1583      206C6F6E 
GAS LISTING C:\Users\NJLLMR~1\AppData\Local\Temp\ccWOhw13.s 			page 44


 1583      6720756E 
 1583      7369676E 
 1583      65642069 
 1584 049c 0E       		.uleb128 0xe
 1585 049d 73746400 		.ascii "std\0"
 1586 04a1 13       		.byte	0x13
 1587 04a2 00       		.byte	0
 1588 04a3 5C360000 		.long	0x365c
 1589 04a7 0F       		.uleb128 0xf
 1590 04a8 07       		.byte	0x7
 1591 04a9 40       		.byte	0x40
 1592 04aa 2F040000 		.long	0x42f
 1593 04ae 0F       		.uleb128 0xf
 1594 04af 07       		.byte	0x7
 1595 04b0 8B       		.byte	0x8b
 1596 04b1 5A020000 		.long	0x25a
 1597 04b5 0F       		.uleb128 0xf
 1598 04b6 07       		.byte	0x7
 1599 04b7 8D       		.byte	0x8d
 1600 04b8 5C360000 		.long	0x365c
 1601 04bc 0F       		.uleb128 0xf
 1602 04bd 07       		.byte	0x7
 1603 04be 8E       		.byte	0x8e
 1604 04bf 74360000 		.long	0x3674
 1605 04c3 0F       		.uleb128 0xf
 1606 04c4 07       		.byte	0x7
 1607 04c5 8F       		.byte	0x8f
 1608 04c6 92360000 		.long	0x3692
 1609 04ca 0F       		.uleb128 0xf
 1610 04cb 07       		.byte	0x7
 1611 04cc 90       		.byte	0x90
 1612 04cd BA360000 		.long	0x36ba
 1613 04d1 0F       		.uleb128 0xf
 1614 04d2 07       		.byte	0x7
 1615 04d3 91       		.byte	0x91
 1616 04d4 D7360000 		.long	0x36d7
 1617 04d8 0F       		.uleb128 0xf
 1618 04d9 07       		.byte	0x7
 1619 04da 92       		.byte	0x92
 1620 04db FF360000 		.long	0x36ff
 1621 04df 0F       		.uleb128 0xf
 1622 04e0 07       		.byte	0x7
 1623 04e1 93       		.byte	0x93
 1624 04e2 1C370000 		.long	0x371c
 1625 04e6 0F       		.uleb128 0xf
 1626 04e7 07       		.byte	0x7
 1627 04e8 94       		.byte	0x94
 1628 04e9 3C370000 		.long	0x373c
 1629 04ed 0F       		.uleb128 0xf
 1630 04ee 07       		.byte	0x7
 1631 04ef 95       		.byte	0x95
 1632 04f0 5B370000 		.long	0x375b
 1633 04f4 0F       		.uleb128 0xf
 1634 04f5 07       		.byte	0x7
 1635 04f6 96       		.byte	0x96
 1636 04f7 72370000 		.long	0x3772
 1637 04fb 0F       		.uleb128 0xf
GAS LISTING C:\Users\NJLLMR~1\AppData\Local\Temp\ccWOhw13.s 			page 45


 1638 04fc 07       		.byte	0x7
 1639 04fd 97       		.byte	0x97
 1640 04fe 82370000 		.long	0x3782
 1641 0502 0F       		.uleb128 0xf
 1642 0503 07       		.byte	0x7
 1643 0504 98       		.byte	0x98
 1644 0505 B6370000 		.long	0x37b6
 1645 0509 0F       		.uleb128 0xf
 1646 050a 07       		.byte	0x7
 1647 050b 99       		.byte	0x99
 1648 050c DF370000 		.long	0x37df
 1649 0510 0F       		.uleb128 0xf
 1650 0511 07       		.byte	0x7
 1651 0512 9A       		.byte	0x9a
 1652 0513 04380000 		.long	0x3804
 1653 0517 0F       		.uleb128 0xf
 1654 0518 07       		.byte	0x7
 1655 0519 9B       		.byte	0x9b
 1656 051a 35380000 		.long	0x3835
 1657 051e 0F       		.uleb128 0xf
 1658 051f 07       		.byte	0x7
 1659 0520 9C       		.byte	0x9c
 1660 0521 51380000 		.long	0x3851
 1661 0525 0F       		.uleb128 0xf
 1662 0526 07       		.byte	0x7
 1663 0527 A0       		.byte	0xa0
 1664 0528 6B380000 		.long	0x386b
 1665 052c 0F       		.uleb128 0xf
 1666 052d 07       		.byte	0x7
 1667 052e A1       		.byte	0xa1
 1668 052f 8A380000 		.long	0x388a
 1669 0533 0F       		.uleb128 0xf
 1670 0534 07       		.byte	0x7
 1671 0535 A2       		.byte	0xa2
 1672 0536 A8380000 		.long	0x38a8
 1673 053a 0F       		.uleb128 0xf
 1674 053b 07       		.byte	0x7
 1675 053c A4       		.byte	0xa4
 1676 053d CD380000 		.long	0x38cd
 1677 0541 0F       		.uleb128 0xf
 1678 0542 07       		.byte	0x7
 1679 0543 AA       		.byte	0xaa
 1680 0544 F1380000 		.long	0x38f1
 1681 0548 0F       		.uleb128 0xf
 1682 0549 07       		.byte	0x7
 1683 054a AC       		.byte	0xac
 1684 054b 15390000 		.long	0x3915
 1685 054f 0F       		.uleb128 0xf
 1686 0550 07       		.byte	0x7
 1687 0551 AE       		.byte	0xae
 1688 0552 34390000 		.long	0x3934
 1689 0556 0F       		.uleb128 0xf
 1690 0557 07       		.byte	0x7
 1691 0558 B0       		.byte	0xb0
 1692 0559 52390000 		.long	0x3952
 1693 055d 0F       		.uleb128 0xf
 1694 055e 07       		.byte	0x7
GAS LISTING C:\Users\NJLLMR~1\AppData\Local\Temp\ccWOhw13.s 			page 46


 1695 055f B1       		.byte	0xb1
 1696 0560 76390000 		.long	0x3976
 1697 0564 0F       		.uleb128 0xf
 1698 0565 07       		.byte	0x7
 1699 0566 B2       		.byte	0xb2
 1700 0567 93390000 		.long	0x3993
 1701 056b 0F       		.uleb128 0xf
 1702 056c 07       		.byte	0x7
 1703 056d B3       		.byte	0xb3
 1704 056e B0390000 		.long	0x39b0
 1705 0572 0F       		.uleb128 0xf
 1706 0573 07       		.byte	0x7
 1707 0574 B4       		.byte	0xb4
 1708 0575 CE390000 		.long	0x39ce
 1709 0579 0F       		.uleb128 0xf
 1710 057a 07       		.byte	0x7
 1711 057b B5       		.byte	0xb5
 1712 057c EB390000 		.long	0x39eb
 1713 0580 0F       		.uleb128 0xf
 1714 0581 07       		.byte	0x7
 1715 0582 B6       		.byte	0xb6
 1716 0583 093A0000 		.long	0x3a09
 1717 0587 0F       		.uleb128 0xf
 1718 0588 07       		.byte	0x7
 1719 0589 B7       		.byte	0xb7
 1720 058a 3D3A0000 		.long	0x3a3d
 1721 058e 0F       		.uleb128 0xf
 1722 058f 07       		.byte	0x7
 1723 0590 B8       		.byte	0xb8
 1724 0591 553A0000 		.long	0x3a55
 1725 0595 0F       		.uleb128 0xf
 1726 0596 07       		.byte	0x7
 1727 0597 B9       		.byte	0xb9
 1728 0598 783A0000 		.long	0x3a78
 1729 059c 0F       		.uleb128 0xf
 1730 059d 07       		.byte	0x7
 1731 059e BA       		.byte	0xba
 1732 059f 9B3A0000 		.long	0x3a9b
 1733 05a3 0F       		.uleb128 0xf
 1734 05a4 07       		.byte	0x7
 1735 05a5 BB       		.byte	0xbb
 1736 05a6 BE3A0000 		.long	0x3abe
 1737 05aa 0F       		.uleb128 0xf
 1738 05ab 07       		.byte	0x7
 1739 05ac BC       		.byte	0xbc
 1740 05ad EF3A0000 		.long	0x3aef
 1741 05b1 0F       		.uleb128 0xf
 1742 05b2 07       		.byte	0x7
 1743 05b3 BD       		.byte	0xbd
 1744 05b4 0C3B0000 		.long	0x3b0c
 1745 05b8 0F       		.uleb128 0xf
 1746 05b9 07       		.byte	0x7
 1747 05ba BF       		.byte	0xbf
 1748 05bb 393B0000 		.long	0x3b39
 1749 05bf 0F       		.uleb128 0xf
 1750 05c0 07       		.byte	0x7
 1751 05c1 C1       		.byte	0xc1
GAS LISTING C:\Users\NJLLMR~1\AppData\Local\Temp\ccWOhw13.s 			page 47


 1752 05c2 5F3B0000 		.long	0x3b5f
 1753 05c6 0F       		.uleb128 0xf
 1754 05c7 07       		.byte	0x7
 1755 05c8 C2       		.byte	0xc2
 1756 05c9 7C3B0000 		.long	0x3b7c
 1757 05cd 0F       		.uleb128 0xf
 1758 05ce 07       		.byte	0x7
 1759 05cf C3       		.byte	0xc3
 1760 05d0 9E3B0000 		.long	0x3b9e
 1761 05d4 0F       		.uleb128 0xf
 1762 05d5 07       		.byte	0x7
 1763 05d6 C4       		.byte	0xc4
 1764 05d7 C13B0000 		.long	0x3bc1
 1765 05db 0F       		.uleb128 0xf
 1766 05dc 07       		.byte	0x7
 1767 05dd C5       		.byte	0xc5
 1768 05de E43B0000 		.long	0x3be4
 1769 05e2 0F       		.uleb128 0xf
 1770 05e3 07       		.byte	0x7
 1771 05e4 C6       		.byte	0xc6
 1772 05e5 FC3B0000 		.long	0x3bfc
 1773 05e9 0F       		.uleb128 0xf
 1774 05ea 07       		.byte	0x7
 1775 05eb C7       		.byte	0xc7
 1776 05ec 203C0000 		.long	0x3c20
 1777 05f0 0F       		.uleb128 0xf
 1778 05f1 07       		.byte	0x7
 1779 05f2 C8       		.byte	0xc8
 1780 05f3 443C0000 		.long	0x3c44
 1781 05f7 0F       		.uleb128 0xf
 1782 05f8 07       		.byte	0x7
 1783 05f9 C9       		.byte	0xc9
 1784 05fa 693C0000 		.long	0x3c69
 1785 05fe 0F       		.uleb128 0xf
 1786 05ff 07       		.byte	0x7
 1787 0600 CA       		.byte	0xca
 1788 0601 8D3C0000 		.long	0x3c8d
 1789 0605 0F       		.uleb128 0xf
 1790 0606 07       		.byte	0x7
 1791 0607 CB       		.byte	0xcb
 1792 0608 A73C0000 		.long	0x3ca7
 1793 060c 0F       		.uleb128 0xf
 1794 060d 07       		.byte	0x7
 1795 060e CC       		.byte	0xcc
 1796 060f C03C0000 		.long	0x3cc0
 1797 0613 0F       		.uleb128 0xf
 1798 0614 07       		.byte	0x7
 1799 0615 CD       		.byte	0xcd
 1800 0616 DD3C0000 		.long	0x3cdd
 1801 061a 0F       		.uleb128 0xf
 1802 061b 07       		.byte	0x7
 1803 061c CE       		.byte	0xce
 1804 061d FB3C0000 		.long	0x3cfb
 1805 0621 0F       		.uleb128 0xf
 1806 0622 07       		.byte	0x7
 1807 0623 CF       		.byte	0xcf
 1808 0624 193D0000 		.long	0x3d19
GAS LISTING C:\Users\NJLLMR~1\AppData\Local\Temp\ccWOhw13.s 			page 48


 1809 0628 0F       		.uleb128 0xf
 1810 0629 07       		.byte	0x7
 1811 062a D0       		.byte	0xd0
 1812 062b 363D0000 		.long	0x3d36
 1813 062f 10       		.uleb128 0x10
 1814 0630 07       		.byte	0x7
 1815 0631 0801     		.word	0x108
 1816 0633 E6420000 		.long	0x42e6
 1817 0637 10       		.uleb128 0x10
 1818 0638 07       		.byte	0x7
 1819 0639 0901     		.word	0x109
 1820 063b 13430000 		.long	0x4313
 1821 063f 10       		.uleb128 0x10
 1822 0640 07       		.byte	0x7
 1823 0641 0A01     		.word	0x10a
 1824 0643 37430000 		.long	0x4337
 1825 0647 11       		.uleb128 0x11
 1826 0648 5F5F6465 		.ascii "__debug\0"
 1826      62756700 
 1827 0650 14       		.byte	0x14
 1828 0651 30       		.byte	0x30
 1829 0652 0C       		.uleb128 0xc
 1830 0653 63686172 		.ascii "char_traits<char>\0"
 1830      5F747261 
 1830      6974733C 
 1830      63686172 
 1830      3E00
 1831 0665 01       		.byte	0x1
 1832 0666 08       		.byte	0x8
 1833 0667 E9       		.byte	0xe9
 1834 0668 090A0000 		.long	0xa09
 1835 066c 08       		.uleb128 0x8
 1836 066d 63686172 		.ascii "char_type\0"
 1836      5F747970 
 1836      6500
 1837 0677 08       		.byte	0x8
 1838 0678 EB       		.byte	0xeb
 1839 0679 97020000 		.long	0x297
 1840 067d 08       		.uleb128 0x8
 1841 067e 696E745F 		.ascii "int_type\0"
 1841      74797065 
 1841      00
 1842 0687 08       		.byte	0x8
 1843 0688 EC       		.byte	0xec
 1844 0689 CB020000 		.long	0x2cb
 1845 068d 12       		.uleb128 0x12
 1846 068e 37010000 		.secrel32	LASF1
 1847 0692 08       		.byte	0x8
 1848 0693 F2       		.byte	0xf2
 1849 0694 5F5A4E53 		.ascii "_ZNSt11char_traitsIcE6assignERcRKc\0"
 1849      74313163 
 1849      6861725F 
 1849      74726169 
 1849      74734963 
 1850 06b7 C6060000 		.long	0x6c6
 1851 06bb 13       		.uleb128 0x13
 1852 06bc 77430000 		.long	0x4377
GAS LISTING C:\Users\NJLLMR~1\AppData\Local\Temp\ccWOhw13.s 			page 49


 1853 06c0 13       		.uleb128 0x13
 1854 06c1 7D430000 		.long	0x437d
 1855 06c5 00       		.byte	0
 1856 06c6 14       		.uleb128 0x14
 1857 06c7 6C060000 		.long	0x66c
 1858 06cb 15       		.uleb128 0x15
 1859 06cc 657100   		.ascii "eq\0"
 1860 06cf 08       		.byte	0x8
 1861 06d0 F6       		.byte	0xf6
 1862 06d1 5F5A4E53 		.ascii "_ZNSt11char_traitsIcE2eqERKcS2_\0"
 1862      74313163 
 1862      6861725F 
 1862      74726169 
 1862      74734963 
 1863 06f1 83430000 		.long	0x4383
 1864 06f5 04070000 		.long	0x704
 1865 06f9 13       		.uleb128 0x13
 1866 06fa 7D430000 		.long	0x437d
 1867 06fe 13       		.uleb128 0x13
 1868 06ff 7D430000 		.long	0x437d
 1869 0703 00       		.byte	0
 1870 0704 15       		.uleb128 0x15
 1871 0705 6C7400   		.ascii "lt\0"
 1872 0708 08       		.byte	0x8
 1873 0709 FA       		.byte	0xfa
 1874 070a 5F5A4E53 		.ascii "_ZNSt11char_traitsIcE2ltERKcS2_\0"
 1874      74313163 
 1874      6861725F 
 1874      74726169 
 1874      74734963 
 1875 072a 83430000 		.long	0x4383
 1876 072e 3D070000 		.long	0x73d
 1877 0732 13       		.uleb128 0x13
 1878 0733 7D430000 		.long	0x437d
 1879 0737 13       		.uleb128 0x13
 1880 0738 7D430000 		.long	0x437d
 1881 073c 00       		.byte	0
 1882 073d 16       		.uleb128 0x16
 1883 073e 2F010000 		.secrel32	LASF0
 1884 0742 08       		.byte	0x8
 1885 0743 0201     		.word	0x102
 1886 0745 5F5A4E53 		.ascii "_ZNSt11char_traitsIcE7compareEPKcS2_j\0"
 1886      74313163 
 1886      6861725F 
 1886      74726169 
 1886      74734963 
 1887 076b CB020000 		.long	0x2cb
 1888 076f 83070000 		.long	0x783
 1889 0773 13       		.uleb128 0x13
 1890 0774 8B430000 		.long	0x438b
 1891 0778 13       		.uleb128 0x13
 1892 0779 8B430000 		.long	0x438b
 1893 077d 13       		.uleb128 0x13
 1894 077e 090A0000 		.long	0xa09
 1895 0782 00       		.byte	0
 1896 0783 17       		.uleb128 0x17
 1897 0784 6C656E67 		.ascii "length\0"
GAS LISTING C:\Users\NJLLMR~1\AppData\Local\Temp\ccWOhw13.s 			page 50


 1897      746800
 1898 078b 08       		.byte	0x8
 1899 078c 0601     		.word	0x106
 1900 078e 5F5A4E53 		.ascii "_ZNSt11char_traitsIcE6lengthEPKc\0"
 1900      74313163 
 1900      6861725F 
 1900      74726169 
 1900      74734963 
 1901 07af 090A0000 		.long	0xa09
 1902 07b3 BD070000 		.long	0x7bd
 1903 07b7 13       		.uleb128 0x13
 1904 07b8 8B430000 		.long	0x438b
 1905 07bc 00       		.byte	0
 1906 07bd 17       		.uleb128 0x17
 1907 07be 66696E64 		.ascii "find\0"
 1907      00
 1908 07c3 08       		.byte	0x8
 1909 07c4 0A01     		.word	0x10a
 1910 07c6 5F5A4E53 		.ascii "_ZNSt11char_traitsIcE4findEPKcjRS1_\0"
 1910      74313163 
 1910      6861725F 
 1910      74726169 
 1910      74734963 
 1911 07ea 8B430000 		.long	0x438b
 1912 07ee 02080000 		.long	0x802
 1913 07f2 13       		.uleb128 0x13
 1914 07f3 8B430000 		.long	0x438b
 1915 07f7 13       		.uleb128 0x13
 1916 07f8 090A0000 		.long	0xa09
 1917 07fc 13       		.uleb128 0x13
 1918 07fd 7D430000 		.long	0x437d
 1919 0801 00       		.byte	0
 1920 0802 17       		.uleb128 0x17
 1921 0803 6D6F7665 		.ascii "move\0"
 1921      00
 1922 0808 08       		.byte	0x8
 1923 0809 0E01     		.word	0x10e
 1924 080b 5F5A4E53 		.ascii "_ZNSt11char_traitsIcE4moveEPcPKcj\0"
 1924      74313163 
 1924      6861725F 
 1924      74726169 
 1924      74734963 
 1925 082d 91430000 		.long	0x4391
 1926 0831 45080000 		.long	0x845
 1927 0835 13       		.uleb128 0x13
 1928 0836 91430000 		.long	0x4391
 1929 083a 13       		.uleb128 0x13
 1930 083b 8B430000 		.long	0x438b
 1931 083f 13       		.uleb128 0x13
 1932 0840 090A0000 		.long	0xa09
 1933 0844 00       		.byte	0
 1934 0845 17       		.uleb128 0x17
 1935 0846 636F7079 		.ascii "copy\0"
 1935      00
 1936 084b 08       		.byte	0x8
 1937 084c 1201     		.word	0x112
 1938 084e 5F5A4E53 		.ascii "_ZNSt11char_traitsIcE4copyEPcPKcj\0"
GAS LISTING C:\Users\NJLLMR~1\AppData\Local\Temp\ccWOhw13.s 			page 51


 1938      74313163 
 1938      6861725F 
 1938      74726169 
 1938      74734963 
 1939 0870 91430000 		.long	0x4391
 1940 0874 88080000 		.long	0x888
 1941 0878 13       		.uleb128 0x13
 1942 0879 91430000 		.long	0x4391
 1943 087d 13       		.uleb128 0x13
 1944 087e 8B430000 		.long	0x438b
 1945 0882 13       		.uleb128 0x13
 1946 0883 090A0000 		.long	0xa09
 1947 0887 00       		.byte	0
 1948 0888 16       		.uleb128 0x16
 1949 0889 37010000 		.secrel32	LASF1
 1950 088d 08       		.byte	0x8
 1951 088e 1601     		.word	0x116
 1952 0890 5F5A4E53 		.ascii "_ZNSt11char_traitsIcE6assignEPcjc\0"
 1952      74313163 
 1952      6861725F 
 1952      74726169 
 1952      74734963 
 1953 08b2 91430000 		.long	0x4391
 1954 08b6 CA080000 		.long	0x8ca
 1955 08ba 13       		.uleb128 0x13
 1956 08bb 91430000 		.long	0x4391
 1957 08bf 13       		.uleb128 0x13
 1958 08c0 090A0000 		.long	0xa09
 1959 08c4 13       		.uleb128 0x13
 1960 08c5 6C060000 		.long	0x66c
 1961 08c9 00       		.byte	0
 1962 08ca 17       		.uleb128 0x17
 1963 08cb 746F5F63 		.ascii "to_char_type\0"
 1963      6861725F 
 1963      74797065 
 1963      00
 1964 08d8 08       		.byte	0x8
 1965 08d9 1A01     		.word	0x11a
 1966 08db 5F5A4E53 		.ascii "_ZNSt11char_traitsIcE12to_char_typeERKi\0"
 1966      74313163 
 1966      6861725F 
 1966      74726169 
 1966      74734963 
 1967 0903 6C060000 		.long	0x66c
 1968 0907 11090000 		.long	0x911
 1969 090b 13       		.uleb128 0x13
 1970 090c 97430000 		.long	0x4397
 1971 0910 00       		.byte	0
 1972 0911 14       		.uleb128 0x14
 1973 0912 7D060000 		.long	0x67d
 1974 0916 17       		.uleb128 0x17
 1975 0917 746F5F69 		.ascii "to_int_type\0"
 1975      6E745F74 
 1975      79706500 
 1976 0923 08       		.byte	0x8
 1977 0924 2001     		.word	0x120
 1978 0926 5F5A4E53 		.ascii "_ZNSt11char_traitsIcE11to_int_typeERKc\0"
GAS LISTING C:\Users\NJLLMR~1\AppData\Local\Temp\ccWOhw13.s 			page 52


 1978      74313163 
 1978      6861725F 
 1978      74726169 
 1978      74734963 
 1979 094d 7D060000 		.long	0x67d
 1980 0951 5B090000 		.long	0x95b
 1981 0955 13       		.uleb128 0x13
 1982 0956 7D430000 		.long	0x437d
 1983 095a 00       		.byte	0
 1984 095b 17       		.uleb128 0x17
 1985 095c 65715F69 		.ascii "eq_int_type\0"
 1985      6E745F74 
 1985      79706500 
 1986 0968 08       		.byte	0x8
 1987 0969 2401     		.word	0x124
 1988 096b 5F5A4E53 		.ascii "_ZNSt11char_traitsIcE11eq_int_typeERKiS2_\0"
 1988      74313163 
 1988      6861725F 
 1988      74726169 
 1988      74734963 
 1989 0995 83430000 		.long	0x4383
 1990 0999 A8090000 		.long	0x9a8
 1991 099d 13       		.uleb128 0x13
 1992 099e 97430000 		.long	0x4397
 1993 09a2 13       		.uleb128 0x13
 1994 09a3 97430000 		.long	0x4397
 1995 09a7 00       		.byte	0
 1996 09a8 18       		.uleb128 0x18
 1997 09a9 656F6600 		.ascii "eof\0"
 1998 09ad 08       		.byte	0x8
 1999 09ae 2801     		.word	0x128
 2000 09b0 5F5A4E53 		.ascii "_ZNSt11char_traitsIcE3eofEv\0"
 2000      74313163 
 2000      6861725F 
 2000      74726169 
 2000      74734963 
 2001 09cc 7D060000 		.long	0x67d
 2002 09d0 19       		.uleb128 0x19
 2003 09d1 6E6F745F 		.ascii "not_eof\0"
 2003      656F6600 
 2004 09d9 08       		.byte	0x8
 2005 09da 2C01     		.word	0x12c
 2006 09dc 5F5A4E53 		.ascii "_ZNSt11char_traitsIcE7not_eofERKi\0"
 2006      74313163 
 2006      6861725F 
 2006      74726169 
 2006      74734963 
 2007 09fe 7D060000 		.long	0x67d
 2008 0a02 13       		.uleb128 0x13
 2009 0a03 97430000 		.long	0x4397
 2010 0a07 00       		.byte	0
 2011 0a08 00       		.byte	0
 2012 0a09 08       		.uleb128 0x8
 2013 0a0a 73697A65 		.ascii "size_t\0"
 2013      5F7400
 2014 0a11 09       		.byte	0x9
 2015 0a12 BC       		.byte	0xbc
GAS LISTING C:\Users\NJLLMR~1\AppData\Local\Temp\ccWOhw13.s 			page 53


 2016 0a13 4A020000 		.long	0x24a
 2017 0a17 0F       		.uleb128 0xf
 2018 0a18 0A       		.byte	0xa
 2019 0a19 35       		.byte	0x35
 2020 0a1a 9D430000 		.long	0x439d
 2021 0a1e 0F       		.uleb128 0xf
 2022 0a1f 0A       		.byte	0xa
 2023 0a20 36       		.byte	0x36
 2024 0a21 3C450000 		.long	0x453c
 2025 0a25 0F       		.uleb128 0xf
 2026 0a26 0A       		.byte	0xa
 2027 0a27 37       		.byte	0x37
 2028 0a28 5C450000 		.long	0x455c
 2029 0a2c 08       		.uleb128 0x8
 2030 0a2d 70747264 		.ascii "ptrdiff_t\0"
 2030      6966665F 
 2030      7400
 2031 0a37 09       		.byte	0x9
 2032 0a38 BD       		.byte	0xbd
 2033 0a39 CB020000 		.long	0x2cb
 2034 0a3d 02       		.uleb128 0x2
 2035 0a3e 616C6C6F 		.ascii "allocator<char>\0"
 2035      6361746F 
 2035      723C6368 
 2035      61723E00 
 2036 0a4e 01       		.byte	0x1
 2037 0a4f 0B       		.byte	0xb
 2038 0a50 5C       		.byte	0x5c
 2039 0a51 D00A0000 		.long	0xad0
 2040 0a55 1A       		.uleb128 0x1a
 2041 0a56 993D0000 		.long	0x3d99
 2042 0a5a 00       		.byte	0
 2043 0a5b 01       		.byte	0x1
 2044 0a5c 1B       		.uleb128 0x1b
 2045 0a5d 07010000 		.secrel32	LASF2
 2046 0a61 0B       		.byte	0xb
 2047 0a62 5F       		.byte	0x5f
 2048 0a63 090A0000 		.long	0xa09
 2049 0a67 01       		.byte	0x1
 2050 0a68 1B       		.uleb128 0x1b
 2051 0a69 17000000 		.secrel32	LASF3
 2052 0a6d 0B       		.byte	0xb
 2053 0a6e 63       		.byte	0x63
 2054 0a6f 91450000 		.long	0x4591
 2055 0a73 01       		.byte	0x1
 2056 0a74 1B       		.uleb128 0x1b
 2057 0a75 AD000000 		.secrel32	LASF4
 2058 0a79 0B       		.byte	0xb
 2059 0a7a 64       		.byte	0x64
 2060 0a7b 97450000 		.long	0x4597
 2061 0a7f 01       		.byte	0x1
 2062 0a80 1C       		.uleb128 0x1c
 2063 0a81 3E010000 		.secrel32	LASF5
 2064 0a85 0B       		.byte	0xb
 2065 0a86 71       		.byte	0x71
 2066 0a87 01       		.byte	0x1
 2067 0a88 900A0000 		.long	0xa90
GAS LISTING C:\Users\NJLLMR~1\AppData\Local\Temp\ccWOhw13.s 			page 54


 2068 0a8c 960A0000 		.long	0xa96
 2069 0a90 04       		.uleb128 0x4
 2070 0a91 AF450000 		.long	0x45af
 2071 0a95 00       		.byte	0
 2072 0a96 1C       		.uleb128 0x1c
 2073 0a97 3E010000 		.secrel32	LASF5
 2074 0a9b 0B       		.byte	0xb
 2075 0a9c 73       		.byte	0x73
 2076 0a9d 01       		.byte	0x1
 2077 0a9e A60A0000 		.long	0xaa6
 2078 0aa2 B10A0000 		.long	0xab1
 2079 0aa6 04       		.uleb128 0x4
 2080 0aa7 AF450000 		.long	0x45af
 2081 0aab 13       		.uleb128 0x13
 2082 0aac B5450000 		.long	0x45b5
 2083 0ab0 00       		.byte	0
 2084 0ab1 1D       		.uleb128 0x1d
 2085 0ab2 7E616C6C 		.ascii "~allocator\0"
 2085      6F636174 
 2085      6F7200
 2086 0abd 0B       		.byte	0xb
 2087 0abe 79       		.byte	0x79
 2088 0abf 01       		.byte	0x1
 2089 0ac0 C40A0000 		.long	0xac4
 2090 0ac4 04       		.uleb128 0x4
 2091 0ac5 AF450000 		.long	0x45af
 2092 0ac9 04       		.uleb128 0x4
 2093 0aca CB020000 		.long	0x2cb
 2094 0ace 00       		.byte	0
 2095 0acf 00       		.byte	0
 2096 0ad0 14       		.uleb128 0x14
 2097 0ad1 3D0A0000 		.long	0xa3d
 2098 0ad5 02       		.uleb128 0x2
 2099 0ad6 62617369 		.ascii "basic_string<char, std::char_traits<char>, std::allocator<char> >\0"
 2099      635F7374 
 2099      72696E67 
 2099      3C636861 
 2099      722C2073 
 2100 0b18 04       		.byte	0x4
 2101 0b19 0C       		.byte	0xc
 2102 0b1a 70       		.byte	0x70
 2103 0b1b 382E0000 		.long	0x2e38
 2104 0b1f 1E       		.uleb128 0x1e
 2105 0b20 83000000 		.secrel32	LASF6
 2106 0b24 04       		.byte	0x4
 2107 0b25 0C       		.byte	0xc
 2108 0b26 1001     		.word	0x110
 2109 0b28 5D0B0000 		.long	0xb5d
 2110 0b2c 1F       		.uleb128 0x1f
 2111 0b2d 3D0A0000 		.long	0xa3d
 2112 0b31 00       		.byte	0
 2113 0b32 20       		.uleb128 0x20
 2114 0b33 5F4D5F70 		.ascii "_M_p\0"
 2114      00
 2115 0b38 0C       		.byte	0xc
 2116 0b39 1501     		.word	0x115
 2117 0b3b 83030000 		.long	0x383
GAS LISTING C:\Users\NJLLMR~1\AppData\Local\Temp\ccWOhw13.s 			page 55


 2118 0b3f 00       		.byte	0
 2119 0b40 21       		.uleb128 0x21
 2120 0b41 83000000 		.secrel32	LASF6
 2121 0b45 0C       		.byte	0xc
 2122 0b46 1201     		.word	0x112
 2123 0b48 4C0B0000 		.long	0xb4c
 2124 0b4c 04       		.uleb128 0x4
 2125 0b4d C5450000 		.long	0x45c5
 2126 0b51 13       		.uleb128 0x13
 2127 0b52 83030000 		.long	0x383
 2128 0b56 13       		.uleb128 0x13
 2129 0b57 B5450000 		.long	0x45b5
 2130 0b5b 00       		.byte	0
 2131 0b5c 00       		.byte	0
 2132 0b5d 1B       		.uleb128 0x1b
 2133 0b5e 07010000 		.secrel32	LASF2
 2134 0b62 0C       		.byte	0xc
 2135 0b63 79       		.byte	0x79
 2136 0b64 5C0A0000 		.long	0xa5c
 2137 0b68 01       		.byte	0x1
 2138 0b69 22       		.uleb128 0x22
 2139 0b6a 6E706F73 		.ascii "npos\0"
 2139      00
 2140 0b6f 0C       		.byte	0xc
 2141 0b70 1D01     		.word	0x11d
 2142 0b72 770B0000 		.long	0xb77
 2143 0b76 01       		.byte	0x1
 2144 0b77 14       		.uleb128 0x14
 2145 0b78 5D0B0000 		.long	0xb5d
 2146 0b7c 20       		.uleb128 0x20
 2147 0b7d 5F4D5F64 		.ascii "_M_dataplus\0"
 2147      61746170 
 2147      6C757300 
 2148 0b89 0C       		.byte	0xc
 2149 0b8a 2101     		.word	0x121
 2150 0b8c 1F0B0000 		.long	0xb1f
 2151 0b90 00       		.byte	0
 2152 0b91 23       		.uleb128 0x23
 2153 0b92 616C6C6F 		.ascii "allocator_type\0"
 2153      6361746F 
 2153      725F7479 
 2153      706500
 2154 0ba1 0C       		.byte	0xc
 2155 0ba2 78       		.byte	0x78
 2156 0ba3 3D0A0000 		.long	0xa3d
 2157 0ba7 01       		.byte	0x1
 2158 0ba8 1B       		.uleb128 0x1b
 2159 0ba9 17000000 		.secrel32	LASF3
 2160 0bad 0C       		.byte	0xc
 2161 0bae 7B       		.byte	0x7b
 2162 0baf 680A0000 		.long	0xa68
 2163 0bb3 01       		.byte	0x1
 2164 0bb4 1B       		.uleb128 0x1b
 2165 0bb5 AD000000 		.secrel32	LASF4
 2166 0bb9 0C       		.byte	0xc
 2167 0bba 7C       		.byte	0x7c
 2168 0bbb 740A0000 		.long	0xa74
GAS LISTING C:\Users\NJLLMR~1\AppData\Local\Temp\ccWOhw13.s 			page 56


 2169 0bbf 01       		.byte	0x1
 2170 0bc0 23       		.uleb128 0x23
 2171 0bc1 69746572 		.ascii "iterator\0"
 2171      61746F72 
 2171      00
 2172 0bca 0C       		.byte	0xc
 2173 0bcb 7F       		.byte	0x7f
 2174 0bcc F4400000 		.long	0x40f4
 2175 0bd0 01       		.byte	0x1
 2176 0bd1 23       		.uleb128 0x23
 2177 0bd2 636F6E73 		.ascii "const_iterator\0"
 2177      745F6974 
 2177      65726174 
 2177      6F7200
 2178 0be1 0C       		.byte	0xc
 2179 0be2 81       		.byte	0x81
 2180 0be3 57410000 		.long	0x4157
 2181 0be7 01       		.byte	0x1
 2182 0be8 23       		.uleb128 0x23
 2183 0be9 636F6E73 		.ascii "const_reverse_iterator\0"
 2183      745F7265 
 2183      76657273 
 2183      655F6974 
 2183      65726174 
 2184 0c00 0C       		.byte	0xc
 2185 0c01 82       		.byte	0x82
 2186 0c02 382E0000 		.long	0x2e38
 2187 0c06 01       		.byte	0x1
 2188 0c07 23       		.uleb128 0x23
 2189 0c08 72657665 		.ascii "reverse_iterator\0"
 2189      7273655F 
 2189      69746572 
 2189      61746F72 
 2189      00
 2190 0c19 0C       		.byte	0xc
 2191 0c1a 83       		.byte	0x83
 2192 0c1b BF2E0000 		.long	0x2ebf
 2193 0c1f 01       		.byte	0x1
 2194 0c20 0C       		.uleb128 0xc
 2195 0c21 5F526570 		.ascii "_Rep_base\0"
 2195      5F626173 
 2195      6500
 2196 0c2b 0C       		.byte	0xc
 2197 0c2c 0C       		.byte	0xc
 2198 0c2d 94       		.byte	0x94
 2199 0c2e 6D0C0000 		.long	0xc6d
 2200 0c32 0D       		.uleb128 0xd
 2201 0c33 5F4D5F6C 		.ascii "_M_length\0"
 2201      656E6774 
 2201      6800
 2202 0c3d 0C       		.byte	0xc
 2203 0c3e 96       		.byte	0x96
 2204 0c3f 5D0B0000 		.long	0xb5d
 2205 0c43 00       		.byte	0
 2206 0c44 0D       		.uleb128 0xd
 2207 0c45 5F4D5F63 		.ascii "_M_capacity\0"
 2207      61706163 
GAS LISTING C:\Users\NJLLMR~1\AppData\Local\Temp\ccWOhw13.s 			page 57


 2207      69747900 
 2208 0c51 0C       		.byte	0xc
 2209 0c52 97       		.byte	0x97
 2210 0c53 5D0B0000 		.long	0xb5d
 2211 0c57 04       		.byte	0x4
 2212 0c58 0D       		.uleb128 0xd
 2213 0c59 5F4D5F72 		.ascii "_M_refcount\0"
 2213      6566636F 
 2213      756E7400 
 2214 0c65 0C       		.byte	0xc
 2215 0c66 98       		.byte	0x98
 2216 0c67 76450000 		.long	0x4576
 2217 0c6b 08       		.byte	0x8
 2218 0c6c 00       		.byte	0
 2219 0c6d 0C       		.uleb128 0xc
 2220 0c6e 5F526570 		.ascii "_Rep\0"
 2220      00
 2221 0c73 0C       		.byte	0xc
 2222 0c74 0C       		.byte	0xc
 2223 0c75 9B       		.byte	0x9b
 2224 0c76 F90F0000 		.long	0xff9
 2225 0c7a 1F       		.uleb128 0x1f
 2226 0c7b 200C0000 		.long	0xc20
 2227 0c7f 00       		.byte	0
 2228 0c80 24       		.uleb128 0x24
 2229 0c81 5F535F6D 		.ascii "_S_max_size\0"
 2229      61785F73 
 2229      697A6500 
 2230 0c8d 0D       		.byte	0xd
 2231 0c8e 32       		.byte	0x32
 2232 0c8f 770B0000 		.long	0xb77
 2233 0c93 24       		.uleb128 0x24
 2234 0c94 5F535F74 		.ascii "_S_terminal\0"
 2234      65726D69 
 2234      6E616C00 
 2235 0ca0 0D       		.byte	0xd
 2236 0ca1 37       		.byte	0x37
 2237 0ca2 AB370000 		.long	0x37ab
 2238 0ca6 24       		.uleb128 0x24
 2239 0ca7 5F535F65 		.ascii "_S_empty_rep_storage\0"
 2239      6D707479 
 2239      5F726570 
 2239      5F73746F 
 2239      72616765 
 2240 0cbc 0D       		.byte	0xd
 2241 0cbd 42       		.byte	0x42
 2242 0cbe EF450000 		.long	0x45ef
 2243 0cc2 25       		.uleb128 0x25
 2244 0cc3 18010000 		.secrel32	LASF7
 2245 0cc7 0C       		.byte	0xc
 2246 0cc8 B5       		.byte	0xb5
 2247 0cc9 5F5A4E53 		.ascii "_ZNSs4_Rep12_S_empty_repEv\0"
 2247      73345F52 
 2247      65703132 
 2247      5F535F65 
 2247      6D707479 
 2248 0ce4 DD450000 		.long	0x45dd
GAS LISTING C:\Users\NJLLMR~1\AppData\Local\Temp\ccWOhw13.s 			page 58


 2249 0ce8 26       		.uleb128 0x26
 2250 0ce9 5F4D5F69 		.ascii "_M_is_leaked\0"
 2250      735F6C65 
 2250      616B6564 
 2250      00
 2251 0cf6 0C       		.byte	0xc
 2252 0cf7 BF       		.byte	0xbf
 2253 0cf8 5F5A4E4B 		.ascii "_ZNKSs4_Rep12_M_is_leakedEv\0"
 2253      5373345F 
 2253      52657031 
 2253      325F4D5F 
 2253      69735F6C 
 2254 0d14 83430000 		.long	0x4383
 2255 0d18 200D0000 		.long	0xd20
 2256 0d1c 260D0000 		.long	0xd26
 2257 0d20 04       		.uleb128 0x4
 2258 0d21 FA450000 		.long	0x45fa
 2259 0d25 00       		.byte	0
 2260 0d26 26       		.uleb128 0x26
 2261 0d27 5F4D5F69 		.ascii "_M_is_shared\0"
 2261      735F7368 
 2261      61726564 
 2261      00
 2262 0d34 0C       		.byte	0xc
 2263 0d35 C3       		.byte	0xc3
 2264 0d36 5F5A4E4B 		.ascii "_ZNKSs4_Rep12_M_is_sharedEv\0"
 2264      5373345F 
 2264      52657031 
 2264      325F4D5F 
 2264      69735F73 
 2265 0d52 83430000 		.long	0x4383
 2266 0d56 5E0D0000 		.long	0xd5e
 2267 0d5a 640D0000 		.long	0xd64
 2268 0d5e 04       		.uleb128 0x4
 2269 0d5f FA450000 		.long	0x45fa
 2270 0d63 00       		.byte	0
 2271 0d64 27       		.uleb128 0x27
 2272 0d65 5F4D5F73 		.ascii "_M_set_leaked\0"
 2272      65745F6C 
 2272      65616B65 
 2272      6400
 2273 0d73 0C       		.byte	0xc
 2274 0d74 C7       		.byte	0xc7
 2275 0d75 5F5A4E53 		.ascii "_ZNSs4_Rep13_M_set_leakedEv\0"
 2275      73345F52 
 2275      65703133 
 2275      5F4D5F73 
 2275      65745F6C 
 2276 0d91 990D0000 		.long	0xd99
 2277 0d95 9F0D0000 		.long	0xd9f
 2278 0d99 04       		.uleb128 0x4
 2279 0d9a D7450000 		.long	0x45d7
 2280 0d9e 00       		.byte	0
 2281 0d9f 27       		.uleb128 0x27
 2282 0da0 5F4D5F73 		.ascii "_M_set_sharable\0"
 2282      65745F73 
 2282      68617261 
GAS LISTING C:\Users\NJLLMR~1\AppData\Local\Temp\ccWOhw13.s 			page 59


 2282      626C6500 
 2283 0db0 0C       		.byte	0xc
 2284 0db1 CB       		.byte	0xcb
 2285 0db2 5F5A4E53 		.ascii "_ZNSs4_Rep15_M_set_sharableEv\0"
 2285      73345F52 
 2285      65703135 
 2285      5F4D5F73 
 2285      65745F73 
 2286 0dd0 D80D0000 		.long	0xdd8
 2287 0dd4 DE0D0000 		.long	0xdde
 2288 0dd8 04       		.uleb128 0x4
 2289 0dd9 D7450000 		.long	0x45d7
 2290 0ddd 00       		.byte	0
 2291 0dde 27       		.uleb128 0x27
 2292 0ddf 5F4D5F73 		.ascii "_M_set_length_and_sharable\0"
 2292      65745F6C 
 2292      656E6774 
 2292      685F616E 
 2292      645F7368 
 2293 0dfa 0C       		.byte	0xc
 2294 0dfb CF       		.byte	0xcf
 2295 0dfc 5F5A4E53 		.ascii "_ZNSs4_Rep26_M_set_length_and_sharableEj\0"
 2295      73345F52 
 2295      65703236 
 2295      5F4D5F73 
 2295      65745F6C 
 2296 0e25 2D0E0000 		.long	0xe2d
 2297 0e29 380E0000 		.long	0xe38
 2298 0e2d 04       		.uleb128 0x4
 2299 0e2e D7450000 		.long	0x45d7
 2300 0e32 13       		.uleb128 0x13
 2301 0e33 5D0B0000 		.long	0xb5d
 2302 0e37 00       		.byte	0
 2303 0e38 26       		.uleb128 0x26
 2304 0e39 5F4D5F72 		.ascii "_M_refdata\0"
 2304      65666461 
 2304      746100
 2305 0e44 0C       		.byte	0xc
 2306 0e45 DE       		.byte	0xde
 2307 0e46 5F5A4E53 		.ascii "_ZNSs4_Rep10_M_refdataEv\0"
 2307      73345F52 
 2307      65703130 
 2307      5F4D5F72 
 2307      65666461 
 2308 0e5f 83030000 		.long	0x383
 2309 0e63 6B0E0000 		.long	0xe6b
 2310 0e67 710E0000 		.long	0xe71
 2311 0e6b 04       		.uleb128 0x4
 2312 0e6c D7450000 		.long	0x45d7
 2313 0e70 00       		.byte	0
 2314 0e71 26       		.uleb128 0x26
 2315 0e72 5F4D5F67 		.ascii "_M_grab\0"
 2315      72616200 
 2316 0e7a 0C       		.byte	0xc
 2317 0e7b E2       		.byte	0xe2
 2318 0e7c 5F5A4E53 		.ascii "_ZNSs4_Rep7_M_grabERKSaIcES2_\0"
 2318      73345F52 
GAS LISTING C:\Users\NJLLMR~1\AppData\Local\Temp\ccWOhw13.s 			page 60


 2318      6570375F 
 2318      4D5F6772 
 2318      61624552 
 2319 0e9a 83030000 		.long	0x383
 2320 0e9e A60E0000 		.long	0xea6
 2321 0ea2 B60E0000 		.long	0xeb6
 2322 0ea6 04       		.uleb128 0x4
 2323 0ea7 D7450000 		.long	0x45d7
 2324 0eab 13       		.uleb128 0x13
 2325 0eac B5450000 		.long	0x45b5
 2326 0eb0 13       		.uleb128 0x13
 2327 0eb1 B5450000 		.long	0x45b5
 2328 0eb5 00       		.byte	0
 2329 0eb6 17       		.uleb128 0x17
 2330 0eb7 5F535F63 		.ascii "_S_create\0"
 2330      72656174 
 2330      6500
 2331 0ec1 0D       		.byte	0xd
 2332 0ec2 2102     		.word	0x221
 2333 0ec4 5F5A4E53 		.ascii "_ZNSs4_Rep9_S_createEjjRKSaIcE\0"
 2333      73345F52 
 2333      6570395F 
 2333      535F6372 
 2333      65617465 
 2334 0ee3 D7450000 		.long	0x45d7
 2335 0ee7 FB0E0000 		.long	0xefb
 2336 0eeb 13       		.uleb128 0x13
 2337 0eec 5D0B0000 		.long	0xb5d
 2338 0ef0 13       		.uleb128 0x13
 2339 0ef1 5D0B0000 		.long	0xb5d
 2340 0ef5 13       		.uleb128 0x13
 2341 0ef6 B5450000 		.long	0x45b5
 2342 0efa 00       		.byte	0
 2343 0efb 27       		.uleb128 0x27
 2344 0efc 5F4D5F64 		.ascii "_M_dispose\0"
 2344      6973706F 
 2344      736500
 2345 0f07 0C       		.byte	0xc
 2346 0f08 ED       		.byte	0xed
 2347 0f09 5F5A4E53 		.ascii "_ZNSs4_Rep10_M_disposeERKSaIcE\0"
 2347      73345F52 
 2347      65703130 
 2347      5F4D5F64 
 2347      6973706F 
 2348 0f28 300F0000 		.long	0xf30
 2349 0f2c 3B0F0000 		.long	0xf3b
 2350 0f30 04       		.uleb128 0x4
 2351 0f31 D7450000 		.long	0x45d7
 2352 0f35 13       		.uleb128 0x13
 2353 0f36 B5450000 		.long	0x45b5
 2354 0f3a 00       		.byte	0
 2355 0f3b 28       		.uleb128 0x28
 2356 0f3c 5F4D5F64 		.ascii "_M_destroy\0"
 2356      65737472 
 2356      6F7900
 2357 0f47 0D       		.byte	0xd
 2358 0f48 BC01     		.word	0x1bc
GAS LISTING C:\Users\NJLLMR~1\AppData\Local\Temp\ccWOhw13.s 			page 61


 2359 0f4a 5F5A4E53 		.ascii "_ZNSs4_Rep10_M_destroyERKSaIcE\0"
 2359      73345F52 
 2359      65703130 
 2359      5F4D5F64 
 2359      65737472 
 2360 0f69 710F0000 		.long	0xf71
 2361 0f6d 7C0F0000 		.long	0xf7c
 2362 0f71 04       		.uleb128 0x4
 2363 0f72 D7450000 		.long	0x45d7
 2364 0f76 13       		.uleb128 0x13
 2365 0f77 B5450000 		.long	0x45b5
 2366 0f7b 00       		.byte	0
 2367 0f7c 29       		.uleb128 0x29
 2368 0f7d 5F4D5F72 		.ascii "_M_refcopy\0"
 2368      6566636F 
 2368      707900
 2369 0f88 0C       		.byte	0xc
 2370 0f89 0201     		.word	0x102
 2371 0f8b 5F5A4E53 		.ascii "_ZNSs4_Rep10_M_refcopyEv\0"
 2371      73345F52 
 2371      65703130 
 2371      5F4D5F72 
 2371      6566636F 
 2372 0fa4 83030000 		.long	0x383
 2373 0fa8 B00F0000 		.long	0xfb0
 2374 0fac B60F0000 		.long	0xfb6
 2375 0fb0 04       		.uleb128 0x4
 2376 0fb1 D7450000 		.long	0x45d7
 2377 0fb5 00       		.byte	0
 2378 0fb6 2A       		.uleb128 0x2a
 2379 0fb7 5F4D5F63 		.ascii "_M_clone\0"
 2379      6C6F6E65 
 2379      00
 2380 0fc0 0D       		.byte	0xd
 2381 0fc1 6F02     		.word	0x26f
 2382 0fc3 5F5A4E53 		.ascii "_ZNSs4_Rep8_M_cloneERKSaIcEj\0"
 2382      73345F52 
 2382      6570385F 
 2382      4D5F636C 
 2382      6F6E6545 
 2383 0fe0 83030000 		.long	0x383
 2384 0fe4 E80F0000 		.long	0xfe8
 2385 0fe8 04       		.uleb128 0x4
 2386 0fe9 D7450000 		.long	0x45d7
 2387 0fed 13       		.uleb128 0x13
 2388 0fee B5450000 		.long	0x45b5
 2389 0ff2 13       		.uleb128 0x13
 2390 0ff3 5D0B0000 		.long	0xb5d
 2391 0ff7 00       		.byte	0
 2392 0ff8 00       		.byte	0
 2393 0ff9 29       		.uleb128 0x29
 2394 0ffa 5F4D5F64 		.ascii "_M_data\0"
 2394      61746100 
 2395 1002 0C       		.byte	0xc
 2396 1003 2401     		.word	0x124
 2397 1005 5F5A4E4B 		.ascii "_ZNKSs7_M_dataEv\0"
 2397      5373375F 
GAS LISTING C:\Users\NJLLMR~1\AppData\Local\Temp\ccWOhw13.s 			page 62


 2397      4D5F6461 
 2397      74614576 
 2397      00
 2398 1016 83030000 		.long	0x383
 2399 101a 22100000 		.long	0x1022
 2400 101e 28100000 		.long	0x1028
 2401 1022 04       		.uleb128 0x4
 2402 1023 CB450000 		.long	0x45cb
 2403 1027 00       		.byte	0
 2404 1028 29       		.uleb128 0x29
 2405 1029 5F4D5F64 		.ascii "_M_data\0"
 2405      61746100 
 2406 1031 0C       		.byte	0xc
 2407 1032 2801     		.word	0x128
 2408 1034 5F5A4E53 		.ascii "_ZNSs7_M_dataEPc\0"
 2408      73375F4D 
 2408      5F646174 
 2408      61455063 
 2408      00
 2409 1045 83030000 		.long	0x383
 2410 1049 51100000 		.long	0x1051
 2411 104d 5C100000 		.long	0x105c
 2412 1051 04       		.uleb128 0x4
 2413 1052 D1450000 		.long	0x45d1
 2414 1056 13       		.uleb128 0x13
 2415 1057 83030000 		.long	0x383
 2416 105b 00       		.byte	0
 2417 105c 29       		.uleb128 0x29
 2418 105d 5F4D5F72 		.ascii "_M_rep\0"
 2418      657000
 2419 1064 0C       		.byte	0xc
 2420 1065 2C01     		.word	0x12c
 2421 1067 5F5A4E4B 		.ascii "_ZNKSs6_M_repEv\0"
 2421      5373365F 
 2421      4D5F7265 
 2421      70457600 
 2422 1077 D7450000 		.long	0x45d7
 2423 107b 83100000 		.long	0x1083
 2424 107f 89100000 		.long	0x1089
 2425 1083 04       		.uleb128 0x4
 2426 1084 CB450000 		.long	0x45cb
 2427 1088 00       		.byte	0
 2428 1089 29       		.uleb128 0x29
 2429 108a 5F4D5F69 		.ascii "_M_ibegin\0"
 2429      62656769 
 2429      6E00
 2430 1094 0C       		.byte	0xc
 2431 1095 3201     		.word	0x132
 2432 1097 5F5A4E4B 		.ascii "_ZNKSs9_M_ibeginEv\0"
 2432      5373395F 
 2432      4D5F6962 
 2432      6567696E 
 2432      457600
 2433 10aa C00B0000 		.long	0xbc0
 2434 10ae B6100000 		.long	0x10b6
 2435 10b2 BC100000 		.long	0x10bc
 2436 10b6 04       		.uleb128 0x4
GAS LISTING C:\Users\NJLLMR~1\AppData\Local\Temp\ccWOhw13.s 			page 63


 2437 10b7 CB450000 		.long	0x45cb
 2438 10bb 00       		.byte	0
 2439 10bc 29       		.uleb128 0x29
 2440 10bd 5F4D5F69 		.ascii "_M_iend\0"
 2440      656E6400 
 2441 10c5 0C       		.byte	0xc
 2442 10c6 3601     		.word	0x136
 2443 10c8 5F5A4E4B 		.ascii "_ZNKSs7_M_iendEv\0"
 2443      5373375F 
 2443      4D5F6965 
 2443      6E644576 
 2443      00
 2444 10d9 C00B0000 		.long	0xbc0
 2445 10dd E5100000 		.long	0x10e5
 2446 10e1 EB100000 		.long	0x10eb
 2447 10e5 04       		.uleb128 0x4
 2448 10e6 CB450000 		.long	0x45cb
 2449 10ea 00       		.byte	0
 2450 10eb 28       		.uleb128 0x28
 2451 10ec 5F4D5F6C 		.ascii "_M_leak\0"
 2451      65616B00 
 2452 10f4 0C       		.byte	0xc
 2453 10f5 3A01     		.word	0x13a
 2454 10f7 5F5A4E53 		.ascii "_ZNSs7_M_leakEv\0"
 2454      73375F4D 
 2454      5F6C6561 
 2454      6B457600 
 2455 1107 0F110000 		.long	0x110f
 2456 110b 15110000 		.long	0x1115
 2457 110f 04       		.uleb128 0x4
 2458 1110 D1450000 		.long	0x45d1
 2459 1114 00       		.byte	0
 2460 1115 29       		.uleb128 0x29
 2461 1116 5F4D5F63 		.ascii "_M_check\0"
 2461      6865636B 
 2461      00
 2462 111f 0C       		.byte	0xc
 2463 1120 4101     		.word	0x141
 2464 1122 5F5A4E4B 		.ascii "_ZNKSs8_M_checkEjPKc\0"
 2464      5373385F 
 2464      4D5F6368 
 2464      65636B45 
 2464      6A504B63 
 2465 1137 5D0B0000 		.long	0xb5d
 2466 113b 43110000 		.long	0x1143
 2467 113f 53110000 		.long	0x1153
 2468 1143 04       		.uleb128 0x4
 2469 1144 CB450000 		.long	0x45cb
 2470 1148 13       		.uleb128 0x13
 2471 1149 5D0B0000 		.long	0xb5d
 2472 114d 13       		.uleb128 0x13
 2473 114e A5370000 		.long	0x37a5
 2474 1152 00       		.byte	0
 2475 1153 28       		.uleb128 0x28
 2476 1154 5F4D5F63 		.ascii "_M_check_length\0"
 2476      6865636B 
 2476      5F6C656E 
GAS LISTING C:\Users\NJLLMR~1\AppData\Local\Temp\ccWOhw13.s 			page 64


 2476      67746800 
 2477 1164 0C       		.byte	0xc
 2478 1165 4B01     		.word	0x14b
 2479 1167 5F5A4E4B 		.ascii "_ZNKSs15_M_check_lengthEjjPKc\0"
 2479      53733135 
 2479      5F4D5F63 
 2479      6865636B 
 2479      5F6C656E 
 2480 1185 8D110000 		.long	0x118d
 2481 1189 A2110000 		.long	0x11a2
 2482 118d 04       		.uleb128 0x4
 2483 118e CB450000 		.long	0x45cb
 2484 1192 13       		.uleb128 0x13
 2485 1193 5D0B0000 		.long	0xb5d
 2486 1197 13       		.uleb128 0x13
 2487 1198 5D0B0000 		.long	0xb5d
 2488 119c 13       		.uleb128 0x13
 2489 119d A5370000 		.long	0x37a5
 2490 11a1 00       		.byte	0
 2491 11a2 29       		.uleb128 0x29
 2492 11a3 5F4D5F6C 		.ascii "_M_limit\0"
 2492      696D6974 
 2492      00
 2493 11ac 0C       		.byte	0xc
 2494 11ad 5301     		.word	0x153
 2495 11af 5F5A4E4B 		.ascii "_ZNKSs8_M_limitEjj\0"
 2495      5373385F 
 2495      4D5F6C69 
 2495      6D697445 
 2495      6A6A00
 2496 11c2 5D0B0000 		.long	0xb5d
 2497 11c6 CE110000 		.long	0x11ce
 2498 11ca DE110000 		.long	0x11de
 2499 11ce 04       		.uleb128 0x4
 2500 11cf CB450000 		.long	0x45cb
 2501 11d3 13       		.uleb128 0x13
 2502 11d4 5D0B0000 		.long	0xb5d
 2503 11d8 13       		.uleb128 0x13
 2504 11d9 5D0B0000 		.long	0xb5d
 2505 11dd 00       		.byte	0
 2506 11de 29       		.uleb128 0x29
 2507 11df 5F4D5F64 		.ascii "_M_disjunct\0"
 2507      69736A75 
 2507      6E637400 
 2508 11eb 0C       		.byte	0xc
 2509 11ec 5B01     		.word	0x15b
 2510 11ee 5F5A4E4B 		.ascii "_ZNKSs11_M_disjunctEPKc\0"
 2510      53733131 
 2510      5F4D5F64 
 2510      69736A75 
 2510      6E637445 
 2511 1206 83430000 		.long	0x4383
 2512 120a 12120000 		.long	0x1212
 2513 120e 1D120000 		.long	0x121d
 2514 1212 04       		.uleb128 0x4
 2515 1213 CB450000 		.long	0x45cb
 2516 1217 13       		.uleb128 0x13
GAS LISTING C:\Users\NJLLMR~1\AppData\Local\Temp\ccWOhw13.s 			page 65


 2517 1218 A5370000 		.long	0x37a5
 2518 121c 00       		.byte	0
 2519 121d 2B       		.uleb128 0x2b
 2520 121e 5F4D5F63 		.ascii "_M_copy\0"
 2520      6F707900 
 2521 1226 0C       		.byte	0xc
 2522 1227 6401     		.word	0x164
 2523 1229 5F5A4E53 		.ascii "_ZNSs7_M_copyEPcPKcj\0"
 2523      73375F4D 
 2523      5F636F70 
 2523      79455063 
 2523      504B636A 
 2524 123e 52120000 		.long	0x1252
 2525 1242 13       		.uleb128 0x13
 2526 1243 83030000 		.long	0x383
 2527 1247 13       		.uleb128 0x13
 2528 1248 A5370000 		.long	0x37a5
 2529 124c 13       		.uleb128 0x13
 2530 124d 5D0B0000 		.long	0xb5d
 2531 1251 00       		.byte	0
 2532 1252 2B       		.uleb128 0x2b
 2533 1253 5F4D5F6D 		.ascii "_M_move\0"
 2533      6F766500 
 2534 125b 0C       		.byte	0xc
 2535 125c 6D01     		.word	0x16d
 2536 125e 5F5A4E53 		.ascii "_ZNSs7_M_moveEPcPKcj\0"
 2536      73375F4D 
 2536      5F6D6F76 
 2536      65455063 
 2536      504B636A 
 2537 1273 87120000 		.long	0x1287
 2538 1277 13       		.uleb128 0x13
 2539 1278 83030000 		.long	0x383
 2540 127c 13       		.uleb128 0x13
 2541 127d A5370000 		.long	0x37a5
 2542 1281 13       		.uleb128 0x13
 2543 1282 5D0B0000 		.long	0xb5d
 2544 1286 00       		.byte	0
 2545 1287 2B       		.uleb128 0x2b
 2546 1288 5F4D5F61 		.ascii "_M_assign\0"
 2546      73736967 
 2546      6E00
 2547 1292 0C       		.byte	0xc
 2548 1293 7601     		.word	0x176
 2549 1295 5F5A4E53 		.ascii "_ZNSs9_M_assignEPcjc\0"
 2549      73395F4D 
 2549      5F617373 
 2549      69676E45 
 2549      50636A63 
 2550 12aa BE120000 		.long	0x12be
 2551 12ae 13       		.uleb128 0x13
 2552 12af 83030000 		.long	0x383
 2553 12b3 13       		.uleb128 0x13
 2554 12b4 5D0B0000 		.long	0xb5d
 2555 12b8 13       		.uleb128 0x13
 2556 12b9 97020000 		.long	0x297
 2557 12bd 00       		.byte	0
GAS LISTING C:\Users\NJLLMR~1\AppData\Local\Temp\ccWOhw13.s 			page 66


 2558 12be 2C       		.uleb128 0x2c
 2559 12bf 99000000 		.secrel32	LASF8
 2560 12c3 0C       		.byte	0xc
 2561 12c4 8A01     		.word	0x18a
 2562 12c6 5F5A4E53 		.ascii "_ZNSs13_S_copy_charsEPcN9__gnu_cxx17__normal_iteratorIS_SsEES2_\0"
 2562      7331335F 
 2562      535F636F 
 2562      70795F63 
 2562      68617273 
 2563 1306 1A130000 		.long	0x131a
 2564 130a 13       		.uleb128 0x13
 2565 130b 83030000 		.long	0x383
 2566 130f 13       		.uleb128 0x13
 2567 1310 C00B0000 		.long	0xbc0
 2568 1314 13       		.uleb128 0x13
 2569 1315 C00B0000 		.long	0xbc0
 2570 1319 00       		.byte	0
 2571 131a 2C       		.uleb128 0x2c
 2572 131b 99000000 		.secrel32	LASF8
 2573 131f 0C       		.byte	0xc
 2574 1320 8E01     		.word	0x18e
 2575 1322 5F5A4E53 		.ascii "_ZNSs13_S_copy_charsEPcN9__gnu_cxx17__normal_iteratorIPKcSsEES4_\0"
 2575      7331335F 
 2575      535F636F 
 2575      70795F63 
 2575      68617273 
 2576 1363 77130000 		.long	0x1377
 2577 1367 13       		.uleb128 0x13
 2578 1368 83030000 		.long	0x383
 2579 136c 13       		.uleb128 0x13
 2580 136d D10B0000 		.long	0xbd1
 2581 1371 13       		.uleb128 0x13
 2582 1372 D10B0000 		.long	0xbd1
 2583 1376 00       		.byte	0
 2584 1377 2C       		.uleb128 0x2c
 2585 1378 99000000 		.secrel32	LASF8
 2586 137c 0C       		.byte	0xc
 2587 137d 9301     		.word	0x193
 2588 137f 5F5A4E53 		.ascii "_ZNSs13_S_copy_charsEPcS_S_\0"
 2588      7331335F 
 2588      535F636F 
 2588      70795F63 
 2588      68617273 
 2589 139b AF130000 		.long	0x13af
 2590 139f 13       		.uleb128 0x13
 2591 13a0 83030000 		.long	0x383
 2592 13a4 13       		.uleb128 0x13
 2593 13a5 83030000 		.long	0x383
 2594 13a9 13       		.uleb128 0x13
 2595 13aa 83030000 		.long	0x383
 2596 13ae 00       		.byte	0
 2597 13af 2C       		.uleb128 0x2c
 2598 13b0 99000000 		.secrel32	LASF8
 2599 13b4 0C       		.byte	0xc
 2600 13b5 9701     		.word	0x197
 2601 13b7 5F5A4E53 		.ascii "_ZNSs13_S_copy_charsEPcPKcS1_\0"
 2601      7331335F 
GAS LISTING C:\Users\NJLLMR~1\AppData\Local\Temp\ccWOhw13.s 			page 67


 2601      535F636F 
 2601      70795F63 
 2601      68617273 
 2602 13d5 E9130000 		.long	0x13e9
 2603 13d9 13       		.uleb128 0x13
 2604 13da 83030000 		.long	0x383
 2605 13de 13       		.uleb128 0x13
 2606 13df A5370000 		.long	0x37a5
 2607 13e3 13       		.uleb128 0x13
 2608 13e4 A5370000 		.long	0x37a5
 2609 13e8 00       		.byte	0
 2610 13e9 17       		.uleb128 0x17
 2611 13ea 5F535F63 		.ascii "_S_compare\0"
 2611      6F6D7061 
 2611      726500
 2612 13f5 0C       		.byte	0xc
 2613 13f6 9C01     		.word	0x19c
 2614 13f8 5F5A4E53 		.ascii "_ZNSs10_S_compareEjj\0"
 2614      7331305F 
 2614      535F636F 
 2614      6D706172 
 2614      65456A6A 
 2615 140d CB020000 		.long	0x2cb
 2616 1411 20140000 		.long	0x1420
 2617 1415 13       		.uleb128 0x13
 2618 1416 5D0B0000 		.long	0xb5d
 2619 141a 13       		.uleb128 0x13
 2620 141b 5D0B0000 		.long	0xb5d
 2621 141f 00       		.byte	0
 2622 1420 28       		.uleb128 0x28
 2623 1421 5F4D5F6D 		.ascii "_M_mutate\0"
 2623      75746174 
 2623      6500
 2624 142b 0D       		.byte	0xd
 2625 142c D401     		.word	0x1d4
 2626 142e 5F5A4E53 		.ascii "_ZNSs9_M_mutateEjjj\0"
 2626      73395F4D 
 2626      5F6D7574 
 2626      61746545 
 2626      6A6A6A00 
 2627 1442 4A140000 		.long	0x144a
 2628 1446 5F140000 		.long	0x145f
 2629 144a 04       		.uleb128 0x4
 2630 144b D1450000 		.long	0x45d1
 2631 144f 13       		.uleb128 0x13
 2632 1450 5D0B0000 		.long	0xb5d
 2633 1454 13       		.uleb128 0x13
 2634 1455 5D0B0000 		.long	0xb5d
 2635 1459 13       		.uleb128 0x13
 2636 145a 5D0B0000 		.long	0xb5d
 2637 145e 00       		.byte	0
 2638 145f 28       		.uleb128 0x28
 2639 1460 5F4D5F6C 		.ascii "_M_leak_hard\0"
 2639      65616B5F 
 2639      68617264 
 2639      00
 2640 146d 0D       		.byte	0xd
GAS LISTING C:\Users\NJLLMR~1\AppData\Local\Temp\ccWOhw13.s 			page 68


 2641 146e C601     		.word	0x1c6
 2642 1470 5F5A4E53 		.ascii "_ZNSs12_M_leak_hardEv\0"
 2642      7331325F 
 2642      4D5F6C65 
 2642      616B5F68 
 2642      61726445 
 2643 1486 8E140000 		.long	0x148e
 2644 148a 94140000 		.long	0x1494
 2645 148e 04       		.uleb128 0x4
 2646 148f D1450000 		.long	0x45d1
 2647 1493 00       		.byte	0
 2648 1494 2D       		.uleb128 0x2d
 2649 1495 18010000 		.secrel32	LASF7
 2650 1499 0C       		.byte	0xc
 2651 149a AF01     		.word	0x1af
 2652 149c 5F5A4E53 		.ascii "_ZNSs12_S_empty_repEv\0"
 2652      7331325F 
 2652      535F656D 
 2652      7074795F 
 2652      72657045 
 2653 14b2 DD450000 		.long	0x45dd
 2654 14b6 2E       		.uleb128 0x2e
 2655 14b7 33000000 		.secrel32	LASF9
 2656 14bb 0C       		.byte	0xc
 2657 14bc BA01     		.word	0x1ba
 2658 14be 01       		.byte	0x1
 2659 14bf C7140000 		.long	0x14c7
 2660 14c3 CD140000 		.long	0x14cd
 2661 14c7 04       		.uleb128 0x4
 2662 14c8 D1450000 		.long	0x45d1
 2663 14cc 00       		.byte	0
 2664 14cd 2F       		.uleb128 0x2f
 2665 14ce 33000000 		.secrel32	LASF9
 2666 14d2 0D       		.byte	0xd
 2667 14d3 B1       		.byte	0xb1
 2668 14d4 01       		.byte	0x1
 2669 14d5 DD140000 		.long	0x14dd
 2670 14d9 E8140000 		.long	0x14e8
 2671 14dd 04       		.uleb128 0x4
 2672 14de D1450000 		.long	0x45d1
 2673 14e2 13       		.uleb128 0x13
 2674 14e3 B5450000 		.long	0x45b5
 2675 14e7 00       		.byte	0
 2676 14e8 1C       		.uleb128 0x1c
 2677 14e9 33000000 		.secrel32	LASF9
 2678 14ed 0D       		.byte	0xd
 2679 14ee A9       		.byte	0xa9
 2680 14ef 01       		.byte	0x1
 2681 14f0 F8140000 		.long	0x14f8
 2682 14f4 03150000 		.long	0x1503
 2683 14f8 04       		.uleb128 0x4
 2684 14f9 D1450000 		.long	0x45d1
 2685 14fd 13       		.uleb128 0x13
 2686 14fe E3450000 		.long	0x45e3
 2687 1502 00       		.byte	0
 2688 1503 1C       		.uleb128 0x1c
 2689 1504 33000000 		.secrel32	LASF9
GAS LISTING C:\Users\NJLLMR~1\AppData\Local\Temp\ccWOhw13.s 			page 69


 2690 1508 0D       		.byte	0xd
 2691 1509 B7       		.byte	0xb7
 2692 150a 01       		.byte	0x1
 2693 150b 13150000 		.long	0x1513
 2694 150f 28150000 		.long	0x1528
 2695 1513 04       		.uleb128 0x4
 2696 1514 D1450000 		.long	0x45d1
 2697 1518 13       		.uleb128 0x13
 2698 1519 E3450000 		.long	0x45e3
 2699 151d 13       		.uleb128 0x13
 2700 151e 5D0B0000 		.long	0xb5d
 2701 1522 13       		.uleb128 0x13
 2702 1523 5D0B0000 		.long	0xb5d
 2703 1527 00       		.byte	0
 2704 1528 1C       		.uleb128 0x1c
 2705 1529 33000000 		.secrel32	LASF9
 2706 152d 0D       		.byte	0xd
 2707 152e C1       		.byte	0xc1
 2708 152f 01       		.byte	0x1
 2709 1530 38150000 		.long	0x1538
 2710 1534 52150000 		.long	0x1552
 2711 1538 04       		.uleb128 0x4
 2712 1539 D1450000 		.long	0x45d1
 2713 153d 13       		.uleb128 0x13
 2714 153e E3450000 		.long	0x45e3
 2715 1542 13       		.uleb128 0x13
 2716 1543 5D0B0000 		.long	0xb5d
 2717 1547 13       		.uleb128 0x13
 2718 1548 5D0B0000 		.long	0xb5d
 2719 154c 13       		.uleb128 0x13
 2720 154d B5450000 		.long	0x45b5
 2721 1551 00       		.byte	0
 2722 1552 1C       		.uleb128 0x1c
 2723 1553 33000000 		.secrel32	LASF9
 2724 1557 0D       		.byte	0xd
 2725 1558 CD       		.byte	0xcd
 2726 1559 01       		.byte	0x1
 2727 155a 62150000 		.long	0x1562
 2728 155e 77150000 		.long	0x1577
 2729 1562 04       		.uleb128 0x4
 2730 1563 D1450000 		.long	0x45d1
 2731 1567 13       		.uleb128 0x13
 2732 1568 A5370000 		.long	0x37a5
 2733 156c 13       		.uleb128 0x13
 2734 156d 5D0B0000 		.long	0xb5d
 2735 1571 13       		.uleb128 0x13
 2736 1572 B5450000 		.long	0x45b5
 2737 1576 00       		.byte	0
 2738 1577 1C       		.uleb128 0x1c
 2739 1578 33000000 		.secrel32	LASF9
 2740 157c 0D       		.byte	0xd
 2741 157d D4       		.byte	0xd4
 2742 157e 01       		.byte	0x1
 2743 157f 87150000 		.long	0x1587
 2744 1583 97150000 		.long	0x1597
 2745 1587 04       		.uleb128 0x4
 2746 1588 D1450000 		.long	0x45d1
GAS LISTING C:\Users\NJLLMR~1\AppData\Local\Temp\ccWOhw13.s 			page 70


 2747 158c 13       		.uleb128 0x13
 2748 158d A5370000 		.long	0x37a5
 2749 1591 13       		.uleb128 0x13
 2750 1592 B5450000 		.long	0x45b5
 2751 1596 00       		.byte	0
 2752 1597 1C       		.uleb128 0x1c
 2753 1598 33000000 		.secrel32	LASF9
 2754 159c 0D       		.byte	0xd
 2755 159d DB       		.byte	0xdb
 2756 159e 01       		.byte	0x1
 2757 159f A7150000 		.long	0x15a7
 2758 15a3 BC150000 		.long	0x15bc
 2759 15a7 04       		.uleb128 0x4
 2760 15a8 D1450000 		.long	0x45d1
 2761 15ac 13       		.uleb128 0x13
 2762 15ad 5D0B0000 		.long	0xb5d
 2763 15b1 13       		.uleb128 0x13
 2764 15b2 97020000 		.long	0x297
 2765 15b6 13       		.uleb128 0x13
 2766 15b7 B5450000 		.long	0x45b5
 2767 15bb 00       		.byte	0
 2768 15bc 30       		.uleb128 0x30
 2769 15bd 7E626173 		.ascii "~basic_string\0"
 2769      69635F73 
 2769      7472696E 
 2769      6700
 2770 15cb 0C       		.byte	0xc
 2771 15cc 2202     		.word	0x222
 2772 15ce 01       		.byte	0x1
 2773 15cf D7150000 		.long	0x15d7
 2774 15d3 E2150000 		.long	0x15e2
 2775 15d7 04       		.uleb128 0x4
 2776 15d8 D1450000 		.long	0x45d1
 2777 15dc 04       		.uleb128 0x4
 2778 15dd CB020000 		.long	0x2cb
 2779 15e1 00       		.byte	0
 2780 15e2 31       		.uleb128 0x31
 2781 15e3 25010000 		.secrel32	LASF10
 2782 15e7 0C       		.byte	0xc
 2783 15e8 2A02     		.word	0x22a
 2784 15ea 5F5A4E53 		.ascii "_ZNSsaSERKSs\0"
 2784      73615345 
 2784      524B5373 
 2784      00
 2785 15f7 E9450000 		.long	0x45e9
 2786 15fb 01       		.byte	0x1
 2787 15fc 04160000 		.long	0x1604
 2788 1600 0F160000 		.long	0x160f
 2789 1604 04       		.uleb128 0x4
 2790 1605 D1450000 		.long	0x45d1
 2791 1609 13       		.uleb128 0x13
 2792 160a E3450000 		.long	0x45e3
 2793 160e 00       		.byte	0
 2794 160f 31       		.uleb128 0x31
 2795 1610 25010000 		.secrel32	LASF10
 2796 1614 0C       		.byte	0xc
 2797 1615 3202     		.word	0x232
GAS LISTING C:\Users\NJLLMR~1\AppData\Local\Temp\ccWOhw13.s 			page 71


 2798 1617 5F5A4E53 		.ascii "_ZNSsaSEPKc\0"
 2798      73615345 
 2798      504B6300 
 2799 1623 E9450000 		.long	0x45e9
 2800 1627 01       		.byte	0x1
 2801 1628 30160000 		.long	0x1630
 2802 162c 3B160000 		.long	0x163b
 2803 1630 04       		.uleb128 0x4
 2804 1631 D1450000 		.long	0x45d1
 2805 1635 13       		.uleb128 0x13
 2806 1636 A5370000 		.long	0x37a5
 2807 163a 00       		.byte	0
 2808 163b 31       		.uleb128 0x31
 2809 163c 25010000 		.secrel32	LASF10
 2810 1640 0C       		.byte	0xc
 2811 1641 3D02     		.word	0x23d
 2812 1643 5F5A4E53 		.ascii "_ZNSsaSEc\0"
 2812      73615345 
 2812      6300
 2813 164d E9450000 		.long	0x45e9
 2814 1651 01       		.byte	0x1
 2815 1652 5A160000 		.long	0x165a
 2816 1656 65160000 		.long	0x1665
 2817 165a 04       		.uleb128 0x4
 2818 165b D1450000 		.long	0x45d1
 2819 165f 13       		.uleb128 0x13
 2820 1660 97020000 		.long	0x297
 2821 1664 00       		.byte	0
 2822 1665 32       		.uleb128 0x32
 2823 1666 62656769 		.ascii "begin\0"
 2823      6E00
 2824 166c 0C       		.byte	0xc
 2825 166d 6602     		.word	0x266
 2826 166f 5F5A4E53 		.ascii "_ZNSs5beginEv\0"
 2826      73356265 
 2826      67696E45 
 2826      7600
 2827 167d C00B0000 		.long	0xbc0
 2828 1681 01       		.byte	0x1
 2829 1682 8A160000 		.long	0x168a
 2830 1686 90160000 		.long	0x1690
 2831 168a 04       		.uleb128 0x4
 2832 168b D1450000 		.long	0x45d1
 2833 168f 00       		.byte	0
 2834 1690 32       		.uleb128 0x32
 2835 1691 62656769 		.ascii "begin\0"
 2835      6E00
 2836 1697 0C       		.byte	0xc
 2837 1698 7102     		.word	0x271
 2838 169a 5F5A4E4B 		.ascii "_ZNKSs5beginEv\0"
 2838      53733562 
 2838      6567696E 
 2838      457600
 2839 16a9 D10B0000 		.long	0xbd1
 2840 16ad 01       		.byte	0x1
 2841 16ae B6160000 		.long	0x16b6
 2842 16b2 BC160000 		.long	0x16bc
GAS LISTING C:\Users\NJLLMR~1\AppData\Local\Temp\ccWOhw13.s 			page 72


 2843 16b6 04       		.uleb128 0x4
 2844 16b7 CB450000 		.long	0x45cb
 2845 16bb 00       		.byte	0
 2846 16bc 32       		.uleb128 0x32
 2847 16bd 656E6400 		.ascii "end\0"
 2848 16c1 0C       		.byte	0xc
 2849 16c2 7902     		.word	0x279
 2850 16c4 5F5A4E53 		.ascii "_ZNSs3endEv\0"
 2850      7333656E 
 2850      64457600 
 2851 16d0 C00B0000 		.long	0xbc0
 2852 16d4 01       		.byte	0x1
 2853 16d5 DD160000 		.long	0x16dd
 2854 16d9 E3160000 		.long	0x16e3
 2855 16dd 04       		.uleb128 0x4
 2856 16de D1450000 		.long	0x45d1
 2857 16e2 00       		.byte	0
 2858 16e3 32       		.uleb128 0x32
 2859 16e4 656E6400 		.ascii "end\0"
 2860 16e8 0C       		.byte	0xc
 2861 16e9 8402     		.word	0x284
 2862 16eb 5F5A4E4B 		.ascii "_ZNKSs3endEv\0"
 2862      53733365 
 2862      6E644576 
 2862      00
 2863 16f8 D10B0000 		.long	0xbd1
 2864 16fc 01       		.byte	0x1
 2865 16fd 05170000 		.long	0x1705
 2866 1701 0B170000 		.long	0x170b
 2867 1705 04       		.uleb128 0x4
 2868 1706 CB450000 		.long	0x45cb
 2869 170a 00       		.byte	0
 2870 170b 32       		.uleb128 0x32
 2871 170c 72626567 		.ascii "rbegin\0"
 2871      696E00
 2872 1713 0C       		.byte	0xc
 2873 1714 8D02     		.word	0x28d
 2874 1716 5F5A4E53 		.ascii "_ZNSs6rbeginEv\0"
 2874      73367262 
 2874      6567696E 
 2874      457600
 2875 1725 070C0000 		.long	0xc07
 2876 1729 01       		.byte	0x1
 2877 172a 32170000 		.long	0x1732
 2878 172e 38170000 		.long	0x1738
 2879 1732 04       		.uleb128 0x4
 2880 1733 D1450000 		.long	0x45d1
 2881 1737 00       		.byte	0
 2882 1738 32       		.uleb128 0x32
 2883 1739 72626567 		.ascii "rbegin\0"
 2883      696E00
 2884 1740 0C       		.byte	0xc
 2885 1741 9602     		.word	0x296
 2886 1743 5F5A4E4B 		.ascii "_ZNKSs6rbeginEv\0"
 2886      53733672 
 2886      62656769 
 2886      6E457600 
GAS LISTING C:\Users\NJLLMR~1\AppData\Local\Temp\ccWOhw13.s 			page 73


 2887 1753 E80B0000 		.long	0xbe8
 2888 1757 01       		.byte	0x1
 2889 1758 60170000 		.long	0x1760
 2890 175c 66170000 		.long	0x1766
 2891 1760 04       		.uleb128 0x4
 2892 1761 CB450000 		.long	0x45cb
 2893 1765 00       		.byte	0
 2894 1766 32       		.uleb128 0x32
 2895 1767 72656E64 		.ascii "rend\0"
 2895      00
 2896 176c 0C       		.byte	0xc
 2897 176d 9F02     		.word	0x29f
 2898 176f 5F5A4E53 		.ascii "_ZNSs4rendEv\0"
 2898      73347265 
 2898      6E644576 
 2898      00
 2899 177c 070C0000 		.long	0xc07
 2900 1780 01       		.byte	0x1
 2901 1781 89170000 		.long	0x1789
 2902 1785 8F170000 		.long	0x178f
 2903 1789 04       		.uleb128 0x4
 2904 178a D1450000 		.long	0x45d1
 2905 178e 00       		.byte	0
 2906 178f 32       		.uleb128 0x32
 2907 1790 72656E64 		.ascii "rend\0"
 2907      00
 2908 1795 0C       		.byte	0xc
 2909 1796 A802     		.word	0x2a8
 2910 1798 5F5A4E4B 		.ascii "_ZNKSs4rendEv\0"
 2910      53733472 
 2910      656E6445 
 2910      7600
 2911 17a6 E80B0000 		.long	0xbe8
 2912 17aa 01       		.byte	0x1
 2913 17ab B3170000 		.long	0x17b3
 2914 17af B9170000 		.long	0x17b9
 2915 17b3 04       		.uleb128 0x4
 2916 17b4 CB450000 		.long	0x45cb
 2917 17b8 00       		.byte	0
 2918 17b9 32       		.uleb128 0x32
 2919 17ba 73697A65 		.ascii "size\0"
 2919      00
 2920 17bf 0C       		.byte	0xc
 2921 17c0 D402     		.word	0x2d4
 2922 17c2 5F5A4E4B 		.ascii "_ZNKSs4sizeEv\0"
 2922      53733473 
 2922      697A6545 
 2922      7600
 2923 17d0 5D0B0000 		.long	0xb5d
 2924 17d4 01       		.byte	0x1
 2925 17d5 DD170000 		.long	0x17dd
 2926 17d9 E3170000 		.long	0x17e3
 2927 17dd 04       		.uleb128 0x4
 2928 17de CB450000 		.long	0x45cb
 2929 17e2 00       		.byte	0
 2930 17e3 32       		.uleb128 0x32
 2931 17e4 6C656E67 		.ascii "length\0"
GAS LISTING C:\Users\NJLLMR~1\AppData\Local\Temp\ccWOhw13.s 			page 74


 2931      746800
 2932 17eb 0C       		.byte	0xc
 2933 17ec DA02     		.word	0x2da
 2934 17ee 5F5A4E4B 		.ascii "_ZNKSs6lengthEv\0"
 2934      5373366C 
 2934      656E6774 
 2934      68457600 
 2935 17fe 5D0B0000 		.long	0xb5d
 2936 1802 01       		.byte	0x1
 2937 1803 0B180000 		.long	0x180b
 2938 1807 11180000 		.long	0x1811
 2939 180b 04       		.uleb128 0x4
 2940 180c CB450000 		.long	0x45cb
 2941 1810 00       		.byte	0
 2942 1811 31       		.uleb128 0x31
 2943 1812 C6000000 		.secrel32	LASF11
 2944 1816 0C       		.byte	0xc
 2945 1817 DF02     		.word	0x2df
 2946 1819 5F5A4E4B 		.ascii "_ZNKSs8max_sizeEv\0"
 2946      5373386D 
 2946      61785F73 
 2946      697A6545 
 2946      7600
 2947 182b 5D0B0000 		.long	0xb5d
 2948 182f 01       		.byte	0x1
 2949 1830 38180000 		.long	0x1838
 2950 1834 3E180000 		.long	0x183e
 2951 1838 04       		.uleb128 0x4
 2952 1839 CB450000 		.long	0x45cb
 2953 183d 00       		.byte	0
 2954 183e 33       		.uleb128 0x33
 2955 183f 72657369 		.ascii "resize\0"
 2955      7A6500
 2956 1846 0D       		.byte	0xd
 2957 1847 7F02     		.word	0x27f
 2958 1849 5F5A4E53 		.ascii "_ZNSs6resizeEjc\0"
 2958      73367265 
 2958      73697A65 
 2958      456A6300 
 2959 1859 01       		.byte	0x1
 2960 185a 62180000 		.long	0x1862
 2961 185e 72180000 		.long	0x1872
 2962 1862 04       		.uleb128 0x4
 2963 1863 D1450000 		.long	0x45d1
 2964 1867 13       		.uleb128 0x13
 2965 1868 5D0B0000 		.long	0xb5d
 2966 186c 13       		.uleb128 0x13
 2967 186d 97020000 		.long	0x297
 2968 1871 00       		.byte	0
 2969 1872 33       		.uleb128 0x33
 2970 1873 72657369 		.ascii "resize\0"
 2970      7A6500
 2971 187a 0C       		.byte	0xc
 2972 187b FA02     		.word	0x2fa
 2973 187d 5F5A4E53 		.ascii "_ZNSs6resizeEj\0"
 2973      73367265 
 2973      73697A65 
GAS LISTING C:\Users\NJLLMR~1\AppData\Local\Temp\ccWOhw13.s 			page 75


 2973      456A00
 2974 188c 01       		.byte	0x1
 2975 188d 95180000 		.long	0x1895
 2976 1891 A0180000 		.long	0x18a0
 2977 1895 04       		.uleb128 0x4
 2978 1896 D1450000 		.long	0x45d1
 2979 189a 13       		.uleb128 0x13
 2980 189b 5D0B0000 		.long	0xb5d
 2981 189f 00       		.byte	0
 2982 18a0 32       		.uleb128 0x32
 2983 18a1 63617061 		.ascii "capacity\0"
 2983      63697479 
 2983      00
 2984 18aa 0C       		.byte	0xc
 2985 18ab 1103     		.word	0x311
 2986 18ad 5F5A4E4B 		.ascii "_ZNKSs8capacityEv\0"
 2986      53733863 
 2986      61706163 
 2986      69747945 
 2986      7600
 2987 18bf 5D0B0000 		.long	0xb5d
 2988 18c3 01       		.byte	0x1
 2989 18c4 CC180000 		.long	0x18cc
 2990 18c8 D2180000 		.long	0x18d2
 2991 18cc 04       		.uleb128 0x4
 2992 18cd CB450000 		.long	0x45cb
 2993 18d1 00       		.byte	0
 2994 18d2 33       		.uleb128 0x33
 2995 18d3 72657365 		.ascii "reserve\0"
 2995      72766500 
 2996 18db 0D       		.byte	0xd
 2997 18dc F501     		.word	0x1f5
 2998 18de 5F5A4E53 		.ascii "_ZNSs7reserveEj\0"
 2998      73377265 
 2998      73657276 
 2998      65456A00 
 2999 18ee 01       		.byte	0x1
 3000 18ef F7180000 		.long	0x18f7
 3001 18f3 02190000 		.long	0x1902
 3002 18f7 04       		.uleb128 0x4
 3003 18f8 D1450000 		.long	0x45d1
 3004 18fc 13       		.uleb128 0x13
 3005 18fd 5D0B0000 		.long	0xb5d
 3006 1901 00       		.byte	0
 3007 1902 33       		.uleb128 0x33
 3008 1903 636C6561 		.ascii "clear\0"
 3008      7200
 3009 1909 0C       		.byte	0xc
 3010 190a 2D03     		.word	0x32d
 3011 190c 5F5A4E53 		.ascii "_ZNSs5clearEv\0"
 3011      7335636C 
 3011      65617245 
 3011      7600
 3012 191a 01       		.byte	0x1
 3013 191b 23190000 		.long	0x1923
 3014 191f 29190000 		.long	0x1929
 3015 1923 04       		.uleb128 0x4
GAS LISTING C:\Users\NJLLMR~1\AppData\Local\Temp\ccWOhw13.s 			page 76


 3016 1924 D1450000 		.long	0x45d1
 3017 1928 00       		.byte	0
 3018 1929 32       		.uleb128 0x32
 3019 192a 656D7074 		.ascii "empty\0"
 3019      7900
 3020 1930 0C       		.byte	0xc
 3021 1931 3503     		.word	0x335
 3022 1933 5F5A4E4B 		.ascii "_ZNKSs5emptyEv\0"
 3022      53733565 
 3022      6D707479 
 3022      457600
 3023 1942 83430000 		.long	0x4383
 3024 1946 01       		.byte	0x1
 3025 1947 4F190000 		.long	0x194f
 3026 194b 55190000 		.long	0x1955
 3027 194f 04       		.uleb128 0x4
 3028 1950 CB450000 		.long	0x45cb
 3029 1954 00       		.byte	0
 3030 1955 31       		.uleb128 0x31
 3031 1956 40000000 		.secrel32	LASF12
 3032 195a 0C       		.byte	0xc
 3033 195b 4403     		.word	0x344
 3034 195d 5F5A4E4B 		.ascii "_ZNKSsixEj\0"
 3034      53736978 
 3034      456A00
 3035 1968 B40B0000 		.long	0xbb4
 3036 196c 01       		.byte	0x1
 3037 196d 75190000 		.long	0x1975
 3038 1971 80190000 		.long	0x1980
 3039 1975 04       		.uleb128 0x4
 3040 1976 CB450000 		.long	0x45cb
 3041 197a 13       		.uleb128 0x13
 3042 197b 5D0B0000 		.long	0xb5d
 3043 197f 00       		.byte	0
 3044 1980 31       		.uleb128 0x31
 3045 1981 40000000 		.secrel32	LASF12
 3046 1985 0C       		.byte	0xc
 3047 1986 5503     		.word	0x355
 3048 1988 5F5A4E53 		.ascii "_ZNSsixEj\0"
 3048      73697845 
 3048      6A00
 3049 1992 A80B0000 		.long	0xba8
 3050 1996 01       		.byte	0x1
 3051 1997 9F190000 		.long	0x199f
 3052 199b AA190000 		.long	0x19aa
 3053 199f 04       		.uleb128 0x4
 3054 19a0 D1450000 		.long	0x45d1
 3055 19a4 13       		.uleb128 0x13
 3056 19a5 5D0B0000 		.long	0xb5d
 3057 19a9 00       		.byte	0
 3058 19aa 32       		.uleb128 0x32
 3059 19ab 617400   		.ascii "at\0"
 3060 19ae 0C       		.byte	0xc
 3061 19af 6B03     		.word	0x36b
 3062 19b1 5F5A4E4B 		.ascii "_ZNKSs2atEj\0"
 3062      53733261 
 3062      74456A00 
GAS LISTING C:\Users\NJLLMR~1\AppData\Local\Temp\ccWOhw13.s 			page 77


 3063 19bd B40B0000 		.long	0xbb4
 3064 19c1 01       		.byte	0x1
 3065 19c2 CA190000 		.long	0x19ca
 3066 19c6 D5190000 		.long	0x19d5
 3067 19ca 04       		.uleb128 0x4
 3068 19cb CB450000 		.long	0x45cb
 3069 19cf 13       		.uleb128 0x13
 3070 19d0 5D0B0000 		.long	0xb5d
 3071 19d4 00       		.byte	0
 3072 19d5 32       		.uleb128 0x32
 3073 19d6 617400   		.ascii "at\0"
 3074 19d9 0C       		.byte	0xc
 3075 19da 8103     		.word	0x381
 3076 19dc 5F5A4E53 		.ascii "_ZNSs2atEj\0"
 3076      73326174 
 3076      456A00
 3077 19e7 A80B0000 		.long	0xba8
 3078 19eb 01       		.byte	0x1
 3079 19ec F4190000 		.long	0x19f4
 3080 19f0 FF190000 		.long	0x19ff
 3081 19f4 04       		.uleb128 0x4
 3082 19f5 D1450000 		.long	0x45d1
 3083 19f9 13       		.uleb128 0x13
 3084 19fa 5D0B0000 		.long	0xb5d
 3085 19fe 00       		.byte	0
 3086 19ff 31       		.uleb128 0x31
 3087 1a00 E1000000 		.secrel32	LASF13
 3088 1a04 0C       		.byte	0xc
 3089 1a05 B503     		.word	0x3b5
 3090 1a07 5F5A4E53 		.ascii "_ZNSspLERKSs\0"
 3090      73704C45 
 3090      524B5373 
 3090      00
 3091 1a14 E9450000 		.long	0x45e9
 3092 1a18 01       		.byte	0x1
 3093 1a19 211A0000 		.long	0x1a21
 3094 1a1d 2C1A0000 		.long	0x1a2c
 3095 1a21 04       		.uleb128 0x4
 3096 1a22 D1450000 		.long	0x45d1
 3097 1a26 13       		.uleb128 0x13
 3098 1a27 E3450000 		.long	0x45e3
 3099 1a2b 00       		.byte	0
 3100 1a2c 31       		.uleb128 0x31
 3101 1a2d E1000000 		.secrel32	LASF13
 3102 1a31 0C       		.byte	0xc
 3103 1a32 BE03     		.word	0x3be
 3104 1a34 5F5A4E53 		.ascii "_ZNSspLEPKc\0"
 3104      73704C45 
 3104      504B6300 
 3105 1a40 E9450000 		.long	0x45e9
 3106 1a44 01       		.byte	0x1
 3107 1a45 4D1A0000 		.long	0x1a4d
 3108 1a49 581A0000 		.long	0x1a58
 3109 1a4d 04       		.uleb128 0x4
 3110 1a4e D1450000 		.long	0x45d1
 3111 1a52 13       		.uleb128 0x13
 3112 1a53 A5370000 		.long	0x37a5
GAS LISTING C:\Users\NJLLMR~1\AppData\Local\Temp\ccWOhw13.s 			page 78


 3113 1a57 00       		.byte	0
 3114 1a58 31       		.uleb128 0x31
 3115 1a59 E1000000 		.secrel32	LASF13
 3116 1a5d 0C       		.byte	0xc
 3117 1a5e C703     		.word	0x3c7
 3118 1a60 5F5A4E53 		.ascii "_ZNSspLEc\0"
 3118      73704C45 
 3118      6300
 3119 1a6a E9450000 		.long	0x45e9
 3120 1a6e 01       		.byte	0x1
 3121 1a6f 771A0000 		.long	0x1a77
 3122 1a73 821A0000 		.long	0x1a82
 3123 1a77 04       		.uleb128 0x4
 3124 1a78 D1450000 		.long	0x45d1
 3125 1a7c 13       		.uleb128 0x13
 3126 1a7d 97020000 		.long	0x297
 3127 1a81 00       		.byte	0
 3128 1a82 31       		.uleb128 0x31
 3129 1a83 11010000 		.secrel32	LASF14
 3130 1a87 0D       		.byte	0xd
 3131 1a88 4401     		.word	0x144
 3132 1a8a 5F5A4E53 		.ascii "_ZNSs6appendERKSs\0"
 3132      73366170 
 3132      70656E64 
 3132      45524B53 
 3132      7300
 3133 1a9c E9450000 		.long	0x45e9
 3134 1aa0 01       		.byte	0x1
 3135 1aa1 A91A0000 		.long	0x1aa9
 3136 1aa5 B41A0000 		.long	0x1ab4
 3137 1aa9 04       		.uleb128 0x4
 3138 1aaa D1450000 		.long	0x45d1
 3139 1aae 13       		.uleb128 0x13
 3140 1aaf E3450000 		.long	0x45e3
 3141 1ab3 00       		.byte	0
 3142 1ab4 31       		.uleb128 0x31
 3143 1ab5 11010000 		.secrel32	LASF14
 3144 1ab9 0D       		.byte	0xd
 3145 1aba 5501     		.word	0x155
 3146 1abc 5F5A4E53 		.ascii "_ZNSs6appendERKSsjj\0"
 3146      73366170 
 3146      70656E64 
 3146      45524B53 
 3146      736A6A00 
 3147 1ad0 E9450000 		.long	0x45e9
 3148 1ad4 01       		.byte	0x1
 3149 1ad5 DD1A0000 		.long	0x1add
 3150 1ad9 F21A0000 		.long	0x1af2
 3151 1add 04       		.uleb128 0x4
 3152 1ade D1450000 		.long	0x45d1
 3153 1ae2 13       		.uleb128 0x13
 3154 1ae3 E3450000 		.long	0x45e3
 3155 1ae7 13       		.uleb128 0x13
 3156 1ae8 5D0B0000 		.long	0xb5d
 3157 1aec 13       		.uleb128 0x13
 3158 1aed 5D0B0000 		.long	0xb5d
 3159 1af1 00       		.byte	0
GAS LISTING C:\Users\NJLLMR~1\AppData\Local\Temp\ccWOhw13.s 			page 79


 3160 1af2 31       		.uleb128 0x31
 3161 1af3 11010000 		.secrel32	LASF14
 3162 1af7 0D       		.byte	0xd
 3163 1af8 2901     		.word	0x129
 3164 1afa 5F5A4E53 		.ascii "_ZNSs6appendEPKcj\0"
 3164      73366170 
 3164      70656E64 
 3164      45504B63 
 3164      6A00
 3165 1b0c E9450000 		.long	0x45e9
 3166 1b10 01       		.byte	0x1
 3167 1b11 191B0000 		.long	0x1b19
 3168 1b15 291B0000 		.long	0x1b29
 3169 1b19 04       		.uleb128 0x4
 3170 1b1a D1450000 		.long	0x45d1
 3171 1b1e 13       		.uleb128 0x13
 3172 1b1f A5370000 		.long	0x37a5
 3173 1b23 13       		.uleb128 0x13
 3174 1b24 5D0B0000 		.long	0xb5d
 3175 1b28 00       		.byte	0
 3176 1b29 31       		.uleb128 0x31
 3177 1b2a 11010000 		.secrel32	LASF14
 3178 1b2e 0C       		.byte	0xc
 3179 1b2f FF03     		.word	0x3ff
 3180 1b31 5F5A4E53 		.ascii "_ZNSs6appendEPKc\0"
 3180      73366170 
 3180      70656E64 
 3180      45504B63 
 3180      00
 3181 1b42 E9450000 		.long	0x45e9
 3182 1b46 01       		.byte	0x1
 3183 1b47 4F1B0000 		.long	0x1b4f
 3184 1b4b 5A1B0000 		.long	0x1b5a
 3185 1b4f 04       		.uleb128 0x4
 3186 1b50 D1450000 		.long	0x45d1
 3187 1b54 13       		.uleb128 0x13
 3188 1b55 A5370000 		.long	0x37a5
 3189 1b59 00       		.byte	0
 3190 1b5a 31       		.uleb128 0x31
 3191 1b5b 11010000 		.secrel32	LASF14
 3192 1b5f 0D       		.byte	0xd
 3193 1b60 1801     		.word	0x118
 3194 1b62 5F5A4E53 		.ascii "_ZNSs6appendEjc\0"
 3194      73366170 
 3194      70656E64 
 3194      456A6300 
 3195 1b72 E9450000 		.long	0x45e9
 3196 1b76 01       		.byte	0x1
 3197 1b77 7F1B0000 		.long	0x1b7f
 3198 1b7b 8F1B0000 		.long	0x1b8f
 3199 1b7f 04       		.uleb128 0x4
 3200 1b80 D1450000 		.long	0x45d1
 3201 1b84 13       		.uleb128 0x13
 3202 1b85 5D0B0000 		.long	0xb5d
 3203 1b89 13       		.uleb128 0x13
 3204 1b8a 97020000 		.long	0x297
 3205 1b8e 00       		.byte	0
GAS LISTING C:\Users\NJLLMR~1\AppData\Local\Temp\ccWOhw13.s 			page 80


 3206 1b8f 33       		.uleb128 0x33
 3207 1b90 70757368 		.ascii "push_back\0"
 3207      5F626163 
 3207      6B00
 3208 1b9a 0C       		.byte	0xc
 3209 1b9b 2D04     		.word	0x42d
 3210 1b9d 5F5A4E53 		.ascii "_ZNSs9push_backEc\0"
 3210      73397075 
 3210      73685F62 
 3210      61636B45 
 3210      6300
 3211 1baf 01       		.byte	0x1
 3212 1bb0 B81B0000 		.long	0x1bb8
 3213 1bb4 C31B0000 		.long	0x1bc3
 3214 1bb8 04       		.uleb128 0x4
 3215 1bb9 D1450000 		.long	0x45d1
 3216 1bbd 13       		.uleb128 0x13
 3217 1bbe 97020000 		.long	0x297
 3218 1bc2 00       		.byte	0
 3219 1bc3 34       		.uleb128 0x34
 3220 1bc4 37010000 		.secrel32	LASF1
 3221 1bc8 0D       		.byte	0xd
 3222 1bc9 F2       		.byte	0xf2
 3223 1bca 5F5A4E53 		.ascii "_ZNSs6assignERKSs\0"
 3223      73366173 
 3223      7369676E 
 3223      45524B53 
 3223      7300
 3224 1bdc E9450000 		.long	0x45e9
 3225 1be0 01       		.byte	0x1
 3226 1be1 E91B0000 		.long	0x1be9
 3227 1be5 F41B0000 		.long	0x1bf4
 3228 1be9 04       		.uleb128 0x4
 3229 1bea D1450000 		.long	0x45d1
 3230 1bee 13       		.uleb128 0x13
 3231 1bef E3450000 		.long	0x45e3
 3232 1bf3 00       		.byte	0
 3233 1bf4 31       		.uleb128 0x31
 3234 1bf5 37010000 		.secrel32	LASF1
 3235 1bf9 0C       		.byte	0xc
 3236 1bfa 5E04     		.word	0x45e
 3237 1bfc 5F5A4E53 		.ascii "_ZNSs6assignERKSsjj\0"
 3237      73366173 
 3237      7369676E 
 3237      45524B53 
 3237      736A6A00 
 3238 1c10 E9450000 		.long	0x45e9
 3239 1c14 01       		.byte	0x1
 3240 1c15 1D1C0000 		.long	0x1c1d
 3241 1c19 321C0000 		.long	0x1c32
 3242 1c1d 04       		.uleb128 0x4
 3243 1c1e D1450000 		.long	0x45d1
 3244 1c22 13       		.uleb128 0x13
 3245 1c23 E3450000 		.long	0x45e3
 3246 1c27 13       		.uleb128 0x13
 3247 1c28 5D0B0000 		.long	0xb5d
 3248 1c2c 13       		.uleb128 0x13
GAS LISTING C:\Users\NJLLMR~1\AppData\Local\Temp\ccWOhw13.s 			page 81


 3249 1c2d 5D0B0000 		.long	0xb5d
 3250 1c31 00       		.byte	0
 3251 1c32 31       		.uleb128 0x31
 3252 1c33 37010000 		.secrel32	LASF1
 3253 1c37 0D       		.byte	0xd
 3254 1c38 0201     		.word	0x102
 3255 1c3a 5F5A4E53 		.ascii "_ZNSs6assignEPKcj\0"
 3255      73366173 
 3255      7369676E 
 3255      45504B63 
 3255      6A00
 3256 1c4c E9450000 		.long	0x45e9
 3257 1c50 01       		.byte	0x1
 3258 1c51 591C0000 		.long	0x1c59
 3259 1c55 691C0000 		.long	0x1c69
 3260 1c59 04       		.uleb128 0x4
 3261 1c5a D1450000 		.long	0x45d1
 3262 1c5e 13       		.uleb128 0x13
 3263 1c5f A5370000 		.long	0x37a5
 3264 1c63 13       		.uleb128 0x13
 3265 1c64 5D0B0000 		.long	0xb5d
 3266 1c68 00       		.byte	0
 3267 1c69 31       		.uleb128 0x31
 3268 1c6a 37010000 		.secrel32	LASF1
 3269 1c6e 0C       		.byte	0xc
 3270 1c6f 7A04     		.word	0x47a
 3271 1c71 5F5A4E53 		.ascii "_ZNSs6assignEPKc\0"
 3271      73366173 
 3271      7369676E 
 3271      45504B63 
 3271      00
 3272 1c82 E9450000 		.long	0x45e9
 3273 1c86 01       		.byte	0x1
 3274 1c87 8F1C0000 		.long	0x1c8f
 3275 1c8b 9A1C0000 		.long	0x1c9a
 3276 1c8f 04       		.uleb128 0x4
 3277 1c90 D1450000 		.long	0x45d1
 3278 1c94 13       		.uleb128 0x13
 3279 1c95 A5370000 		.long	0x37a5
 3280 1c99 00       		.byte	0
 3281 1c9a 31       		.uleb128 0x31
 3282 1c9b 37010000 		.secrel32	LASF1
 3283 1c9f 0C       		.byte	0xc
 3284 1ca0 8A04     		.word	0x48a
 3285 1ca2 5F5A4E53 		.ascii "_ZNSs6assignEjc\0"
 3285      73366173 
 3285      7369676E 
 3285      456A6300 
 3286 1cb2 E9450000 		.long	0x45e9
 3287 1cb6 01       		.byte	0x1
 3288 1cb7 BF1C0000 		.long	0x1cbf
 3289 1cbb CF1C0000 		.long	0x1ccf
 3290 1cbf 04       		.uleb128 0x4
 3291 1cc0 D1450000 		.long	0x45d1
 3292 1cc4 13       		.uleb128 0x13
 3293 1cc5 5D0B0000 		.long	0xb5d
 3294 1cc9 13       		.uleb128 0x13
GAS LISTING C:\Users\NJLLMR~1\AppData\Local\Temp\ccWOhw13.s 			page 82


 3295 1cca 97020000 		.long	0x297
 3296 1cce 00       		.byte	0
 3297 1ccf 35       		.uleb128 0x35
 3298 1cd0 EC000000 		.secrel32	LASF15
 3299 1cd4 0C       		.byte	0xc
 3300 1cd5 B304     		.word	0x4b3
 3301 1cd7 5F5A4E53 		.ascii "_ZNSs6insertEN9__gnu_cxx17__normal_iteratorIPcSsEEjc\0"
 3301      7336696E 
 3301      73657274 
 3301      454E395F 
 3301      5F676E75 
 3302 1d0c 01       		.byte	0x1
 3303 1d0d 151D0000 		.long	0x1d15
 3304 1d11 2A1D0000 		.long	0x1d2a
 3305 1d15 04       		.uleb128 0x4
 3306 1d16 D1450000 		.long	0x45d1
 3307 1d1a 13       		.uleb128 0x13
 3308 1d1b C00B0000 		.long	0xbc0
 3309 1d1f 13       		.uleb128 0x13
 3310 1d20 5D0B0000 		.long	0xb5d
 3311 1d24 13       		.uleb128 0x13
 3312 1d25 97020000 		.long	0x297
 3313 1d29 00       		.byte	0
 3314 1d2a 31       		.uleb128 0x31
 3315 1d2b EC000000 		.secrel32	LASF15
 3316 1d2f 0C       		.byte	0xc
 3317 1d30 E304     		.word	0x4e3
 3318 1d32 5F5A4E53 		.ascii "_ZNSs6insertEjRKSs\0"
 3318      7336696E 
 3318      73657274 
 3318      456A524B 
 3318      537300
 3319 1d45 E9450000 		.long	0x45e9
 3320 1d49 01       		.byte	0x1
 3321 1d4a 521D0000 		.long	0x1d52
 3322 1d4e 621D0000 		.long	0x1d62
 3323 1d52 04       		.uleb128 0x4
 3324 1d53 D1450000 		.long	0x45d1
 3325 1d57 13       		.uleb128 0x13
 3326 1d58 5D0B0000 		.long	0xb5d
 3327 1d5c 13       		.uleb128 0x13
 3328 1d5d E3450000 		.long	0x45e3
 3329 1d61 00       		.byte	0
 3330 1d62 31       		.uleb128 0x31
 3331 1d63 EC000000 		.secrel32	LASF15
 3332 1d67 0C       		.byte	0xc
 3333 1d68 F904     		.word	0x4f9
 3334 1d6a 5F5A4E53 		.ascii "_ZNSs6insertEjRKSsjj\0"
 3334      7336696E 
 3334      73657274 
 3334      456A524B 
 3334      53736A6A 
 3335 1d7f E9450000 		.long	0x45e9
 3336 1d83 01       		.byte	0x1
 3337 1d84 8C1D0000 		.long	0x1d8c
 3338 1d88 A61D0000 		.long	0x1da6
 3339 1d8c 04       		.uleb128 0x4
GAS LISTING C:\Users\NJLLMR~1\AppData\Local\Temp\ccWOhw13.s 			page 83


 3340 1d8d D1450000 		.long	0x45d1
 3341 1d91 13       		.uleb128 0x13
 3342 1d92 5D0B0000 		.long	0xb5d
 3343 1d96 13       		.uleb128 0x13
 3344 1d97 E3450000 		.long	0x45e3
 3345 1d9b 13       		.uleb128 0x13
 3346 1d9c 5D0B0000 		.long	0xb5d
 3347 1da0 13       		.uleb128 0x13
 3348 1da1 5D0B0000 		.long	0xb5d
 3349 1da5 00       		.byte	0
 3350 1da6 31       		.uleb128 0x31
 3351 1da7 EC000000 		.secrel32	LASF15
 3352 1dab 0D       		.byte	0xd
 3353 1dac 6701     		.word	0x167
 3354 1dae 5F5A4E53 		.ascii "_ZNSs6insertEjPKcj\0"
 3354      7336696E 
 3354      73657274 
 3354      456A504B 
 3354      636A00
 3355 1dc1 E9450000 		.long	0x45e9
 3356 1dc5 01       		.byte	0x1
 3357 1dc6 CE1D0000 		.long	0x1dce
 3358 1dca E31D0000 		.long	0x1de3
 3359 1dce 04       		.uleb128 0x4
 3360 1dcf D1450000 		.long	0x45d1
 3361 1dd3 13       		.uleb128 0x13
 3362 1dd4 5D0B0000 		.long	0xb5d
 3363 1dd8 13       		.uleb128 0x13
 3364 1dd9 A5370000 		.long	0x37a5
 3365 1ddd 13       		.uleb128 0x13
 3366 1dde 5D0B0000 		.long	0xb5d
 3367 1de2 00       		.byte	0
 3368 1de3 31       		.uleb128 0x31
 3369 1de4 EC000000 		.secrel32	LASF15
 3370 1de8 0C       		.byte	0xc
 3371 1de9 2205     		.word	0x522
 3372 1deb 5F5A4E53 		.ascii "_ZNSs6insertEjPKc\0"
 3372      7336696E 
 3372      73657274 
 3372      456A504B 
 3372      6300
 3373 1dfd E9450000 		.long	0x45e9
 3374 1e01 01       		.byte	0x1
 3375 1e02 0A1E0000 		.long	0x1e0a
 3376 1e06 1A1E0000 		.long	0x1e1a
 3377 1e0a 04       		.uleb128 0x4
 3378 1e0b D1450000 		.long	0x45d1
 3379 1e0f 13       		.uleb128 0x13
 3380 1e10 5D0B0000 		.long	0xb5d
 3381 1e14 13       		.uleb128 0x13
 3382 1e15 A5370000 		.long	0x37a5
 3383 1e19 00       		.byte	0
 3384 1e1a 31       		.uleb128 0x31
 3385 1e1b EC000000 		.secrel32	LASF15
 3386 1e1f 0C       		.byte	0xc
 3387 1e20 3905     		.word	0x539
 3388 1e22 5F5A4E53 		.ascii "_ZNSs6insertEjjc\0"
GAS LISTING C:\Users\NJLLMR~1\AppData\Local\Temp\ccWOhw13.s 			page 84


 3388      7336696E 
 3388      73657274 
 3388      456A6A63 
 3388      00
 3389 1e33 E9450000 		.long	0x45e9
 3390 1e37 01       		.byte	0x1
 3391 1e38 401E0000 		.long	0x1e40
 3392 1e3c 551E0000 		.long	0x1e55
 3393 1e40 04       		.uleb128 0x4
 3394 1e41 D1450000 		.long	0x45d1
 3395 1e45 13       		.uleb128 0x13
 3396 1e46 5D0B0000 		.long	0xb5d
 3397 1e4a 13       		.uleb128 0x13
 3398 1e4b 5D0B0000 		.long	0xb5d
 3399 1e4f 13       		.uleb128 0x13
 3400 1e50 97020000 		.long	0x297
 3401 1e54 00       		.byte	0
 3402 1e55 31       		.uleb128 0x31
 3403 1e56 EC000000 		.secrel32	LASF15
 3404 1e5a 0C       		.byte	0xc
 3405 1e5b 4B05     		.word	0x54b
 3406 1e5d 5F5A4E53 		.ascii "_ZNSs6insertEN9__gnu_cxx17__normal_iteratorIPcSsEEc\0"
 3406      7336696E 
 3406      73657274 
 3406      454E395F 
 3406      5F676E75 
 3407 1e91 C00B0000 		.long	0xbc0
 3408 1e95 01       		.byte	0x1
 3409 1e96 9E1E0000 		.long	0x1e9e
 3410 1e9a AE1E0000 		.long	0x1eae
 3411 1e9e 04       		.uleb128 0x4
 3412 1e9f D1450000 		.long	0x45d1
 3413 1ea3 13       		.uleb128 0x13
 3414 1ea4 C00B0000 		.long	0xbc0
 3415 1ea8 13       		.uleb128 0x13
 3416 1ea9 97020000 		.long	0x297
 3417 1ead 00       		.byte	0
 3418 1eae 32       		.uleb128 0x32
 3419 1eaf 65726173 		.ascii "erase\0"
 3419      6500
 3420 1eb5 0C       		.byte	0xc
 3421 1eb6 6405     		.word	0x564
 3422 1eb8 5F5A4E53 		.ascii "_ZNSs5eraseEjj\0"
 3422      73356572 
 3422      61736545 
 3422      6A6A00
 3423 1ec7 E9450000 		.long	0x45e9
 3424 1ecb 01       		.byte	0x1
 3425 1ecc D41E0000 		.long	0x1ed4
 3426 1ed0 E41E0000 		.long	0x1ee4
 3427 1ed4 04       		.uleb128 0x4
 3428 1ed5 D1450000 		.long	0x45d1
 3429 1ed9 13       		.uleb128 0x13
 3430 1eda 5D0B0000 		.long	0xb5d
 3431 1ede 13       		.uleb128 0x13
 3432 1edf 5D0B0000 		.long	0xb5d
 3433 1ee3 00       		.byte	0
GAS LISTING C:\Users\NJLLMR~1\AppData\Local\Temp\ccWOhw13.s 			page 85


 3434 1ee4 32       		.uleb128 0x32
 3435 1ee5 65726173 		.ascii "erase\0"
 3435      6500
 3436 1eeb 0C       		.byte	0xc
 3437 1eec 7405     		.word	0x574
 3438 1eee 5F5A4E53 		.ascii "_ZNSs5eraseEN9__gnu_cxx17__normal_iteratorIPcSsEE\0"
 3438      73356572 
 3438      61736545 
 3438      4E395F5F 
 3438      676E755F 
 3439 1f20 C00B0000 		.long	0xbc0
 3440 1f24 01       		.byte	0x1
 3441 1f25 2D1F0000 		.long	0x1f2d
 3442 1f29 381F0000 		.long	0x1f38
 3443 1f2d 04       		.uleb128 0x4
 3444 1f2e D1450000 		.long	0x45d1
 3445 1f32 13       		.uleb128 0x13
 3446 1f33 C00B0000 		.long	0xbc0
 3447 1f37 00       		.byte	0
 3448 1f38 32       		.uleb128 0x32
 3449 1f39 65726173 		.ascii "erase\0"
 3449      6500
 3450 1f3f 0D       		.byte	0xd
 3451 1f40 8601     		.word	0x186
 3452 1f42 5F5A4E53 		.ascii "_ZNSs5eraseEN9__gnu_cxx17__normal_iteratorIPcSsEES2_\0"
 3452      73356572 
 3452      61736545 
 3452      4E395F5F 
 3452      676E755F 
 3453 1f77 C00B0000 		.long	0xbc0
 3454 1f7b 01       		.byte	0x1
 3455 1f7c 841F0000 		.long	0x1f84
 3456 1f80 941F0000 		.long	0x1f94
 3457 1f84 04       		.uleb128 0x4
 3458 1f85 D1450000 		.long	0x45d1
 3459 1f89 13       		.uleb128 0x13
 3460 1f8a C00B0000 		.long	0xbc0
 3461 1f8e 13       		.uleb128 0x13
 3462 1f8f C00B0000 		.long	0xbc0
 3463 1f93 00       		.byte	0
 3464 1f94 31       		.uleb128 0x31
 3465 1f95 00000000 		.secrel32	LASF16
 3466 1f99 0C       		.byte	0xc
 3467 1f9a A705     		.word	0x5a7
 3468 1f9c 5F5A4E53 		.ascii "_ZNSs7replaceEjjRKSs\0"
 3468      73377265 
 3468      706C6163 
 3468      65456A6A 
 3468      524B5373 
 3469 1fb1 E9450000 		.long	0x45e9
 3470 1fb5 01       		.byte	0x1
 3471 1fb6 BE1F0000 		.long	0x1fbe
 3472 1fba D31F0000 		.long	0x1fd3
 3473 1fbe 04       		.uleb128 0x4
 3474 1fbf D1450000 		.long	0x45d1
 3475 1fc3 13       		.uleb128 0x13
 3476 1fc4 5D0B0000 		.long	0xb5d
GAS LISTING C:\Users\NJLLMR~1\AppData\Local\Temp\ccWOhw13.s 			page 86


 3477 1fc8 13       		.uleb128 0x13
 3478 1fc9 5D0B0000 		.long	0xb5d
 3479 1fcd 13       		.uleb128 0x13
 3480 1fce E3450000 		.long	0x45e3
 3481 1fd2 00       		.byte	0
 3482 1fd3 31       		.uleb128 0x31
 3483 1fd4 00000000 		.secrel32	LASF16
 3484 1fd8 0C       		.byte	0xc
 3485 1fd9 BD05     		.word	0x5bd
 3486 1fdb 5F5A4E53 		.ascii "_ZNSs7replaceEjjRKSsjj\0"
 3486      73377265 
 3486      706C6163 
 3486      65456A6A 
 3486      524B5373 
 3487 1ff2 E9450000 		.long	0x45e9
 3488 1ff6 01       		.byte	0x1
 3489 1ff7 FF1F0000 		.long	0x1fff
 3490 1ffb 1E200000 		.long	0x201e
 3491 1fff 04       		.uleb128 0x4
 3492 2000 D1450000 		.long	0x45d1
 3493 2004 13       		.uleb128 0x13
 3494 2005 5D0B0000 		.long	0xb5d
 3495 2009 13       		.uleb128 0x13
 3496 200a 5D0B0000 		.long	0xb5d
 3497 200e 13       		.uleb128 0x13
 3498 200f E3450000 		.long	0x45e3
 3499 2013 13       		.uleb128 0x13
 3500 2014 5D0B0000 		.long	0xb5d
 3501 2018 13       		.uleb128 0x13
 3502 2019 5D0B0000 		.long	0xb5d
 3503 201d 00       		.byte	0
 3504 201e 31       		.uleb128 0x31
 3505 201f 00000000 		.secrel32	LASF16
 3506 2023 0D       		.byte	0xd
 3507 2024 9D01     		.word	0x19d
 3508 2026 5F5A4E53 		.ascii "_ZNSs7replaceEjjPKcj\0"
 3508      73377265 
 3508      706C6163 
 3508      65456A6A 
 3508      504B636A 
 3509 203b E9450000 		.long	0x45e9
 3510 203f 01       		.byte	0x1
 3511 2040 48200000 		.long	0x2048
 3512 2044 62200000 		.long	0x2062
 3513 2048 04       		.uleb128 0x4
 3514 2049 D1450000 		.long	0x45d1
 3515 204d 13       		.uleb128 0x13
 3516 204e 5D0B0000 		.long	0xb5d
 3517 2052 13       		.uleb128 0x13
 3518 2053 5D0B0000 		.long	0xb5d
 3519 2057 13       		.uleb128 0x13
 3520 2058 A5370000 		.long	0x37a5
 3521 205c 13       		.uleb128 0x13
 3522 205d 5D0B0000 		.long	0xb5d
 3523 2061 00       		.byte	0
 3524 2062 31       		.uleb128 0x31
 3525 2063 00000000 		.secrel32	LASF16
GAS LISTING C:\Users\NJLLMR~1\AppData\Local\Temp\ccWOhw13.s 			page 87


 3526 2067 0C       		.byte	0xc
 3527 2068 EA05     		.word	0x5ea
 3528 206a 5F5A4E53 		.ascii "_ZNSs7replaceEjjPKc\0"
 3528      73377265 
 3528      706C6163 
 3528      65456A6A 
 3528      504B6300 
 3529 207e E9450000 		.long	0x45e9
 3530 2082 01       		.byte	0x1
 3531 2083 8B200000 		.long	0x208b
 3532 2087 A0200000 		.long	0x20a0
 3533 208b 04       		.uleb128 0x4
 3534 208c D1450000 		.long	0x45d1
 3535 2090 13       		.uleb128 0x13
 3536 2091 5D0B0000 		.long	0xb5d
 3537 2095 13       		.uleb128 0x13
 3538 2096 5D0B0000 		.long	0xb5d
 3539 209a 13       		.uleb128 0x13
 3540 209b A5370000 		.long	0x37a5
 3541 209f 00       		.byte	0
 3542 20a0 31       		.uleb128 0x31
 3543 20a1 00000000 		.secrel32	LASF16
 3544 20a5 0C       		.byte	0xc
 3545 20a6 0206     		.word	0x602
 3546 20a8 5F5A4E53 		.ascii "_ZNSs7replaceEjjjc\0"
 3546      73377265 
 3546      706C6163 
 3546      65456A6A 
 3546      6A6300
 3547 20bb E9450000 		.long	0x45e9
 3548 20bf 01       		.byte	0x1
 3549 20c0 C8200000 		.long	0x20c8
 3550 20c4 E2200000 		.long	0x20e2
 3551 20c8 04       		.uleb128 0x4
 3552 20c9 D1450000 		.long	0x45d1
 3553 20cd 13       		.uleb128 0x13
 3554 20ce 5D0B0000 		.long	0xb5d
 3555 20d2 13       		.uleb128 0x13
 3556 20d3 5D0B0000 		.long	0xb5d
 3557 20d7 13       		.uleb128 0x13
 3558 20d8 5D0B0000 		.long	0xb5d
 3559 20dc 13       		.uleb128 0x13
 3560 20dd 97020000 		.long	0x297
 3561 20e1 00       		.byte	0
 3562 20e2 31       		.uleb128 0x31
 3563 20e3 00000000 		.secrel32	LASF16
 3564 20e7 0C       		.byte	0xc
 3565 20e8 1406     		.word	0x614
 3566 20ea 5F5A4E53 		.ascii "_ZNSs7replaceEN9__gnu_cxx17__normal_iteratorIPcSsEES2_RKSs\0"
 3566      73377265 
 3566      706C6163 
 3566      65454E39 
 3566      5F5F676E 
 3567 2125 E9450000 		.long	0x45e9
 3568 2129 01       		.byte	0x1
 3569 212a 32210000 		.long	0x2132
 3570 212e 47210000 		.long	0x2147
GAS LISTING C:\Users\NJLLMR~1\AppData\Local\Temp\ccWOhw13.s 			page 88


 3571 2132 04       		.uleb128 0x4
 3572 2133 D1450000 		.long	0x45d1
 3573 2137 13       		.uleb128 0x13
 3574 2138 C00B0000 		.long	0xbc0
 3575 213c 13       		.uleb128 0x13
 3576 213d C00B0000 		.long	0xbc0
 3577 2141 13       		.uleb128 0x13
 3578 2142 E3450000 		.long	0x45e3
 3579 2146 00       		.byte	0
 3580 2147 31       		.uleb128 0x31
 3581 2148 00000000 		.secrel32	LASF16
 3582 214c 0C       		.byte	0xc
 3583 214d 2706     		.word	0x627
 3584 214f 5F5A4E53 		.ascii "_ZNSs7replaceEN9__gnu_cxx17__normal_iteratorIPcSsEES2_PKcj\0"
 3584      73377265 
 3584      706C6163 
 3584      65454E39 
 3584      5F5F676E 
 3585 218a E9450000 		.long	0x45e9
 3586 218e 01       		.byte	0x1
 3587 218f 97210000 		.long	0x2197
 3588 2193 B1210000 		.long	0x21b1
 3589 2197 04       		.uleb128 0x4
 3590 2198 D1450000 		.long	0x45d1
 3591 219c 13       		.uleb128 0x13
 3592 219d C00B0000 		.long	0xbc0
 3593 21a1 13       		.uleb128 0x13
 3594 21a2 C00B0000 		.long	0xbc0
 3595 21a6 13       		.uleb128 0x13
 3596 21a7 A5370000 		.long	0x37a5
 3597 21ab 13       		.uleb128 0x13
 3598 21ac 5D0B0000 		.long	0xb5d
 3599 21b0 00       		.byte	0
 3600 21b1 31       		.uleb128 0x31
 3601 21b2 00000000 		.secrel32	LASF16
 3602 21b6 0C       		.byte	0xc
 3603 21b7 3C06     		.word	0x63c
 3604 21b9 5F5A4E53 		.ascii "_ZNSs7replaceEN9__gnu_cxx17__normal_iteratorIPcSsEES2_PKc\0"
 3604      73377265 
 3604      706C6163 
 3604      65454E39 
 3604      5F5F676E 
 3605 21f3 E9450000 		.long	0x45e9
 3606 21f7 01       		.byte	0x1
 3607 21f8 00220000 		.long	0x2200
 3608 21fc 15220000 		.long	0x2215
 3609 2200 04       		.uleb128 0x4
 3610 2201 D1450000 		.long	0x45d1
 3611 2205 13       		.uleb128 0x13
 3612 2206 C00B0000 		.long	0xbc0
 3613 220a 13       		.uleb128 0x13
 3614 220b C00B0000 		.long	0xbc0
 3615 220f 13       		.uleb128 0x13
 3616 2210 A5370000 		.long	0x37a5
 3617 2214 00       		.byte	0
 3618 2215 31       		.uleb128 0x31
 3619 2216 00000000 		.secrel32	LASF16
GAS LISTING C:\Users\NJLLMR~1\AppData\Local\Temp\ccWOhw13.s 			page 89


 3620 221a 0C       		.byte	0xc
 3621 221b 5106     		.word	0x651
 3622 221d 5F5A4E53 		.ascii "_ZNSs7replaceEN9__gnu_cxx17__normal_iteratorIPcSsEES2_jc\0"
 3622      73377265 
 3622      706C6163 
 3622      65454E39 
 3622      5F5F676E 
 3623 2256 E9450000 		.long	0x45e9
 3624 225a 01       		.byte	0x1
 3625 225b 63220000 		.long	0x2263
 3626 225f 7D220000 		.long	0x227d
 3627 2263 04       		.uleb128 0x4
 3628 2264 D1450000 		.long	0x45d1
 3629 2268 13       		.uleb128 0x13
 3630 2269 C00B0000 		.long	0xbc0
 3631 226d 13       		.uleb128 0x13
 3632 226e C00B0000 		.long	0xbc0
 3633 2272 13       		.uleb128 0x13
 3634 2273 5D0B0000 		.long	0xb5d
 3635 2277 13       		.uleb128 0x13
 3636 2278 97020000 		.long	0x297
 3637 227c 00       		.byte	0
 3638 227d 31       		.uleb128 0x31
 3639 227e 00000000 		.secrel32	LASF16
 3640 2282 0C       		.byte	0xc
 3641 2283 7606     		.word	0x676
 3642 2285 5F5A4E53 		.ascii "_ZNSs7replaceEN9__gnu_cxx17__normal_iteratorIPcSsEES2_S1_S1_\0"
 3642      73377265 
 3642      706C6163 
 3642      65454E39 
 3642      5F5F676E 
 3643 22c2 E9450000 		.long	0x45e9
 3644 22c6 01       		.byte	0x1
 3645 22c7 CF220000 		.long	0x22cf
 3646 22cb E9220000 		.long	0x22e9
 3647 22cf 04       		.uleb128 0x4
 3648 22d0 D1450000 		.long	0x45d1
 3649 22d4 13       		.uleb128 0x13
 3650 22d5 C00B0000 		.long	0xbc0
 3651 22d9 13       		.uleb128 0x13
 3652 22da C00B0000 		.long	0xbc0
 3653 22de 13       		.uleb128 0x13
 3654 22df 83030000 		.long	0x383
 3655 22e3 13       		.uleb128 0x13
 3656 22e4 83030000 		.long	0x383
 3657 22e8 00       		.byte	0
 3658 22e9 31       		.uleb128 0x31
 3659 22ea 00000000 		.secrel32	LASF16
 3660 22ee 0C       		.byte	0xc
 3661 22ef 8006     		.word	0x680
 3662 22f1 5F5A4E53 		.ascii "_ZNSs7replaceEN9__gnu_cxx17__normal_iteratorIPcSsEES2_PKcS4_\0"
 3662      73377265 
 3662      706C6163 
 3662      65454E39 
 3662      5F5F676E 
 3663 232e E9450000 		.long	0x45e9
 3664 2332 01       		.byte	0x1
GAS LISTING C:\Users\NJLLMR~1\AppData\Local\Temp\ccWOhw13.s 			page 90


 3665 2333 3B230000 		.long	0x233b
 3666 2337 55230000 		.long	0x2355
 3667 233b 04       		.uleb128 0x4
 3668 233c D1450000 		.long	0x45d1
 3669 2340 13       		.uleb128 0x13
 3670 2341 C00B0000 		.long	0xbc0
 3671 2345 13       		.uleb128 0x13
 3672 2346 C00B0000 		.long	0xbc0
 3673 234a 13       		.uleb128 0x13
 3674 234b A5370000 		.long	0x37a5
 3675 234f 13       		.uleb128 0x13
 3676 2350 A5370000 		.long	0x37a5
 3677 2354 00       		.byte	0
 3678 2355 31       		.uleb128 0x31
 3679 2356 00000000 		.secrel32	LASF16
 3680 235a 0C       		.byte	0xc
 3681 235b 8B06     		.word	0x68b
 3682 235d 5F5A4E53 		.ascii "_ZNSs7replaceEN9__gnu_cxx17__normal_iteratorIPcSsEES2_S2_S2_\0"
 3682      73377265 
 3682      706C6163 
 3682      65454E39 
 3682      5F5F676E 
 3683 239a E9450000 		.long	0x45e9
 3684 239e 01       		.byte	0x1
 3685 239f A7230000 		.long	0x23a7
 3686 23a3 C1230000 		.long	0x23c1
 3687 23a7 04       		.uleb128 0x4
 3688 23a8 D1450000 		.long	0x45d1
 3689 23ac 13       		.uleb128 0x13
 3690 23ad C00B0000 		.long	0xbc0
 3691 23b1 13       		.uleb128 0x13
 3692 23b2 C00B0000 		.long	0xbc0
 3693 23b6 13       		.uleb128 0x13
 3694 23b7 C00B0000 		.long	0xbc0
 3695 23bb 13       		.uleb128 0x13
 3696 23bc C00B0000 		.long	0xbc0
 3697 23c0 00       		.byte	0
 3698 23c1 31       		.uleb128 0x31
 3699 23c2 00000000 		.secrel32	LASF16
 3700 23c6 0C       		.byte	0xc
 3701 23c7 9506     		.word	0x695
 3702 23c9 5F5A4E53 		.ascii "_ZNSs7replaceEN9__gnu_cxx17__normal_iteratorIPcSsEES2_NS0_IPKcSsEES5_\0"
 3702      73377265 
 3702      706C6163 
 3702      65454E39 
 3702      5F5F676E 
 3703 240f E9450000 		.long	0x45e9
 3704 2413 01       		.byte	0x1
 3705 2414 1C240000 		.long	0x241c
 3706 2418 36240000 		.long	0x2436
 3707 241c 04       		.uleb128 0x4
 3708 241d D1450000 		.long	0x45d1
 3709 2421 13       		.uleb128 0x13
 3710 2422 C00B0000 		.long	0xbc0
 3711 2426 13       		.uleb128 0x13
 3712 2427 C00B0000 		.long	0xbc0
 3713 242b 13       		.uleb128 0x13
GAS LISTING C:\Users\NJLLMR~1\AppData\Local\Temp\ccWOhw13.s 			page 91


 3714 242c D10B0000 		.long	0xbd1
 3715 2430 13       		.uleb128 0x13
 3716 2431 D10B0000 		.long	0xbd1
 3717 2435 00       		.byte	0
 3718 2436 29       		.uleb128 0x29
 3719 2437 5F4D5F72 		.ascii "_M_replace_aux\0"
 3719      65706C61 
 3719      63655F61 
 3719      757800
 3720 2446 0D       		.byte	0xd
 3721 2447 9B02     		.word	0x29b
 3722 2449 5F5A4E53 		.ascii "_ZNSs14_M_replace_auxEjjjc\0"
 3722      7331345F 
 3722      4D5F7265 
 3722      706C6163 
 3722      655F6175 
 3723 2464 E9450000 		.long	0x45e9
 3724 2468 70240000 		.long	0x2470
 3725 246c 8A240000 		.long	0x248a
 3726 2470 04       		.uleb128 0x4
 3727 2471 D1450000 		.long	0x45d1
 3728 2475 13       		.uleb128 0x13
 3729 2476 5D0B0000 		.long	0xb5d
 3730 247a 13       		.uleb128 0x13
 3731 247b 5D0B0000 		.long	0xb5d
 3732 247f 13       		.uleb128 0x13
 3733 2480 5D0B0000 		.long	0xb5d
 3734 2484 13       		.uleb128 0x13
 3735 2485 97020000 		.long	0x297
 3736 2489 00       		.byte	0
 3737 248a 29       		.uleb128 0x29
 3738 248b 5F4D5F72 		.ascii "_M_replace_safe\0"
 3738      65706C61 
 3738      63655F73 
 3738      61666500 
 3739 249b 0D       		.byte	0xd
 3740 249c A802     		.word	0x2a8
 3741 249e 5F5A4E53 		.ascii "_ZNSs15_M_replace_safeEjjPKcj\0"
 3741      7331355F 
 3741      4D5F7265 
 3741      706C6163 
 3741      655F7361 
 3742 24bc E9450000 		.long	0x45e9
 3743 24c0 C8240000 		.long	0x24c8
 3744 24c4 E2240000 		.long	0x24e2
 3745 24c8 04       		.uleb128 0x4
 3746 24c9 D1450000 		.long	0x45d1
 3747 24cd 13       		.uleb128 0x13
 3748 24ce 5D0B0000 		.long	0xb5d
 3749 24d2 13       		.uleb128 0x13
 3750 24d3 5D0B0000 		.long	0xb5d
 3751 24d7 13       		.uleb128 0x13
 3752 24d8 A5370000 		.long	0x37a5
 3753 24dc 13       		.uleb128 0x13
 3754 24dd 5D0B0000 		.long	0xb5d
 3755 24e1 00       		.byte	0
 3756 24e2 17       		.uleb128 0x17
GAS LISTING C:\Users\NJLLMR~1\AppData\Local\Temp\ccWOhw13.s 			page 92


 3757 24e3 5F535F63 		.ascii "_S_construct_aux_2\0"
 3757      6F6E7374 
 3757      72756374 
 3757      5F617578 
 3757      5F3200
 3758 24f6 0C       		.byte	0xc
 3759 24f7 DC06     		.word	0x6dc
 3760 24f9 5F5A4E53 		.ascii "_ZNSs18_S_construct_aux_2EjcRKSaIcE\0"
 3760      7331385F 
 3760      535F636F 
 3760      6E737472 
 3760      7563745F 
 3761 251d 83030000 		.long	0x383
 3762 2521 35250000 		.long	0x2535
 3763 2525 13       		.uleb128 0x13
 3764 2526 5D0B0000 		.long	0xb5d
 3765 252a 13       		.uleb128 0x13
 3766 252b 97020000 		.long	0x297
 3767 252f 13       		.uleb128 0x13
 3768 2530 B5450000 		.long	0x45b5
 3769 2534 00       		.byte	0
 3770 2535 15       		.uleb128 0x15
 3771 2536 5F535F63 		.ascii "_S_construct\0"
 3771      6F6E7374 
 3771      72756374 
 3771      00
 3772 2543 0D       		.byte	0xd
 3773 2544 98       		.byte	0x98
 3774 2545 5F5A4E53 		.ascii "_ZNSs12_S_constructEjcRKSaIcE\0"
 3774      7331325F 
 3774      535F636F 
 3774      6E737472 
 3774      75637445 
 3775 2563 83030000 		.long	0x383
 3776 2567 7B250000 		.long	0x257b
 3777 256b 13       		.uleb128 0x13
 3778 256c 5D0B0000 		.long	0xb5d
 3779 2570 13       		.uleb128 0x13
 3780 2571 97020000 		.long	0x297
 3781 2575 13       		.uleb128 0x13
 3782 2576 B5450000 		.long	0x45b5
 3783 257a 00       		.byte	0
 3784 257b 32       		.uleb128 0x32
 3785 257c 636F7079 		.ascii "copy\0"
 3785      00
 3786 2581 0D       		.byte	0xd
 3787 2582 D202     		.word	0x2d2
 3788 2584 5F5A4E4B 		.ascii "_ZNKSs4copyEPcjj\0"
 3788      53733463 
 3788      6F707945 
 3788      50636A6A 
 3788      00
 3789 2595 5D0B0000 		.long	0xb5d
 3790 2599 01       		.byte	0x1
 3791 259a A2250000 		.long	0x25a2
 3792 259e B7250000 		.long	0x25b7
 3793 25a2 04       		.uleb128 0x4
GAS LISTING C:\Users\NJLLMR~1\AppData\Local\Temp\ccWOhw13.s 			page 93


 3794 25a3 CB450000 		.long	0x45cb
 3795 25a7 13       		.uleb128 0x13
 3796 25a8 83030000 		.long	0x383
 3797 25ac 13       		.uleb128 0x13
 3798 25ad 5D0B0000 		.long	0xb5d
 3799 25b1 13       		.uleb128 0x13
 3800 25b2 5D0B0000 		.long	0xb5d
 3801 25b6 00       		.byte	0
 3802 25b7 33       		.uleb128 0x33
 3803 25b8 73776170 		.ascii "swap\0"
 3803      00
 3804 25bd 0D       		.byte	0xd
 3805 25be 0602     		.word	0x206
 3806 25c0 5F5A4E53 		.ascii "_ZNSs4swapERSs\0"
 3806      73347377 
 3806      61704552 
 3806      537300
 3807 25cf 01       		.byte	0x1
 3808 25d0 D8250000 		.long	0x25d8
 3809 25d4 E3250000 		.long	0x25e3
 3810 25d8 04       		.uleb128 0x4
 3811 25d9 D1450000 		.long	0x45d1
 3812 25dd 13       		.uleb128 0x13
 3813 25de E9450000 		.long	0x45e9
 3814 25e2 00       		.byte	0
 3815 25e3 32       		.uleb128 0x32
 3816 25e4 635F7374 		.ascii "c_str\0"
 3816      7200
 3817 25ea 0C       		.byte	0xc
 3818 25eb 1B07     		.word	0x71b
 3819 25ed 5F5A4E4B 		.ascii "_ZNKSs5c_strEv\0"
 3819      53733563 
 3819      5F737472 
 3819      457600
 3820 25fc A5370000 		.long	0x37a5
 3821 2600 01       		.byte	0x1
 3822 2601 09260000 		.long	0x2609
 3823 2605 0F260000 		.long	0x260f
 3824 2609 04       		.uleb128 0x4
 3825 260a CB450000 		.long	0x45cb
 3826 260e 00       		.byte	0
 3827 260f 32       		.uleb128 0x32
 3828 2610 64617461 		.ascii "data\0"
 3828      00
 3829 2615 0C       		.byte	0xc
 3830 2616 2507     		.word	0x725
 3831 2618 5F5A4E4B 		.ascii "_ZNKSs4dataEv\0"
 3831      53733464 
 3831      61746145 
 3831      7600
 3832 2626 A5370000 		.long	0x37a5
 3833 262a 01       		.byte	0x1
 3834 262b 33260000 		.long	0x2633
 3835 262f 39260000 		.long	0x2639
 3836 2633 04       		.uleb128 0x4
 3837 2634 CB450000 		.long	0x45cb
 3838 2638 00       		.byte	0
GAS LISTING C:\Users\NJLLMR~1\AppData\Local\Temp\ccWOhw13.s 			page 94


 3839 2639 32       		.uleb128 0x32
 3840 263a 6765745F 		.ascii "get_allocator\0"
 3840      616C6C6F 
 3840      6361746F 
 3840      7200
 3841 2648 0C       		.byte	0xc
 3842 2649 2C07     		.word	0x72c
 3843 264b 5F5A4E4B 		.ascii "_ZNKSs13get_allocatorEv\0"
 3843      53733133 
 3843      6765745F 
 3843      616C6C6F 
 3843      6361746F 
 3844 2663 910B0000 		.long	0xb91
 3845 2667 01       		.byte	0x1
 3846 2668 70260000 		.long	0x2670
 3847 266c 76260000 		.long	0x2676
 3848 2670 04       		.uleb128 0x4
 3849 2671 CB450000 		.long	0x45cb
 3850 2675 00       		.byte	0
 3851 2676 32       		.uleb128 0x32
 3852 2677 66696E64 		.ascii "find\0"
 3852      00
 3853 267c 0D       		.byte	0xd
 3854 267d E002     		.word	0x2e0
 3855 267f 5F5A4E4B 		.ascii "_ZNKSs4findEPKcjj\0"
 3855      53733466 
 3855      696E6445 
 3855      504B636A 
 3855      6A00
 3856 2691 5D0B0000 		.long	0xb5d
 3857 2695 01       		.byte	0x1
 3858 2696 9E260000 		.long	0x269e
 3859 269a B3260000 		.long	0x26b3
 3860 269e 04       		.uleb128 0x4
 3861 269f CB450000 		.long	0x45cb
 3862 26a3 13       		.uleb128 0x13
 3863 26a4 A5370000 		.long	0x37a5
 3864 26a8 13       		.uleb128 0x13
 3865 26a9 5D0B0000 		.long	0xb5d
 3866 26ad 13       		.uleb128 0x13
 3867 26ae 5D0B0000 		.long	0xb5d
 3868 26b2 00       		.byte	0
 3869 26b3 32       		.uleb128 0x32
 3870 26b4 66696E64 		.ascii "find\0"
 3870      00
 3871 26b9 0C       		.byte	0xc
 3872 26ba 4907     		.word	0x749
 3873 26bc 5F5A4E4B 		.ascii "_ZNKSs4findERKSsj\0"
 3873      53733466 
 3873      696E6445 
 3873      524B5373 
 3873      6A00
 3874 26ce 5D0B0000 		.long	0xb5d
 3875 26d2 01       		.byte	0x1
 3876 26d3 DB260000 		.long	0x26db
 3877 26d7 EB260000 		.long	0x26eb
 3878 26db 04       		.uleb128 0x4
GAS LISTING C:\Users\NJLLMR~1\AppData\Local\Temp\ccWOhw13.s 			page 95


 3879 26dc CB450000 		.long	0x45cb
 3880 26e0 13       		.uleb128 0x13
 3881 26e1 E3450000 		.long	0x45e3
 3882 26e5 13       		.uleb128 0x13
 3883 26e6 5D0B0000 		.long	0xb5d
 3884 26ea 00       		.byte	0
 3885 26eb 32       		.uleb128 0x32
 3886 26ec 66696E64 		.ascii "find\0"
 3886      00
 3887 26f1 0C       		.byte	0xc
 3888 26f2 5807     		.word	0x758
 3889 26f4 5F5A4E4B 		.ascii "_ZNKSs4findEPKcj\0"
 3889      53733466 
 3889      696E6445 
 3889      504B636A 
 3889      00
 3890 2705 5D0B0000 		.long	0xb5d
 3891 2709 01       		.byte	0x1
 3892 270a 12270000 		.long	0x2712
 3893 270e 22270000 		.long	0x2722
 3894 2712 04       		.uleb128 0x4
 3895 2713 CB450000 		.long	0x45cb
 3896 2717 13       		.uleb128 0x13
 3897 2718 A5370000 		.long	0x37a5
 3898 271c 13       		.uleb128 0x13
 3899 271d 5D0B0000 		.long	0xb5d
 3900 2721 00       		.byte	0
 3901 2722 32       		.uleb128 0x32
 3902 2723 66696E64 		.ascii "find\0"
 3902      00
 3903 2728 0D       		.byte	0xd
 3904 2729 F702     		.word	0x2f7
 3905 272b 5F5A4E4B 		.ascii "_ZNKSs4findEcj\0"
 3905      53733466 
 3905      696E6445 
 3905      636A00
 3906 273a 5D0B0000 		.long	0xb5d
 3907 273e 01       		.byte	0x1
 3908 273f 47270000 		.long	0x2747
 3909 2743 57270000 		.long	0x2757
 3910 2747 04       		.uleb128 0x4
 3911 2748 CB450000 		.long	0x45cb
 3912 274c 13       		.uleb128 0x13
 3913 274d 97020000 		.long	0x297
 3914 2751 13       		.uleb128 0x13
 3915 2752 5D0B0000 		.long	0xb5d
 3916 2756 00       		.byte	0
 3917 2757 31       		.uleb128 0x31
 3918 2758 A7000000 		.secrel32	LASF17
 3919 275c 0C       		.byte	0xc
 3920 275d 7607     		.word	0x776
 3921 275f 5F5A4E4B 		.ascii "_ZNKSs5rfindERKSsj\0"
 3921      53733572 
 3921      66696E64 
 3921      45524B53 
 3921      736A00
 3922 2772 5D0B0000 		.long	0xb5d
GAS LISTING C:\Users\NJLLMR~1\AppData\Local\Temp\ccWOhw13.s 			page 96


 3923 2776 01       		.byte	0x1
 3924 2777 7F270000 		.long	0x277f
 3925 277b 8F270000 		.long	0x278f
 3926 277f 04       		.uleb128 0x4
 3927 2780 CB450000 		.long	0x45cb
 3928 2784 13       		.uleb128 0x13
 3929 2785 E3450000 		.long	0x45e3
 3930 2789 13       		.uleb128 0x13
 3931 278a 5D0B0000 		.long	0xb5d
 3932 278e 00       		.byte	0
 3933 278f 31       		.uleb128 0x31
 3934 2790 A7000000 		.secrel32	LASF17
 3935 2794 0D       		.byte	0xd
 3936 2795 0903     		.word	0x309
 3937 2797 5F5A4E4B 		.ascii "_ZNKSs5rfindEPKcjj\0"
 3937      53733572 
 3937      66696E64 
 3937      45504B63 
 3937      6A6A00
 3938 27aa 5D0B0000 		.long	0xb5d
 3939 27ae 01       		.byte	0x1
 3940 27af B7270000 		.long	0x27b7
 3941 27b3 CC270000 		.long	0x27cc
 3942 27b7 04       		.uleb128 0x4
 3943 27b8 CB450000 		.long	0x45cb
 3944 27bc 13       		.uleb128 0x13
 3945 27bd A5370000 		.long	0x37a5
 3946 27c1 13       		.uleb128 0x13
 3947 27c2 5D0B0000 		.long	0xb5d
 3948 27c6 13       		.uleb128 0x13
 3949 27c7 5D0B0000 		.long	0xb5d
 3950 27cb 00       		.byte	0
 3951 27cc 31       		.uleb128 0x31
 3952 27cd A7000000 		.secrel32	LASF17
 3953 27d1 0C       		.byte	0xc
 3954 27d2 9407     		.word	0x794
 3955 27d4 5F5A4E4B 		.ascii "_ZNKSs5rfindEPKcj\0"
 3955      53733572 
 3955      66696E64 
 3955      45504B63 
 3955      6A00
 3956 27e6 5D0B0000 		.long	0xb5d
 3957 27ea 01       		.byte	0x1
 3958 27eb F3270000 		.long	0x27f3
 3959 27ef 03280000 		.long	0x2803
 3960 27f3 04       		.uleb128 0x4
 3961 27f4 CB450000 		.long	0x45cb
 3962 27f8 13       		.uleb128 0x13
 3963 27f9 A5370000 		.long	0x37a5
 3964 27fd 13       		.uleb128 0x13
 3965 27fe 5D0B0000 		.long	0xb5d
 3966 2802 00       		.byte	0
 3967 2803 31       		.uleb128 0x31
 3968 2804 A7000000 		.secrel32	LASF17
 3969 2808 0D       		.byte	0xd
 3970 2809 1E03     		.word	0x31e
 3971 280b 5F5A4E4B 		.ascii "_ZNKSs5rfindEcj\0"
GAS LISTING C:\Users\NJLLMR~1\AppData\Local\Temp\ccWOhw13.s 			page 97


 3971      53733572 
 3971      66696E64 
 3971      45636A00 
 3972 281b 5D0B0000 		.long	0xb5d
 3973 281f 01       		.byte	0x1
 3974 2820 28280000 		.long	0x2828
 3975 2824 38280000 		.long	0x2838
 3976 2828 04       		.uleb128 0x4
 3977 2829 CB450000 		.long	0x45cb
 3978 282d 13       		.uleb128 0x13
 3979 282e 97020000 		.long	0x297
 3980 2832 13       		.uleb128 0x13
 3981 2833 5D0B0000 		.long	0xb5d
 3982 2837 00       		.byte	0
 3983 2838 31       		.uleb128 0x31
 3984 2839 59000000 		.secrel32	LASF18
 3985 283d 0C       		.byte	0xc
 3986 283e B307     		.word	0x7b3
 3987 2840 5F5A4E4B 		.ascii "_ZNKSs13find_first_ofERKSsj\0"
 3987      53733133 
 3987      66696E64 
 3987      5F666972 
 3987      73745F6F 
 3988 285c 5D0B0000 		.long	0xb5d
 3989 2860 01       		.byte	0x1
 3990 2861 69280000 		.long	0x2869
 3991 2865 79280000 		.long	0x2879
 3992 2869 04       		.uleb128 0x4
 3993 286a CB450000 		.long	0x45cb
 3994 286e 13       		.uleb128 0x13
 3995 286f E3450000 		.long	0x45e3
 3996 2873 13       		.uleb128 0x13
 3997 2874 5D0B0000 		.long	0xb5d
 3998 2878 00       		.byte	0
 3999 2879 31       		.uleb128 0x31
 4000 287a 59000000 		.secrel32	LASF18
 4001 287e 0D       		.byte	0xd
 4002 287f 2F03     		.word	0x32f
 4003 2881 5F5A4E4B 		.ascii "_ZNKSs13find_first_ofEPKcjj\0"
 4003      53733133 
 4003      66696E64 
 4003      5F666972 
 4003      73745F6F 
 4004 289d 5D0B0000 		.long	0xb5d
 4005 28a1 01       		.byte	0x1
 4006 28a2 AA280000 		.long	0x28aa
 4007 28a6 BF280000 		.long	0x28bf
 4008 28aa 04       		.uleb128 0x4
 4009 28ab CB450000 		.long	0x45cb
 4010 28af 13       		.uleb128 0x13
 4011 28b0 A5370000 		.long	0x37a5
 4012 28b4 13       		.uleb128 0x13
 4013 28b5 5D0B0000 		.long	0xb5d
 4014 28b9 13       		.uleb128 0x13
 4015 28ba 5D0B0000 		.long	0xb5d
 4016 28be 00       		.byte	0
 4017 28bf 31       		.uleb128 0x31
GAS LISTING C:\Users\NJLLMR~1\AppData\Local\Temp\ccWOhw13.s 			page 98


 4018 28c0 59000000 		.secrel32	LASF18
 4019 28c4 0C       		.byte	0xc
 4020 28c5 D107     		.word	0x7d1
 4021 28c7 5F5A4E4B 		.ascii "_ZNKSs13find_first_ofEPKcj\0"
 4021      53733133 
 4021      66696E64 
 4021      5F666972 
 4021      73745F6F 
 4022 28e2 5D0B0000 		.long	0xb5d
 4023 28e6 01       		.byte	0x1
 4024 28e7 EF280000 		.long	0x28ef
 4025 28eb FF280000 		.long	0x28ff
 4026 28ef 04       		.uleb128 0x4
 4027 28f0 CB450000 		.long	0x45cb
 4028 28f4 13       		.uleb128 0x13
 4029 28f5 A5370000 		.long	0x37a5
 4030 28f9 13       		.uleb128 0x13
 4031 28fa 5D0B0000 		.long	0xb5d
 4032 28fe 00       		.byte	0
 4033 28ff 31       		.uleb128 0x31
 4034 2900 59000000 		.secrel32	LASF18
 4035 2904 0C       		.byte	0xc
 4036 2905 E407     		.word	0x7e4
 4037 2907 5F5A4E4B 		.ascii "_ZNKSs13find_first_ofEcj\0"
 4037      53733133 
 4037      66696E64 
 4037      5F666972 
 4037      73745F6F 
 4038 2920 5D0B0000 		.long	0xb5d
 4039 2924 01       		.byte	0x1
 4040 2925 2D290000 		.long	0x292d
 4041 2929 3D290000 		.long	0x293d
 4042 292d 04       		.uleb128 0x4
 4043 292e CB450000 		.long	0x45cb
 4044 2932 13       		.uleb128 0x13
 4045 2933 97020000 		.long	0x297
 4046 2937 13       		.uleb128 0x13
 4047 2938 5D0B0000 		.long	0xb5d
 4048 293c 00       		.byte	0
 4049 293d 31       		.uleb128 0x31
 4050 293e FA000000 		.secrel32	LASF19
 4051 2942 0C       		.byte	0xc
 4052 2943 F307     		.word	0x7f3
 4053 2945 5F5A4E4B 		.ascii "_ZNKSs12find_last_ofERKSsj\0"
 4053      53733132 
 4053      66696E64 
 4053      5F6C6173 
 4053      745F6F66 
 4054 2960 5D0B0000 		.long	0xb5d
 4055 2964 01       		.byte	0x1
 4056 2965 6D290000 		.long	0x296d
 4057 2969 7D290000 		.long	0x297d
 4058 296d 04       		.uleb128 0x4
 4059 296e CB450000 		.long	0x45cb
 4060 2972 13       		.uleb128 0x13
 4061 2973 E3450000 		.long	0x45e3
 4062 2977 13       		.uleb128 0x13
GAS LISTING C:\Users\NJLLMR~1\AppData\Local\Temp\ccWOhw13.s 			page 99


 4063 2978 5D0B0000 		.long	0xb5d
 4064 297c 00       		.byte	0
 4065 297d 31       		.uleb128 0x31
 4066 297e FA000000 		.secrel32	LASF19
 4067 2982 0D       		.byte	0xd
 4068 2983 3E03     		.word	0x33e
 4069 2985 5F5A4E4B 		.ascii "_ZNKSs12find_last_ofEPKcjj\0"
 4069      53733132 
 4069      66696E64 
 4069      5F6C6173 
 4069      745F6F66 
 4070 29a0 5D0B0000 		.long	0xb5d
 4071 29a4 01       		.byte	0x1
 4072 29a5 AD290000 		.long	0x29ad
 4073 29a9 C2290000 		.long	0x29c2
 4074 29ad 04       		.uleb128 0x4
 4075 29ae CB450000 		.long	0x45cb
 4076 29b2 13       		.uleb128 0x13
 4077 29b3 A5370000 		.long	0x37a5
 4078 29b7 13       		.uleb128 0x13
 4079 29b8 5D0B0000 		.long	0xb5d
 4080 29bc 13       		.uleb128 0x13
 4081 29bd 5D0B0000 		.long	0xb5d
 4082 29c1 00       		.byte	0
 4083 29c2 31       		.uleb128 0x31
 4084 29c3 FA000000 		.secrel32	LASF19
 4085 29c7 0C       		.byte	0xc
 4086 29c8 1108     		.word	0x811
 4087 29ca 5F5A4E4B 		.ascii "_ZNKSs12find_last_ofEPKcj\0"
 4087      53733132 
 4087      66696E64 
 4087      5F6C6173 
 4087      745F6F66 
 4088 29e4 5D0B0000 		.long	0xb5d
 4089 29e8 01       		.byte	0x1
 4090 29e9 F1290000 		.long	0x29f1
 4091 29ed 012A0000 		.long	0x2a01
 4092 29f1 04       		.uleb128 0x4
 4093 29f2 CB450000 		.long	0x45cb
 4094 29f6 13       		.uleb128 0x13
 4095 29f7 A5370000 		.long	0x37a5
 4096 29fb 13       		.uleb128 0x13
 4097 29fc 5D0B0000 		.long	0xb5d
 4098 2a00 00       		.byte	0
 4099 2a01 31       		.uleb128 0x31
 4100 2a02 FA000000 		.secrel32	LASF19
 4101 2a06 0C       		.byte	0xc
 4102 2a07 2408     		.word	0x824
 4103 2a09 5F5A4E4B 		.ascii "_ZNKSs12find_last_ofEcj\0"
 4103      53733132 
 4103      66696E64 
 4103      5F6C6173 
 4103      745F6F66 
 4104 2a21 5D0B0000 		.long	0xb5d
 4105 2a25 01       		.byte	0x1
 4106 2a26 2E2A0000 		.long	0x2a2e
 4107 2a2a 3E2A0000 		.long	0x2a3e
GAS LISTING C:\Users\NJLLMR~1\AppData\Local\Temp\ccWOhw13.s 			page 100


 4108 2a2e 04       		.uleb128 0x4
 4109 2a2f CB450000 		.long	0x45cb
 4110 2a33 13       		.uleb128 0x13
 4111 2a34 97020000 		.long	0x297
 4112 2a38 13       		.uleb128 0x13
 4113 2a39 5D0B0000 		.long	0xb5d
 4114 2a3d 00       		.byte	0
 4115 2a3e 31       		.uleb128 0x31
 4116 2a3f CF000000 		.secrel32	LASF20
 4117 2a43 0C       		.byte	0xc
 4118 2a44 3208     		.word	0x832
 4119 2a46 5F5A4E4B 		.ascii "_ZNKSs17find_first_not_ofERKSsj\0"
 4119      53733137 
 4119      66696E64 
 4119      5F666972 
 4119      73745F6E 
 4120 2a66 5D0B0000 		.long	0xb5d
 4121 2a6a 01       		.byte	0x1
 4122 2a6b 732A0000 		.long	0x2a73
 4123 2a6f 832A0000 		.long	0x2a83
 4124 2a73 04       		.uleb128 0x4
 4125 2a74 CB450000 		.long	0x45cb
 4126 2a78 13       		.uleb128 0x13
 4127 2a79 E3450000 		.long	0x45e3
 4128 2a7d 13       		.uleb128 0x13
 4129 2a7e 5D0B0000 		.long	0xb5d
 4130 2a82 00       		.byte	0
 4131 2a83 31       		.uleb128 0x31
 4132 2a84 CF000000 		.secrel32	LASF20
 4133 2a88 0D       		.byte	0xd
 4134 2a89 5303     		.word	0x353
 4135 2a8b 5F5A4E4B 		.ascii "_ZNKSs17find_first_not_ofEPKcjj\0"
 4135      53733137 
 4135      66696E64 
 4135      5F666972 
 4135      73745F6E 
 4136 2aab 5D0B0000 		.long	0xb5d
 4137 2aaf 01       		.byte	0x1
 4138 2ab0 B82A0000 		.long	0x2ab8
 4139 2ab4 CD2A0000 		.long	0x2acd
 4140 2ab8 04       		.uleb128 0x4
 4141 2ab9 CB450000 		.long	0x45cb
 4142 2abd 13       		.uleb128 0x13
 4143 2abe A5370000 		.long	0x37a5
 4144 2ac2 13       		.uleb128 0x13
 4145 2ac3 5D0B0000 		.long	0xb5d
 4146 2ac7 13       		.uleb128 0x13
 4147 2ac8 5D0B0000 		.long	0xb5d
 4148 2acc 00       		.byte	0
 4149 2acd 31       		.uleb128 0x31
 4150 2ace CF000000 		.secrel32	LASF20
 4151 2ad2 0C       		.byte	0xc
 4152 2ad3 5108     		.word	0x851
 4153 2ad5 5F5A4E4B 		.ascii "_ZNKSs17find_first_not_ofEPKcj\0"
 4153      53733137 
 4153      66696E64 
 4153      5F666972 
GAS LISTING C:\Users\NJLLMR~1\AppData\Local\Temp\ccWOhw13.s 			page 101


 4153      73745F6E 
 4154 2af4 5D0B0000 		.long	0xb5d
 4155 2af8 01       		.byte	0x1
 4156 2af9 012B0000 		.long	0x2b01
 4157 2afd 112B0000 		.long	0x2b11
 4158 2b01 04       		.uleb128 0x4
 4159 2b02 CB450000 		.long	0x45cb
 4160 2b06 13       		.uleb128 0x13
 4161 2b07 A5370000 		.long	0x37a5
 4162 2b0b 13       		.uleb128 0x13
 4163 2b0c 5D0B0000 		.long	0xb5d
 4164 2b10 00       		.byte	0
 4165 2b11 31       		.uleb128 0x31
 4166 2b12 CF000000 		.secrel32	LASF20
 4167 2b16 0D       		.byte	0xd
 4168 2b17 5F03     		.word	0x35f
 4169 2b19 5F5A4E4B 		.ascii "_ZNKSs17find_first_not_ofEcj\0"
 4169      53733137 
 4169      66696E64 
 4169      5F666972 
 4169      73745F6E 
 4170 2b36 5D0B0000 		.long	0xb5d
 4171 2b3a 01       		.byte	0x1
 4172 2b3b 432B0000 		.long	0x2b43
 4173 2b3f 532B0000 		.long	0x2b53
 4174 2b43 04       		.uleb128 0x4
 4175 2b44 CB450000 		.long	0x45cb
 4176 2b48 13       		.uleb128 0x13
 4177 2b49 97020000 		.long	0x297
 4178 2b4d 13       		.uleb128 0x13
 4179 2b4e 5D0B0000 		.long	0xb5d
 4180 2b52 00       		.byte	0
 4181 2b53 31       		.uleb128 0x31
 4182 2b54 67000000 		.secrel32	LASF21
 4183 2b58 0C       		.byte	0xc
 4184 2b59 7108     		.word	0x871
 4185 2b5b 5F5A4E4B 		.ascii "_ZNKSs16find_last_not_ofERKSsj\0"
 4185      53733136 
 4185      66696E64 
 4185      5F6C6173 
 4185      745F6E6F 
 4186 2b7a 5D0B0000 		.long	0xb5d
 4187 2b7e 01       		.byte	0x1
 4188 2b7f 872B0000 		.long	0x2b87
 4189 2b83 972B0000 		.long	0x2b97
 4190 2b87 04       		.uleb128 0x4
 4191 2b88 CB450000 		.long	0x45cb
 4192 2b8c 13       		.uleb128 0x13
 4193 2b8d E3450000 		.long	0x45e3
 4194 2b91 13       		.uleb128 0x13
 4195 2b92 5D0B0000 		.long	0xb5d
 4196 2b96 00       		.byte	0
 4197 2b97 31       		.uleb128 0x31
 4198 2b98 67000000 		.secrel32	LASF21
 4199 2b9c 0D       		.byte	0xd
 4200 2b9d 6A03     		.word	0x36a
 4201 2b9f 5F5A4E4B 		.ascii "_ZNKSs16find_last_not_ofEPKcjj\0"
GAS LISTING C:\Users\NJLLMR~1\AppData\Local\Temp\ccWOhw13.s 			page 102


 4201      53733136 
 4201      66696E64 
 4201      5F6C6173 
 4201      745F6E6F 
 4202 2bbe 5D0B0000 		.long	0xb5d
 4203 2bc2 01       		.byte	0x1
 4204 2bc3 CB2B0000 		.long	0x2bcb
 4205 2bc7 E02B0000 		.long	0x2be0
 4206 2bcb 04       		.uleb128 0x4
 4207 2bcc CB450000 		.long	0x45cb
 4208 2bd0 13       		.uleb128 0x13
 4209 2bd1 A5370000 		.long	0x37a5
 4210 2bd5 13       		.uleb128 0x13
 4211 2bd6 5D0B0000 		.long	0xb5d
 4212 2bda 13       		.uleb128 0x13
 4213 2bdb 5D0B0000 		.long	0xb5d
 4214 2bdf 00       		.byte	0
 4215 2be0 31       		.uleb128 0x31
 4216 2be1 67000000 		.secrel32	LASF21
 4217 2be5 0C       		.byte	0xc
 4218 2be6 9008     		.word	0x890
 4219 2be8 5F5A4E4B 		.ascii "_ZNKSs16find_last_not_ofEPKcj\0"
 4219      53733136 
 4219      66696E64 
 4219      5F6C6173 
 4219      745F6E6F 
 4220 2c06 5D0B0000 		.long	0xb5d
 4221 2c0a 01       		.byte	0x1
 4222 2c0b 132C0000 		.long	0x2c13
 4223 2c0f 232C0000 		.long	0x2c23
 4224 2c13 04       		.uleb128 0x4
 4225 2c14 CB450000 		.long	0x45cb
 4226 2c18 13       		.uleb128 0x13
 4227 2c19 A5370000 		.long	0x37a5
 4228 2c1d 13       		.uleb128 0x13
 4229 2c1e 5D0B0000 		.long	0xb5d
 4230 2c22 00       		.byte	0
 4231 2c23 31       		.uleb128 0x31
 4232 2c24 67000000 		.secrel32	LASF21
 4233 2c28 0D       		.byte	0xd
 4234 2c29 7F03     		.word	0x37f
 4235 2c2b 5F5A4E4B 		.ascii "_ZNKSs16find_last_not_ofEcj\0"
 4235      53733136 
 4235      66696E64 
 4235      5F6C6173 
 4235      745F6E6F 
 4236 2c47 5D0B0000 		.long	0xb5d
 4237 2c4b 01       		.byte	0x1
 4238 2c4c 542C0000 		.long	0x2c54
 4239 2c50 642C0000 		.long	0x2c64
 4240 2c54 04       		.uleb128 0x4
 4241 2c55 CB450000 		.long	0x45cb
 4242 2c59 13       		.uleb128 0x13
 4243 2c5a 97020000 		.long	0x297
 4244 2c5e 13       		.uleb128 0x13
 4245 2c5f 5D0B0000 		.long	0xb5d
 4246 2c63 00       		.byte	0
GAS LISTING C:\Users\NJLLMR~1\AppData\Local\Temp\ccWOhw13.s 			page 103


 4247 2c64 32       		.uleb128 0x32
 4248 2c65 73756273 		.ascii "substr\0"
 4248      747200
 4249 2c6c 0C       		.byte	0xc
 4250 2c6d B108     		.word	0x8b1
 4251 2c6f 5F5A4E4B 		.ascii "_ZNKSs6substrEjj\0"
 4251      53733673 
 4251      75627374 
 4251      72456A6A 
 4251      00
 4252 2c80 D50A0000 		.long	0xad5
 4253 2c84 01       		.byte	0x1
 4254 2c85 8D2C0000 		.long	0x2c8d
 4255 2c89 9D2C0000 		.long	0x2c9d
 4256 2c8d 04       		.uleb128 0x4
 4257 2c8e CB450000 		.long	0x45cb
 4258 2c92 13       		.uleb128 0x13
 4259 2c93 5D0B0000 		.long	0xb5d
 4260 2c97 13       		.uleb128 0x13
 4261 2c98 5D0B0000 		.long	0xb5d
 4262 2c9c 00       		.byte	0
 4263 2c9d 31       		.uleb128 0x31
 4264 2c9e 2F010000 		.secrel32	LASF0
 4265 2ca2 0C       		.byte	0xc
 4266 2ca3 C408     		.word	0x8c4
 4267 2ca5 5F5A4E4B 		.ascii "_ZNKSs7compareERKSs\0"
 4267      53733763 
 4267      6F6D7061 
 4267      72654552 
 4267      4B537300 
 4268 2cb9 CB020000 		.long	0x2cb
 4269 2cbd 01       		.byte	0x1
 4270 2cbe C62C0000 		.long	0x2cc6
 4271 2cc2 D12C0000 		.long	0x2cd1
 4272 2cc6 04       		.uleb128 0x4
 4273 2cc7 CB450000 		.long	0x45cb
 4274 2ccb 13       		.uleb128 0x13
 4275 2ccc E3450000 		.long	0x45e3
 4276 2cd0 00       		.byte	0
 4277 2cd1 31       		.uleb128 0x31
 4278 2cd2 2F010000 		.secrel32	LASF0
 4279 2cd6 0D       		.byte	0xd
 4280 2cd7 9303     		.word	0x393
 4281 2cd9 5F5A4E4B 		.ascii "_ZNKSs7compareEjjRKSs\0"
 4281      53733763 
 4281      6F6D7061 
 4281      7265456A 
 4281      6A524B53 
 4282 2cef CB020000 		.long	0x2cb
 4283 2cf3 01       		.byte	0x1
 4284 2cf4 FC2C0000 		.long	0x2cfc
 4285 2cf8 112D0000 		.long	0x2d11
 4286 2cfc 04       		.uleb128 0x4
 4287 2cfd CB450000 		.long	0x45cb
 4288 2d01 13       		.uleb128 0x13
 4289 2d02 5D0B0000 		.long	0xb5d
 4290 2d06 13       		.uleb128 0x13
GAS LISTING C:\Users\NJLLMR~1\AppData\Local\Temp\ccWOhw13.s 			page 104


 4291 2d07 5D0B0000 		.long	0xb5d
 4292 2d0b 13       		.uleb128 0x13
 4293 2d0c E3450000 		.long	0x45e3
 4294 2d10 00       		.byte	0
 4295 2d11 31       		.uleb128 0x31
 4296 2d12 2F010000 		.secrel32	LASF0
 4297 2d16 0D       		.byte	0xd
 4298 2d17 A203     		.word	0x3a2
 4299 2d19 5F5A4E4B 		.ascii "_ZNKSs7compareEjjRKSsjj\0"
 4299      53733763 
 4299      6F6D7061 
 4299      7265456A 
 4299      6A524B53 
 4300 2d31 CB020000 		.long	0x2cb
 4301 2d35 01       		.byte	0x1
 4302 2d36 3E2D0000 		.long	0x2d3e
 4303 2d3a 5D2D0000 		.long	0x2d5d
 4304 2d3e 04       		.uleb128 0x4
 4305 2d3f CB450000 		.long	0x45cb
 4306 2d43 13       		.uleb128 0x13
 4307 2d44 5D0B0000 		.long	0xb5d
 4308 2d48 13       		.uleb128 0x13
 4309 2d49 5D0B0000 		.long	0xb5d
 4310 2d4d 13       		.uleb128 0x13
 4311 2d4e E3450000 		.long	0x45e3
 4312 2d52 13       		.uleb128 0x13
 4313 2d53 5D0B0000 		.long	0xb5d
 4314 2d57 13       		.uleb128 0x13
 4315 2d58 5D0B0000 		.long	0xb5d
 4316 2d5c 00       		.byte	0
 4317 2d5d 31       		.uleb128 0x31
 4318 2d5e 2F010000 		.secrel32	LASF0
 4319 2d62 0D       		.byte	0xd
 4320 2d63 B403     		.word	0x3b4
 4321 2d65 5F5A4E4B 		.ascii "_ZNKSs7compareEPKc\0"
 4321      53733763 
 4321      6F6D7061 
 4321      72654550 
 4321      4B6300
 4322 2d78 CB020000 		.long	0x2cb
 4323 2d7c 01       		.byte	0x1
 4324 2d7d 852D0000 		.long	0x2d85
 4325 2d81 902D0000 		.long	0x2d90
 4326 2d85 04       		.uleb128 0x4
 4327 2d86 CB450000 		.long	0x45cb
 4328 2d8a 13       		.uleb128 0x13
 4329 2d8b A5370000 		.long	0x37a5
 4330 2d8f 00       		.byte	0
 4331 2d90 31       		.uleb128 0x31
 4332 2d91 2F010000 		.secrel32	LASF0
 4333 2d95 0D       		.byte	0xd
 4334 2d96 C303     		.word	0x3c3
 4335 2d98 5F5A4E4B 		.ascii "_ZNKSs7compareEjjPKc\0"
 4335      53733763 
 4335      6F6D7061 
 4335      7265456A 
 4335      6A504B63 
GAS LISTING C:\Users\NJLLMR~1\AppData\Local\Temp\ccWOhw13.s 			page 105


 4336 2dad CB020000 		.long	0x2cb
 4337 2db1 01       		.byte	0x1
 4338 2db2 BA2D0000 		.long	0x2dba
 4339 2db6 CF2D0000 		.long	0x2dcf
 4340 2dba 04       		.uleb128 0x4
 4341 2dbb CB450000 		.long	0x45cb
 4342 2dbf 13       		.uleb128 0x13
 4343 2dc0 5D0B0000 		.long	0xb5d
 4344 2dc4 13       		.uleb128 0x13
 4345 2dc5 5D0B0000 		.long	0xb5d
 4346 2dc9 13       		.uleb128 0x13
 4347 2dca A5370000 		.long	0x37a5
 4348 2dce 00       		.byte	0
 4349 2dcf 31       		.uleb128 0x31
 4350 2dd0 2F010000 		.secrel32	LASF0
 4351 2dd4 0D       		.byte	0xd
 4352 2dd5 D303     		.word	0x3d3
 4353 2dd7 5F5A4E4B 		.ascii "_ZNKSs7compareEjjPKcj\0"
 4353      53733763 
 4353      6F6D7061 
 4353      7265456A 
 4353      6A504B63 
 4354 2ded CB020000 		.long	0x2cb
 4355 2df1 01       		.byte	0x1
 4356 2df2 FA2D0000 		.long	0x2dfa
 4357 2df6 142E0000 		.long	0x2e14
 4358 2dfa 04       		.uleb128 0x4
 4359 2dfb CB450000 		.long	0x45cb
 4360 2dff 13       		.uleb128 0x13
 4361 2e00 5D0B0000 		.long	0xb5d
 4362 2e04 13       		.uleb128 0x13
 4363 2e05 5D0B0000 		.long	0xb5d
 4364 2e09 13       		.uleb128 0x13
 4365 2e0a A5370000 		.long	0x37a5
 4366 2e0e 13       		.uleb128 0x13
 4367 2e0f 5D0B0000 		.long	0xb5d
 4368 2e13 00       		.byte	0
 4369 2e14 14       		.uleb128 0x14
 4370 2e15 6D0C0000 		.long	0xc6d
 4371 2e19 36       		.uleb128 0x36
 4372 2e1a 08000000 		.secrel32	LASF23
 4373 2e1e 97020000 		.long	0x297
 4374 2e22 37       		.uleb128 0x37
 4375 2e23 0F000000 		.secrel32	LASF22
 4376 2e27 52060000 		.long	0x652
 4377 2e2b 38       		.uleb128 0x38
 4378 2e2c 5F416C6C 		.ascii "_Alloc\0"
 4378      6F6300
 4379 2e33 3D0A0000 		.long	0xa3d
 4380 2e37 00       		.byte	0
 4381 2e38 39       		.uleb128 0x39
 4382 2e39 72657665 		.ascii "reverse_iterator<__gnu_cxx::__normal_iterator<char const*, std::basic_string<char, std::ch
 4382      7273655F 
 4382      69746572 
 4382      61746F72 
 4382      3C5F5F67 
 4383 2ebf 39       		.uleb128 0x39
GAS LISTING C:\Users\NJLLMR~1\AppData\Local\Temp\ccWOhw13.s 			page 106


 4384 2ec0 72657665 		.ascii "reverse_iterator<__gnu_cxx::__normal_iterator<char*, std::basic_string<char, std::char_tra
 4384      7273655F 
 4384      69746572 
 4384      61746F72 
 4384      3C5F5F67 
 4385 2f40 14       		.uleb128 0x14
 4386 2f41 D50A0000 		.long	0xad5
 4387 2f45 08       		.uleb128 0x8
 4388 2f46 73747269 		.ascii "string\0"
 4388      6E6700
 4389 2f4d 0E       		.byte	0xe
 4390 2f4e 3E       		.byte	0x3e
 4391 2f4f D50A0000 		.long	0xad5
 4392 2f53 3A       		.uleb128 0x3a
 4393 2f54 5F496F73 		.ascii "_Ios_Fmtflags\0"
 4393      5F466D74 
 4393      666C6167 
 4393      7300
 4394 2f62 04       		.byte	0x4
 4395 2f63 0F       		.byte	0xf
 4396 2f64 33       		.byte	0x33
 4397 2f65 7A300000 		.long	0x307a
 4398 2f69 3B       		.uleb128 0x3b
 4399 2f6a 5F535F62 		.ascii "_S_boolalpha\0"
 4399      6F6F6C61 
 4399      6C706861 
 4399      00
 4400 2f77 01       		.sleb128 1
 4401 2f78 3B       		.uleb128 0x3b
 4402 2f79 5F535F64 		.ascii "_S_dec\0"
 4402      656300
 4403 2f80 02       		.sleb128 2
 4404 2f81 3B       		.uleb128 0x3b
 4405 2f82 5F535F66 		.ascii "_S_fixed\0"
 4405      69786564 
 4405      00
 4406 2f8b 04       		.sleb128 4
 4407 2f8c 3B       		.uleb128 0x3b
 4408 2f8d 5F535F68 		.ascii "_S_hex\0"
 4408      657800
 4409 2f94 08       		.sleb128 8
 4410 2f95 3B       		.uleb128 0x3b
 4411 2f96 5F535F69 		.ascii "_S_internal\0"
 4411      6E746572 
 4411      6E616C00 
 4412 2fa2 10       		.sleb128 16
 4413 2fa3 3B       		.uleb128 0x3b
 4414 2fa4 5F535F6C 		.ascii "_S_left\0"
 4414      65667400 
 4415 2fac 20       		.sleb128 32
 4416 2fad 3B       		.uleb128 0x3b
 4417 2fae 5F535F6F 		.ascii "_S_oct\0"
 4417      637400
 4418 2fb5 C000     		.sleb128 64
 4419 2fb7 3B       		.uleb128 0x3b
 4420 2fb8 5F535F72 		.ascii "_S_right\0"
 4420      69676874 
GAS LISTING C:\Users\NJLLMR~1\AppData\Local\Temp\ccWOhw13.s 			page 107


 4420      00
 4421 2fc1 8001     		.sleb128 128
 4422 2fc3 3B       		.uleb128 0x3b
 4423 2fc4 5F535F73 		.ascii "_S_scientific\0"
 4423      6369656E 
 4423      74696669 
 4423      6300
 4424 2fd2 8002     		.sleb128 256
 4425 2fd4 3B       		.uleb128 0x3b
 4426 2fd5 5F535F73 		.ascii "_S_showbase\0"
 4426      686F7762 
 4426      61736500 
 4427 2fe1 8004     		.sleb128 512
 4428 2fe3 3B       		.uleb128 0x3b
 4429 2fe4 5F535F73 		.ascii "_S_showpoint\0"
 4429      686F7770 
 4429      6F696E74 
 4429      00
 4430 2ff1 8008     		.sleb128 1024
 4431 2ff3 3B       		.uleb128 0x3b
 4432 2ff4 5F535F73 		.ascii "_S_showpos\0"
 4432      686F7770 
 4432      6F7300
 4433 2fff 8010     		.sleb128 2048
 4434 3001 3B       		.uleb128 0x3b
 4435 3002 5F535F73 		.ascii "_S_skipws\0"
 4435      6B697077 
 4435      7300
 4436 300c 8020     		.sleb128 4096
 4437 300e 3B       		.uleb128 0x3b
 4438 300f 5F535F75 		.ascii "_S_unitbuf\0"
 4438      6E697462 
 4438      756600
 4439 301a 80C000   		.sleb128 8192
 4440 301d 3B       		.uleb128 0x3b
 4441 301e 5F535F75 		.ascii "_S_uppercase\0"
 4441      70706572 
 4441      63617365 
 4441      00
 4442 302b 808001   		.sleb128 16384
 4443 302e 3B       		.uleb128 0x3b
 4444 302f 5F535F61 		.ascii "_S_adjustfield\0"
 4444      646A7573 
 4444      74666965 
 4444      6C6400
 4445 303e B001     		.sleb128 176
 4446 3040 3B       		.uleb128 0x3b
 4447 3041 5F535F62 		.ascii "_S_basefield\0"
 4447      61736566 
 4447      69656C64 
 4447      00
 4448 304e CA00     		.sleb128 74
 4449 3050 3B       		.uleb128 0x3b
 4450 3051 5F535F66 		.ascii "_S_floatfield\0"
 4450      6C6F6174 
 4450      6669656C 
 4450      6400
GAS LISTING C:\Users\NJLLMR~1\AppData\Local\Temp\ccWOhw13.s 			page 108


 4451 305f 8402     		.sleb128 260
 4452 3061 3B       		.uleb128 0x3b
 4453 3062 5F535F69 		.ascii "_S_ios_fmtflags_end\0"
 4453      6F735F66 
 4453      6D74666C 
 4453      6167735F 
 4453      656E6400 
 4454 3076 808004   		.sleb128 65536
 4455 3079 00       		.byte	0
 4456 307a 3A       		.uleb128 0x3a
 4457 307b 5F496F73 		.ascii "_Ios_Openmode\0"
 4457      5F4F7065 
 4457      6E6D6F64 
 4457      6500
 4458 3089 04       		.byte	0x4
 4459 308a 0F       		.byte	0xf
 4460 308b 67       		.byte	0x67
 4461 308c E0300000 		.long	0x30e0
 4462 3090 3B       		.uleb128 0x3b
 4463 3091 5F535F61 		.ascii "_S_app\0"
 4463      707000
 4464 3098 01       		.sleb128 1
 4465 3099 3B       		.uleb128 0x3b
 4466 309a 5F535F61 		.ascii "_S_ate\0"
 4466      746500
 4467 30a1 02       		.sleb128 2
 4468 30a2 3B       		.uleb128 0x3b
 4469 30a3 5F535F62 		.ascii "_S_bin\0"
 4469      696E00
 4470 30aa 04       		.sleb128 4
 4471 30ab 3B       		.uleb128 0x3b
 4472 30ac 5F535F69 		.ascii "_S_in\0"
 4472      6E00
 4473 30b2 08       		.sleb128 8
 4474 30b3 3B       		.uleb128 0x3b
 4475 30b4 5F535F6F 		.ascii "_S_out\0"
 4475      757400
 4476 30bb 10       		.sleb128 16
 4477 30bc 3B       		.uleb128 0x3b
 4478 30bd 5F535F74 		.ascii "_S_trunc\0"
 4478      72756E63 
 4478      00
 4479 30c6 20       		.sleb128 32
 4480 30c7 3B       		.uleb128 0x3b
 4481 30c8 5F535F69 		.ascii "_S_ios_openmode_end\0"
 4481      6F735F6F 
 4481      70656E6D 
 4481      6F64655F 
 4481      656E6400 
 4482 30dc 808004   		.sleb128 65536
 4483 30df 00       		.byte	0
 4484 30e0 3A       		.uleb128 0x3a
 4485 30e1 5F496F73 		.ascii "_Ios_Iostate\0"
 4485      5F496F73 
 4485      74617465 
 4485      00
 4486 30ee 04       		.byte	0x4
GAS LISTING C:\Users\NJLLMR~1\AppData\Local\Temp\ccWOhw13.s 			page 109


 4487 30ef 0F       		.byte	0xf
 4488 30f0 8F       		.byte	0x8f
 4489 30f1 3F310000 		.long	0x313f
 4490 30f5 3B       		.uleb128 0x3b
 4491 30f6 5F535F67 		.ascii "_S_goodbit\0"
 4491      6F6F6462 
 4491      697400
 4492 3101 00       		.sleb128 0
 4493 3102 3B       		.uleb128 0x3b
 4494 3103 5F535F62 		.ascii "_S_badbit\0"
 4494      61646269 
 4494      7400
 4495 310d 01       		.sleb128 1
 4496 310e 3B       		.uleb128 0x3b
 4497 310f 5F535F65 		.ascii "_S_eofbit\0"
 4497      6F666269 
 4497      7400
 4498 3119 02       		.sleb128 2
 4499 311a 3B       		.uleb128 0x3b
 4500 311b 5F535F66 		.ascii "_S_failbit\0"
 4500      61696C62 
 4500      697400
 4501 3126 04       		.sleb128 4
 4502 3127 3B       		.uleb128 0x3b
 4503 3128 5F535F69 		.ascii "_S_ios_iostate_end\0"
 4503      6F735F69 
 4503      6F737461 
 4503      74655F65 
 4503      6E6400
 4504 313b 808004   		.sleb128 65536
 4505 313e 00       		.byte	0
 4506 313f 3A       		.uleb128 0x3a
 4507 3140 5F496F73 		.ascii "_Ios_Seekdir\0"
 4507      5F536565 
 4507      6B646972 
 4507      00
 4508 314d 04       		.byte	0x4
 4509 314e 0F       		.byte	0xf
 4510 314f B5       		.byte	0xb5
 4511 3150 87310000 		.long	0x3187
 4512 3154 3B       		.uleb128 0x3b
 4513 3155 5F535F62 		.ascii "_S_beg\0"
 4513      656700
 4514 315c 00       		.sleb128 0
 4515 315d 3B       		.uleb128 0x3b
 4516 315e 5F535F63 		.ascii "_S_cur\0"
 4516      757200
 4517 3165 01       		.sleb128 1
 4518 3166 3B       		.uleb128 0x3b
 4519 3167 5F535F65 		.ascii "_S_end\0"
 4519      6E6400
 4520 316e 02       		.sleb128 2
 4521 316f 3B       		.uleb128 0x3b
 4522 3170 5F535F69 		.ascii "_S_ios_seekdir_end\0"
 4522      6F735F73 
 4522      65656B64 
 4522      69725F65 
GAS LISTING C:\Users\NJLLMR~1\AppData\Local\Temp\ccWOhw13.s 			page 110


 4522      6E6400
 4523 3183 808004   		.sleb128 65536
 4524 3186 00       		.byte	0
 4525 3187 3C       		.uleb128 0x3c
 4526 3188 696F735F 		.ascii "ios_base\0"
 4526      62617365 
 4526      00
 4527 3191 76340000 		.long	0x3476
 4528 3195 3D       		.uleb128 0x3d
 4529 3196 496E6974 		.ascii "Init\0"
 4529      00
 4530 319b 01       		.byte	0x1
 4531 319c 0F       		.byte	0xf
 4532 319d 1502     		.word	0x215
 4533 319f 01       		.byte	0x1
 4534 31a0 08320000 		.long	0x3208
 4535 31a4 3E       		.uleb128 0x3e
 4536 31a5 5F535F72 		.ascii "_S_refcount\0"
 4536      6566636F 
 4536      756E7400 
 4537 31b1 0F       		.byte	0xf
 4538 31b2 1D02     		.word	0x21d
 4539 31b4 76450000 		.long	0x4576
 4540 31b8 3E       		.uleb128 0x3e
 4541 31b9 5F535F73 		.ascii "_S_synced_with_stdio\0"
 4541      796E6365 
 4541      645F7769 
 4541      74685F73 
 4541      7464696F 
 4542 31ce 0F       		.byte	0xf
 4543 31cf 1E02     		.word	0x21e
 4544 31d1 83430000 		.long	0x4383
 4545 31d5 30       		.uleb128 0x30
 4546 31d6 496E6974 		.ascii "Init\0"
 4546      00
 4547 31db 0F       		.byte	0xf
 4548 31dc 1902     		.word	0x219
 4549 31de 01       		.byte	0x1
 4550 31df E7310000 		.long	0x31e7
 4551 31e3 ED310000 		.long	0x31ed
 4552 31e7 04       		.uleb128 0x4
 4553 31e8 05460000 		.long	0x4605
 4554 31ec 00       		.byte	0
 4555 31ed 3F       		.uleb128 0x3f
 4556 31ee 7E496E69 		.ascii "~Init\0"
 4556      7400
 4557 31f4 0F       		.byte	0xf
 4558 31f5 1A02     		.word	0x21a
 4559 31f7 01       		.byte	0x1
 4560 31f8 FC310000 		.long	0x31fc
 4561 31fc 04       		.uleb128 0x4
 4562 31fd 05460000 		.long	0x4605
 4563 3201 04       		.uleb128 0x4
 4564 3202 CB020000 		.long	0x2cb
 4565 3206 00       		.byte	0
 4566 3207 00       		.byte	0
 4567 3208 23       		.uleb128 0x23
GAS LISTING C:\Users\NJLLMR~1\AppData\Local\Temp\ccWOhw13.s 			page 111


 4568 3209 666D7466 		.ascii "fmtflags\0"
 4568      6C616773 
 4568      00
 4569 3212 0F       		.byte	0xf
 4570 3213 FF       		.byte	0xff
 4571 3214 532F0000 		.long	0x2f53
 4572 3218 01       		.byte	0x1
 4573 3219 40       		.uleb128 0x40
 4574 321a 6F70656E 		.ascii "openmode\0"
 4574      6D6F6465 
 4574      00
 4575 3223 0F       		.byte	0xf
 4576 3224 6901     		.word	0x169
 4577 3226 7A300000 		.long	0x307a
 4578 322a 01       		.byte	0x1
 4579 322b 40       		.uleb128 0x40
 4580 322c 7365656B 		.ascii "seekdir\0"
 4580      64697200 
 4581 3234 0F       		.byte	0xf
 4582 3235 8901     		.word	0x189
 4583 3237 3F310000 		.long	0x313f
 4584 323b 01       		.byte	0x1
 4585 323c 41       		.uleb128 0x41
 4586 323d 626F6F6C 		.ascii "boolalpha\0"
 4586      616C7068 
 4586      6100
 4587 3247 0F       		.byte	0xf
 4588 3248 0201     		.word	0x102
 4589 324a 50320000 		.long	0x3250
 4590 324e 01       		.byte	0x1
 4591 324f 01       		.byte	0x1
 4592 3250 14       		.uleb128 0x14
 4593 3251 08320000 		.long	0x3208
 4594 3255 41       		.uleb128 0x41
 4595 3256 64656300 		.ascii "dec\0"
 4596 325a 0F       		.byte	0xf
 4597 325b 0501     		.word	0x105
 4598 325d 50320000 		.long	0x3250
 4599 3261 01       		.byte	0x1
 4600 3262 02       		.byte	0x2
 4601 3263 41       		.uleb128 0x41
 4602 3264 66697865 		.ascii "fixed\0"
 4602      6400
 4603 326a 0F       		.byte	0xf
 4604 326b 0801     		.word	0x108
 4605 326d 50320000 		.long	0x3250
 4606 3271 01       		.byte	0x1
 4607 3272 04       		.byte	0x4
 4608 3273 41       		.uleb128 0x41
 4609 3274 68657800 		.ascii "hex\0"
 4610 3278 0F       		.byte	0xf
 4611 3279 0B01     		.word	0x10b
 4612 327b 50320000 		.long	0x3250
 4613 327f 01       		.byte	0x1
 4614 3280 08       		.byte	0x8
 4615 3281 41       		.uleb128 0x41
 4616 3282 696E7465 		.ascii "internal\0"
GAS LISTING C:\Users\NJLLMR~1\AppData\Local\Temp\ccWOhw13.s 			page 112


 4616      726E616C 
 4616      00
 4617 328b 0F       		.byte	0xf
 4618 328c 1001     		.word	0x110
 4619 328e 50320000 		.long	0x3250
 4620 3292 01       		.byte	0x1
 4621 3293 10       		.byte	0x10
 4622 3294 41       		.uleb128 0x41
 4623 3295 6C656674 		.ascii "left\0"
 4623      00
 4624 329a 0F       		.byte	0xf
 4625 329b 1401     		.word	0x114
 4626 329d 50320000 		.long	0x3250
 4627 32a1 01       		.byte	0x1
 4628 32a2 20       		.byte	0x20
 4629 32a3 41       		.uleb128 0x41
 4630 32a4 6F637400 		.ascii "oct\0"
 4631 32a8 0F       		.byte	0xf
 4632 32a9 1701     		.word	0x117
 4633 32ab 50320000 		.long	0x3250
 4634 32af 01       		.byte	0x1
 4635 32b0 40       		.byte	0x40
 4636 32b1 41       		.uleb128 0x41
 4637 32b2 72696768 		.ascii "right\0"
 4637      7400
 4638 32b8 0F       		.byte	0xf
 4639 32b9 1B01     		.word	0x11b
 4640 32bb 50320000 		.long	0x3250
 4641 32bf 01       		.byte	0x1
 4642 32c0 80       		.byte	0x80
 4643 32c1 42       		.uleb128 0x42
 4644 32c2 73636965 		.ascii "scientific\0"
 4644      6E746966 
 4644      696300
 4645 32cd 0F       		.byte	0xf
 4646 32ce 1E01     		.word	0x11e
 4647 32d0 50320000 		.long	0x3250
 4648 32d4 01       		.byte	0x1
 4649 32d5 0001     		.word	0x100
 4650 32d7 42       		.uleb128 0x42
 4651 32d8 73686F77 		.ascii "showbase\0"
 4651      62617365 
 4651      00
 4652 32e1 0F       		.byte	0xf
 4653 32e2 2201     		.word	0x122
 4654 32e4 50320000 		.long	0x3250
 4655 32e8 01       		.byte	0x1
 4656 32e9 0002     		.word	0x200
 4657 32eb 42       		.uleb128 0x42
 4658 32ec 73686F77 		.ascii "showpoint\0"
 4658      706F696E 
 4658      7400
 4659 32f6 0F       		.byte	0xf
 4660 32f7 2601     		.word	0x126
 4661 32f9 50320000 		.long	0x3250
 4662 32fd 01       		.byte	0x1
 4663 32fe 0004     		.word	0x400
GAS LISTING C:\Users\NJLLMR~1\AppData\Local\Temp\ccWOhw13.s 			page 113


 4664 3300 42       		.uleb128 0x42
 4665 3301 73686F77 		.ascii "showpos\0"
 4665      706F7300 
 4666 3309 0F       		.byte	0xf
 4667 330a 2901     		.word	0x129
 4668 330c 50320000 		.long	0x3250
 4669 3310 01       		.byte	0x1
 4670 3311 0008     		.word	0x800
 4671 3313 42       		.uleb128 0x42
 4672 3314 736B6970 		.ascii "skipws\0"
 4672      777300
 4673 331b 0F       		.byte	0xf
 4674 331c 2C01     		.word	0x12c
 4675 331e 50320000 		.long	0x3250
 4676 3322 01       		.byte	0x1
 4677 3323 0010     		.word	0x1000
 4678 3325 42       		.uleb128 0x42
 4679 3326 756E6974 		.ascii "unitbuf\0"
 4679      62756600 
 4680 332e 0F       		.byte	0xf
 4681 332f 2F01     		.word	0x12f
 4682 3331 50320000 		.long	0x3250
 4683 3335 01       		.byte	0x1
 4684 3336 0020     		.word	0x2000
 4685 3338 42       		.uleb128 0x42
 4686 3339 75707065 		.ascii "uppercase\0"
 4686      72636173 
 4686      6500
 4687 3343 0F       		.byte	0xf
 4688 3344 3301     		.word	0x133
 4689 3346 50320000 		.long	0x3250
 4690 334a 01       		.byte	0x1
 4691 334b 0040     		.word	0x4000
 4692 334d 41       		.uleb128 0x41
 4693 334e 61646A75 		.ascii "adjustfield\0"
 4693      73746669 
 4693      656C6400 
 4694 335a 0F       		.byte	0xf
 4695 335b 3601     		.word	0x136
 4696 335d 50320000 		.long	0x3250
 4697 3361 01       		.byte	0x1
 4698 3362 B0       		.byte	0xb0
 4699 3363 41       		.uleb128 0x41
 4700 3364 62617365 		.ascii "basefield\0"
 4700      6669656C 
 4700      6400
 4701 336e 0F       		.byte	0xf
 4702 336f 3901     		.word	0x139
 4703 3371 50320000 		.long	0x3250
 4704 3375 01       		.byte	0x1
 4705 3376 4A       		.byte	0x4a
 4706 3377 42       		.uleb128 0x42
 4707 3378 666C6F61 		.ascii "floatfield\0"
 4707      74666965 
 4707      6C6400
 4708 3383 0F       		.byte	0xf
 4709 3384 3C01     		.word	0x13c
GAS LISTING C:\Users\NJLLMR~1\AppData\Local\Temp\ccWOhw13.s 			page 114


 4710 3386 50320000 		.long	0x3250
 4711 338a 01       		.byte	0x1
 4712 338b 0401     		.word	0x104
 4713 338d 40       		.uleb128 0x40
 4714 338e 696F7374 		.ascii "iostate\0"
 4714      61746500 
 4715 3396 0F       		.byte	0xf
 4716 3397 4A01     		.word	0x14a
 4717 3399 E0300000 		.long	0x30e0
 4718 339d 01       		.byte	0x1
 4719 339e 41       		.uleb128 0x41
 4720 339f 62616462 		.ascii "badbit\0"
 4720      697400
 4721 33a6 0F       		.byte	0xf
 4722 33a7 4E01     		.word	0x14e
 4723 33a9 AF330000 		.long	0x33af
 4724 33ad 01       		.byte	0x1
 4725 33ae 01       		.byte	0x1
 4726 33af 14       		.uleb128 0x14
 4727 33b0 8D330000 		.long	0x338d
 4728 33b4 41       		.uleb128 0x41
 4729 33b5 656F6662 		.ascii "eofbit\0"
 4729      697400
 4730 33bc 0F       		.byte	0xf
 4731 33bd 5101     		.word	0x151
 4732 33bf AF330000 		.long	0x33af
 4733 33c3 01       		.byte	0x1
 4734 33c4 02       		.byte	0x2
 4735 33c5 41       		.uleb128 0x41
 4736 33c6 6661696C 		.ascii "failbit\0"
 4736      62697400 
 4737 33ce 0F       		.byte	0xf
 4738 33cf 5601     		.word	0x156
 4739 33d1 AF330000 		.long	0x33af
 4740 33d5 01       		.byte	0x1
 4741 33d6 04       		.byte	0x4
 4742 33d7 41       		.uleb128 0x41
 4743 33d8 676F6F64 		.ascii "goodbit\0"
 4743      62697400 
 4744 33e0 0F       		.byte	0xf
 4745 33e1 5901     		.word	0x159
 4746 33e3 AF330000 		.long	0x33af
 4747 33e7 01       		.byte	0x1
 4748 33e8 00       		.byte	0
 4749 33e9 41       		.uleb128 0x41
 4750 33ea 61707000 		.ascii "app\0"
 4751 33ee 0F       		.byte	0xf
 4752 33ef 6C01     		.word	0x16c
 4753 33f1 F7330000 		.long	0x33f7
 4754 33f5 01       		.byte	0x1
 4755 33f6 01       		.byte	0x1
 4756 33f7 14       		.uleb128 0x14
 4757 33f8 19320000 		.long	0x3219
 4758 33fc 41       		.uleb128 0x41
 4759 33fd 61746500 		.ascii "ate\0"
 4760 3401 0F       		.byte	0xf
 4761 3402 6F01     		.word	0x16f
GAS LISTING C:\Users\NJLLMR~1\AppData\Local\Temp\ccWOhw13.s 			page 115


 4762 3404 F7330000 		.long	0x33f7
 4763 3408 01       		.byte	0x1
 4764 3409 02       		.byte	0x2
 4765 340a 41       		.uleb128 0x41
 4766 340b 62696E61 		.ascii "binary\0"
 4766      727900
 4767 3412 0F       		.byte	0xf
 4768 3413 7401     		.word	0x174
 4769 3415 F7330000 		.long	0x33f7
 4770 3419 01       		.byte	0x1
 4771 341a 04       		.byte	0x4
 4772 341b 41       		.uleb128 0x41
 4773 341c 696E00   		.ascii "in\0"
 4774 341f 0F       		.byte	0xf
 4775 3420 7701     		.word	0x177
 4776 3422 F7330000 		.long	0x33f7
 4777 3426 01       		.byte	0x1
 4778 3427 08       		.byte	0x8
 4779 3428 41       		.uleb128 0x41
 4780 3429 6F757400 		.ascii "out\0"
 4781 342d 0F       		.byte	0xf
 4782 342e 7A01     		.word	0x17a
 4783 3430 F7330000 		.long	0x33f7
 4784 3434 01       		.byte	0x1
 4785 3435 10       		.byte	0x10
 4786 3436 41       		.uleb128 0x41
 4787 3437 7472756E 		.ascii "trunc\0"
 4787      6300
 4788 343d 0F       		.byte	0xf
 4789 343e 7D01     		.word	0x17d
 4790 3440 F7330000 		.long	0x33f7
 4791 3444 01       		.byte	0x1
 4792 3445 20       		.byte	0x20
 4793 3446 41       		.uleb128 0x41
 4794 3447 62656700 		.ascii "beg\0"
 4795 344b 0F       		.byte	0xf
 4796 344c 8C01     		.word	0x18c
 4797 344e 54340000 		.long	0x3454
 4798 3452 01       		.byte	0x1
 4799 3453 00       		.byte	0
 4800 3454 14       		.uleb128 0x14
 4801 3455 2B320000 		.long	0x322b
 4802 3459 41       		.uleb128 0x41
 4803 345a 63757200 		.ascii "cur\0"
 4804 345e 0F       		.byte	0xf
 4805 345f 8F01     		.word	0x18f
 4806 3461 54340000 		.long	0x3454
 4807 3465 01       		.byte	0x1
 4808 3466 01       		.byte	0x1
 4809 3467 41       		.uleb128 0x41
 4810 3468 656E6400 		.ascii "end\0"
 4811 346c 0F       		.byte	0xf
 4812 346d 9201     		.word	0x192
 4813 346f 54340000 		.long	0x3454
 4814 3473 01       		.byte	0x1
 4815 3474 02       		.byte	0x2
 4816 3475 00       		.byte	0
GAS LISTING C:\Users\NJLLMR~1\AppData\Local\Temp\ccWOhw13.s 			page 116


 4817 3476 0F       		.uleb128 0xf
 4818 3477 10       		.byte	0x10
 4819 3478 52       		.byte	0x52
 4820 3479 BA020000 		.long	0x2ba
 4821 347d 0F       		.uleb128 0xf
 4822 347e 10       		.byte	0x10
 4823 347f 53       		.byte	0x53
 4824 3480 9F020000 		.long	0x29f
 4825 3484 0F       		.uleb128 0xf
 4826 3485 10       		.byte	0x10
 4827 3486 54       		.byte	0x54
 4828 3487 5A020000 		.long	0x25a
 4829 348b 0F       		.uleb128 0xf
 4830 348c 10       		.byte	0x10
 4831 348d 5C       		.byte	0x5c
 4832 348e 0B460000 		.long	0x460b
 4833 3492 0F       		.uleb128 0xf
 4834 3493 10       		.byte	0x10
 4835 3494 65       		.byte	0x65
 4836 3495 2A460000 		.long	0x462a
 4837 3499 0F       		.uleb128 0xf
 4838 349a 10       		.byte	0x10
 4839 349b 68       		.byte	0x68
 4840 349c 4A460000 		.long	0x464a
 4841 34a0 0F       		.uleb128 0xf
 4842 34a1 10       		.byte	0x10
 4843 34a2 69       		.byte	0x69
 4844 34a3 63460000 		.long	0x4663
 4845 34a7 3C       		.uleb128 0x3c
 4846 34a8 62617369 		.ascii "basic_ostream<char, std::char_traits<char> >\0"
 4846      635F6F73 
 4846      74726561 
 4846      6D3C6368 
 4846      61722C20 
 4847 34d5 EC340000 		.long	0x34ec
 4848 34d9 36       		.uleb128 0x36
 4849 34da 08000000 		.secrel32	LASF23
 4850 34de 97020000 		.long	0x297
 4851 34e2 37       		.uleb128 0x37
 4852 34e3 0F000000 		.secrel32	LASF22
 4853 34e7 52060000 		.long	0x652
 4854 34eb 00       		.byte	0
 4855 34ec 3C       		.uleb128 0x3c
 4856 34ed 62617369 		.ascii "basic_istream<char, std::char_traits<char> >\0"
 4856      635F6973 
 4856      74726561 
 4856      6D3C6368 
 4856      61722C20 
 4857 351a 31350000 		.long	0x3531
 4858 351e 36       		.uleb128 0x36
 4859 351f 08000000 		.secrel32	LASF23
 4860 3523 97020000 		.long	0x297
 4861 3527 37       		.uleb128 0x37
 4862 3528 0F000000 		.secrel32	LASF22
 4863 352c 52060000 		.long	0x652
 4864 3530 00       		.byte	0
 4865 3531 0F       		.uleb128 0xf
GAS LISTING C:\Users\NJLLMR~1\AppData\Local\Temp\ccWOhw13.s 			page 117


 4866 3532 11       		.byte	0x11
 4867 3533 62       		.byte	0x62
 4868 3534 89030000 		.long	0x389
 4869 3538 0F       		.uleb128 0xf
 4870 3539 11       		.byte	0x11
 4871 353a 63       		.byte	0x63
 4872 353b 80460000 		.long	0x4680
 4873 353f 0F       		.uleb128 0xf
 4874 3540 11       		.byte	0x11
 4875 3541 65       		.byte	0x65
 4876 3542 96460000 		.long	0x4696
 4877 3546 0F       		.uleb128 0xf
 4878 3547 11       		.byte	0x11
 4879 3548 66       		.byte	0x66
 4880 3549 AD460000 		.long	0x46ad
 4881 354d 0F       		.uleb128 0xf
 4882 354e 11       		.byte	0x11
 4883 354f 67       		.byte	0x67
 4884 3550 C5460000 		.long	0x46c5
 4885 3554 0F       		.uleb128 0xf
 4886 3555 11       		.byte	0x11
 4887 3556 68       		.byte	0x68
 4888 3557 DC460000 		.long	0x46dc
 4889 355b 0F       		.uleb128 0xf
 4890 355c 11       		.byte	0x11
 4891 355d 69       		.byte	0x69
 4892 355e F5460000 		.long	0x46f5
 4893 3562 0F       		.uleb128 0xf
 4894 3563 11       		.byte	0x11
 4895 3564 6A       		.byte	0x6a
 4896 3565 0D470000 		.long	0x470d
 4897 3569 0F       		.uleb128 0xf
 4898 356a 11       		.byte	0x11
 4899 356b 6B       		.byte	0x6b
 4900 356c 25470000 		.long	0x4725
 4901 3570 0F       		.uleb128 0xf
 4902 3571 11       		.byte	0x11
 4903 3572 6C       		.byte	0x6c
 4904 3573 4A470000 		.long	0x474a
 4905 3577 0F       		.uleb128 0xf
 4906 3578 11       		.byte	0x11
 4907 3579 6D       		.byte	0x6d
 4908 357a 6C470000 		.long	0x476c
 4909 357e 0F       		.uleb128 0xf
 4910 357f 11       		.byte	0x11
 4911 3580 71       		.byte	0x71
 4912 3581 88470000 		.long	0x4788
 4913 3585 0F       		.uleb128 0xf
 4914 3586 11       		.byte	0x11
 4915 3587 72       		.byte	0x72
 4916 3588 AF470000 		.long	0x47af
 4917 358c 0F       		.uleb128 0xf
 4918 358d 11       		.byte	0x11
 4919 358e 74       		.byte	0x74
 4920 358f D2470000 		.long	0x47d2
 4921 3593 0F       		.uleb128 0xf
 4922 3594 11       		.byte	0x11
GAS LISTING C:\Users\NJLLMR~1\AppData\Local\Temp\ccWOhw13.s 			page 118


 4923 3595 75       		.byte	0x75
 4924 3596 F4470000 		.long	0x47f4
 4925 359a 0F       		.uleb128 0xf
 4926 359b 11       		.byte	0x11
 4927 359c 76       		.byte	0x76
 4928 359d 1E480000 		.long	0x481e
 4929 35a1 0F       		.uleb128 0xf
 4930 35a2 11       		.byte	0x11
 4931 35a3 78       		.byte	0x78
 4932 35a4 36480000 		.long	0x4836
 4933 35a8 0F       		.uleb128 0xf
 4934 35a9 11       		.byte	0x11
 4935 35aa 79       		.byte	0x79
 4936 35ab 4D480000 		.long	0x484d
 4937 35af 0F       		.uleb128 0xf
 4938 35b0 11       		.byte	0x11
 4939 35b1 7C       		.byte	0x7c
 4940 35b2 5D480000 		.long	0x485d
 4941 35b6 0F       		.uleb128 0xf
 4942 35b7 11       		.byte	0x11
 4943 35b8 7E       		.byte	0x7e
 4944 35b9 74480000 		.long	0x4874
 4945 35bd 0F       		.uleb128 0xf
 4946 35be 11       		.byte	0x11
 4947 35bf 80       		.byte	0x80
 4948 35c0 89480000 		.long	0x4889
 4949 35c4 0F       		.uleb128 0xf
 4950 35c5 11       		.byte	0x11
 4951 35c6 81       		.byte	0x81
 4952 35c7 A5480000 		.long	0x48a5
 4953 35cb 0F       		.uleb128 0xf
 4954 35cc 11       		.byte	0x11
 4955 35cd 83       		.byte	0x83
 4956 35ce BF480000 		.long	0x48bf
 4957 35d2 0F       		.uleb128 0xf
 4958 35d3 11       		.byte	0x11
 4959 35d4 84       		.byte	0x84
 4960 35d5 D7480000 		.long	0x48d7
 4961 35d9 0F       		.uleb128 0xf
 4962 35da 11       		.byte	0x11
 4963 35db 85       		.byte	0x85
 4964 35dc F4480000 		.long	0x48f4
 4965 35e0 0F       		.uleb128 0xf
 4966 35e1 11       		.byte	0x11
 4967 35e2 87       		.byte	0x87
 4968 35e3 09490000 		.long	0x4909
 4969 35e7 0F       		.uleb128 0xf
 4970 35e8 11       		.byte	0x11
 4971 35e9 88       		.byte	0x88
 4972 35ea 22490000 		.long	0x4922
 4973 35ee 0F       		.uleb128 0xf
 4974 35ef 11       		.byte	0x11
 4975 35f0 8B       		.byte	0x8b
 4976 35f1 4A490000 		.long	0x494a
 4977 35f5 0F       		.uleb128 0xf
 4978 35f6 11       		.byte	0x11
 4979 35f7 8D       		.byte	0x8d
GAS LISTING C:\Users\NJLLMR~1\AppData\Local\Temp\ccWOhw13.s 			page 119


 4980 35f8 59490000 		.long	0x4959
 4981 35fc 0F       		.uleb128 0xf
 4982 35fd 11       		.byte	0x11
 4983 35fe 8F       		.byte	0x8f
 4984 35ff 71490000 		.long	0x4971
 4985 3603 08       		.uleb128 0x8
 4986 3604 69737472 		.ascii "istream\0"
 4986      65616D00 
 4987 360c 12       		.byte	0x12
 4988 360d 85       		.byte	0x85
 4989 360e EC340000 		.long	0x34ec
 4990 3612 43       		.uleb128 0x43
 4991 3613 63696E00 		.ascii "cin\0"
 4992 3617 02       		.byte	0x2
 4993 3618 3C       		.byte	0x3c
 4994 3619 5F5A5374 		.ascii "_ZSt3cin\0"
 4994      3363696E 
 4994      00
 4995 3622 03360000 		.long	0x3603
 4996 3626 08       		.uleb128 0x8
 4997 3627 6F737472 		.ascii "ostream\0"
 4997      65616D00 
 4998 362f 12       		.byte	0x12
 4999 3630 88       		.byte	0x88
 5000 3631 A7340000 		.long	0x34a7
 5001 3635 43       		.uleb128 0x43
 5002 3636 636F7574 		.ascii "cout\0"
 5002      00
 5003 363b 02       		.byte	0x2
 5004 363c 3D       		.byte	0x3d
 5005 363d 5F5A5374 		.ascii "_ZSt4cout\0"
 5005      34636F75 
 5005      7400
 5006 3647 26360000 		.long	0x3626
 5007 364b 44       		.uleb128 0x44
 5008 364c 5F5F696F 		.ascii "__ioinit\0"
 5008      696E6974 
 5008      00
 5009 3655 02       		.byte	0x2
 5010 3656 4A       		.byte	0x4a
 5011 3657 95310000 		.long	0x3195
 5012 365b 00       		.byte	0
 5013 365c 45       		.uleb128 0x45
 5014 365d 62746F77 		.ascii "btowc\0"
 5014      6300
 5015 3663 06       		.byte	0x6
 5016 3664 2901     		.word	0x129
 5017 3666 5A020000 		.long	0x25a
 5018 366a 74360000 		.long	0x3674
 5019 366e 13       		.uleb128 0x13
 5020 366f CB020000 		.long	0x2cb
 5021 3673 00       		.byte	0
 5022 3674 46       		.uleb128 0x46
 5023 3675 66676574 		.ascii "fgetwc\0"
 5023      776300
 5024 367c 06       		.byte	0x6
 5025 367d 70       		.byte	0x70
GAS LISTING C:\Users\NJLLMR~1\AppData\Local\Temp\ccWOhw13.s 			page 120


 5026 367e 5A020000 		.long	0x25a
 5027 3682 8C360000 		.long	0x368c
 5028 3686 13       		.uleb128 0x13
 5029 3687 8C360000 		.long	0x368c
 5030 368b 00       		.byte	0
 5031 368c 07       		.uleb128 0x7
 5032 368d 04       		.byte	0x4
 5033 368e 89030000 		.long	0x389
 5034 3692 46       		.uleb128 0x46
 5035 3693 66676574 		.ascii "fgetws\0"
 5035      777300
 5036 369a 06       		.byte	0x6
 5037 369b 7B       		.byte	0x7b
 5038 369c B4360000 		.long	0x36b4
 5039 36a0 B4360000 		.long	0x36b4
 5040 36a4 13       		.uleb128 0x13
 5041 36a5 B4360000 		.long	0x36b4
 5042 36a9 13       		.uleb128 0x13
 5043 36aa CB020000 		.long	0x2cb
 5044 36ae 13       		.uleb128 0x13
 5045 36af 8C360000 		.long	0x368c
 5046 36b3 00       		.byte	0
 5047 36b4 07       		.uleb128 0x7
 5048 36b5 04       		.byte	0x4
 5049 36b6 AF020000 		.long	0x2af
 5050 36ba 46       		.uleb128 0x46
 5051 36bb 66707574 		.ascii "fputwc\0"
 5051      776300
 5052 36c2 06       		.byte	0x6
 5053 36c3 71       		.byte	0x71
 5054 36c4 5A020000 		.long	0x25a
 5055 36c8 D7360000 		.long	0x36d7
 5056 36cc 13       		.uleb128 0x13
 5057 36cd AF020000 		.long	0x2af
 5058 36d1 13       		.uleb128 0x13
 5059 36d2 8C360000 		.long	0x368c
 5060 36d6 00       		.byte	0
 5061 36d7 46       		.uleb128 0x46
 5062 36d8 66707574 		.ascii "fputws\0"
 5062      777300
 5063 36df 06       		.byte	0x6
 5064 36e0 7C       		.byte	0x7c
 5065 36e1 CB020000 		.long	0x2cb
 5066 36e5 F4360000 		.long	0x36f4
 5067 36e9 13       		.uleb128 0x13
 5068 36ea F4360000 		.long	0x36f4
 5069 36ee 13       		.uleb128 0x13
 5070 36ef 8C360000 		.long	0x368c
 5071 36f3 00       		.byte	0
 5072 36f4 07       		.uleb128 0x7
 5073 36f5 04       		.byte	0x4
 5074 36f6 FA360000 		.long	0x36fa
 5075 36fa 14       		.uleb128 0x14
 5076 36fb AF020000 		.long	0x2af
 5077 36ff 45       		.uleb128 0x45
 5078 3700 66776964 		.ascii "fwide\0"
 5078      6500
GAS LISTING C:\Users\NJLLMR~1\AppData\Local\Temp\ccWOhw13.s 			page 121


 5079 3706 06       		.byte	0x6
 5080 3707 3701     		.word	0x137
 5081 3709 CB020000 		.long	0x2cb
 5082 370d 1C370000 		.long	0x371c
 5083 3711 13       		.uleb128 0x13
 5084 3712 8C360000 		.long	0x368c
 5085 3716 13       		.uleb128 0x13
 5086 3717 CB020000 		.long	0x2cb
 5087 371b 00       		.byte	0
 5088 371c 46       		.uleb128 0x46
 5089 371d 66777072 		.ascii "fwprintf\0"
 5089      696E7466 
 5089      00
 5090 3726 06       		.byte	0x6
 5091 3727 67       		.byte	0x67
 5092 3728 CB020000 		.long	0x2cb
 5093 372c 3C370000 		.long	0x373c
 5094 3730 13       		.uleb128 0x13
 5095 3731 8C360000 		.long	0x368c
 5096 3735 13       		.uleb128 0x13
 5097 3736 F4360000 		.long	0x36f4
 5098 373a 47       		.uleb128 0x47
 5099 373b 00       		.byte	0
 5100 373c 46       		.uleb128 0x46
 5101 373d 66777363 		.ascii "fwscanf\0"
 5101      616E6600 
 5102 3745 06       		.byte	0x6
 5103 3746 6D       		.byte	0x6d
 5104 3747 CB020000 		.long	0x2cb
 5105 374b 5B370000 		.long	0x375b
 5106 374f 13       		.uleb128 0x13
 5107 3750 8C360000 		.long	0x368c
 5108 3754 13       		.uleb128 0x13
 5109 3755 F4360000 		.long	0x36f4
 5110 3759 47       		.uleb128 0x47
 5111 375a 00       		.byte	0
 5112 375b 46       		.uleb128 0x46
 5113 375c 67657477 		.ascii "getwc\0"
 5113      6300
 5114 3762 06       		.byte	0x6
 5115 3763 7D       		.byte	0x7d
 5116 3764 5A020000 		.long	0x25a
 5117 3768 72370000 		.long	0x3772
 5118 376c 13       		.uleb128 0x13
 5119 376d 8C360000 		.long	0x368c
 5120 3771 00       		.byte	0
 5121 3772 48       		.uleb128 0x48
 5122 3773 67657477 		.ascii "getwchar\0"
 5122      63686172 
 5122      00
 5123 377c 06       		.byte	0x6
 5124 377d 7E       		.byte	0x7e
 5125 377e 5A020000 		.long	0x25a
 5126 3782 45       		.uleb128 0x45
 5127 3783 6D62726C 		.ascii "mbrlen\0"
 5127      656E00
 5128 378a 06       		.byte	0x6
GAS LISTING C:\Users\NJLLMR~1\AppData\Local\Temp\ccWOhw13.s 			page 122


 5129 378b 2A01     		.word	0x12a
 5130 378d 3C020000 		.long	0x23c
 5131 3791 A5370000 		.long	0x37a5
 5132 3795 13       		.uleb128 0x13
 5133 3796 A5370000 		.long	0x37a5
 5134 379a 13       		.uleb128 0x13
 5135 379b 3C020000 		.long	0x23c
 5136 379f 13       		.uleb128 0x13
 5137 37a0 B0370000 		.long	0x37b0
 5138 37a4 00       		.byte	0
 5139 37a5 07       		.uleb128 0x7
 5140 37a6 04       		.byte	0x4
 5141 37a7 AB370000 		.long	0x37ab
 5142 37ab 14       		.uleb128 0x14
 5143 37ac 97020000 		.long	0x297
 5144 37b0 07       		.uleb128 0x7
 5145 37b1 04       		.byte	0x4
 5146 37b2 2F040000 		.long	0x42f
 5147 37b6 45       		.uleb128 0x45
 5148 37b7 6D627274 		.ascii "mbrtowc\0"
 5148      6F776300 
 5149 37bf 06       		.byte	0x6
 5150 37c0 2C01     		.word	0x12c
 5151 37c2 3C020000 		.long	0x23c
 5152 37c6 DF370000 		.long	0x37df
 5153 37ca 13       		.uleb128 0x13
 5154 37cb B4360000 		.long	0x36b4
 5155 37cf 13       		.uleb128 0x13
 5156 37d0 A5370000 		.long	0x37a5
 5157 37d4 13       		.uleb128 0x13
 5158 37d5 3C020000 		.long	0x23c
 5159 37d9 13       		.uleb128 0x13
 5160 37da B0370000 		.long	0x37b0
 5161 37de 00       		.byte	0
 5162 37df 45       		.uleb128 0x45
 5163 37e0 6D627369 		.ascii "mbsinit\0"
 5163      6E697400 
 5164 37e8 06       		.byte	0x6
 5165 37e9 3801     		.word	0x138
 5166 37eb CB020000 		.long	0x2cb
 5167 37ef F9370000 		.long	0x37f9
 5168 37f3 13       		.uleb128 0x13
 5169 37f4 F9370000 		.long	0x37f9
 5170 37f8 00       		.byte	0
 5171 37f9 07       		.uleb128 0x7
 5172 37fa 04       		.byte	0x4
 5173 37fb FF370000 		.long	0x37ff
 5174 37ff 14       		.uleb128 0x14
 5175 3800 2F040000 		.long	0x42f
 5176 3804 45       		.uleb128 0x45
 5177 3805 6D627372 		.ascii "mbsrtowcs\0"
 5177      746F7763 
 5177      7300
 5178 380f 06       		.byte	0x6
 5179 3810 2E01     		.word	0x12e
 5180 3812 3C020000 		.long	0x23c
 5181 3816 2F380000 		.long	0x382f
GAS LISTING C:\Users\NJLLMR~1\AppData\Local\Temp\ccWOhw13.s 			page 123


 5182 381a 13       		.uleb128 0x13
 5183 381b B4360000 		.long	0x36b4
 5184 381f 13       		.uleb128 0x13
 5185 3820 2F380000 		.long	0x382f
 5186 3824 13       		.uleb128 0x13
 5187 3825 3C020000 		.long	0x23c
 5188 3829 13       		.uleb128 0x13
 5189 382a B0370000 		.long	0x37b0
 5190 382e 00       		.byte	0
 5191 382f 07       		.uleb128 0x7
 5192 3830 04       		.byte	0x4
 5193 3831 A5370000 		.long	0x37a5
 5194 3835 46       		.uleb128 0x46
 5195 3836 70757477 		.ascii "putwc\0"
 5195      6300
 5196 383c 06       		.byte	0x6
 5197 383d 7F       		.byte	0x7f
 5198 383e 5A020000 		.long	0x25a
 5199 3842 51380000 		.long	0x3851
 5200 3846 13       		.uleb128 0x13
 5201 3847 5A020000 		.long	0x25a
 5202 384b 13       		.uleb128 0x13
 5203 384c 8C360000 		.long	0x368c
 5204 3850 00       		.byte	0
 5205 3851 46       		.uleb128 0x46
 5206 3852 70757477 		.ascii "putwchar\0"
 5206      63686172 
 5206      00
 5207 385b 06       		.byte	0x6
 5208 385c 80       		.byte	0x80
 5209 385d 5A020000 		.long	0x25a
 5210 3861 6B380000 		.long	0x386b
 5211 3865 13       		.uleb128 0x13
 5212 3866 5A020000 		.long	0x25a
 5213 386a 00       		.byte	0
 5214 386b 46       		.uleb128 0x46
 5215 386c 73777363 		.ascii "swscanf\0"
 5215      616E6600 
 5216 3874 06       		.byte	0x6
 5217 3875 6F       		.byte	0x6f
 5218 3876 CB020000 		.long	0x2cb
 5219 387a 8A380000 		.long	0x388a
 5220 387e 13       		.uleb128 0x13
 5221 387f F4360000 		.long	0x36f4
 5222 3883 13       		.uleb128 0x13
 5223 3884 F4360000 		.long	0x36f4
 5224 3888 47       		.uleb128 0x47
 5225 3889 00       		.byte	0
 5226 388a 46       		.uleb128 0x46
 5227 388b 756E6765 		.ascii "ungetwc\0"
 5227      74776300 
 5228 3893 06       		.byte	0x6
 5229 3894 72       		.byte	0x72
 5230 3895 5A020000 		.long	0x25a
 5231 3899 A8380000 		.long	0x38a8
 5232 389d 13       		.uleb128 0x13
 5233 389e AF020000 		.long	0x2af
GAS LISTING C:\Users\NJLLMR~1\AppData\Local\Temp\ccWOhw13.s 			page 124


 5234 38a2 13       		.uleb128 0x13
 5235 38a3 8C360000 		.long	0x368c
 5236 38a7 00       		.byte	0
 5237 38a8 46       		.uleb128 0x46
 5238 38a9 76667770 		.ascii "vfwprintf\0"
 5238      72696E74 
 5238      6600
 5239 38b3 06       		.byte	0x6
 5240 38b4 6A       		.byte	0x6a
 5241 38b5 CB020000 		.long	0x2cb
 5242 38b9 CD380000 		.long	0x38cd
 5243 38bd 13       		.uleb128 0x13
 5244 38be 8C360000 		.long	0x368c
 5245 38c2 13       		.uleb128 0x13
 5246 38c3 F4360000 		.long	0x36f4
 5247 38c7 13       		.uleb128 0x13
 5248 38c8 7F020000 		.long	0x27f
 5249 38cc 00       		.byte	0
 5250 38cd 46       		.uleb128 0x46
 5251 38ce 76667773 		.ascii "vfwscanf\0"
 5251      63616E66 
 5251      00
 5252 38d7 06       		.byte	0x6
 5253 38d8 9A       		.byte	0x9a
 5254 38d9 CB020000 		.long	0x2cb
 5255 38dd F1380000 		.long	0x38f1
 5256 38e1 13       		.uleb128 0x13
 5257 38e2 8C360000 		.long	0x368c
 5258 38e6 13       		.uleb128 0x13
 5259 38e7 F4360000 		.long	0x36f4
 5260 38eb 13       		.uleb128 0x13
 5261 38ec 7F020000 		.long	0x27f
 5262 38f0 00       		.byte	0
 5263 38f1 46       		.uleb128 0x46
 5264 38f2 76737773 		.ascii "vswscanf\0"
 5264      63616E66 
 5264      00
 5265 38fb 06       		.byte	0x6
 5266 38fc 9C       		.byte	0x9c
 5267 38fd CB020000 		.long	0x2cb
 5268 3901 15390000 		.long	0x3915
 5269 3905 13       		.uleb128 0x13
 5270 3906 F4360000 		.long	0x36f4
 5271 390a 13       		.uleb128 0x13
 5272 390b F4360000 		.long	0x36f4
 5273 390f 13       		.uleb128 0x13
 5274 3910 7F020000 		.long	0x27f
 5275 3914 00       		.byte	0
 5276 3915 46       		.uleb128 0x46
 5277 3916 76777072 		.ascii "vwprintf\0"
 5277      696E7466 
 5277      00
 5278 391f 06       		.byte	0x6
 5279 3920 6B       		.byte	0x6b
 5280 3921 CB020000 		.long	0x2cb
 5281 3925 34390000 		.long	0x3934
 5282 3929 13       		.uleb128 0x13
GAS LISTING C:\Users\NJLLMR~1\AppData\Local\Temp\ccWOhw13.s 			page 125


 5283 392a F4360000 		.long	0x36f4
 5284 392e 13       		.uleb128 0x13
 5285 392f 7F020000 		.long	0x27f
 5286 3933 00       		.byte	0
 5287 3934 46       		.uleb128 0x46
 5288 3935 76777363 		.ascii "vwscanf\0"
 5288      616E6600 
 5289 393d 06       		.byte	0x6
 5290 393e 99       		.byte	0x99
 5291 393f CB020000 		.long	0x2cb
 5292 3943 52390000 		.long	0x3952
 5293 3947 13       		.uleb128 0x13
 5294 3948 F4360000 		.long	0x36f4
 5295 394c 13       		.uleb128 0x13
 5296 394d 7F020000 		.long	0x27f
 5297 3951 00       		.byte	0
 5298 3952 45       		.uleb128 0x45
 5299 3953 77637274 		.ascii "wcrtomb\0"
 5299      6F6D6200 
 5300 395b 06       		.byte	0x6
 5301 395c 3001     		.word	0x130
 5302 395e 3C020000 		.long	0x23c
 5303 3962 76390000 		.long	0x3976
 5304 3966 13       		.uleb128 0x13
 5305 3967 83030000 		.long	0x383
 5306 396b 13       		.uleb128 0x13
 5307 396c AF020000 		.long	0x2af
 5308 3970 13       		.uleb128 0x13
 5309 3971 B0370000 		.long	0x37b0
 5310 3975 00       		.byte	0
 5311 3976 46       		.uleb128 0x46
 5312 3977 77637363 		.ascii "wcscat\0"
 5312      617400
 5313 397e 06       		.byte	0x6
 5314 397f D9       		.byte	0xd9
 5315 3980 B4360000 		.long	0x36b4
 5316 3984 93390000 		.long	0x3993
 5317 3988 13       		.uleb128 0x13
 5318 3989 B4360000 		.long	0x36b4
 5319 398d 13       		.uleb128 0x13
 5320 398e F4360000 		.long	0x36f4
 5321 3992 00       		.byte	0
 5322 3993 46       		.uleb128 0x46
 5323 3994 77637363 		.ascii "wcscmp\0"
 5323      6D7000
 5324 399b 06       		.byte	0x6
 5325 399c DB       		.byte	0xdb
 5326 399d CB020000 		.long	0x2cb
 5327 39a1 B0390000 		.long	0x39b0
 5328 39a5 13       		.uleb128 0x13
 5329 39a6 F4360000 		.long	0x36f4
 5330 39aa 13       		.uleb128 0x13
 5331 39ab F4360000 		.long	0x36f4
 5332 39af 00       		.byte	0
 5333 39b0 46       		.uleb128 0x46
 5334 39b1 77637363 		.ascii "wcscoll\0"
 5334      6F6C6C00 
GAS LISTING C:\Users\NJLLMR~1\AppData\Local\Temp\ccWOhw13.s 			page 126


 5335 39b9 06       		.byte	0x6
 5336 39ba DC       		.byte	0xdc
 5337 39bb CB020000 		.long	0x2cb
 5338 39bf CE390000 		.long	0x39ce
 5339 39c3 13       		.uleb128 0x13
 5340 39c4 F4360000 		.long	0x36f4
 5341 39c8 13       		.uleb128 0x13
 5342 39c9 F4360000 		.long	0x36f4
 5343 39cd 00       		.byte	0
 5344 39ce 46       		.uleb128 0x46
 5345 39cf 77637363 		.ascii "wcscpy\0"
 5345      707900
 5346 39d6 06       		.byte	0x6
 5347 39d7 DD       		.byte	0xdd
 5348 39d8 B4360000 		.long	0x36b4
 5349 39dc EB390000 		.long	0x39eb
 5350 39e0 13       		.uleb128 0x13
 5351 39e1 B4360000 		.long	0x36b4
 5352 39e5 13       		.uleb128 0x13
 5353 39e6 F4360000 		.long	0x36f4
 5354 39ea 00       		.byte	0
 5355 39eb 46       		.uleb128 0x46
 5356 39ec 77637363 		.ascii "wcscspn\0"
 5356      73706E00 
 5357 39f4 06       		.byte	0x6
 5358 39f5 DE       		.byte	0xde
 5359 39f6 3C020000 		.long	0x23c
 5360 39fa 093A0000 		.long	0x3a09
 5361 39fe 13       		.uleb128 0x13
 5362 39ff F4360000 		.long	0x36f4
 5363 3a03 13       		.uleb128 0x13
 5364 3a04 F4360000 		.long	0x36f4
 5365 3a08 00       		.byte	0
 5366 3a09 46       		.uleb128 0x46
 5367 3a0a 77637366 		.ascii "wcsftime\0"
 5367      74696D65 
 5367      00
 5368 3a13 06       		.byte	0x6
 5369 3a14 CF       		.byte	0xcf
 5370 3a15 3C020000 		.long	0x23c
 5371 3a19 323A0000 		.long	0x3a32
 5372 3a1d 13       		.uleb128 0x13
 5373 3a1e B4360000 		.long	0x36b4
 5374 3a22 13       		.uleb128 0x13
 5375 3a23 3C020000 		.long	0x23c
 5376 3a27 13       		.uleb128 0x13
 5377 3a28 F4360000 		.long	0x36f4
 5378 3a2c 13       		.uleb128 0x13
 5379 3a2d 323A0000 		.long	0x3a32
 5380 3a31 00       		.byte	0
 5381 3a32 07       		.uleb128 0x7
 5382 3a33 04       		.byte	0x4
 5383 3a34 383A0000 		.long	0x3a38
 5384 3a38 14       		.uleb128 0x14
 5385 3a39 95030000 		.long	0x395
 5386 3a3d 46       		.uleb128 0x46
 5387 3a3e 7763736C 		.ascii "wcslen\0"
GAS LISTING C:\Users\NJLLMR~1\AppData\Local\Temp\ccWOhw13.s 			page 127


 5387      656E00
 5388 3a45 06       		.byte	0x6
 5389 3a46 E0       		.byte	0xe0
 5390 3a47 3C020000 		.long	0x23c
 5391 3a4b 553A0000 		.long	0x3a55
 5392 3a4f 13       		.uleb128 0x13
 5393 3a50 F4360000 		.long	0x36f4
 5394 3a54 00       		.byte	0
 5395 3a55 46       		.uleb128 0x46
 5396 3a56 7763736E 		.ascii "wcsncat\0"
 5396      63617400 
 5397 3a5e 06       		.byte	0x6
 5398 3a5f E1       		.byte	0xe1
 5399 3a60 B4360000 		.long	0x36b4
 5400 3a64 783A0000 		.long	0x3a78
 5401 3a68 13       		.uleb128 0x13
 5402 3a69 B4360000 		.long	0x36b4
 5403 3a6d 13       		.uleb128 0x13
 5404 3a6e F4360000 		.long	0x36f4
 5405 3a72 13       		.uleb128 0x13
 5406 3a73 3C020000 		.long	0x23c
 5407 3a77 00       		.byte	0
 5408 3a78 46       		.uleb128 0x46
 5409 3a79 7763736E 		.ascii "wcsncmp\0"
 5409      636D7000 
 5410 3a81 06       		.byte	0x6
 5411 3a82 E2       		.byte	0xe2
 5412 3a83 CB020000 		.long	0x2cb
 5413 3a87 9B3A0000 		.long	0x3a9b
 5414 3a8b 13       		.uleb128 0x13
 5415 3a8c F4360000 		.long	0x36f4
 5416 3a90 13       		.uleb128 0x13
 5417 3a91 F4360000 		.long	0x36f4
 5418 3a95 13       		.uleb128 0x13
 5419 3a96 3C020000 		.long	0x23c
 5420 3a9a 00       		.byte	0
 5421 3a9b 46       		.uleb128 0x46
 5422 3a9c 7763736E 		.ascii "wcsncpy\0"
 5422      63707900 
 5423 3aa4 06       		.byte	0x6
 5424 3aa5 E3       		.byte	0xe3
 5425 3aa6 B4360000 		.long	0x36b4
 5426 3aaa BE3A0000 		.long	0x3abe
 5427 3aae 13       		.uleb128 0x13
 5428 3aaf B4360000 		.long	0x36b4
 5429 3ab3 13       		.uleb128 0x13
 5430 3ab4 F4360000 		.long	0x36f4
 5431 3ab8 13       		.uleb128 0x13
 5432 3ab9 3C020000 		.long	0x23c
 5433 3abd 00       		.byte	0
 5434 3abe 45       		.uleb128 0x45
 5435 3abf 77637372 		.ascii "wcsrtombs\0"
 5435      746F6D62 
 5435      7300
 5436 3ac9 06       		.byte	0x6
 5437 3aca 3201     		.word	0x132
 5438 3acc 3C020000 		.long	0x23c
GAS LISTING C:\Users\NJLLMR~1\AppData\Local\Temp\ccWOhw13.s 			page 128


 5439 3ad0 E93A0000 		.long	0x3ae9
 5440 3ad4 13       		.uleb128 0x13
 5441 3ad5 83030000 		.long	0x383
 5442 3ad9 13       		.uleb128 0x13
 5443 3ada E93A0000 		.long	0x3ae9
 5444 3ade 13       		.uleb128 0x13
 5445 3adf 3C020000 		.long	0x23c
 5446 3ae3 13       		.uleb128 0x13
 5447 3ae4 B0370000 		.long	0x37b0
 5448 3ae8 00       		.byte	0
 5449 3ae9 07       		.uleb128 0x7
 5450 3aea 04       		.byte	0x4
 5451 3aeb F4360000 		.long	0x36f4
 5452 3aef 46       		.uleb128 0x46
 5453 3af0 77637373 		.ascii "wcsspn\0"
 5453      706E00
 5454 3af7 06       		.byte	0x6
 5455 3af8 E6       		.byte	0xe6
 5456 3af9 3C020000 		.long	0x23c
 5457 3afd 0C3B0000 		.long	0x3b0c
 5458 3b01 13       		.uleb128 0x13
 5459 3b02 F4360000 		.long	0x36f4
 5460 3b06 13       		.uleb128 0x13
 5461 3b07 F4360000 		.long	0x36f4
 5462 3b0b 00       		.byte	0
 5463 3b0c 46       		.uleb128 0x46
 5464 3b0d 77637374 		.ascii "wcstod\0"
 5464      6F6400
 5465 3b14 06       		.byte	0x6
 5466 3b15 A6       		.byte	0xa6
 5467 3b16 293B0000 		.long	0x3b29
 5468 3b1a 293B0000 		.long	0x3b29
 5469 3b1e 13       		.uleb128 0x13
 5470 3b1f F4360000 		.long	0x36f4
 5471 3b23 13       		.uleb128 0x13
 5472 3b24 333B0000 		.long	0x3b33
 5473 3b28 00       		.byte	0
 5474 3b29 09       		.uleb128 0x9
 5475 3b2a 08       		.byte	0x8
 5476 3b2b 04       		.byte	0x4
 5477 3b2c 646F7562 		.ascii "double\0"
 5477      6C6500
 5478 3b33 07       		.uleb128 0x7
 5479 3b34 04       		.byte	0x4
 5480 3b35 B4360000 		.long	0x36b4
 5481 3b39 46       		.uleb128 0x46
 5482 3b3a 77637374 		.ascii "wcstof\0"
 5482      6F6600
 5483 3b41 06       		.byte	0x6
 5484 3b42 A8       		.byte	0xa8
 5485 3b43 563B0000 		.long	0x3b56
 5486 3b47 563B0000 		.long	0x3b56
 5487 3b4b 13       		.uleb128 0x13
 5488 3b4c F4360000 		.long	0x36f4
 5489 3b50 13       		.uleb128 0x13
 5490 3b51 333B0000 		.long	0x3b33
 5491 3b55 00       		.byte	0
GAS LISTING C:\Users\NJLLMR~1\AppData\Local\Temp\ccWOhw13.s 			page 129


 5492 3b56 09       		.uleb128 0x9
 5493 3b57 04       		.byte	0x4
 5494 3b58 04       		.byte	0x4
 5495 3b59 666C6F61 		.ascii "float\0"
 5495      7400
 5496 3b5f 46       		.uleb128 0x46
 5497 3b60 77637374 		.ascii "wcstok\0"
 5497      6F6B00
 5498 3b67 06       		.byte	0x6
 5499 3b68 E8       		.byte	0xe8
 5500 3b69 B4360000 		.long	0x36b4
 5501 3b6d 7C3B0000 		.long	0x3b7c
 5502 3b71 13       		.uleb128 0x13
 5503 3b72 B4360000 		.long	0x36b4
 5504 3b76 13       		.uleb128 0x13
 5505 3b77 F4360000 		.long	0x36f4
 5506 3b7b 00       		.byte	0
 5507 3b7c 46       		.uleb128 0x46
 5508 3b7d 77637374 		.ascii "wcstol\0"
 5508      6F6C00
 5509 3b84 06       		.byte	0x6
 5510 3b85 A4       		.byte	0xa4
 5511 3b86 D2020000 		.long	0x2d2
 5512 3b8a 9E3B0000 		.long	0x3b9e
 5513 3b8e 13       		.uleb128 0x13
 5514 3b8f F4360000 		.long	0x36f4
 5515 3b93 13       		.uleb128 0x13
 5516 3b94 333B0000 		.long	0x3b33
 5517 3b98 13       		.uleb128 0x13
 5518 3b99 CB020000 		.long	0x2cb
 5519 3b9d 00       		.byte	0
 5520 3b9e 46       		.uleb128 0x46
 5521 3b9f 77637374 		.ascii "wcstoul\0"
 5521      6F756C00 
 5522 3ba7 06       		.byte	0x6
 5523 3ba8 A5       		.byte	0xa5
 5524 3ba9 41040000 		.long	0x441
 5525 3bad C13B0000 		.long	0x3bc1
 5526 3bb1 13       		.uleb128 0x13
 5527 3bb2 F4360000 		.long	0x36f4
 5528 3bb6 13       		.uleb128 0x13
 5529 3bb7 333B0000 		.long	0x3b33
 5530 3bbb 13       		.uleb128 0x13
 5531 3bbc CB020000 		.long	0x2cb
 5532 3bc0 00       		.byte	0
 5533 3bc1 46       		.uleb128 0x46
 5534 3bc2 77637378 		.ascii "wcsxfrm\0"
 5534      66726D00 
 5535 3bca 06       		.byte	0x6
 5536 3bcb E9       		.byte	0xe9
 5537 3bcc 3C020000 		.long	0x23c
 5538 3bd0 E43B0000 		.long	0x3be4
 5539 3bd4 13       		.uleb128 0x13
 5540 3bd5 B4360000 		.long	0x36b4
 5541 3bd9 13       		.uleb128 0x13
 5542 3bda F4360000 		.long	0x36f4
 5543 3bde 13       		.uleb128 0x13
GAS LISTING C:\Users\NJLLMR~1\AppData\Local\Temp\ccWOhw13.s 			page 130


 5544 3bdf 3C020000 		.long	0x23c
 5545 3be3 00       		.byte	0
 5546 3be4 45       		.uleb128 0x45
 5547 3be5 7763746F 		.ascii "wctob\0"
 5547      6200
 5548 3beb 06       		.byte	0x6
 5549 3bec 3401     		.word	0x134
 5550 3bee CB020000 		.long	0x2cb
 5551 3bf2 FC3B0000 		.long	0x3bfc
 5552 3bf6 13       		.uleb128 0x13
 5553 3bf7 5A020000 		.long	0x25a
 5554 3bfb 00       		.byte	0
 5555 3bfc 45       		.uleb128 0x45
 5556 3bfd 776D656D 		.ascii "wmemcmp\0"
 5556      636D7000 
 5557 3c05 06       		.byte	0x6
 5558 3c06 4201     		.word	0x142
 5559 3c08 CB020000 		.long	0x2cb
 5560 3c0c 203C0000 		.long	0x3c20
 5561 3c10 13       		.uleb128 0x13
 5562 3c11 F4360000 		.long	0x36f4
 5563 3c15 13       		.uleb128 0x13
 5564 3c16 F4360000 		.long	0x36f4
 5565 3c1a 13       		.uleb128 0x13
 5566 3c1b 3C020000 		.long	0x23c
 5567 3c1f 00       		.byte	0
 5568 3c20 45       		.uleb128 0x45
 5569 3c21 776D656D 		.ascii "wmemcpy\0"
 5569      63707900 
 5570 3c29 06       		.byte	0x6
 5571 3c2a 4301     		.word	0x143
 5572 3c2c B4360000 		.long	0x36b4
 5573 3c30 443C0000 		.long	0x3c44
 5574 3c34 13       		.uleb128 0x13
 5575 3c35 B4360000 		.long	0x36b4
 5576 3c39 13       		.uleb128 0x13
 5577 3c3a F4360000 		.long	0x36f4
 5578 3c3e 13       		.uleb128 0x13
 5579 3c3f 3C020000 		.long	0x23c
 5580 3c43 00       		.byte	0
 5581 3c44 45       		.uleb128 0x45
 5582 3c45 776D656D 		.ascii "wmemmove\0"
 5582      6D6F7665 
 5582      00
 5583 3c4e 06       		.byte	0x6
 5584 3c4f 4601     		.word	0x146
 5585 3c51 B4360000 		.long	0x36b4
 5586 3c55 693C0000 		.long	0x3c69
 5587 3c59 13       		.uleb128 0x13
 5588 3c5a B4360000 		.long	0x36b4
 5589 3c5e 13       		.uleb128 0x13
 5590 3c5f F4360000 		.long	0x36f4
 5591 3c63 13       		.uleb128 0x13
 5592 3c64 3C020000 		.long	0x23c
 5593 3c68 00       		.byte	0
 5594 3c69 45       		.uleb128 0x45
 5595 3c6a 776D656D 		.ascii "wmemset\0"
GAS LISTING C:\Users\NJLLMR~1\AppData\Local\Temp\ccWOhw13.s 			page 131


 5595      73657400 
 5596 3c72 06       		.byte	0x6
 5597 3c73 4001     		.word	0x140
 5598 3c75 B4360000 		.long	0x36b4
 5599 3c79 8D3C0000 		.long	0x3c8d
 5600 3c7d 13       		.uleb128 0x13
 5601 3c7e B4360000 		.long	0x36b4
 5602 3c82 13       		.uleb128 0x13
 5603 3c83 AF020000 		.long	0x2af
 5604 3c87 13       		.uleb128 0x13
 5605 3c88 3C020000 		.long	0x23c
 5606 3c8c 00       		.byte	0
 5607 3c8d 46       		.uleb128 0x46
 5608 3c8e 77707269 		.ascii "wprintf\0"
 5608      6E746600 
 5609 3c96 06       		.byte	0x6
 5610 3c97 68       		.byte	0x68
 5611 3c98 CB020000 		.long	0x2cb
 5612 3c9c A73C0000 		.long	0x3ca7
 5613 3ca0 13       		.uleb128 0x13
 5614 3ca1 F4360000 		.long	0x36f4
 5615 3ca5 47       		.uleb128 0x47
 5616 3ca6 00       		.byte	0
 5617 3ca7 46       		.uleb128 0x46
 5618 3ca8 77736361 		.ascii "wscanf\0"
 5618      6E6600
 5619 3caf 06       		.byte	0x6
 5620 3cb0 6E       		.byte	0x6e
 5621 3cb1 CB020000 		.long	0x2cb
 5622 3cb5 C03C0000 		.long	0x3cc0
 5623 3cb9 13       		.uleb128 0x13
 5624 3cba F4360000 		.long	0x36f4
 5625 3cbe 47       		.uleb128 0x47
 5626 3cbf 00       		.byte	0
 5627 3cc0 46       		.uleb128 0x46
 5628 3cc1 77637363 		.ascii "wcschr\0"
 5628      687200
 5629 3cc8 06       		.byte	0x6
 5630 3cc9 DA       		.byte	0xda
 5631 3cca B4360000 		.long	0x36b4
 5632 3cce DD3C0000 		.long	0x3cdd
 5633 3cd2 13       		.uleb128 0x13
 5634 3cd3 F4360000 		.long	0x36f4
 5635 3cd7 13       		.uleb128 0x13
 5636 3cd8 AF020000 		.long	0x2af
 5637 3cdc 00       		.byte	0
 5638 3cdd 46       		.uleb128 0x46
 5639 3cde 77637370 		.ascii "wcspbrk\0"
 5639      62726B00 
 5640 3ce6 06       		.byte	0x6
 5641 3ce7 E4       		.byte	0xe4
 5642 3ce8 B4360000 		.long	0x36b4
 5643 3cec FB3C0000 		.long	0x3cfb
 5644 3cf0 13       		.uleb128 0x13
 5645 3cf1 F4360000 		.long	0x36f4
 5646 3cf5 13       		.uleb128 0x13
 5647 3cf6 F4360000 		.long	0x36f4
GAS LISTING C:\Users\NJLLMR~1\AppData\Local\Temp\ccWOhw13.s 			page 132


 5648 3cfa 00       		.byte	0
 5649 3cfb 46       		.uleb128 0x46
 5650 3cfc 77637372 		.ascii "wcsrchr\0"
 5650      63687200 
 5651 3d04 06       		.byte	0x6
 5652 3d05 E5       		.byte	0xe5
 5653 3d06 B4360000 		.long	0x36b4
 5654 3d0a 193D0000 		.long	0x3d19
 5655 3d0e 13       		.uleb128 0x13
 5656 3d0f F4360000 		.long	0x36f4
 5657 3d13 13       		.uleb128 0x13
 5658 3d14 AF020000 		.long	0x2af
 5659 3d18 00       		.byte	0
 5660 3d19 46       		.uleb128 0x46
 5661 3d1a 77637373 		.ascii "wcsstr\0"
 5661      747200
 5662 3d21 06       		.byte	0x6
 5663 3d22 E7       		.byte	0xe7
 5664 3d23 B4360000 		.long	0x36b4
 5665 3d27 363D0000 		.long	0x3d36
 5666 3d2b 13       		.uleb128 0x13
 5667 3d2c F4360000 		.long	0x36f4
 5668 3d30 13       		.uleb128 0x13
 5669 3d31 F4360000 		.long	0x36f4
 5670 3d35 00       		.byte	0
 5671 3d36 45       		.uleb128 0x45
 5672 3d37 776D656D 		.ascii "wmemchr\0"
 5672      63687200 
 5673 3d3f 06       		.byte	0x6
 5674 3d40 4101     		.word	0x141
 5675 3d42 B4360000 		.long	0x36b4
 5676 3d46 5A3D0000 		.long	0x3d5a
 5677 3d4a 13       		.uleb128 0x13
 5678 3d4b F4360000 		.long	0x36f4
 5679 3d4f 13       		.uleb128 0x13
 5680 3d50 AF020000 		.long	0x2af
 5681 3d54 13       		.uleb128 0x13
 5682 3d55 3C020000 		.long	0x23c
 5683 3d59 00       		.byte	0
 5684 3d5a 0E       		.uleb128 0xe
 5685 3d5b 5F5F676E 		.ascii "__gnu_cxx\0"
 5685      755F6378 
 5685      7800
 5686 3d65 07       		.byte	0x7
 5687 3d66 F2       		.byte	0xf2
 5688 3d67 E6420000 		.long	0x42e6
 5689 3d6b 0F       		.uleb128 0xf
 5690 3d6c 07       		.byte	0x7
 5691 3d6d F8       		.byte	0xf8
 5692 3d6e E6420000 		.long	0x42e6
 5693 3d72 10       		.uleb128 0x10
 5694 3d73 07       		.byte	0x7
 5695 3d74 0101     		.word	0x101
 5696 3d76 13430000 		.long	0x4313
 5697 3d7a 10       		.uleb128 0x10
 5698 3d7b 07       		.byte	0x7
 5699 3d7c 0201     		.word	0x102
GAS LISTING C:\Users\NJLLMR~1\AppData\Local\Temp\ccWOhw13.s 			page 133


 5700 3d7e 37430000 		.long	0x4337
 5701 3d82 11       		.uleb128 0x11
 5702 3d83 5F5F6F70 		.ascii "__ops\0"
 5702      7300
 5703 3d89 15       		.byte	0x15
 5704 3d8a 24       		.byte	0x24
 5705 3d8b 0F       		.uleb128 0xf
 5706 3d8c 16       		.byte	0x16
 5707 3d8d 2C       		.byte	0x2c
 5708 3d8e 090A0000 		.long	0xa09
 5709 3d92 0F       		.uleb128 0xf
 5710 3d93 16       		.byte	0x16
 5711 3d94 2D       		.byte	0x2d
 5712 3d95 2C0A0000 		.long	0xa2c
 5713 3d99 02       		.uleb128 0x2
 5714 3d9a 6E65775F 		.ascii "new_allocator<char>\0"
 5714      616C6C6F 
 5714      6361746F 
 5714      723C6368 
 5714      61723E00 
 5715 3dae 01       		.byte	0x1
 5716 3daf 16       		.byte	0x16
 5717 3db0 3A       		.byte	0x3a
 5718 3db1 93400000 		.long	0x4093
 5719 3db5 1B       		.uleb128 0x1b
 5720 3db6 07010000 		.secrel32	LASF2
 5721 3dba 16       		.byte	0x16
 5722 3dbb 3D       		.byte	0x3d
 5723 3dbc 090A0000 		.long	0xa09
 5724 3dc0 01       		.byte	0x1
 5725 3dc1 23       		.uleb128 0x23
 5726 3dc2 706F696E 		.ascii "pointer\0"
 5726      74657200 
 5727 3dca 16       		.byte	0x16
 5728 3dcb 3F       		.byte	0x3f
 5729 3dcc 83030000 		.long	0x383
 5730 3dd0 01       		.byte	0x1
 5731 3dd1 23       		.uleb128 0x23
 5732 3dd2 636F6E73 		.ascii "const_pointer\0"
 5732      745F706F 
 5732      696E7465 
 5732      7200
 5733 3de0 16       		.byte	0x16
 5734 3de1 40       		.byte	0x40
 5735 3de2 A5370000 		.long	0x37a5
 5736 3de6 01       		.byte	0x1
 5737 3de7 1B       		.uleb128 0x1b
 5738 3de8 17000000 		.secrel32	LASF3
 5739 3dec 16       		.byte	0x16
 5740 3ded 41       		.byte	0x41
 5741 3dee 91450000 		.long	0x4591
 5742 3df2 01       		.byte	0x1
 5743 3df3 1B       		.uleb128 0x1b
 5744 3df4 AD000000 		.secrel32	LASF4
 5745 3df8 16       		.byte	0x16
 5746 3df9 42       		.byte	0x42
 5747 3dfa 97450000 		.long	0x4597
GAS LISTING C:\Users\NJLLMR~1\AppData\Local\Temp\ccWOhw13.s 			page 134


 5748 3dfe 01       		.byte	0x1
 5749 3dff 1C       		.uleb128 0x1c
 5750 3e00 4B000000 		.secrel32	LASF24
 5751 3e04 16       		.byte	0x16
 5752 3e05 4F       		.byte	0x4f
 5753 3e06 01       		.byte	0x1
 5754 3e07 0F3E0000 		.long	0x3e0f
 5755 3e0b 153E0000 		.long	0x3e15
 5756 3e0f 04       		.uleb128 0x4
 5757 3e10 9D450000 		.long	0x459d
 5758 3e14 00       		.byte	0
 5759 3e15 1C       		.uleb128 0x1c
 5760 3e16 4B000000 		.secrel32	LASF24
 5761 3e1a 16       		.byte	0x16
 5762 3e1b 51       		.byte	0x51
 5763 3e1c 01       		.byte	0x1
 5764 3e1d 253E0000 		.long	0x3e25
 5765 3e21 303E0000 		.long	0x3e30
 5766 3e25 04       		.uleb128 0x4
 5767 3e26 9D450000 		.long	0x459d
 5768 3e2a 13       		.uleb128 0x13
 5769 3e2b A3450000 		.long	0x45a3
 5770 3e2f 00       		.byte	0
 5771 3e30 03       		.uleb128 0x3
 5772 3e31 7E6E6577 		.ascii "~new_allocator\0"
 5772      5F616C6C 
 5772      6F636174 
 5772      6F7200
 5773 3e40 16       		.byte	0x16
 5774 3e41 56       		.byte	0x56
 5775 3e42 01       		.byte	0x1
 5776 3e43 4B3E0000 		.long	0x3e4b
 5777 3e47 563E0000 		.long	0x3e56
 5778 3e4b 04       		.uleb128 0x4
 5779 3e4c 9D450000 		.long	0x459d
 5780 3e50 04       		.uleb128 0x4
 5781 3e51 CB020000 		.long	0x2cb
 5782 3e55 00       		.byte	0
 5783 3e56 49       		.uleb128 0x49
 5784 3e57 61646472 		.ascii "address\0"
 5784      65737300 
 5785 3e5f 16       		.byte	0x16
 5786 3e60 59       		.byte	0x59
 5787 3e61 5F5A4E4B 		.ascii "_ZNK9__gnu_cxx13new_allocatorIcE7addressERc\0"
 5787      395F5F67 
 5787      6E755F63 
 5787      78783133 
 5787      6E65775F 
 5788 3e8d C13D0000 		.long	0x3dc1
 5789 3e91 01       		.byte	0x1
 5790 3e92 9A3E0000 		.long	0x3e9a
 5791 3e96 A53E0000 		.long	0x3ea5
 5792 3e9a 04       		.uleb128 0x4
 5793 3e9b A9450000 		.long	0x45a9
 5794 3e9f 13       		.uleb128 0x13
 5795 3ea0 E73D0000 		.long	0x3de7
 5796 3ea4 00       		.byte	0
GAS LISTING C:\Users\NJLLMR~1\AppData\Local\Temp\ccWOhw13.s 			page 135


 5797 3ea5 49       		.uleb128 0x49
 5798 3ea6 61646472 		.ascii "address\0"
 5798      65737300 
 5799 3eae 16       		.byte	0x16
 5800 3eaf 5D       		.byte	0x5d
 5801 3eb0 5F5A4E4B 		.ascii "_ZNK9__gnu_cxx13new_allocatorIcE7addressERKc\0"
 5801      395F5F67 
 5801      6E755F63 
 5801      78783133 
 5801      6E65775F 
 5802 3edd D13D0000 		.long	0x3dd1
 5803 3ee1 01       		.byte	0x1
 5804 3ee2 EA3E0000 		.long	0x3eea
 5805 3ee6 F53E0000 		.long	0x3ef5
 5806 3eea 04       		.uleb128 0x4
 5807 3eeb A9450000 		.long	0x45a9
 5808 3eef 13       		.uleb128 0x13
 5809 3ef0 F33D0000 		.long	0x3df3
 5810 3ef4 00       		.byte	0
 5811 3ef5 49       		.uleb128 0x49
 5812 3ef6 616C6C6F 		.ascii "allocate\0"
 5812      63617465 
 5812      00
 5813 3eff 16       		.byte	0x16
 5814 3f00 63       		.byte	0x63
 5815 3f01 5F5A4E39 		.ascii "_ZN9__gnu_cxx13new_allocatorIcE8allocateEjPKv\0"
 5815      5F5F676E 
 5815      755F6378 
 5815      7831336E 
 5815      65775F61 
 5816 3f2f C13D0000 		.long	0x3dc1
 5817 3f33 01       		.byte	0x1
 5818 3f34 3C3F0000 		.long	0x3f3c
 5819 3f38 4C3F0000 		.long	0x3f4c
 5820 3f3c 04       		.uleb128 0x4
 5821 3f3d 9D450000 		.long	0x459d
 5822 3f41 13       		.uleb128 0x13
 5823 3f42 B53D0000 		.long	0x3db5
 5824 3f46 13       		.uleb128 0x13
 5825 3f47 8A450000 		.long	0x458a
 5826 3f4b 00       		.byte	0
 5827 3f4c 05       		.uleb128 0x5
 5828 3f4d 6465616C 		.ascii "deallocate\0"
 5828      6C6F6361 
 5828      746500
 5829 3f58 16       		.byte	0x16
 5830 3f59 6D       		.byte	0x6d
 5831 3f5a 5F5A4E39 		.ascii "_ZN9__gnu_cxx13new_allocatorIcE10deallocateEPcj\0"
 5831      5F5F676E 
 5831      755F6378 
 5831      7831336E 
 5831      65775F61 
 5832 3f8a 01       		.byte	0x1
 5833 3f8b 933F0000 		.long	0x3f93
 5834 3f8f A33F0000 		.long	0x3fa3
 5835 3f93 04       		.uleb128 0x4
 5836 3f94 9D450000 		.long	0x459d
GAS LISTING C:\Users\NJLLMR~1\AppData\Local\Temp\ccWOhw13.s 			page 136


 5837 3f98 13       		.uleb128 0x13
 5838 3f99 C13D0000 		.long	0x3dc1
 5839 3f9d 13       		.uleb128 0x13
 5840 3f9e B53D0000 		.long	0x3db5
 5841 3fa2 00       		.byte	0
 5842 3fa3 34       		.uleb128 0x34
 5843 3fa4 C6000000 		.secrel32	LASF11
 5844 3fa8 16       		.byte	0x16
 5845 3fa9 71       		.byte	0x71
 5846 3faa 5F5A4E4B 		.ascii "_ZNK9__gnu_cxx13new_allocatorIcE8max_sizeEv\0"
 5846      395F5F67 
 5846      6E755F63 
 5846      78783133 
 5846      6E65775F 
 5847 3fd6 B53D0000 		.long	0x3db5
 5848 3fda 01       		.byte	0x1
 5849 3fdb E33F0000 		.long	0x3fe3
 5850 3fdf E93F0000 		.long	0x3fe9
 5851 3fe3 04       		.uleb128 0x4
 5852 3fe4 A9450000 		.long	0x45a9
 5853 3fe8 00       		.byte	0
 5854 3fe9 05       		.uleb128 0x5
 5855 3fea 636F6E73 		.ascii "construct\0"
 5855      74727563 
 5855      7400
 5856 3ff4 16       		.byte	0x16
 5857 3ff5 81       		.byte	0x81
 5858 3ff6 5F5A4E39 		.ascii "_ZN9__gnu_cxx13new_allocatorIcE9constructEPcRKc\0"
 5858      5F5F676E 
 5858      755F6378 
 5858      7831336E 
 5858      65775F61 
 5859 4026 01       		.byte	0x1
 5860 4027 2F400000 		.long	0x402f
 5861 402b 3F400000 		.long	0x403f
 5862 402f 04       		.uleb128 0x4
 5863 4030 9D450000 		.long	0x459d
 5864 4034 13       		.uleb128 0x13
 5865 4035 C13D0000 		.long	0x3dc1
 5866 4039 13       		.uleb128 0x13
 5867 403a 97450000 		.long	0x4597
 5868 403e 00       		.byte	0
 5869 403f 05       		.uleb128 0x5
 5870 4040 64657374 		.ascii "destroy\0"
 5870      726F7900 
 5871 4048 16       		.byte	0x16
 5872 4049 85       		.byte	0x85
 5873 404a 5F5A4E39 		.ascii "_ZN9__gnu_cxx13new_allocatorIcE7destroyEPc\0"
 5873      5F5F676E 
 5873      755F6378 
 5873      7831336E 
 5873      65775F61 
 5874 4075 01       		.byte	0x1
 5875 4076 7E400000 		.long	0x407e
 5876 407a 89400000 		.long	0x4089
 5877 407e 04       		.uleb128 0x4
 5878 407f 9D450000 		.long	0x459d
GAS LISTING C:\Users\NJLLMR~1\AppData\Local\Temp\ccWOhw13.s 			page 137


 5879 4083 13       		.uleb128 0x13
 5880 4084 C13D0000 		.long	0x3dc1
 5881 4088 00       		.byte	0
 5882 4089 4A       		.uleb128 0x4a
 5883 408a 5F547000 		.ascii "_Tp\0"
 5884 408e 97020000 		.long	0x297
 5885 4092 00       		.byte	0
 5886 4093 14       		.uleb128 0x14
 5887 4094 993D0000 		.long	0x3d99
 5888 4098 0C       		.uleb128 0xc
 5889 4099 5F5F6E75 		.ascii "__numeric_traits_integer<int>\0"
 5889      6D657269 
 5889      635F7472 
 5889      61697473 
 5889      5F696E74 
 5890 40b7 01       		.byte	0x1
 5891 40b8 17       		.byte	0x17
 5892 40b9 37       		.byte	0x37
 5893 40ba F4400000 		.long	0x40f4
 5894 40be 4B       		.uleb128 0x4b
 5895 40bf 78000000 		.secrel32	LASF25
 5896 40c3 17       		.byte	0x17
 5897 40c4 3A       		.byte	0x3a
 5898 40c5 BB450000 		.long	0x45bb
 5899 40c9 4B       		.uleb128 0x4b
 5900 40ca 21000000 		.secrel32	LASF26
 5901 40ce 17       		.byte	0x17
 5902 40cf 3B       		.byte	0x3b
 5903 40d0 BB450000 		.long	0x45bb
 5904 40d4 4B       		.uleb128 0x4b
 5905 40d5 27000000 		.secrel32	LASF27
 5906 40d9 17       		.byte	0x17
 5907 40da 3F       		.byte	0x3f
 5908 40db C0450000 		.long	0x45c0
 5909 40df 4B       		.uleb128 0x4b
 5910 40e0 BD000000 		.secrel32	LASF28
 5911 40e4 17       		.byte	0x17
 5912 40e5 40       		.byte	0x40
 5913 40e6 BB450000 		.long	0x45bb
 5914 40ea 36       		.uleb128 0x36
 5915 40eb F3000000 		.secrel32	LASF29
 5916 40ef CB020000 		.long	0x2cb
 5917 40f3 00       		.byte	0
 5918 40f4 39       		.uleb128 0x39
 5919 40f5 5F5F6E6F 		.ascii "__normal_iterator<char*, std::basic_string<char, std::char_traits<char>, std::allocator<ch
 5919      726D616C 
 5919      5F697465 
 5919      7261746F 
 5919      723C6368 
 5920 4157 39       		.uleb128 0x39
 5921 4158 5F5F6E6F 		.ascii "__normal_iterator<char const*, std::basic_string<char, std::char_traits<char>, std::alloca
 5921      726D616C 
 5921      5F697465 
 5921      7261746F 
 5921      723C6368 
 5922 41c0 0C       		.uleb128 0xc
 5923 41c1 5F5F6E75 		.ascii "__numeric_traits_integer<long unsigned int>\0"
GAS LISTING C:\Users\NJLLMR~1\AppData\Local\Temp\ccWOhw13.s 			page 138


 5923      6D657269 
 5923      635F7472 
 5923      61697473 
 5923      5F696E74 
 5924 41ed 01       		.byte	0x1
 5925 41ee 17       		.byte	0x17
 5926 41ef 37       		.byte	0x37
 5927 41f0 2A420000 		.long	0x422a
 5928 41f4 4B       		.uleb128 0x4b
 5929 41f5 78000000 		.secrel32	LASF25
 5930 41f9 17       		.byte	0x17
 5931 41fa 3A       		.byte	0x3a
 5932 41fb 00460000 		.long	0x4600
 5933 41ff 4B       		.uleb128 0x4b
 5934 4200 21000000 		.secrel32	LASF26
 5935 4204 17       		.byte	0x17
 5936 4205 3B       		.byte	0x3b
 5937 4206 00460000 		.long	0x4600
 5938 420a 4B       		.uleb128 0x4b
 5939 420b 27000000 		.secrel32	LASF27
 5940 420f 17       		.byte	0x17
 5941 4210 3F       		.byte	0x3f
 5942 4211 C0450000 		.long	0x45c0
 5943 4215 4B       		.uleb128 0x4b
 5944 4216 BD000000 		.secrel32	LASF28
 5945 421a 17       		.byte	0x17
 5946 421b 40       		.byte	0x40
 5947 421c BB450000 		.long	0x45bb
 5948 4220 36       		.uleb128 0x36
 5949 4221 F3000000 		.secrel32	LASF29
 5950 4225 41040000 		.long	0x441
 5951 4229 00       		.byte	0
 5952 422a 0C       		.uleb128 0xc
 5953 422b 5F5F6E75 		.ascii "__numeric_traits_integer<char>\0"
 5953      6D657269 
 5953      635F7472 
 5953      61697473 
 5953      5F696E74 
 5954 424a 01       		.byte	0x1
 5955 424b 17       		.byte	0x17
 5956 424c 37       		.byte	0x37
 5957 424d 87420000 		.long	0x4287
 5958 4251 4B       		.uleb128 0x4b
 5959 4252 78000000 		.secrel32	LASF25
 5960 4256 17       		.byte	0x17
 5961 4257 3A       		.byte	0x3a
 5962 4258 AB370000 		.long	0x37ab
 5963 425c 4B       		.uleb128 0x4b
 5964 425d 21000000 		.secrel32	LASF26
 5965 4261 17       		.byte	0x17
 5966 4262 3B       		.byte	0x3b
 5967 4263 AB370000 		.long	0x37ab
 5968 4267 4B       		.uleb128 0x4b
 5969 4268 27000000 		.secrel32	LASF27
 5970 426c 17       		.byte	0x17
 5971 426d 3F       		.byte	0x3f
 5972 426e C0450000 		.long	0x45c0
GAS LISTING C:\Users\NJLLMR~1\AppData\Local\Temp\ccWOhw13.s 			page 139


 5973 4272 4B       		.uleb128 0x4b
 5974 4273 BD000000 		.secrel32	LASF28
 5975 4277 17       		.byte	0x17
 5976 4278 40       		.byte	0x40
 5977 4279 BB450000 		.long	0x45bb
 5978 427d 36       		.uleb128 0x36
 5979 427e F3000000 		.secrel32	LASF29
 5980 4282 97020000 		.long	0x297
 5981 4286 00       		.byte	0
 5982 4287 4C       		.uleb128 0x4c
 5983 4288 5F5F6E75 		.ascii "__numeric_traits_integer<short int>\0"
 5983      6D657269 
 5983      635F7472 
 5983      61697473 
 5983      5F696E74 
 5984 42ac 01       		.byte	0x1
 5985 42ad 17       		.byte	0x17
 5986 42ae 37       		.byte	0x37
 5987 42af 4B       		.uleb128 0x4b
 5988 42b0 78000000 		.secrel32	LASF25
 5989 42b4 17       		.byte	0x17
 5990 42b5 3A       		.byte	0x3a
 5991 42b6 7B460000 		.long	0x467b
 5992 42ba 4B       		.uleb128 0x4b
 5993 42bb 21000000 		.secrel32	LASF26
 5994 42bf 17       		.byte	0x17
 5995 42c0 3B       		.byte	0x3b
 5996 42c1 7B460000 		.long	0x467b
 5997 42c5 4B       		.uleb128 0x4b
 5998 42c6 27000000 		.secrel32	LASF27
 5999 42ca 17       		.byte	0x17
 6000 42cb 3F       		.byte	0x3f
 6001 42cc C0450000 		.long	0x45c0
 6002 42d0 4B       		.uleb128 0x4b
 6003 42d1 BD000000 		.secrel32	LASF28
 6004 42d5 17       		.byte	0x17
 6005 42d6 40       		.byte	0x40
 6006 42d7 BB450000 		.long	0x45bb
 6007 42db 36       		.uleb128 0x36
 6008 42dc F3000000 		.secrel32	LASF29
 6009 42e0 EF020000 		.long	0x2ef
 6010 42e4 00       		.byte	0
 6011 42e5 00       		.byte	0
 6012 42e6 46       		.uleb128 0x46
 6013 42e7 77637374 		.ascii "wcstold\0"
 6013      6F6C6400 
 6014 42ef 06       		.byte	0x6
 6015 42f0 A9       		.byte	0xa9
 6016 42f1 04430000 		.long	0x4304
 6017 42f5 04430000 		.long	0x4304
 6018 42f9 13       		.uleb128 0x13
 6019 42fa F4360000 		.long	0x36f4
 6020 42fe 13       		.uleb128 0x13
 6021 42ff 333B0000 		.long	0x3b33
 6022 4303 00       		.byte	0
 6023 4304 09       		.uleb128 0x9
 6024 4305 0C       		.byte	0xc
GAS LISTING C:\Users\NJLLMR~1\AppData\Local\Temp\ccWOhw13.s 			page 140


 6025 4306 04       		.byte	0x4
 6026 4307 6C6F6E67 		.ascii "long double\0"
 6026      20646F75 
 6026      626C6500 
 6027 4313 45       		.uleb128 0x45
 6028 4314 77637374 		.ascii "wcstoll\0"
 6028      6F6C6C00 
 6029 431c 06       		.byte	0x6
 6030 431d 4701     		.word	0x147
 6031 431f DE020000 		.long	0x2de
 6032 4323 37430000 		.long	0x4337
 6033 4327 13       		.uleb128 0x13
 6034 4328 F4360000 		.long	0x36f4
 6035 432c 13       		.uleb128 0x13
 6036 432d 333B0000 		.long	0x3b33
 6037 4331 13       		.uleb128 0x13
 6038 4332 CB020000 		.long	0x2cb
 6039 4336 00       		.byte	0
 6040 4337 45       		.uleb128 0x45
 6041 4338 77637374 		.ascii "wcstoull\0"
 6041      6F756C6C 
 6041      00
 6042 4341 06       		.byte	0x6
 6043 4342 4901     		.word	0x149
 6044 4344 82040000 		.long	0x482
 6045 4348 5C430000 		.long	0x435c
 6046 434c 13       		.uleb128 0x13
 6047 434d F4360000 		.long	0x36f4
 6048 4351 13       		.uleb128 0x13
 6049 4352 333B0000 		.long	0x3b33
 6050 4356 13       		.uleb128 0x13
 6051 4357 CB020000 		.long	0x2cb
 6052 435b 00       		.byte	0
 6053 435c 0E       		.uleb128 0xe
 6054 435d 5F5F676E 		.ascii "__gnu_debug\0"
 6054      755F6465 
 6054      62756700 
 6055 4369 14       		.byte	0x14
 6056 436a 37       		.byte	0x37
 6057 436b 77430000 		.long	0x4377
 6058 436f 4D       		.uleb128 0x4d
 6059 4370 14       		.byte	0x14
 6060 4371 38       		.byte	0x38
 6061 4372 47060000 		.long	0x647
 6062 4376 00       		.byte	0
 6063 4377 4E       		.uleb128 0x4e
 6064 4378 04       		.byte	0x4
 6065 4379 6C060000 		.long	0x66c
 6066 437d 4E       		.uleb128 0x4e
 6067 437e 04       		.byte	0x4
 6068 437f C6060000 		.long	0x6c6
 6069 4383 09       		.uleb128 0x9
 6070 4384 01       		.byte	0x1
 6071 4385 02       		.byte	0x2
 6072 4386 626F6F6C 		.ascii "bool\0"
 6072      00
 6073 438b 07       		.uleb128 0x7
GAS LISTING C:\Users\NJLLMR~1\AppData\Local\Temp\ccWOhw13.s 			page 141


 6074 438c 04       		.byte	0x4
 6075 438d C6060000 		.long	0x6c6
 6076 4391 07       		.uleb128 0x7
 6077 4392 04       		.byte	0x4
 6078 4393 6C060000 		.long	0x66c
 6079 4397 4E       		.uleb128 0x4e
 6080 4398 04       		.byte	0x4
 6081 4399 11090000 		.long	0x911
 6082 439d 0C       		.uleb128 0xc
 6083 439e 6C636F6E 		.ascii "lconv\0"
 6083      7600
 6084 43a4 30       		.byte	0x30
 6085 43a5 18       		.byte	0x18
 6086 43a6 2D       		.byte	0x2d
 6087 43a7 3C450000 		.long	0x453c
 6088 43ab 0D       		.uleb128 0xd
 6089 43ac 64656369 		.ascii "decimal_point\0"
 6089      6D616C5F 
 6089      706F696E 
 6089      7400
 6090 43ba 18       		.byte	0x18
 6091 43bb 2F       		.byte	0x2f
 6092 43bc 83030000 		.long	0x383
 6093 43c0 00       		.byte	0
 6094 43c1 0D       		.uleb128 0xd
 6095 43c2 74686F75 		.ascii "thousands_sep\0"
 6095      73616E64 
 6095      735F7365 
 6095      7000
 6096 43d0 18       		.byte	0x18
 6097 43d1 30       		.byte	0x30
 6098 43d2 83030000 		.long	0x383
 6099 43d6 04       		.byte	0x4
 6100 43d7 0D       		.uleb128 0xd
 6101 43d8 67726F75 		.ascii "grouping\0"
 6101      70696E67 
 6101      00
 6102 43e1 18       		.byte	0x18
 6103 43e2 31       		.byte	0x31
 6104 43e3 83030000 		.long	0x383
 6105 43e7 08       		.byte	0x8
 6106 43e8 0D       		.uleb128 0xd
 6107 43e9 696E745F 		.ascii "int_curr_symbol\0"
 6107      63757272 
 6107      5F73796D 
 6107      626F6C00 
 6108 43f9 18       		.byte	0x18
 6109 43fa 32       		.byte	0x32
 6110 43fb 83030000 		.long	0x383
 6111 43ff 0C       		.byte	0xc
 6112 4400 0D       		.uleb128 0xd
 6113 4401 63757272 		.ascii "currency_symbol\0"
 6113      656E6379 
 6113      5F73796D 
 6113      626F6C00 
 6114 4411 18       		.byte	0x18
 6115 4412 33       		.byte	0x33
GAS LISTING C:\Users\NJLLMR~1\AppData\Local\Temp\ccWOhw13.s 			page 142


 6116 4413 83030000 		.long	0x383
 6117 4417 10       		.byte	0x10
 6118 4418 0D       		.uleb128 0xd
 6119 4419 6D6F6E5F 		.ascii "mon_decimal_point\0"
 6119      64656369 
 6119      6D616C5F 
 6119      706F696E 
 6119      7400
 6120 442b 18       		.byte	0x18
 6121 442c 34       		.byte	0x34
 6122 442d 83030000 		.long	0x383
 6123 4431 14       		.byte	0x14
 6124 4432 0D       		.uleb128 0xd
 6125 4433 6D6F6E5F 		.ascii "mon_thousands_sep\0"
 6125      74686F75 
 6125      73616E64 
 6125      735F7365 
 6125      7000
 6126 4445 18       		.byte	0x18
 6127 4446 35       		.byte	0x35
 6128 4447 83030000 		.long	0x383
 6129 444b 18       		.byte	0x18
 6130 444c 0D       		.uleb128 0xd
 6131 444d 6D6F6E5F 		.ascii "mon_grouping\0"
 6131      67726F75 
 6131      70696E67 
 6131      00
 6132 445a 18       		.byte	0x18
 6133 445b 36       		.byte	0x36
 6134 445c 83030000 		.long	0x383
 6135 4460 1C       		.byte	0x1c
 6136 4461 0D       		.uleb128 0xd
 6137 4462 706F7369 		.ascii "positive_sign\0"
 6137      74697665 
 6137      5F736967 
 6137      6E00
 6138 4470 18       		.byte	0x18
 6139 4471 37       		.byte	0x37
 6140 4472 83030000 		.long	0x383
 6141 4476 20       		.byte	0x20
 6142 4477 0D       		.uleb128 0xd
 6143 4478 6E656761 		.ascii "negative_sign\0"
 6143      74697665 
 6143      5F736967 
 6143      6E00
 6144 4486 18       		.byte	0x18
 6145 4487 38       		.byte	0x38
 6146 4488 83030000 		.long	0x383
 6147 448c 24       		.byte	0x24
 6148 448d 0D       		.uleb128 0xd
 6149 448e 696E745F 		.ascii "int_frac_digits\0"
 6149      66726163 
 6149      5F646967 
 6149      69747300 
 6150 449e 18       		.byte	0x18
 6151 449f 39       		.byte	0x39
 6152 44a0 97020000 		.long	0x297
GAS LISTING C:\Users\NJLLMR~1\AppData\Local\Temp\ccWOhw13.s 			page 143


 6153 44a4 28       		.byte	0x28
 6154 44a5 0D       		.uleb128 0xd
 6155 44a6 66726163 		.ascii "frac_digits\0"
 6155      5F646967 
 6155      69747300 
 6156 44b2 18       		.byte	0x18
 6157 44b3 3A       		.byte	0x3a
 6158 44b4 97020000 		.long	0x297
 6159 44b8 29       		.byte	0x29
 6160 44b9 0D       		.uleb128 0xd
 6161 44ba 705F6373 		.ascii "p_cs_precedes\0"
 6161      5F707265 
 6161      63656465 
 6161      7300
 6162 44c8 18       		.byte	0x18
 6163 44c9 3B       		.byte	0x3b
 6164 44ca 97020000 		.long	0x297
 6165 44ce 2A       		.byte	0x2a
 6166 44cf 0D       		.uleb128 0xd
 6167 44d0 705F7365 		.ascii "p_sep_by_space\0"
 6167      705F6279 
 6167      5F737061 
 6167      636500
 6168 44df 18       		.byte	0x18
 6169 44e0 3C       		.byte	0x3c
 6170 44e1 97020000 		.long	0x297
 6171 44e5 2B       		.byte	0x2b
 6172 44e6 0D       		.uleb128 0xd
 6173 44e7 6E5F6373 		.ascii "n_cs_precedes\0"
 6173      5F707265 
 6173      63656465 
 6173      7300
 6174 44f5 18       		.byte	0x18
 6175 44f6 3D       		.byte	0x3d
 6176 44f7 97020000 		.long	0x297
 6177 44fb 2C       		.byte	0x2c
 6178 44fc 0D       		.uleb128 0xd
 6179 44fd 6E5F7365 		.ascii "n_sep_by_space\0"
 6179      705F6279 
 6179      5F737061 
 6179      636500
 6180 450c 18       		.byte	0x18
 6181 450d 3E       		.byte	0x3e
 6182 450e 97020000 		.long	0x297
 6183 4512 2D       		.byte	0x2d
 6184 4513 0D       		.uleb128 0xd
 6185 4514 705F7369 		.ascii "p_sign_posn\0"
 6185      676E5F70 
 6185      6F736E00 
 6186 4520 18       		.byte	0x18
 6187 4521 3F       		.byte	0x3f
 6188 4522 97020000 		.long	0x297
 6189 4526 2E       		.byte	0x2e
 6190 4527 0D       		.uleb128 0xd
 6191 4528 6E5F7369 		.ascii "n_sign_posn\0"
 6191      676E5F70 
 6191      6F736E00 
GAS LISTING C:\Users\NJLLMR~1\AppData\Local\Temp\ccWOhw13.s 			page 144


 6192 4534 18       		.byte	0x18
 6193 4535 40       		.byte	0x40
 6194 4536 97020000 		.long	0x297
 6195 453a 2F       		.byte	0x2f
 6196 453b 00       		.byte	0
 6197 453c 46       		.uleb128 0x46
 6198 453d 7365746C 		.ascii "setlocale\0"
 6198      6F63616C 
 6198      6500
 6199 4547 18       		.byte	0x18
 6200 4548 47       		.byte	0x47
 6201 4549 83030000 		.long	0x383
 6202 454d 5C450000 		.long	0x455c
 6203 4551 13       		.uleb128 0x13
 6204 4552 CB020000 		.long	0x2cb
 6205 4556 13       		.uleb128 0x13
 6206 4557 A5370000 		.long	0x37a5
 6207 455b 00       		.byte	0
 6208 455c 48       		.uleb128 0x48
 6209 455d 6C6F6361 		.ascii "localeconv\0"
 6209      6C65636F 
 6209      6E7600
 6210 4568 18       		.byte	0x18
 6211 4569 48       		.byte	0x48
 6212 456a 6E450000 		.long	0x456e
 6213 456e 07       		.uleb128 0x7
 6214 456f 04       		.byte	0x4
 6215 4570 9D430000 		.long	0x439d
 6216 4574 4F       		.uleb128 0x4f
 6217 4575 04       		.byte	0x4
 6218 4576 08       		.uleb128 0x8
 6219 4577 5F41746F 		.ascii "_Atomic_word\0"
 6219      6D69635F 
 6219      776F7264 
 6219      00
 6220 4584 19       		.byte	0x19
 6221 4585 20       		.byte	0x20
 6222 4586 CB020000 		.long	0x2cb
 6223 458a 07       		.uleb128 0x7
 6224 458b 04       		.byte	0x4
 6225 458c 90450000 		.long	0x4590
 6226 4590 50       		.uleb128 0x50
 6227 4591 4E       		.uleb128 0x4e
 6228 4592 04       		.byte	0x4
 6229 4593 97020000 		.long	0x297
 6230 4597 4E       		.uleb128 0x4e
 6231 4598 04       		.byte	0x4
 6232 4599 AB370000 		.long	0x37ab
 6233 459d 07       		.uleb128 0x7
 6234 459e 04       		.byte	0x4
 6235 459f 993D0000 		.long	0x3d99
 6236 45a3 4E       		.uleb128 0x4e
 6237 45a4 04       		.byte	0x4
 6238 45a5 93400000 		.long	0x4093
 6239 45a9 07       		.uleb128 0x7
 6240 45aa 04       		.byte	0x4
 6241 45ab 93400000 		.long	0x4093
GAS LISTING C:\Users\NJLLMR~1\AppData\Local\Temp\ccWOhw13.s 			page 145


 6242 45af 07       		.uleb128 0x7
 6243 45b0 04       		.byte	0x4
 6244 45b1 3D0A0000 		.long	0xa3d
 6245 45b5 4E       		.uleb128 0x4e
 6246 45b6 04       		.byte	0x4
 6247 45b7 D00A0000 		.long	0xad0
 6248 45bb 14       		.uleb128 0x14
 6249 45bc CB020000 		.long	0x2cb
 6250 45c0 14       		.uleb128 0x14
 6251 45c1 83430000 		.long	0x4383
 6252 45c5 07       		.uleb128 0x7
 6253 45c6 04       		.byte	0x4
 6254 45c7 1F0B0000 		.long	0xb1f
 6255 45cb 07       		.uleb128 0x7
 6256 45cc 04       		.byte	0x4
 6257 45cd 402F0000 		.long	0x2f40
 6258 45d1 07       		.uleb128 0x7
 6259 45d2 04       		.byte	0x4
 6260 45d3 D50A0000 		.long	0xad5
 6261 45d7 07       		.uleb128 0x7
 6262 45d8 04       		.byte	0x4
 6263 45d9 6D0C0000 		.long	0xc6d
 6264 45dd 4E       		.uleb128 0x4e
 6265 45de 04       		.byte	0x4
 6266 45df 6D0C0000 		.long	0xc6d
 6267 45e3 4E       		.uleb128 0x4e
 6268 45e4 04       		.byte	0x4
 6269 45e5 402F0000 		.long	0x2f40
 6270 45e9 4E       		.uleb128 0x4e
 6271 45ea 04       		.byte	0x4
 6272 45eb D50A0000 		.long	0xad5
 6273 45ef 51       		.uleb128 0x51
 6274 45f0 4A020000 		.long	0x24a
 6275 45f4 FA450000 		.long	0x45fa
 6276 45f8 52       		.uleb128 0x52
 6277 45f9 00       		.byte	0
 6278 45fa 07       		.uleb128 0x7
 6279 45fb 04       		.byte	0x4
 6280 45fc 142E0000 		.long	0x2e14
 6281 4600 14       		.uleb128 0x14
 6282 4601 41040000 		.long	0x441
 6283 4605 07       		.uleb128 0x7
 6284 4606 04       		.byte	0x4
 6285 4607 95310000 		.long	0x3195
 6286 460b 46       		.uleb128 0x46
 6287 460c 69737763 		.ascii "iswctype\0"
 6287      74797065 
 6287      00
 6288 4615 1A       		.byte	0x1a
 6289 4616 C4       		.byte	0xc4
 6290 4617 CB020000 		.long	0x2cb
 6291 461b 2A460000 		.long	0x462a
 6292 461f 13       		.uleb128 0x13
 6293 4620 5A020000 		.long	0x25a
 6294 4624 13       		.uleb128 0x13
 6295 4625 9F020000 		.long	0x29f
 6296 4629 00       		.byte	0
GAS LISTING C:\Users\NJLLMR~1\AppData\Local\Temp\ccWOhw13.s 			page 146


 6297 462a 46       		.uleb128 0x46
 6298 462b 746F7763 		.ascii "towctrans\0"
 6298      7472616E 
 6298      7300
 6299 4635 05       		.byte	0x5
 6300 4636 9D       		.byte	0x9d
 6301 4637 5A020000 		.long	0x25a
 6302 463b 4A460000 		.long	0x464a
 6303 463f 13       		.uleb128 0x13
 6304 4640 5A020000 		.long	0x25a
 6305 4644 13       		.uleb128 0x13
 6306 4645 BA020000 		.long	0x2ba
 6307 4649 00       		.byte	0
 6308 464a 46       		.uleb128 0x46
 6309 464b 77637472 		.ascii "wctrans\0"
 6309      616E7300 
 6310 4653 05       		.byte	0x5
 6311 4654 9E       		.byte	0x9e
 6312 4655 BA020000 		.long	0x2ba
 6313 4659 63460000 		.long	0x4663
 6314 465d 13       		.uleb128 0x13
 6315 465e A5370000 		.long	0x37a5
 6316 4662 00       		.byte	0
 6317 4663 46       		.uleb128 0x46
 6318 4664 77637479 		.ascii "wctype\0"
 6318      706500
 6319 466b 05       		.byte	0x5
 6320 466c 9F       		.byte	0x9f
 6321 466d 9F020000 		.long	0x29f
 6322 4671 7B460000 		.long	0x467b
 6323 4675 13       		.uleb128 0x13
 6324 4676 A5370000 		.long	0x37a5
 6325 467a 00       		.byte	0
 6326 467b 14       		.uleb128 0x14
 6327 467c EF020000 		.long	0x2ef
 6328 4680 0A       		.uleb128 0xa
 6329 4681 66706F73 		.ascii "fpos_t\0"
 6329      5F7400
 6330 4688 1B       		.byte	0x1b
 6331 4689 C701     		.word	0x1c7
 6332 468b DE020000 		.long	0x2de
 6333 468f 4D       		.uleb128 0x4d
 6334 4690 1C       		.byte	0x1c
 6335 4691 08       		.byte	0x8
 6336 4692 9C040000 		.long	0x49c
 6337 4696 53       		.uleb128 0x53
 6338 4697 636C6561 		.ascii "clearerr\0"
 6338      72657272 
 6338      00
 6339 46a0 1B       		.byte	0x1b
 6340 46a1 E001     		.word	0x1e0
 6341 46a3 AD460000 		.long	0x46ad
 6342 46a7 13       		.uleb128 0x13
 6343 46a8 8C360000 		.long	0x368c
 6344 46ac 00       		.byte	0
 6345 46ad 46       		.uleb128 0x46
 6346 46ae 66636C6F 		.ascii "fclose\0"
GAS LISTING C:\Users\NJLLMR~1\AppData\Local\Temp\ccWOhw13.s 			page 147


 6346      736500
 6347 46b5 1B       		.byte	0x1b
 6348 46b6 AC       		.byte	0xac
 6349 46b7 CB020000 		.long	0x2cb
 6350 46bb C5460000 		.long	0x46c5
 6351 46bf 13       		.uleb128 0x13
 6352 46c0 8C360000 		.long	0x368c
 6353 46c4 00       		.byte	0
 6354 46c5 45       		.uleb128 0x45
 6355 46c6 66656F66 		.ascii "feof\0"
 6355      00
 6356 46cb 1B       		.byte	0x1b
 6357 46cc D701     		.word	0x1d7
 6358 46ce CB020000 		.long	0x2cb
 6359 46d2 DC460000 		.long	0x46dc
 6360 46d6 13       		.uleb128 0x13
 6361 46d7 8C360000 		.long	0x368c
 6362 46db 00       		.byte	0
 6363 46dc 45       		.uleb128 0x45
 6364 46dd 66657272 		.ascii "ferror\0"
 6364      6F7200
 6365 46e4 1B       		.byte	0x1b
 6366 46e5 D901     		.word	0x1d9
 6367 46e7 CB020000 		.long	0x2cb
 6368 46eb F5460000 		.long	0x46f5
 6369 46ef 13       		.uleb128 0x13
 6370 46f0 8C360000 		.long	0x368c
 6371 46f4 00       		.byte	0
 6372 46f5 46       		.uleb128 0x46
 6373 46f6 66666C75 		.ascii "fflush\0"
 6373      736800
 6374 46fd 1B       		.byte	0x1b
 6375 46fe AB       		.byte	0xab
 6376 46ff CB020000 		.long	0x2cb
 6377 4703 0D470000 		.long	0x470d
 6378 4707 13       		.uleb128 0x13
 6379 4708 8C360000 		.long	0x368c
 6380 470c 00       		.byte	0
 6381 470d 45       		.uleb128 0x45
 6382 470e 66676574 		.ascii "fgetc\0"
 6382      6300
 6383 4714 1B       		.byte	0x1b
 6384 4715 6101     		.word	0x161
 6385 4717 CB020000 		.long	0x2cb
 6386 471b 25470000 		.long	0x4725
 6387 471f 13       		.uleb128 0x13
 6388 4720 8C360000 		.long	0x368c
 6389 4724 00       		.byte	0
 6390 4725 45       		.uleb128 0x45
 6391 4726 66676574 		.ascii "fgetpos\0"
 6391      706F7300 
 6392 472e 1B       		.byte	0x1b
 6393 472f CC01     		.word	0x1cc
 6394 4731 CB020000 		.long	0x2cb
 6395 4735 44470000 		.long	0x4744
 6396 4739 13       		.uleb128 0x13
 6397 473a 8C360000 		.long	0x368c
GAS LISTING C:\Users\NJLLMR~1\AppData\Local\Temp\ccWOhw13.s 			page 148


 6398 473e 13       		.uleb128 0x13
 6399 473f 44470000 		.long	0x4744
 6400 4743 00       		.byte	0
 6401 4744 07       		.uleb128 0x7
 6402 4745 04       		.byte	0x4
 6403 4746 80460000 		.long	0x4680
 6404 474a 45       		.uleb128 0x45
 6405 474b 66676574 		.ascii "fgets\0"
 6405      7300
 6406 4751 1B       		.byte	0x1b
 6407 4752 6201     		.word	0x162
 6408 4754 83030000 		.long	0x383
 6409 4758 6C470000 		.long	0x476c
 6410 475c 13       		.uleb128 0x13
 6411 475d 83030000 		.long	0x383
 6412 4761 13       		.uleb128 0x13
 6413 4762 CB020000 		.long	0x2cb
 6414 4766 13       		.uleb128 0x13
 6415 4767 8C360000 		.long	0x368c
 6416 476b 00       		.byte	0
 6417 476c 46       		.uleb128 0x46
 6418 476d 666F7065 		.ascii "fopen\0"
 6418      6E00
 6419 4773 1B       		.byte	0x1b
 6420 4774 A9       		.byte	0xa9
 6421 4775 8C360000 		.long	0x368c
 6422 4779 88470000 		.long	0x4788
 6423 477d 13       		.uleb128 0x13
 6424 477e A5370000 		.long	0x37a5
 6425 4782 13       		.uleb128 0x13
 6426 4783 A5370000 		.long	0x37a5
 6427 4787 00       		.byte	0
 6428 4788 45       		.uleb128 0x45
 6429 4789 66726561 		.ascii "fread\0"
 6429      6400
 6430 478f 1B       		.byte	0x1b
 6431 4790 9C01     		.word	0x19c
 6432 4792 3C020000 		.long	0x23c
 6433 4796 AF470000 		.long	0x47af
 6434 479a 13       		.uleb128 0x13
 6435 479b 74450000 		.long	0x4574
 6436 479f 13       		.uleb128 0x13
 6437 47a0 3C020000 		.long	0x23c
 6438 47a4 13       		.uleb128 0x13
 6439 47a5 3C020000 		.long	0x23c
 6440 47a9 13       		.uleb128 0x13
 6441 47aa 8C360000 		.long	0x368c
 6442 47ae 00       		.byte	0
 6443 47af 46       		.uleb128 0x46
 6444 47b0 6672656F 		.ascii "freopen\0"
 6444      70656E00 
 6445 47b8 1B       		.byte	0x1b
 6446 47b9 AA       		.byte	0xaa
 6447 47ba 8C360000 		.long	0x368c
 6448 47be D2470000 		.long	0x47d2
 6449 47c2 13       		.uleb128 0x13
 6450 47c3 A5370000 		.long	0x37a5
GAS LISTING C:\Users\NJLLMR~1\AppData\Local\Temp\ccWOhw13.s 			page 149


 6451 47c7 13       		.uleb128 0x13
 6452 47c8 A5370000 		.long	0x37a5
 6453 47cc 13       		.uleb128 0x13
 6454 47cd 8C360000 		.long	0x368c
 6455 47d1 00       		.byte	0
 6456 47d2 45       		.uleb128 0x45
 6457 47d3 66736565 		.ascii "fseek\0"
 6457      6B00
 6458 47d9 1B       		.byte	0x1b
 6459 47da A301     		.word	0x1a3
 6460 47dc CB020000 		.long	0x2cb
 6461 47e0 F4470000 		.long	0x47f4
 6462 47e4 13       		.uleb128 0x13
 6463 47e5 8C360000 		.long	0x368c
 6464 47e9 13       		.uleb128 0x13
 6465 47ea D2020000 		.long	0x2d2
 6466 47ee 13       		.uleb128 0x13
 6467 47ef CB020000 		.long	0x2cb
 6468 47f3 00       		.byte	0
 6469 47f4 45       		.uleb128 0x45
 6470 47f5 66736574 		.ascii "fsetpos\0"
 6470      706F7300 
 6471 47fd 1B       		.byte	0x1b
 6472 47fe CD01     		.word	0x1cd
 6473 4800 CB020000 		.long	0x2cb
 6474 4804 13480000 		.long	0x4813
 6475 4808 13       		.uleb128 0x13
 6476 4809 8C360000 		.long	0x368c
 6477 480d 13       		.uleb128 0x13
 6478 480e 13480000 		.long	0x4813
 6479 4812 00       		.byte	0
 6480 4813 07       		.uleb128 0x7
 6481 4814 04       		.byte	0x4
 6482 4815 19480000 		.long	0x4819
 6483 4819 14       		.uleb128 0x14
 6484 481a 80460000 		.long	0x4680
 6485 481e 45       		.uleb128 0x45
 6486 481f 6674656C 		.ascii "ftell\0"
 6486      6C00
 6487 4825 1B       		.byte	0x1b
 6488 4826 A401     		.word	0x1a4
 6489 4828 D2020000 		.long	0x2d2
 6490 482c 36480000 		.long	0x4836
 6491 4830 13       		.uleb128 0x13
 6492 4831 8C360000 		.long	0x368c
 6493 4835 00       		.byte	0
 6494 4836 45       		.uleb128 0x45
 6495 4837 67657463 		.ascii "getc\0"
 6495      00
 6496 483c 1B       		.byte	0x1b
 6497 483d 7401     		.word	0x174
 6498 483f CB020000 		.long	0x2cb
 6499 4843 4D480000 		.long	0x484d
 6500 4847 13       		.uleb128 0x13
 6501 4848 8C360000 		.long	0x368c
 6502 484c 00       		.byte	0
 6503 484d 54       		.uleb128 0x54
GAS LISTING C:\Users\NJLLMR~1\AppData\Local\Temp\ccWOhw13.s 			page 150


 6504 484e 67657463 		.ascii "getchar\0"
 6504      68617200 
 6505 4856 1B       		.byte	0x1b
 6506 4857 8201     		.word	0x182
 6507 4859 CB020000 		.long	0x2cb
 6508 485d 45       		.uleb128 0x45
 6509 485e 67657473 		.ascii "gets\0"
 6509      00
 6510 4863 1B       		.byte	0x1b
 6511 4864 6501     		.word	0x165
 6512 4866 83030000 		.long	0x383
 6513 486a 74480000 		.long	0x4874
 6514 486e 13       		.uleb128 0x13
 6515 486f 83030000 		.long	0x383
 6516 4873 00       		.byte	0
 6517 4874 53       		.uleb128 0x53
 6518 4875 70657272 		.ascii "perror\0"
 6518      6F7200
 6519 487c 1B       		.byte	0x1b
 6520 487d E101     		.word	0x1e1
 6521 487f 89480000 		.long	0x4889
 6522 4883 13       		.uleb128 0x13
 6523 4884 A5370000 		.long	0x37a5
 6524 4888 00       		.byte	0
 6525 4889 45       		.uleb128 0x45
 6526 488a 70757463 		.ascii "putc\0"
 6526      00
 6527 488f 1B       		.byte	0x1b
 6528 4890 7B01     		.word	0x17b
 6529 4892 CB020000 		.long	0x2cb
 6530 4896 A5480000 		.long	0x48a5
 6531 489a 13       		.uleb128 0x13
 6532 489b CB020000 		.long	0x2cb
 6533 489f 13       		.uleb128 0x13
 6534 48a0 8C360000 		.long	0x368c
 6535 48a4 00       		.byte	0
 6536 48a5 45       		.uleb128 0x45
 6537 48a6 70757463 		.ascii "putchar\0"
 6537      68617200 
 6538 48ae 1B       		.byte	0x1b
 6539 48af 8901     		.word	0x189
 6540 48b1 CB020000 		.long	0x2cb
 6541 48b5 BF480000 		.long	0x48bf
 6542 48b9 13       		.uleb128 0x13
 6543 48ba CB020000 		.long	0x2cb
 6544 48be 00       		.byte	0
 6545 48bf 46       		.uleb128 0x46
 6546 48c0 72656D6F 		.ascii "remove\0"
 6546      766500
 6547 48c7 1B       		.byte	0x1b
 6548 48c8 AE       		.byte	0xae
 6549 48c9 CB020000 		.long	0x2cb
 6550 48cd D7480000 		.long	0x48d7
 6551 48d1 13       		.uleb128 0x13
 6552 48d2 A5370000 		.long	0x37a5
 6553 48d6 00       		.byte	0
 6554 48d7 46       		.uleb128 0x46
GAS LISTING C:\Users\NJLLMR~1\AppData\Local\Temp\ccWOhw13.s 			page 151


 6555 48d8 72656E61 		.ascii "rename\0"
 6555      6D6500
 6556 48df 1B       		.byte	0x1b
 6557 48e0 AF       		.byte	0xaf
 6558 48e1 CB020000 		.long	0x2cb
 6559 48e5 F4480000 		.long	0x48f4
 6560 48e9 13       		.uleb128 0x13
 6561 48ea A5370000 		.long	0x37a5
 6562 48ee 13       		.uleb128 0x13
 6563 48ef A5370000 		.long	0x37a5
 6564 48f3 00       		.byte	0
 6565 48f4 53       		.uleb128 0x53
 6566 48f5 72657769 		.ascii "rewind\0"
 6566      6E6400
 6567 48fc 1B       		.byte	0x1b
 6568 48fd A501     		.word	0x1a5
 6569 48ff 09490000 		.long	0x4909
 6570 4903 13       		.uleb128 0x13
 6571 4904 8C360000 		.long	0x368c
 6572 4908 00       		.byte	0
 6573 4909 55       		.uleb128 0x55
 6574 490a 73657462 		.ascii "setbuf\0"
 6574      756600
 6575 4911 1B       		.byte	0x1b
 6576 4912 C1       		.byte	0xc1
 6577 4913 22490000 		.long	0x4922
 6578 4917 13       		.uleb128 0x13
 6579 4918 8C360000 		.long	0x368c
 6580 491c 13       		.uleb128 0x13
 6581 491d 83030000 		.long	0x383
 6582 4921 00       		.byte	0
 6583 4922 46       		.uleb128 0x46
 6584 4923 73657476 		.ascii "setvbuf\0"
 6584      62756600 
 6585 492b 1B       		.byte	0x1b
 6586 492c BF       		.byte	0xbf
 6587 492d CB020000 		.long	0x2cb
 6588 4931 4A490000 		.long	0x494a
 6589 4935 13       		.uleb128 0x13
 6590 4936 8C360000 		.long	0x368c
 6591 493a 13       		.uleb128 0x13
 6592 493b 83030000 		.long	0x383
 6593 493f 13       		.uleb128 0x13
 6594 4940 CB020000 		.long	0x2cb
 6595 4944 13       		.uleb128 0x13
 6596 4945 3C020000 		.long	0x23c
 6597 4949 00       		.byte	0
 6598 494a 48       		.uleb128 0x48
 6599 494b 746D7066 		.ascii "tmpfile\0"
 6599      696C6500 
 6600 4953 1B       		.byte	0x1b
 6601 4954 B0       		.byte	0xb0
 6602 4955 8C360000 		.long	0x368c
 6603 4959 46       		.uleb128 0x46
 6604 495a 746D706E 		.ascii "tmpnam\0"
 6604      616D00
 6605 4961 1B       		.byte	0x1b
GAS LISTING C:\Users\NJLLMR~1\AppData\Local\Temp\ccWOhw13.s 			page 152


 6606 4962 B1       		.byte	0xb1
 6607 4963 83030000 		.long	0x383
 6608 4967 71490000 		.long	0x4971
 6609 496b 13       		.uleb128 0x13
 6610 496c 83030000 		.long	0x383
 6611 4970 00       		.byte	0
 6612 4971 45       		.uleb128 0x45
 6613 4972 756E6765 		.ascii "ungetc\0"
 6613      746300
 6614 4979 1B       		.byte	0x1b
 6615 497a 6701     		.word	0x167
 6616 497c CB020000 		.long	0x2cb
 6617 4980 8F490000 		.long	0x498f
 6618 4984 13       		.uleb128 0x13
 6619 4985 CB020000 		.long	0x2cb
 6620 4989 13       		.uleb128 0x13
 6621 498a 8C360000 		.long	0x368c
 6622 498e 00       		.byte	0
 6623 498f 4D       		.uleb128 0x4d
 6624 4990 1D       		.byte	0x1d
 6625 4991 08       		.byte	0x8
 6626 4992 9C040000 		.long	0x49c
 6627 4996 4D       		.uleb128 0x4d
 6628 4997 1E       		.byte	0x1e
 6629 4998 0B       		.byte	0xb
 6630 4999 9C040000 		.long	0x49c
 6631 499d 02       		.uleb128 0x2
 6632 499e 53657276 		.ascii "Service\0"
 6632      69636500 
 6633 49a6 01       		.byte	0x1
 6634 49a7 1E       		.byte	0x1e
 6635 49a8 0F       		.byte	0xf
 6636 49a9 4F4A0000 		.long	0x4a4f
 6637 49ad 03       		.uleb128 0x3
 6638 49ae 53657276 		.ascii "Service\0"
 6638      69636500 
 6639 49b6 1E       		.byte	0x1e
 6640 49b7 12       		.byte	0x12
 6641 49b8 01       		.byte	0x1
 6642 49b9 C1490000 		.long	0x49c1
 6643 49bd C7490000 		.long	0x49c7
 6644 49c1 04       		.uleb128 0x4
 6645 49c2 4F4A0000 		.long	0x4a4f
 6646 49c6 00       		.byte	0
 6647 49c7 03       		.uleb128 0x3
 6648 49c8 7E536572 		.ascii "~Service\0"
 6648      76696365 
 6648      00
 6649 49d1 1E       		.byte	0x1e
 6650 49d2 13       		.byte	0x13
 6651 49d3 01       		.byte	0x1
 6652 49d4 DC490000 		.long	0x49dc
 6653 49d8 E7490000 		.long	0x49e7
 6654 49dc 04       		.uleb128 0x4
 6655 49dd 4F4A0000 		.long	0x4a4f
 6656 49e1 04       		.uleb128 0x4
 6657 49e2 CB020000 		.long	0x2cb
GAS LISTING C:\Users\NJLLMR~1\AppData\Local\Temp\ccWOhw13.s 			page 153


 6658 49e6 00       		.byte	0
 6659 49e7 06       		.uleb128 0x6
 6660 49e8 77726974 		.ascii "writeEmployeeInFile\0"
 6660      65456D70 
 6660      6C6F7965 
 6660      65496E46 
 6660      696C6500 
 6661 49fc 1E       		.byte	0x1e
 6662 49fd 14       		.byte	0x14
 6663 49fe 5F5A4E37 		.ascii "_ZN7Service19writeEmployeeInFileESsSsSsSsSs\0"
 6663      53657276 
 6663      69636531 
 6663      39777269 
 6663      7465456D 
 6664 4a2a 01       		.byte	0x1
 6665 4a2b 2F4A0000 		.long	0x4a2f
 6666 4a2f 04       		.uleb128 0x4
 6667 4a30 4F4A0000 		.long	0x4a4f
 6668 4a34 13       		.uleb128 0x13
 6669 4a35 452F0000 		.long	0x2f45
 6670 4a39 13       		.uleb128 0x13
 6671 4a3a 452F0000 		.long	0x2f45
 6672 4a3e 13       		.uleb128 0x13
 6673 4a3f 452F0000 		.long	0x2f45
 6674 4a43 13       		.uleb128 0x13
 6675 4a44 452F0000 		.long	0x2f45
 6676 4a48 13       		.uleb128 0x13
 6677 4a49 452F0000 		.long	0x2f45
 6678 4a4d 00       		.byte	0
 6679 4a4e 00       		.byte	0
 6680 4a4f 07       		.uleb128 0x7
 6681 4a50 04       		.byte	0x4
 6682 4a51 9D490000 		.long	0x499d
 6683 4a55 56       		.uleb128 0x56
 6684 4a56 90000000 		.secrel32	LASF30
 6685 4a5a 01       		.byte	0x1
 6686 4a5b 1F       		.byte	0x1f
 6687 4a5c 07       		.byte	0x7
 6688 4a5d 364C0000 		.long	0x4c36
 6689 4a61 1C       		.uleb128 0x1c
 6690 4a62 90000000 		.secrel32	LASF30
 6691 4a66 1F       		.byte	0x1f
 6692 4a67 0A       		.byte	0xa
 6693 4a68 01       		.byte	0x1
 6694 4a69 714A0000 		.long	0x4a71
 6695 4a6d 774A0000 		.long	0x4a77
 6696 4a71 04       		.uleb128 0x4
 6697 4a72 364C0000 		.long	0x4c36
 6698 4a76 00       		.byte	0
 6699 4a77 49       		.uleb128 0x49
 6700 4a78 76616C69 		.ascii "validateSalary\0"
 6700      64617465 
 6700      53616C61 
 6700      727900
 6701 4a87 1F       		.byte	0x1f
 6702 4a88 0B       		.byte	0xb
 6703 4a89 5F5A4E38 		.ascii "_ZN8Validate14validateSalaryESs\0"
GAS LISTING C:\Users\NJLLMR~1\AppData\Local\Temp\ccWOhw13.s 			page 154


 6703      56616C69 
 6703      64617465 
 6703      31347661 
 6703      6C696461 
 6704 4aa9 83430000 		.long	0x4383
 6705 4aad 01       		.byte	0x1
 6706 4aae B64A0000 		.long	0x4ab6
 6707 4ab2 C14A0000 		.long	0x4ac1
 6708 4ab6 04       		.uleb128 0x4
 6709 4ab7 364C0000 		.long	0x4c36
 6710 4abb 13       		.uleb128 0x13
 6711 4abc 452F0000 		.long	0x2f45
 6712 4ac0 00       		.byte	0
 6713 4ac1 49       		.uleb128 0x49
 6714 4ac2 76616C69 		.ascii "validateSSN\0"
 6714      64617465 
 6714      53534E00 
 6715 4ace 1F       		.byte	0x1f
 6716 4acf 0C       		.byte	0xc
 6717 4ad0 5F5A4E38 		.ascii "_ZN8Validate11validateSSNESs\0"
 6717      56616C69 
 6717      64617465 
 6717      31317661 
 6717      6C696461 
 6718 4aed 83430000 		.long	0x4383
 6719 4af1 01       		.byte	0x1
 6720 4af2 FA4A0000 		.long	0x4afa
 6721 4af6 054B0000 		.long	0x4b05
 6722 4afa 04       		.uleb128 0x4
 6723 4afb 364C0000 		.long	0x4c36
 6724 4aff 13       		.uleb128 0x13
 6725 4b00 452F0000 		.long	0x2f45
 6726 4b04 00       		.byte	0
 6727 4b05 49       		.uleb128 0x49
 6728 4b06 76616C69 		.ascii "validateMonth\0"
 6728      64617465 
 6728      4D6F6E74 
 6728      6800
 6729 4b14 1F       		.byte	0x1f
 6730 4b15 0D       		.byte	0xd
 6731 4b16 5F5A4E38 		.ascii "_ZN8Validate13validateMonthESs\0"
 6731      56616C69 
 6731      64617465 
 6731      31337661 
 6731      6C696461 
 6732 4b35 83430000 		.long	0x4383
 6733 4b39 01       		.byte	0x1
 6734 4b3a 424B0000 		.long	0x4b42
 6735 4b3e 4D4B0000 		.long	0x4b4d
 6736 4b42 04       		.uleb128 0x4
 6737 4b43 364C0000 		.long	0x4c36
 6738 4b47 13       		.uleb128 0x13
 6739 4b48 452F0000 		.long	0x2f45
 6740 4b4c 00       		.byte	0
 6741 4b4d 49       		.uleb128 0x49
 6742 4b4e 76616C69 		.ascii "validateName\0"
 6742      64617465 
GAS LISTING C:\Users\NJLLMR~1\AppData\Local\Temp\ccWOhw13.s 			page 155


 6742      4E616D65 
 6742      00
 6743 4b5b 1F       		.byte	0x1f
 6744 4b5c 0E       		.byte	0xe
 6745 4b5d 5F5A4E38 		.ascii "_ZN8Validate12validateNameESs\0"
 6745      56616C69 
 6745      64617465 
 6745      31327661 
 6745      6C696461 
 6746 4b7b 83430000 		.long	0x4383
 6747 4b7f 01       		.byte	0x1
 6748 4b80 884B0000 		.long	0x4b88
 6749 4b84 934B0000 		.long	0x4b93
 6750 4b88 04       		.uleb128 0x4
 6751 4b89 364C0000 		.long	0x4c36
 6752 4b8d 13       		.uleb128 0x13
 6753 4b8e 452F0000 		.long	0x2f45
 6754 4b92 00       		.byte	0
 6755 4b93 49       		.uleb128 0x49
 6756 4b94 76616C69 		.ascii "validateYear\0"
 6756      64617465 
 6756      59656172 
 6756      00
 6757 4ba1 1F       		.byte	0x1f
 6758 4ba2 0F       		.byte	0xf
 6759 4ba3 5F5A4E38 		.ascii "_ZN8Validate12validateYearESs\0"
 6759      56616C69 
 6759      64617465 
 6759      31327661 
 6759      6C696461 
 6760 4bc1 83430000 		.long	0x4383
 6761 4bc5 01       		.byte	0x1
 6762 4bc6 CE4B0000 		.long	0x4bce
 6763 4bca D94B0000 		.long	0x4bd9
 6764 4bce 04       		.uleb128 0x4
 6765 4bcf 364C0000 		.long	0x4c36
 6766 4bd3 13       		.uleb128 0x13
 6767 4bd4 452F0000 		.long	0x2f45
 6768 4bd8 00       		.byte	0
 6769 4bd9 57       		.uleb128 0x57
 6770 4bda 76616C69 		.ascii "validateAll\0"
 6770      64617465 
 6770      416C6C00 
 6771 4be6 1F       		.byte	0x1f
 6772 4be7 10       		.byte	0x10
 6773 4be8 5F5A4E38 		.ascii "_ZN8Validate11validateAllESsSsSsSsSs\0"
 6773      56616C69 
 6773      64617465 
 6773      31317661 
 6773      6C696461 
 6774 4c0d 83430000 		.long	0x4383
 6775 4c11 01       		.byte	0x1
 6776 4c12 164C0000 		.long	0x4c16
 6777 4c16 04       		.uleb128 0x4
 6778 4c17 364C0000 		.long	0x4c36
 6779 4c1b 13       		.uleb128 0x13
 6780 4c1c 452F0000 		.long	0x2f45
GAS LISTING C:\Users\NJLLMR~1\AppData\Local\Temp\ccWOhw13.s 			page 156


 6781 4c20 13       		.uleb128 0x13
 6782 4c21 452F0000 		.long	0x2f45
 6783 4c25 13       		.uleb128 0x13
 6784 4c26 452F0000 		.long	0x2f45
 6785 4c2a 13       		.uleb128 0x13
 6786 4c2b 452F0000 		.long	0x2f45
 6787 4c2f 13       		.uleb128 0x13
 6788 4c30 452F0000 		.long	0x2f45
 6789 4c34 00       		.byte	0
 6790 4c35 00       		.byte	0
 6791 4c36 07       		.uleb128 0x7
 6792 4c37 04       		.byte	0x4
 6793 4c38 554A0000 		.long	0x4a55
 6794 4c3c 4D       		.uleb128 0x4d
 6795 4c3d 01       		.byte	0x1
 6796 4c3e 08       		.byte	0x8
 6797 4c3f 9C040000 		.long	0x49c
 6798 4c43 58       		.uleb128 0x58
 6799 4c44 03010000 		.long	0x103
 6800 4c48 01       		.byte	0x1
 6801 4c49 0A       		.byte	0xa
 6802 4c4a 00       		.byte	0
 6803 4c4b 534C0000 		.long	0x4c53
 6804 4c4f 5D4C0000 		.long	0x4c5d
 6805 4c53 59       		.uleb128 0x59
 6806 4c54 7E000000 		.secrel32	LASF31
 6807 4c58 5D4C0000 		.long	0x4c5d
 6808 4c5c 00       		.byte	0
 6809 4c5d 14       		.uleb128 0x14
 6810 4c5e 36020000 		.long	0x236
 6811 4c62 5A       		.uleb128 0x5a
 6812 4c63 434C0000 		.long	0x4c43
 6813 4c67 5F5A4E37 		.ascii "_ZN7Main_uiC2Ev\0"
 6813      4D61696E 
 6813      5F756943 
 6813      32457600 
 6814 4c77 00000000 		.long	LFB1137
 6815 4c7b 0B000000 		.long	LFE1137-LFB1137
 6816 4c7f 01       		.uleb128 0x1
 6817 4c80 9C       		.byte	0x9c
 6818 4c81 894C0000 		.long	0x4c89
 6819 4c85 924C0000 		.long	0x4c92
 6820 4c89 5B       		.uleb128 0x5b
 6821 4c8a 534C0000 		.long	0x4c53
 6822 4c8e 02       		.uleb128 0x2
 6823 4c8f 91       		.byte	0x91
 6824 4c90 74       		.sleb128 -12
 6825 4c91 00       		.byte	0
 6826 4c92 5C       		.uleb128 0x5c
 6827 4c93 1D010000 		.long	0x11d
 6828 4c97 01       		.byte	0x1
 6829 4c98 0F       		.byte	0xf
 6830 4c99 0C000000 		.long	LFB1139
 6831 4c9d CC020000 		.long	LFE1139-LFB1139
 6832 4ca1 01       		.uleb128 0x1
 6833 4ca2 9C       		.byte	0x9c
 6834 4ca3 AB4C0000 		.long	0x4cab
GAS LISTING C:\Users\NJLLMR~1\AppData\Local\Temp\ccWOhw13.s 			page 157


 6835 4ca7 D24C0000 		.long	0x4cd2
 6836 4cab 5D       		.uleb128 0x5d
 6837 4cac 7E000000 		.secrel32	LASF31
 6838 4cb0 5D4C0000 		.long	0x4c5d
 6839 4cb4 02       		.uleb128 0x2
 6840 4cb5 91       		.byte	0x91
 6841 4cb6 5C       		.sleb128 -36
 6842 4cb7 5E       		.uleb128 0x5e
 6843 4cb8 15000000 		.long	LBB2
 6844 4cbc C1020000 		.long	LBE2-LBB2
 6845 4cc0 5F       		.uleb128 0x5f
 6846 4cc1 696E7075 		.ascii "input\0"
 6846      7400
 6847 4cc7 01       		.byte	0x1
 6848 4cc8 10       		.byte	0x10
 6849 4cc9 97020000 		.long	0x297
 6850 4ccd 02       		.uleb128 0x2
 6851 4cce 91       		.byte	0x91
 6852 4ccf 6F       		.sleb128 -17
 6853 4cd0 00       		.byte	0
 6854 4cd1 00       		.byte	0
 6855 4cd2 5C       		.uleb128 0x5c
 6856 4cd3 8A010000 		.long	0x18a
 6857 4cd7 01       		.byte	0x1
 6858 4cd8 3C       		.byte	0x3c
 6859 4cd9 D8020000 		.long	LFB1140
 6860 4cdd 4B0A0000 		.long	LFE1140-LFB1140
 6861 4ce1 01       		.uleb128 0x1
 6862 4ce2 9C       		.byte	0x9c
 6863 4ce3 EB4C0000 		.long	0x4ceb
 6864 4ce7 CB4D0000 		.long	0x4dcb
 6865 4ceb 5D       		.uleb128 0x5d
 6866 4cec 7E000000 		.secrel32	LASF31
 6867 4cf0 5D4C0000 		.long	0x4c5d
 6868 4cf4 03       		.uleb128 0x3
 6869 4cf5 91       		.byte	0x91
 6870 4cf6 8C7F     		.sleb128 -116
 6871 4cf8 5E       		.uleb128 0x5e
 6872 4cf9 1C030000 		.long	LBB3
 6873 4cfd FF090000 		.long	LBE3-LBB3
 6874 4d01 5F       		.uleb128 0x5f
 6875 4d02 76616C69 		.ascii "validate\0"
 6875      64617465 
 6875      00
 6876 4d0b 01       		.byte	0x1
 6877 4d0c 3E       		.byte	0x3e
 6878 4d0d 554A0000 		.long	0x4a55
 6879 4d11 03       		.uleb128 0x3
 6880 4d12 91       		.byte	0x91
 6881 4d13 AF7F     		.sleb128 -81
 6882 4d15 5F       		.uleb128 0x5f
 6883 4d16 696E7075 		.ascii "input_ch\0"
 6883      745F6368 
 6883      00
 6884 4d1f 01       		.byte	0x1
 6885 4d20 3F       		.byte	0x3f
 6886 4d21 97020000 		.long	0x297
GAS LISTING C:\Users\NJLLMR~1\AppData\Local\Temp\ccWOhw13.s 			page 158


 6887 4d25 03       		.uleb128 0x3
 6888 4d26 91       		.byte	0x91
 6889 4d27 AE7F     		.sleb128 -82
 6890 4d29 5F       		.uleb128 0x5f
 6891 4d2a 746D704E 		.ascii "tmpName\0"
 6891      616D6500 
 6892 4d32 01       		.byte	0x1
 6893 4d33 40       		.byte	0x40
 6894 4d34 452F0000 		.long	0x2f45
 6895 4d38 03       		.uleb128 0x3
 6896 4d39 91       		.byte	0x91
 6897 4d3a A87F     		.sleb128 -88
 6898 4d3c 5F       		.uleb128 0x5f
 6899 4d3d 746D7053 		.ascii "tmpSSN\0"
 6899      534E00
 6900 4d44 01       		.byte	0x1
 6901 4d45 41       		.byte	0x41
 6902 4d46 452F0000 		.long	0x2f45
 6903 4d4a 03       		.uleb128 0x3
 6904 4d4b 91       		.byte	0x91
 6905 4d4c A47F     		.sleb128 -92
 6906 4d4e 5F       		.uleb128 0x5f
 6907 4d4f 746D7053 		.ascii "tmpSalary\0"
 6907      616C6172 
 6907      7900
 6908 4d59 01       		.byte	0x1
 6909 4d5a 42       		.byte	0x42
 6910 4d5b 452F0000 		.long	0x2f45
 6911 4d5f 03       		.uleb128 0x3
 6912 4d60 91       		.byte	0x91
 6913 4d61 A07F     		.sleb128 -96
 6914 4d63 5F       		.uleb128 0x5f
 6915 4d64 746D704D 		.ascii "tmpMonth\0"
 6915      6F6E7468 
 6915      00
 6916 4d6d 01       		.byte	0x1
 6917 4d6e 43       		.byte	0x43
 6918 4d6f 452F0000 		.long	0x2f45
 6919 4d73 03       		.uleb128 0x3
 6920 4d74 91       		.byte	0x91
 6921 4d75 9C7F     		.sleb128 -100
 6922 4d77 5F       		.uleb128 0x5f
 6923 4d78 746D7059 		.ascii "tmpYear\0"
 6923      65617200 
 6924 4d80 01       		.byte	0x1
 6925 4d81 43       		.byte	0x43
 6926 4d82 452F0000 		.long	0x2f45
 6927 4d86 03       		.uleb128 0x3
 6928 4d87 91       		.byte	0x91
 6929 4d88 987F     		.sleb128 -104
 6930 4d8a 5F       		.uleb128 0x5f
 6931 4d8b 696E7075 		.ascii "input\0"
 6931      7400
 6932 4d91 01       		.byte	0x1
 6933 4d92 4A       		.byte	0x4a
 6934 4d93 CB020000 		.long	0x2cb
 6935 4d97 02       		.uleb128 0x2
GAS LISTING C:\Users\NJLLMR~1\AppData\Local\Temp\ccWOhw13.s 			page 159


 6936 4d98 91       		.byte	0x91
 6937 4d99 58       		.sleb128 -40
 6938 4d9a 60       		.uleb128 0x60
 6939 4d9b 00000000 		.secrel32	Ldebug_ranges0+0
 6940 4d9f 5F       		.uleb128 0x5f
 6941 4da0 6900     		.ascii "i\0"
 6942 4da2 01       		.byte	0x1
 6943 4da3 4B       		.byte	0x4b
 6944 4da4 CB020000 		.long	0x2cb
 6945 4da8 02       		.uleb128 0x2
 6946 4da9 91       		.byte	0x91
 6947 4daa 5C       		.sleb128 -36
 6948 4dab 60       		.uleb128 0x60
 6949 4dac 18000000 		.secrel32	Ldebug_ranges0+0x18
 6950 4db0 5F       		.uleb128 0x5f
 6951 4db1 6E657745 		.ascii "newEmployee\0"
 6951      6D706C6F 
 6951      79656500 
 6952 4dbd 01       		.byte	0x1
 6953 4dbe 78       		.byte	0x78
 6954 4dbf 9D490000 		.long	0x499d
 6955 4dc3 03       		.uleb128 0x3
 6956 4dc4 91       		.byte	0x91
 6957 4dc5 977F     		.sleb128 -105
 6958 4dc7 00       		.byte	0
 6959 4dc8 00       		.byte	0
 6960 4dc9 00       		.byte	0
 6961 4dca 00       		.byte	0
 6962 4dcb 61       		.uleb128 0x61
 6963 4dcc 51010000 		.long	0x151
 6964 4dd0 01       		.byte	0x1
 6965 4dd1 84       		.byte	0x84
 6966 4dd2 240D0000 		.long	LFB1141
 6967 4dd6 0B000000 		.long	LFE1141-LFB1141
 6968 4dda 01       		.uleb128 0x1
 6969 4ddb 9C       		.byte	0x9c
 6970 4ddc E44D0000 		.long	0x4de4
 6971 4de0 F14D0000 		.long	0x4df1
 6972 4de4 5D       		.uleb128 0x5d
 6973 4de5 7E000000 		.secrel32	LASF31
 6974 4de9 5D4C0000 		.long	0x4c5d
 6975 4ded 02       		.uleb128 0x2
 6976 4dee 91       		.byte	0x91
 6977 4def 74       		.sleb128 -12
 6978 4df0 00       		.byte	0
 6979 4df1 61       		.uleb128 0x61
 6980 4df2 FE010000 		.long	0x1fe
 6981 4df6 01       		.byte	0x1
 6982 4df7 88       		.byte	0x88
 6983 4df8 300D0000 		.long	LFB1142
 6984 4dfc 0B000000 		.long	LFE1142-LFB1142
 6985 4e00 01       		.uleb128 0x1
 6986 4e01 9C       		.byte	0x9c
 6987 4e02 0A4E0000 		.long	0x4e0a
 6988 4e06 174E0000 		.long	0x4e17
 6989 4e0a 5D       		.uleb128 0x5d
 6990 4e0b 7E000000 		.secrel32	LASF31
GAS LISTING C:\Users\NJLLMR~1\AppData\Local\Temp\ccWOhw13.s 			page 160


 6991 4e0f 5D4C0000 		.long	0x4c5d
 6992 4e13 02       		.uleb128 0x2
 6993 4e14 91       		.byte	0x91
 6994 4e15 74       		.sleb128 -12
 6995 4e16 00       		.byte	0
 6996 4e17 61       		.uleb128 0x61
 6997 4e18 C3010000 		.long	0x1c3
 6998 4e1c 01       		.byte	0x1
 6999 4e1d 8C       		.byte	0x8c
 7000 4e1e 3C0D0000 		.long	LFB1143
 7001 4e22 0B000000 		.long	LFE1143-LFB1143
 7002 4e26 01       		.uleb128 0x1
 7003 4e27 9C       		.byte	0x9c
 7004 4e28 304E0000 		.long	0x4e30
 7005 4e2c 3D4E0000 		.long	0x4e3d
 7006 4e30 5D       		.uleb128 0x5d
 7007 4e31 7E000000 		.secrel32	LASF31
 7008 4e35 5D4C0000 		.long	0x4c5d
 7009 4e39 02       		.uleb128 0x2
 7010 4e3a 91       		.byte	0x91
 7011 4e3b 74       		.sleb128 -12
 7012 4e3c 00       		.byte	0
 7013 4e3d 62       		.uleb128 0x62
 7014 4e3e 5F5F7463 		.ascii "__tcf_0\0"
 7014      665F3000 
 7015 4e46 470D0000 		.long	LFB1188
 7016 4e4a 12000000 		.long	LFE1188-LFB1188
 7017 4e4e 01       		.uleb128 0x1
 7018 4e4f 9C       		.byte	0x9c
 7019 4e50 63       		.uleb128 0x63
 7020 4e51 5F5F7374 		.ascii "__static_initialization_and_destruction_0\0"
 7020      61746963 
 7020      5F696E69 
 7020      7469616C 
 7020      697A6174 
 7021 4e7b 590D0000 		.long	LFB1187
 7022 4e7f 2D000000 		.long	LFE1187-LFB1187
 7023 4e83 01       		.uleb128 0x1
 7024 4e84 9C       		.byte	0x9c
 7025 4e85 B84E0000 		.long	0x4eb8
 7026 4e89 64       		.uleb128 0x64
 7027 4e8a 5F5F696E 		.ascii "__initialize_p\0"
 7027      69746961 
 7027      6C697A65 
 7027      5F7000
 7028 4e99 01       		.byte	0x1
 7029 4e9a 8E       		.byte	0x8e
 7030 4e9b CB020000 		.long	0x2cb
 7031 4e9f 02       		.uleb128 0x2
 7032 4ea0 91       		.byte	0x91
 7033 4ea1 00       		.sleb128 0
 7034 4ea2 64       		.uleb128 0x64
 7035 4ea3 5F5F7072 		.ascii "__priority\0"
 7035      696F7269 
 7035      747900
 7036 4eae 01       		.byte	0x1
 7037 4eaf 8E       		.byte	0x8e
GAS LISTING C:\Users\NJLLMR~1\AppData\Local\Temp\ccWOhw13.s 			page 161


 7038 4eb0 CB020000 		.long	0x2cb
 7039 4eb4 02       		.uleb128 0x2
 7040 4eb5 91       		.byte	0x91
 7041 4eb6 04       		.sleb128 4
 7042 4eb7 00       		.byte	0
 7043 4eb8 62       		.uleb128 0x62
 7044 4eb9 5F474C4F 		.ascii "_GLOBAL__sub_I__ZN7Main_uiC2Ev\0"
 7044      42414C5F 
 7044      5F737562 
 7044      5F495F5F 
 7044      5A4E374D 
 7045 4ed8 860D0000 		.long	LFB1189
 7046 4edc 1C000000 		.long	LFE1189-LFB1189
 7047 4ee0 01       		.uleb128 0x1
 7048 4ee1 9C       		.byte	0x9c
 7049 4ee2 51       		.uleb128 0x51
 7050 4ee3 FC020000 		.long	0x2fc
 7051 4ee7 ED4E0000 		.long	0x4eed
 7052 4eeb 52       		.uleb128 0x52
 7053 4eec 00       		.byte	0
 7054 4eed 65       		.uleb128 0x65
 7055 4eee 5F696F62 		.ascii "_iob\0"
 7055      00
 7056 4ef3 1B       		.byte	0x1b
 7057 4ef4 9A       		.byte	0x9a
 7058 4ef5 E24E0000 		.long	0x4ee2
 7059 4ef9 66       		.uleb128 0x66
 7060 4efa 4B360000 		.long	0x364b
 7061 4efe 05       		.uleb128 0x5
 7062 4eff 03       		.byte	0x3
 7063 4f00 00000000 		.long	__ZStL8__ioinit
 7064 4f04 67       		.uleb128 0x67
 7065 4f05 BE400000 		.long	0x40be
 7066 4f09 5F5A4E39 		.ascii "_ZN9__gnu_cxx24__numeric_traits_integerIiE5__minE\0"
 7066      5F5F676E 
 7066      755F6378 
 7066      7832345F 
 7066      5F6E756D 
 7067 4f3b 80808080 		.sleb128 -2147483648
 7067      78
 7068 4f40 68       		.uleb128 0x68
 7069 4f41 C9400000 		.long	0x40c9
 7070 4f45 5F5A4E39 		.ascii "_ZN9__gnu_cxx24__numeric_traits_integerIiE5__maxE\0"
 7070      5F5F676E 
 7070      755F6378 
 7070      7832345F 
 7070      5F6E756D 
 7071 4f77 FFFFFF7F 		.long	0x7fffffff
 7072 4f7b 69       		.uleb128 0x69
 7073 4f7c 15420000 		.long	0x4215
 7074 4f80 5F5A4E39 		.ascii "_ZN9__gnu_cxx24__numeric_traits_integerImE8__digitsE\0"
 7074      5F5F676E 
 7074      755F6378 
 7074      7832345F 
 7074      5F6E756D 
 7075 4fb5 20       		.byte	0x20
 7076 4fb6 69       		.uleb128 0x69
GAS LISTING C:\Users\NJLLMR~1\AppData\Local\Temp\ccWOhw13.s 			page 162


 7077 4fb7 5C420000 		.long	0x425c
 7078 4fbb 5F5A4E39 		.ascii "_ZN9__gnu_cxx24__numeric_traits_integerIcE5__maxE\0"
 7078      5F5F676E 
 7078      755F6378 
 7078      7832345F 
 7078      5F6E756D 
 7079 4fed 7F       		.byte	0x7f
 7080 4fee 67       		.uleb128 0x67
 7081 4fef AF420000 		.long	0x42af
 7082 4ff3 5F5A4E39 		.ascii "_ZN9__gnu_cxx24__numeric_traits_integerIsE5__minE\0"
 7082      5F5F676E 
 7082      755F6378 
 7082      7832345F 
 7082      5F6E756D 
 7083 5025 80807E   		.sleb128 -32768
 7084 5028 6A       		.uleb128 0x6a
 7085 5029 BA420000 		.long	0x42ba
 7086 502d 5F5A4E39 		.ascii "_ZN9__gnu_cxx24__numeric_traits_integerIsE5__maxE\0"
 7086      5F5F676E 
 7086      755F6378 
 7086      7832345F 
 7086      5F6E756D 
 7087 505f FF7F     		.word	0x7fff
 7088 5061 00       		.byte	0
 7089              		.section	.debug_abbrev,"dr"
 7090              	Ldebug_abbrev0:
 7091 0000 01       		.uleb128 0x1
 7092 0001 11       		.uleb128 0x11
 7093 0002 01       		.byte	0x1
 7094 0003 25       		.uleb128 0x25
 7095 0004 08       		.uleb128 0x8
 7096 0005 13       		.uleb128 0x13
 7097 0006 0B       		.uleb128 0xb
 7098 0007 03       		.uleb128 0x3
 7099 0008 08       		.uleb128 0x8
 7100 0009 1B       		.uleb128 0x1b
 7101 000a 08       		.uleb128 0x8
 7102 000b 11       		.uleb128 0x11
 7103 000c 01       		.uleb128 0x1
 7104 000d 12       		.uleb128 0x12
 7105 000e 06       		.uleb128 0x6
 7106 000f 10       		.uleb128 0x10
 7107 0010 17       		.uleb128 0x17
 7108 0011 00       		.byte	0
 7109 0012 00       		.byte	0
 7110 0013 02       		.uleb128 0x2
 7111 0014 02       		.uleb128 0x2
 7112 0015 01       		.byte	0x1
 7113 0016 03       		.uleb128 0x3
 7114 0017 08       		.uleb128 0x8
 7115 0018 0B       		.uleb128 0xb
 7116 0019 0B       		.uleb128 0xb
 7117 001a 3A       		.uleb128 0x3a
 7118 001b 0B       		.uleb128 0xb
 7119 001c 3B       		.uleb128 0x3b
 7120 001d 0B       		.uleb128 0xb
 7121 001e 01       		.uleb128 0x1
GAS LISTING C:\Users\NJLLMR~1\AppData\Local\Temp\ccWOhw13.s 			page 163


 7122 001f 13       		.uleb128 0x13
 7123 0020 00       		.byte	0
 7124 0021 00       		.byte	0
 7125 0022 03       		.uleb128 0x3
 7126 0023 2E       		.uleb128 0x2e
 7127 0024 01       		.byte	0x1
 7128 0025 3F       		.uleb128 0x3f
 7129 0026 19       		.uleb128 0x19
 7130 0027 03       		.uleb128 0x3
 7131 0028 08       		.uleb128 0x8
 7132 0029 3A       		.uleb128 0x3a
 7133 002a 0B       		.uleb128 0xb
 7134 002b 3B       		.uleb128 0x3b
 7135 002c 0B       		.uleb128 0xb
 7136 002d 32       		.uleb128 0x32
 7137 002e 0B       		.uleb128 0xb
 7138 002f 3C       		.uleb128 0x3c
 7139 0030 19       		.uleb128 0x19
 7140 0031 64       		.uleb128 0x64
 7141 0032 13       		.uleb128 0x13
 7142 0033 01       		.uleb128 0x1
 7143 0034 13       		.uleb128 0x13
 7144 0035 00       		.byte	0
 7145 0036 00       		.byte	0
 7146 0037 04       		.uleb128 0x4
 7147 0038 05       		.uleb128 0x5
 7148 0039 00       		.byte	0
 7149 003a 49       		.uleb128 0x49
 7150 003b 13       		.uleb128 0x13
 7151 003c 34       		.uleb128 0x34
 7152 003d 19       		.uleb128 0x19
 7153 003e 00       		.byte	0
 7154 003f 00       		.byte	0
 7155 0040 05       		.uleb128 0x5
 7156 0041 2E       		.uleb128 0x2e
 7157 0042 01       		.byte	0x1
 7158 0043 3F       		.uleb128 0x3f
 7159 0044 19       		.uleb128 0x19
 7160 0045 03       		.uleb128 0x3
 7161 0046 08       		.uleb128 0x8
 7162 0047 3A       		.uleb128 0x3a
 7163 0048 0B       		.uleb128 0xb
 7164 0049 3B       		.uleb128 0x3b
 7165 004a 0B       		.uleb128 0xb
 7166 004b 6E       		.uleb128 0x6e
 7167 004c 08       		.uleb128 0x8
 7168 004d 32       		.uleb128 0x32
 7169 004e 0B       		.uleb128 0xb
 7170 004f 3C       		.uleb128 0x3c
 7171 0050 19       		.uleb128 0x19
 7172 0051 64       		.uleb128 0x64
 7173 0052 13       		.uleb128 0x13
 7174 0053 01       		.uleb128 0x1
 7175 0054 13       		.uleb128 0x13
 7176 0055 00       		.byte	0
 7177 0056 00       		.byte	0
 7178 0057 06       		.uleb128 0x6
GAS LISTING C:\Users\NJLLMR~1\AppData\Local\Temp\ccWOhw13.s 			page 164


 7179 0058 2E       		.uleb128 0x2e
 7180 0059 01       		.byte	0x1
 7181 005a 3F       		.uleb128 0x3f
 7182 005b 19       		.uleb128 0x19
 7183 005c 03       		.uleb128 0x3
 7184 005d 08       		.uleb128 0x8
 7185 005e 3A       		.uleb128 0x3a
 7186 005f 0B       		.uleb128 0xb
 7187 0060 3B       		.uleb128 0x3b
 7188 0061 0B       		.uleb128 0xb
 7189 0062 6E       		.uleb128 0x6e
 7190 0063 08       		.uleb128 0x8
 7191 0064 32       		.uleb128 0x32
 7192 0065 0B       		.uleb128 0xb
 7193 0066 3C       		.uleb128 0x3c
 7194 0067 19       		.uleb128 0x19
 7195 0068 64       		.uleb128 0x64
 7196 0069 13       		.uleb128 0x13
 7197 006a 00       		.byte	0
 7198 006b 00       		.byte	0
 7199 006c 07       		.uleb128 0x7
 7200 006d 0F       		.uleb128 0xf
 7201 006e 00       		.byte	0
 7202 006f 0B       		.uleb128 0xb
 7203 0070 0B       		.uleb128 0xb
 7204 0071 49       		.uleb128 0x49
 7205 0072 13       		.uleb128 0x13
 7206 0073 00       		.byte	0
 7207 0074 00       		.byte	0
 7208 0075 08       		.uleb128 0x8
 7209 0076 16       		.uleb128 0x16
 7210 0077 00       		.byte	0
 7211 0078 03       		.uleb128 0x3
 7212 0079 08       		.uleb128 0x8
 7213 007a 3A       		.uleb128 0x3a
 7214 007b 0B       		.uleb128 0xb
 7215 007c 3B       		.uleb128 0x3b
 7216 007d 0B       		.uleb128 0xb
 7217 007e 49       		.uleb128 0x49
 7218 007f 13       		.uleb128 0x13
 7219 0080 00       		.byte	0
 7220 0081 00       		.byte	0
 7221 0082 09       		.uleb128 0x9
 7222 0083 24       		.uleb128 0x24
 7223 0084 00       		.byte	0
 7224 0085 0B       		.uleb128 0xb
 7225 0086 0B       		.uleb128 0xb
 7226 0087 3E       		.uleb128 0x3e
 7227 0088 0B       		.uleb128 0xb
 7228 0089 03       		.uleb128 0x3
 7229 008a 08       		.uleb128 0x8
 7230 008b 00       		.byte	0
 7231 008c 00       		.byte	0
 7232 008d 0A       		.uleb128 0xa
 7233 008e 16       		.uleb128 0x16
 7234 008f 00       		.byte	0
 7235 0090 03       		.uleb128 0x3
GAS LISTING C:\Users\NJLLMR~1\AppData\Local\Temp\ccWOhw13.s 			page 165


 7236 0091 08       		.uleb128 0x8
 7237 0092 3A       		.uleb128 0x3a
 7238 0093 0B       		.uleb128 0xb
 7239 0094 3B       		.uleb128 0x3b
 7240 0095 05       		.uleb128 0x5
 7241 0096 49       		.uleb128 0x49
 7242 0097 13       		.uleb128 0x13
 7243 0098 00       		.byte	0
 7244 0099 00       		.byte	0
 7245 009a 0B       		.uleb128 0xb
 7246 009b 0F       		.uleb128 0xf
 7247 009c 00       		.byte	0
 7248 009d 0B       		.uleb128 0xb
 7249 009e 0B       		.uleb128 0xb
 7250 009f 03       		.uleb128 0x3
 7251 00a0 08       		.uleb128 0x8
 7252 00a1 49       		.uleb128 0x49
 7253 00a2 13       		.uleb128 0x13
 7254 00a3 00       		.byte	0
 7255 00a4 00       		.byte	0
 7256 00a5 0C       		.uleb128 0xc
 7257 00a6 13       		.uleb128 0x13
 7258 00a7 01       		.byte	0x1
 7259 00a8 03       		.uleb128 0x3
 7260 00a9 08       		.uleb128 0x8
 7261 00aa 0B       		.uleb128 0xb
 7262 00ab 0B       		.uleb128 0xb
 7263 00ac 3A       		.uleb128 0x3a
 7264 00ad 0B       		.uleb128 0xb
 7265 00ae 3B       		.uleb128 0x3b
 7266 00af 0B       		.uleb128 0xb
 7267 00b0 01       		.uleb128 0x1
 7268 00b1 13       		.uleb128 0x13
 7269 00b2 00       		.byte	0
 7270 00b3 00       		.byte	0
 7271 00b4 0D       		.uleb128 0xd
 7272 00b5 0D       		.uleb128 0xd
 7273 00b6 00       		.byte	0
 7274 00b7 03       		.uleb128 0x3
 7275 00b8 08       		.uleb128 0x8
 7276 00b9 3A       		.uleb128 0x3a
 7277 00ba 0B       		.uleb128 0xb
 7278 00bb 3B       		.uleb128 0x3b
 7279 00bc 0B       		.uleb128 0xb
 7280 00bd 49       		.uleb128 0x49
 7281 00be 13       		.uleb128 0x13
 7282 00bf 38       		.uleb128 0x38
 7283 00c0 0B       		.uleb128 0xb
 7284 00c1 00       		.byte	0
 7285 00c2 00       		.byte	0
 7286 00c3 0E       		.uleb128 0xe
 7287 00c4 39       		.uleb128 0x39
 7288 00c5 01       		.byte	0x1
 7289 00c6 03       		.uleb128 0x3
 7290 00c7 08       		.uleb128 0x8
 7291 00c8 3A       		.uleb128 0x3a
 7292 00c9 0B       		.uleb128 0xb
GAS LISTING C:\Users\NJLLMR~1\AppData\Local\Temp\ccWOhw13.s 			page 166


 7293 00ca 3B       		.uleb128 0x3b
 7294 00cb 0B       		.uleb128 0xb
 7295 00cc 01       		.uleb128 0x1
 7296 00cd 13       		.uleb128 0x13
 7297 00ce 00       		.byte	0
 7298 00cf 00       		.byte	0
 7299 00d0 0F       		.uleb128 0xf
 7300 00d1 08       		.uleb128 0x8
 7301 00d2 00       		.byte	0
 7302 00d3 3A       		.uleb128 0x3a
 7303 00d4 0B       		.uleb128 0xb
 7304 00d5 3B       		.uleb128 0x3b
 7305 00d6 0B       		.uleb128 0xb
 7306 00d7 18       		.uleb128 0x18
 7307 00d8 13       		.uleb128 0x13
 7308 00d9 00       		.byte	0
 7309 00da 00       		.byte	0
 7310 00db 10       		.uleb128 0x10
 7311 00dc 08       		.uleb128 0x8
 7312 00dd 00       		.byte	0
 7313 00de 3A       		.uleb128 0x3a
 7314 00df 0B       		.uleb128 0xb
 7315 00e0 3B       		.uleb128 0x3b
 7316 00e1 05       		.uleb128 0x5
 7317 00e2 18       		.uleb128 0x18
 7318 00e3 13       		.uleb128 0x13
 7319 00e4 00       		.byte	0
 7320 00e5 00       		.byte	0
 7321 00e6 11       		.uleb128 0x11
 7322 00e7 39       		.uleb128 0x39
 7323 00e8 00       		.byte	0
 7324 00e9 03       		.uleb128 0x3
 7325 00ea 08       		.uleb128 0x8
 7326 00eb 3A       		.uleb128 0x3a
 7327 00ec 0B       		.uleb128 0xb
 7328 00ed 3B       		.uleb128 0x3b
 7329 00ee 0B       		.uleb128 0xb
 7330 00ef 00       		.byte	0
 7331 00f0 00       		.byte	0
 7332 00f1 12       		.uleb128 0x12
 7333 00f2 2E       		.uleb128 0x2e
 7334 00f3 01       		.byte	0x1
 7335 00f4 3F       		.uleb128 0x3f
 7336 00f5 19       		.uleb128 0x19
 7337 00f6 03       		.uleb128 0x3
 7338 00f7 0E       		.uleb128 0xe
 7339 00f8 3A       		.uleb128 0x3a
 7340 00f9 0B       		.uleb128 0xb
 7341 00fa 3B       		.uleb128 0x3b
 7342 00fb 0B       		.uleb128 0xb
 7343 00fc 6E       		.uleb128 0x6e
 7344 00fd 08       		.uleb128 0x8
 7345 00fe 3C       		.uleb128 0x3c
 7346 00ff 19       		.uleb128 0x19
 7347 0100 01       		.uleb128 0x1
 7348 0101 13       		.uleb128 0x13
 7349 0102 00       		.byte	0
GAS LISTING C:\Users\NJLLMR~1\AppData\Local\Temp\ccWOhw13.s 			page 167


 7350 0103 00       		.byte	0
 7351 0104 13       		.uleb128 0x13
 7352 0105 05       		.uleb128 0x5
 7353 0106 00       		.byte	0
 7354 0107 49       		.uleb128 0x49
 7355 0108 13       		.uleb128 0x13
 7356 0109 00       		.byte	0
 7357 010a 00       		.byte	0
 7358 010b 14       		.uleb128 0x14
 7359 010c 26       		.uleb128 0x26
 7360 010d 00       		.byte	0
 7361 010e 49       		.uleb128 0x49
 7362 010f 13       		.uleb128 0x13
 7363 0110 00       		.byte	0
 7364 0111 00       		.byte	0
 7365 0112 15       		.uleb128 0x15
 7366 0113 2E       		.uleb128 0x2e
 7367 0114 01       		.byte	0x1
 7368 0115 3F       		.uleb128 0x3f
 7369 0116 19       		.uleb128 0x19
 7370 0117 03       		.uleb128 0x3
 7371 0118 08       		.uleb128 0x8
 7372 0119 3A       		.uleb128 0x3a
 7373 011a 0B       		.uleb128 0xb
 7374 011b 3B       		.uleb128 0x3b
 7375 011c 0B       		.uleb128 0xb
 7376 011d 6E       		.uleb128 0x6e
 7377 011e 08       		.uleb128 0x8
 7378 011f 49       		.uleb128 0x49
 7379 0120 13       		.uleb128 0x13
 7380 0121 3C       		.uleb128 0x3c
 7381 0122 19       		.uleb128 0x19
 7382 0123 01       		.uleb128 0x1
 7383 0124 13       		.uleb128 0x13
 7384 0125 00       		.byte	0
 7385 0126 00       		.byte	0
 7386 0127 16       		.uleb128 0x16
 7387 0128 2E       		.uleb128 0x2e
 7388 0129 01       		.byte	0x1
 7389 012a 3F       		.uleb128 0x3f
 7390 012b 19       		.uleb128 0x19
 7391 012c 03       		.uleb128 0x3
 7392 012d 0E       		.uleb128 0xe
 7393 012e 3A       		.uleb128 0x3a
 7394 012f 0B       		.uleb128 0xb
 7395 0130 3B       		.uleb128 0x3b
 7396 0131 05       		.uleb128 0x5
 7397 0132 6E       		.uleb128 0x6e
 7398 0133 08       		.uleb128 0x8
 7399 0134 49       		.uleb128 0x49
 7400 0135 13       		.uleb128 0x13
 7401 0136 3C       		.uleb128 0x3c
 7402 0137 19       		.uleb128 0x19
 7403 0138 01       		.uleb128 0x1
 7404 0139 13       		.uleb128 0x13
 7405 013a 00       		.byte	0
 7406 013b 00       		.byte	0
GAS LISTING C:\Users\NJLLMR~1\AppData\Local\Temp\ccWOhw13.s 			page 168


 7407 013c 17       		.uleb128 0x17
 7408 013d 2E       		.uleb128 0x2e
 7409 013e 01       		.byte	0x1
 7410 013f 3F       		.uleb128 0x3f
 7411 0140 19       		.uleb128 0x19
 7412 0141 03       		.uleb128 0x3
 7413 0142 08       		.uleb128 0x8
 7414 0143 3A       		.uleb128 0x3a
 7415 0144 0B       		.uleb128 0xb
 7416 0145 3B       		.uleb128 0x3b
 7417 0146 05       		.uleb128 0x5
 7418 0147 6E       		.uleb128 0x6e
 7419 0148 08       		.uleb128 0x8
 7420 0149 49       		.uleb128 0x49
 7421 014a 13       		.uleb128 0x13
 7422 014b 3C       		.uleb128 0x3c
 7423 014c 19       		.uleb128 0x19
 7424 014d 01       		.uleb128 0x1
 7425 014e 13       		.uleb128 0x13
 7426 014f 00       		.byte	0
 7427 0150 00       		.byte	0
 7428 0151 18       		.uleb128 0x18
 7429 0152 2E       		.uleb128 0x2e
 7430 0153 00       		.byte	0
 7431 0154 3F       		.uleb128 0x3f
 7432 0155 19       		.uleb128 0x19
 7433 0156 03       		.uleb128 0x3
 7434 0157 08       		.uleb128 0x8
 7435 0158 3A       		.uleb128 0x3a
 7436 0159 0B       		.uleb128 0xb
 7437 015a 3B       		.uleb128 0x3b
 7438 015b 05       		.uleb128 0x5
 7439 015c 6E       		.uleb128 0x6e
 7440 015d 08       		.uleb128 0x8
 7441 015e 49       		.uleb128 0x49
 7442 015f 13       		.uleb128 0x13
 7443 0160 3C       		.uleb128 0x3c
 7444 0161 19       		.uleb128 0x19
 7445 0162 00       		.byte	0
 7446 0163 00       		.byte	0
 7447 0164 19       		.uleb128 0x19
 7448 0165 2E       		.uleb128 0x2e
 7449 0166 01       		.byte	0x1
 7450 0167 3F       		.uleb128 0x3f
 7451 0168 19       		.uleb128 0x19
 7452 0169 03       		.uleb128 0x3
 7453 016a 08       		.uleb128 0x8
 7454 016b 3A       		.uleb128 0x3a
 7455 016c 0B       		.uleb128 0xb
 7456 016d 3B       		.uleb128 0x3b
 7457 016e 05       		.uleb128 0x5
 7458 016f 6E       		.uleb128 0x6e
 7459 0170 08       		.uleb128 0x8
 7460 0171 49       		.uleb128 0x49
 7461 0172 13       		.uleb128 0x13
 7462 0173 3C       		.uleb128 0x3c
 7463 0174 19       		.uleb128 0x19
GAS LISTING C:\Users\NJLLMR~1\AppData\Local\Temp\ccWOhw13.s 			page 169


 7464 0175 00       		.byte	0
 7465 0176 00       		.byte	0
 7466 0177 1A       		.uleb128 0x1a
 7467 0178 1C       		.uleb128 0x1c
 7468 0179 00       		.byte	0
 7469 017a 49       		.uleb128 0x49
 7470 017b 13       		.uleb128 0x13
 7471 017c 38       		.uleb128 0x38
 7472 017d 0B       		.uleb128 0xb
 7473 017e 32       		.uleb128 0x32
 7474 017f 0B       		.uleb128 0xb
 7475 0180 00       		.byte	0
 7476 0181 00       		.byte	0
 7477 0182 1B       		.uleb128 0x1b
 7478 0183 16       		.uleb128 0x16
 7479 0184 00       		.byte	0
 7480 0185 03       		.uleb128 0x3
 7481 0186 0E       		.uleb128 0xe
 7482 0187 3A       		.uleb128 0x3a
 7483 0188 0B       		.uleb128 0xb
 7484 0189 3B       		.uleb128 0x3b
 7485 018a 0B       		.uleb128 0xb
 7486 018b 49       		.uleb128 0x49
 7487 018c 13       		.uleb128 0x13
 7488 018d 32       		.uleb128 0x32
 7489 018e 0B       		.uleb128 0xb
 7490 018f 00       		.byte	0
 7491 0190 00       		.byte	0
 7492 0191 1C       		.uleb128 0x1c
 7493 0192 2E       		.uleb128 0x2e
 7494 0193 01       		.byte	0x1
 7495 0194 3F       		.uleb128 0x3f
 7496 0195 19       		.uleb128 0x19
 7497 0196 03       		.uleb128 0x3
 7498 0197 0E       		.uleb128 0xe
 7499 0198 3A       		.uleb128 0x3a
 7500 0199 0B       		.uleb128 0xb
 7501 019a 3B       		.uleb128 0x3b
 7502 019b 0B       		.uleb128 0xb
 7503 019c 32       		.uleb128 0x32
 7504 019d 0B       		.uleb128 0xb
 7505 019e 3C       		.uleb128 0x3c
 7506 019f 19       		.uleb128 0x19
 7507 01a0 64       		.uleb128 0x64
 7508 01a1 13       		.uleb128 0x13
 7509 01a2 01       		.uleb128 0x1
 7510 01a3 13       		.uleb128 0x13
 7511 01a4 00       		.byte	0
 7512 01a5 00       		.byte	0
 7513 01a6 1D       		.uleb128 0x1d
 7514 01a7 2E       		.uleb128 0x2e
 7515 01a8 01       		.byte	0x1
 7516 01a9 3F       		.uleb128 0x3f
 7517 01aa 19       		.uleb128 0x19
 7518 01ab 03       		.uleb128 0x3
 7519 01ac 08       		.uleb128 0x8
 7520 01ad 3A       		.uleb128 0x3a
GAS LISTING C:\Users\NJLLMR~1\AppData\Local\Temp\ccWOhw13.s 			page 170


 7521 01ae 0B       		.uleb128 0xb
 7522 01af 3B       		.uleb128 0x3b
 7523 01b0 0B       		.uleb128 0xb
 7524 01b1 32       		.uleb128 0x32
 7525 01b2 0B       		.uleb128 0xb
 7526 01b3 3C       		.uleb128 0x3c
 7527 01b4 19       		.uleb128 0x19
 7528 01b5 64       		.uleb128 0x64
 7529 01b6 13       		.uleb128 0x13
 7530 01b7 00       		.byte	0
 7531 01b8 00       		.byte	0
 7532 01b9 1E       		.uleb128 0x1e
 7533 01ba 13       		.uleb128 0x13
 7534 01bb 01       		.byte	0x1
 7535 01bc 03       		.uleb128 0x3
 7536 01bd 0E       		.uleb128 0xe
 7537 01be 0B       		.uleb128 0xb
 7538 01bf 0B       		.uleb128 0xb
 7539 01c0 3A       		.uleb128 0x3a
 7540 01c1 0B       		.uleb128 0xb
 7541 01c2 3B       		.uleb128 0x3b
 7542 01c3 05       		.uleb128 0x5
 7543 01c4 01       		.uleb128 0x1
 7544 01c5 13       		.uleb128 0x13
 7545 01c6 00       		.byte	0
 7546 01c7 00       		.byte	0
 7547 01c8 1F       		.uleb128 0x1f
 7548 01c9 1C       		.uleb128 0x1c
 7549 01ca 00       		.byte	0
 7550 01cb 49       		.uleb128 0x49
 7551 01cc 13       		.uleb128 0x13
 7552 01cd 38       		.uleb128 0x38
 7553 01ce 0B       		.uleb128 0xb
 7554 01cf 00       		.byte	0
 7555 01d0 00       		.byte	0
 7556 01d1 20       		.uleb128 0x20
 7557 01d2 0D       		.uleb128 0xd
 7558 01d3 00       		.byte	0
 7559 01d4 03       		.uleb128 0x3
 7560 01d5 08       		.uleb128 0x8
 7561 01d6 3A       		.uleb128 0x3a
 7562 01d7 0B       		.uleb128 0xb
 7563 01d8 3B       		.uleb128 0x3b
 7564 01d9 05       		.uleb128 0x5
 7565 01da 49       		.uleb128 0x49
 7566 01db 13       		.uleb128 0x13
 7567 01dc 38       		.uleb128 0x38
 7568 01dd 0B       		.uleb128 0xb
 7569 01de 00       		.byte	0
 7570 01df 00       		.byte	0
 7571 01e0 21       		.uleb128 0x21
 7572 01e1 2E       		.uleb128 0x2e
 7573 01e2 01       		.byte	0x1
 7574 01e3 3F       		.uleb128 0x3f
 7575 01e4 19       		.uleb128 0x19
 7576 01e5 03       		.uleb128 0x3
 7577 01e6 0E       		.uleb128 0xe
GAS LISTING C:\Users\NJLLMR~1\AppData\Local\Temp\ccWOhw13.s 			page 171


 7578 01e7 3A       		.uleb128 0x3a
 7579 01e8 0B       		.uleb128 0xb
 7580 01e9 3B       		.uleb128 0x3b
 7581 01ea 05       		.uleb128 0x5
 7582 01eb 3C       		.uleb128 0x3c
 7583 01ec 19       		.uleb128 0x19
 7584 01ed 64       		.uleb128 0x64
 7585 01ee 13       		.uleb128 0x13
 7586 01ef 00       		.byte	0
 7587 01f0 00       		.byte	0
 7588 01f1 22       		.uleb128 0x22
 7589 01f2 0D       		.uleb128 0xd
 7590 01f3 00       		.byte	0
 7591 01f4 03       		.uleb128 0x3
 7592 01f5 08       		.uleb128 0x8
 7593 01f6 3A       		.uleb128 0x3a
 7594 01f7 0B       		.uleb128 0xb
 7595 01f8 3B       		.uleb128 0x3b
 7596 01f9 05       		.uleb128 0x5
 7597 01fa 49       		.uleb128 0x49
 7598 01fb 13       		.uleb128 0x13
 7599 01fc 3F       		.uleb128 0x3f
 7600 01fd 19       		.uleb128 0x19
 7601 01fe 32       		.uleb128 0x32
 7602 01ff 0B       		.uleb128 0xb
 7603 0200 3C       		.uleb128 0x3c
 7604 0201 19       		.uleb128 0x19
 7605 0202 00       		.byte	0
 7606 0203 00       		.byte	0
 7607 0204 23       		.uleb128 0x23
 7608 0205 16       		.uleb128 0x16
 7609 0206 00       		.byte	0
 7610 0207 03       		.uleb128 0x3
 7611 0208 08       		.uleb128 0x8
 7612 0209 3A       		.uleb128 0x3a
 7613 020a 0B       		.uleb128 0xb
 7614 020b 3B       		.uleb128 0x3b
 7615 020c 0B       		.uleb128 0xb
 7616 020d 49       		.uleb128 0x49
 7617 020e 13       		.uleb128 0x13
 7618 020f 32       		.uleb128 0x32
 7619 0210 0B       		.uleb128 0xb
 7620 0211 00       		.byte	0
 7621 0212 00       		.byte	0
 7622 0213 24       		.uleb128 0x24
 7623 0214 0D       		.uleb128 0xd
 7624 0215 00       		.byte	0
 7625 0216 03       		.uleb128 0x3
 7626 0217 08       		.uleb128 0x8
 7627 0218 3A       		.uleb128 0x3a
 7628 0219 0B       		.uleb128 0xb
 7629 021a 3B       		.uleb128 0x3b
 7630 021b 0B       		.uleb128 0xb
 7631 021c 49       		.uleb128 0x49
 7632 021d 13       		.uleb128 0x13
 7633 021e 3F       		.uleb128 0x3f
 7634 021f 19       		.uleb128 0x19
GAS LISTING C:\Users\NJLLMR~1\AppData\Local\Temp\ccWOhw13.s 			page 172


 7635 0220 3C       		.uleb128 0x3c
 7636 0221 19       		.uleb128 0x19
 7637 0222 00       		.byte	0
 7638 0223 00       		.byte	0
 7639 0224 25       		.uleb128 0x25
 7640 0225 2E       		.uleb128 0x2e
 7641 0226 00       		.byte	0
 7642 0227 3F       		.uleb128 0x3f
 7643 0228 19       		.uleb128 0x19
 7644 0229 03       		.uleb128 0x3
 7645 022a 0E       		.uleb128 0xe
 7646 022b 3A       		.uleb128 0x3a
 7647 022c 0B       		.uleb128 0xb
 7648 022d 3B       		.uleb128 0x3b
 7649 022e 0B       		.uleb128 0xb
 7650 022f 6E       		.uleb128 0x6e
 7651 0230 08       		.uleb128 0x8
 7652 0231 49       		.uleb128 0x49
 7653 0232 13       		.uleb128 0x13
 7654 0233 3C       		.uleb128 0x3c
 7655 0234 19       		.uleb128 0x19
 7656 0235 00       		.byte	0
 7657 0236 00       		.byte	0
 7658 0237 26       		.uleb128 0x26
 7659 0238 2E       		.uleb128 0x2e
 7660 0239 01       		.byte	0x1
 7661 023a 3F       		.uleb128 0x3f
 7662 023b 19       		.uleb128 0x19
 7663 023c 03       		.uleb128 0x3
 7664 023d 08       		.uleb128 0x8
 7665 023e 3A       		.uleb128 0x3a
 7666 023f 0B       		.uleb128 0xb
 7667 0240 3B       		.uleb128 0x3b
 7668 0241 0B       		.uleb128 0xb
 7669 0242 6E       		.uleb128 0x6e
 7670 0243 08       		.uleb128 0x8
 7671 0244 49       		.uleb128 0x49
 7672 0245 13       		.uleb128 0x13
 7673 0246 3C       		.uleb128 0x3c
 7674 0247 19       		.uleb128 0x19
 7675 0248 64       		.uleb128 0x64
 7676 0249 13       		.uleb128 0x13
 7677 024a 01       		.uleb128 0x1
 7678 024b 13       		.uleb128 0x13
 7679 024c 00       		.byte	0
 7680 024d 00       		.byte	0
 7681 024e 27       		.uleb128 0x27
 7682 024f 2E       		.uleb128 0x2e
 7683 0250 01       		.byte	0x1
 7684 0251 3F       		.uleb128 0x3f
 7685 0252 19       		.uleb128 0x19
 7686 0253 03       		.uleb128 0x3
 7687 0254 08       		.uleb128 0x8
 7688 0255 3A       		.uleb128 0x3a
 7689 0256 0B       		.uleb128 0xb
 7690 0257 3B       		.uleb128 0x3b
 7691 0258 0B       		.uleb128 0xb
GAS LISTING C:\Users\NJLLMR~1\AppData\Local\Temp\ccWOhw13.s 			page 173


 7692 0259 6E       		.uleb128 0x6e
 7693 025a 08       		.uleb128 0x8
 7694 025b 3C       		.uleb128 0x3c
 7695 025c 19       		.uleb128 0x19
 7696 025d 64       		.uleb128 0x64
 7697 025e 13       		.uleb128 0x13
 7698 025f 01       		.uleb128 0x1
 7699 0260 13       		.uleb128 0x13
 7700 0261 00       		.byte	0
 7701 0262 00       		.byte	0
 7702 0263 28       		.uleb128 0x28
 7703 0264 2E       		.uleb128 0x2e
 7704 0265 01       		.byte	0x1
 7705 0266 3F       		.uleb128 0x3f
 7706 0267 19       		.uleb128 0x19
 7707 0268 03       		.uleb128 0x3
 7708 0269 08       		.uleb128 0x8
 7709 026a 3A       		.uleb128 0x3a
 7710 026b 0B       		.uleb128 0xb
 7711 026c 3B       		.uleb128 0x3b
 7712 026d 05       		.uleb128 0x5
 7713 026e 6E       		.uleb128 0x6e
 7714 026f 08       		.uleb128 0x8
 7715 0270 3C       		.uleb128 0x3c
 7716 0271 19       		.uleb128 0x19
 7717 0272 64       		.uleb128 0x64
 7718 0273 13       		.uleb128 0x13
 7719 0274 01       		.uleb128 0x1
 7720 0275 13       		.uleb128 0x13
 7721 0276 00       		.byte	0
 7722 0277 00       		.byte	0
 7723 0278 29       		.uleb128 0x29
 7724 0279 2E       		.uleb128 0x2e
 7725 027a 01       		.byte	0x1
 7726 027b 3F       		.uleb128 0x3f
 7727 027c 19       		.uleb128 0x19
 7728 027d 03       		.uleb128 0x3
 7729 027e 08       		.uleb128 0x8
 7730 027f 3A       		.uleb128 0x3a
 7731 0280 0B       		.uleb128 0xb
 7732 0281 3B       		.uleb128 0x3b
 7733 0282 05       		.uleb128 0x5
 7734 0283 6E       		.uleb128 0x6e
 7735 0284 08       		.uleb128 0x8
 7736 0285 49       		.uleb128 0x49
 7737 0286 13       		.uleb128 0x13
 7738 0287 3C       		.uleb128 0x3c
 7739 0288 19       		.uleb128 0x19
 7740 0289 64       		.uleb128 0x64
 7741 028a 13       		.uleb128 0x13
 7742 028b 01       		.uleb128 0x1
 7743 028c 13       		.uleb128 0x13
 7744 028d 00       		.byte	0
 7745 028e 00       		.byte	0
 7746 028f 2A       		.uleb128 0x2a
 7747 0290 2E       		.uleb128 0x2e
 7748 0291 01       		.byte	0x1
GAS LISTING C:\Users\NJLLMR~1\AppData\Local\Temp\ccWOhw13.s 			page 174


 7749 0292 3F       		.uleb128 0x3f
 7750 0293 19       		.uleb128 0x19
 7751 0294 03       		.uleb128 0x3
 7752 0295 08       		.uleb128 0x8
 7753 0296 3A       		.uleb128 0x3a
 7754 0297 0B       		.uleb128 0xb
 7755 0298 3B       		.uleb128 0x3b
 7756 0299 05       		.uleb128 0x5
 7757 029a 6E       		.uleb128 0x6e
 7758 029b 08       		.uleb128 0x8
 7759 029c 49       		.uleb128 0x49
 7760 029d 13       		.uleb128 0x13
 7761 029e 3C       		.uleb128 0x3c
 7762 029f 19       		.uleb128 0x19
 7763 02a0 64       		.uleb128 0x64
 7764 02a1 13       		.uleb128 0x13
 7765 02a2 00       		.byte	0
 7766 02a3 00       		.byte	0
 7767 02a4 2B       		.uleb128 0x2b
 7768 02a5 2E       		.uleb128 0x2e
 7769 02a6 01       		.byte	0x1
 7770 02a7 3F       		.uleb128 0x3f
 7771 02a8 19       		.uleb128 0x19
 7772 02a9 03       		.uleb128 0x3
 7773 02aa 08       		.uleb128 0x8
 7774 02ab 3A       		.uleb128 0x3a
 7775 02ac 0B       		.uleb128 0xb
 7776 02ad 3B       		.uleb128 0x3b
 7777 02ae 05       		.uleb128 0x5
 7778 02af 6E       		.uleb128 0x6e
 7779 02b0 08       		.uleb128 0x8
 7780 02b1 3C       		.uleb128 0x3c
 7781 02b2 19       		.uleb128 0x19
 7782 02b3 01       		.uleb128 0x1
 7783 02b4 13       		.uleb128 0x13
 7784 02b5 00       		.byte	0
 7785 02b6 00       		.byte	0
 7786 02b7 2C       		.uleb128 0x2c
 7787 02b8 2E       		.uleb128 0x2e
 7788 02b9 01       		.byte	0x1
 7789 02ba 3F       		.uleb128 0x3f
 7790 02bb 19       		.uleb128 0x19
 7791 02bc 03       		.uleb128 0x3
 7792 02bd 0E       		.uleb128 0xe
 7793 02be 3A       		.uleb128 0x3a
 7794 02bf 0B       		.uleb128 0xb
 7795 02c0 3B       		.uleb128 0x3b
 7796 02c1 05       		.uleb128 0x5
 7797 02c2 6E       		.uleb128 0x6e
 7798 02c3 08       		.uleb128 0x8
 7799 02c4 3C       		.uleb128 0x3c
 7800 02c5 19       		.uleb128 0x19
 7801 02c6 01       		.uleb128 0x1
 7802 02c7 13       		.uleb128 0x13
 7803 02c8 00       		.byte	0
 7804 02c9 00       		.byte	0
 7805 02ca 2D       		.uleb128 0x2d
GAS LISTING C:\Users\NJLLMR~1\AppData\Local\Temp\ccWOhw13.s 			page 175


 7806 02cb 2E       		.uleb128 0x2e
 7807 02cc 00       		.byte	0
 7808 02cd 3F       		.uleb128 0x3f
 7809 02ce 19       		.uleb128 0x19
 7810 02cf 03       		.uleb128 0x3
 7811 02d0 0E       		.uleb128 0xe
 7812 02d1 3A       		.uleb128 0x3a
 7813 02d2 0B       		.uleb128 0xb
 7814 02d3 3B       		.uleb128 0x3b
 7815 02d4 05       		.uleb128 0x5
 7816 02d5 6E       		.uleb128 0x6e
 7817 02d6 08       		.uleb128 0x8
 7818 02d7 49       		.uleb128 0x49
 7819 02d8 13       		.uleb128 0x13
 7820 02d9 3C       		.uleb128 0x3c
 7821 02da 19       		.uleb128 0x19
 7822 02db 00       		.byte	0
 7823 02dc 00       		.byte	0
 7824 02dd 2E       		.uleb128 0x2e
 7825 02de 2E       		.uleb128 0x2e
 7826 02df 01       		.byte	0x1
 7827 02e0 3F       		.uleb128 0x3f
 7828 02e1 19       		.uleb128 0x19
 7829 02e2 03       		.uleb128 0x3
 7830 02e3 0E       		.uleb128 0xe
 7831 02e4 3A       		.uleb128 0x3a
 7832 02e5 0B       		.uleb128 0xb
 7833 02e6 3B       		.uleb128 0x3b
 7834 02e7 05       		.uleb128 0x5
 7835 02e8 32       		.uleb128 0x32
 7836 02e9 0B       		.uleb128 0xb
 7837 02ea 3C       		.uleb128 0x3c
 7838 02eb 19       		.uleb128 0x19
 7839 02ec 64       		.uleb128 0x64
 7840 02ed 13       		.uleb128 0x13
 7841 02ee 01       		.uleb128 0x1
 7842 02ef 13       		.uleb128 0x13
 7843 02f0 00       		.byte	0
 7844 02f1 00       		.byte	0
 7845 02f2 2F       		.uleb128 0x2f
 7846 02f3 2E       		.uleb128 0x2e
 7847 02f4 01       		.byte	0x1
 7848 02f5 3F       		.uleb128 0x3f
 7849 02f6 19       		.uleb128 0x19
 7850 02f7 03       		.uleb128 0x3
 7851 02f8 0E       		.uleb128 0xe
 7852 02f9 3A       		.uleb128 0x3a
 7853 02fa 0B       		.uleb128 0xb
 7854 02fb 3B       		.uleb128 0x3b
 7855 02fc 0B       		.uleb128 0xb
 7856 02fd 32       		.uleb128 0x32
 7857 02fe 0B       		.uleb128 0xb
 7858 02ff 3C       		.uleb128 0x3c
 7859 0300 19       		.uleb128 0x19
 7860 0301 63       		.uleb128 0x63
 7861 0302 19       		.uleb128 0x19
 7862 0303 64       		.uleb128 0x64
GAS LISTING C:\Users\NJLLMR~1\AppData\Local\Temp\ccWOhw13.s 			page 176


 7863 0304 13       		.uleb128 0x13
 7864 0305 01       		.uleb128 0x1
 7865 0306 13       		.uleb128 0x13
 7866 0307 00       		.byte	0
 7867 0308 00       		.byte	0
 7868 0309 30       		.uleb128 0x30
 7869 030a 2E       		.uleb128 0x2e
 7870 030b 01       		.byte	0x1
 7871 030c 3F       		.uleb128 0x3f
 7872 030d 19       		.uleb128 0x19
 7873 030e 03       		.uleb128 0x3
 7874 030f 08       		.uleb128 0x8
 7875 0310 3A       		.uleb128 0x3a
 7876 0311 0B       		.uleb128 0xb
 7877 0312 3B       		.uleb128 0x3b
 7878 0313 05       		.uleb128 0x5
 7879 0314 32       		.uleb128 0x32
 7880 0315 0B       		.uleb128 0xb
 7881 0316 3C       		.uleb128 0x3c
 7882 0317 19       		.uleb128 0x19
 7883 0318 64       		.uleb128 0x64
 7884 0319 13       		.uleb128 0x13
 7885 031a 01       		.uleb128 0x1
 7886 031b 13       		.uleb128 0x13
 7887 031c 00       		.byte	0
 7888 031d 00       		.byte	0
 7889 031e 31       		.uleb128 0x31
 7890 031f 2E       		.uleb128 0x2e
 7891 0320 01       		.byte	0x1
 7892 0321 3F       		.uleb128 0x3f
 7893 0322 19       		.uleb128 0x19
 7894 0323 03       		.uleb128 0x3
 7895 0324 0E       		.uleb128 0xe
 7896 0325 3A       		.uleb128 0x3a
 7897 0326 0B       		.uleb128 0xb
 7898 0327 3B       		.uleb128 0x3b
 7899 0328 05       		.uleb128 0x5
 7900 0329 6E       		.uleb128 0x6e
 7901 032a 08       		.uleb128 0x8
 7902 032b 49       		.uleb128 0x49
 7903 032c 13       		.uleb128 0x13
 7904 032d 32       		.uleb128 0x32
 7905 032e 0B       		.uleb128 0xb
 7906 032f 3C       		.uleb128 0x3c
 7907 0330 19       		.uleb128 0x19
 7908 0331 64       		.uleb128 0x64
 7909 0332 13       		.uleb128 0x13
 7910 0333 01       		.uleb128 0x1
 7911 0334 13       		.uleb128 0x13
 7912 0335 00       		.byte	0
 7913 0336 00       		.byte	0
 7914 0337 32       		.uleb128 0x32
 7915 0338 2E       		.uleb128 0x2e
 7916 0339 01       		.byte	0x1
 7917 033a 3F       		.uleb128 0x3f
 7918 033b 19       		.uleb128 0x19
 7919 033c 03       		.uleb128 0x3
GAS LISTING C:\Users\NJLLMR~1\AppData\Local\Temp\ccWOhw13.s 			page 177


 7920 033d 08       		.uleb128 0x8
 7921 033e 3A       		.uleb128 0x3a
 7922 033f 0B       		.uleb128 0xb
 7923 0340 3B       		.uleb128 0x3b
 7924 0341 05       		.uleb128 0x5
 7925 0342 6E       		.uleb128 0x6e
 7926 0343 08       		.uleb128 0x8
 7927 0344 49       		.uleb128 0x49
 7928 0345 13       		.uleb128 0x13
 7929 0346 32       		.uleb128 0x32
 7930 0347 0B       		.uleb128 0xb
 7931 0348 3C       		.uleb128 0x3c
 7932 0349 19       		.uleb128 0x19
 7933 034a 64       		.uleb128 0x64
 7934 034b 13       		.uleb128 0x13
 7935 034c 01       		.uleb128 0x1
 7936 034d 13       		.uleb128 0x13
 7937 034e 00       		.byte	0
 7938 034f 00       		.byte	0
 7939 0350 33       		.uleb128 0x33
 7940 0351 2E       		.uleb128 0x2e
 7941 0352 01       		.byte	0x1
 7942 0353 3F       		.uleb128 0x3f
 7943 0354 19       		.uleb128 0x19
 7944 0355 03       		.uleb128 0x3
 7945 0356 08       		.uleb128 0x8
 7946 0357 3A       		.uleb128 0x3a
 7947 0358 0B       		.uleb128 0xb
 7948 0359 3B       		.uleb128 0x3b
 7949 035a 05       		.uleb128 0x5
 7950 035b 6E       		.uleb128 0x6e
 7951 035c 08       		.uleb128 0x8
 7952 035d 32       		.uleb128 0x32
 7953 035e 0B       		.uleb128 0xb
 7954 035f 3C       		.uleb128 0x3c
 7955 0360 19       		.uleb128 0x19
 7956 0361 64       		.uleb128 0x64
 7957 0362 13       		.uleb128 0x13
 7958 0363 01       		.uleb128 0x1
 7959 0364 13       		.uleb128 0x13
 7960 0365 00       		.byte	0
 7961 0366 00       		.byte	0
 7962 0367 34       		.uleb128 0x34
 7963 0368 2E       		.uleb128 0x2e
 7964 0369 01       		.byte	0x1
 7965 036a 3F       		.uleb128 0x3f
 7966 036b 19       		.uleb128 0x19
 7967 036c 03       		.uleb128 0x3
 7968 036d 0E       		.uleb128 0xe
 7969 036e 3A       		.uleb128 0x3a
 7970 036f 0B       		.uleb128 0xb
 7971 0370 3B       		.uleb128 0x3b
 7972 0371 0B       		.uleb128 0xb
 7973 0372 6E       		.uleb128 0x6e
 7974 0373 08       		.uleb128 0x8
 7975 0374 49       		.uleb128 0x49
 7976 0375 13       		.uleb128 0x13
GAS LISTING C:\Users\NJLLMR~1\AppData\Local\Temp\ccWOhw13.s 			page 178


 7977 0376 32       		.uleb128 0x32
 7978 0377 0B       		.uleb128 0xb
 7979 0378 3C       		.uleb128 0x3c
 7980 0379 19       		.uleb128 0x19
 7981 037a 64       		.uleb128 0x64
 7982 037b 13       		.uleb128 0x13
 7983 037c 01       		.uleb128 0x1
 7984 037d 13       		.uleb128 0x13
 7985 037e 00       		.byte	0
 7986 037f 00       		.byte	0
 7987 0380 35       		.uleb128 0x35
 7988 0381 2E       		.uleb128 0x2e
 7989 0382 01       		.byte	0x1
 7990 0383 3F       		.uleb128 0x3f
 7991 0384 19       		.uleb128 0x19
 7992 0385 03       		.uleb128 0x3
 7993 0386 0E       		.uleb128 0xe
 7994 0387 3A       		.uleb128 0x3a
 7995 0388 0B       		.uleb128 0xb
 7996 0389 3B       		.uleb128 0x3b
 7997 038a 05       		.uleb128 0x5
 7998 038b 6E       		.uleb128 0x6e
 7999 038c 08       		.uleb128 0x8
 8000 038d 32       		.uleb128 0x32
 8001 038e 0B       		.uleb128 0xb
 8002 038f 3C       		.uleb128 0x3c
 8003 0390 19       		.uleb128 0x19
 8004 0391 64       		.uleb128 0x64
 8005 0392 13       		.uleb128 0x13
 8006 0393 01       		.uleb128 0x1
 8007 0394 13       		.uleb128 0x13
 8008 0395 00       		.byte	0
 8009 0396 00       		.byte	0
 8010 0397 36       		.uleb128 0x36
 8011 0398 2F       		.uleb128 0x2f
 8012 0399 00       		.byte	0
 8013 039a 03       		.uleb128 0x3
 8014 039b 0E       		.uleb128 0xe
 8015 039c 49       		.uleb128 0x49
 8016 039d 13       		.uleb128 0x13
 8017 039e 00       		.byte	0
 8018 039f 00       		.byte	0
 8019 03a0 37       		.uleb128 0x37
 8020 03a1 2F       		.uleb128 0x2f
 8021 03a2 00       		.byte	0
 8022 03a3 03       		.uleb128 0x3
 8023 03a4 0E       		.uleb128 0xe
 8024 03a5 49       		.uleb128 0x49
 8025 03a6 13       		.uleb128 0x13
 8026 03a7 1E       		.uleb128 0x1e
 8027 03a8 19       		.uleb128 0x19
 8028 03a9 00       		.byte	0
 8029 03aa 00       		.byte	0
 8030 03ab 38       		.uleb128 0x38
 8031 03ac 2F       		.uleb128 0x2f
 8032 03ad 00       		.byte	0
 8033 03ae 03       		.uleb128 0x3
GAS LISTING C:\Users\NJLLMR~1\AppData\Local\Temp\ccWOhw13.s 			page 179


 8034 03af 08       		.uleb128 0x8
 8035 03b0 49       		.uleb128 0x49
 8036 03b1 13       		.uleb128 0x13
 8037 03b2 1E       		.uleb128 0x1e
 8038 03b3 19       		.uleb128 0x19
 8039 03b4 00       		.byte	0
 8040 03b5 00       		.byte	0
 8041 03b6 39       		.uleb128 0x39
 8042 03b7 02       		.uleb128 0x2
 8043 03b8 00       		.byte	0
 8044 03b9 03       		.uleb128 0x3
 8045 03ba 08       		.uleb128 0x8
 8046 03bb 3C       		.uleb128 0x3c
 8047 03bc 19       		.uleb128 0x19
 8048 03bd 00       		.byte	0
 8049 03be 00       		.byte	0
 8050 03bf 3A       		.uleb128 0x3a
 8051 03c0 04       		.uleb128 0x4
 8052 03c1 01       		.byte	0x1
 8053 03c2 03       		.uleb128 0x3
 8054 03c3 08       		.uleb128 0x8
 8055 03c4 0B       		.uleb128 0xb
 8056 03c5 0B       		.uleb128 0xb
 8057 03c6 3A       		.uleb128 0x3a
 8058 03c7 0B       		.uleb128 0xb
 8059 03c8 3B       		.uleb128 0x3b
 8060 03c9 0B       		.uleb128 0xb
 8061 03ca 01       		.uleb128 0x1
 8062 03cb 13       		.uleb128 0x13
 8063 03cc 00       		.byte	0
 8064 03cd 00       		.byte	0
 8065 03ce 3B       		.uleb128 0x3b
 8066 03cf 28       		.uleb128 0x28
 8067 03d0 00       		.byte	0
 8068 03d1 03       		.uleb128 0x3
 8069 03d2 08       		.uleb128 0x8
 8070 03d3 1C       		.uleb128 0x1c
 8071 03d4 0D       		.uleb128 0xd
 8072 03d5 00       		.byte	0
 8073 03d6 00       		.byte	0
 8074 03d7 3C       		.uleb128 0x3c
 8075 03d8 02       		.uleb128 0x2
 8076 03d9 01       		.byte	0x1
 8077 03da 03       		.uleb128 0x3
 8078 03db 08       		.uleb128 0x8
 8079 03dc 3C       		.uleb128 0x3c
 8080 03dd 19       		.uleb128 0x19
 8081 03de 01       		.uleb128 0x1
 8082 03df 13       		.uleb128 0x13
 8083 03e0 00       		.byte	0
 8084 03e1 00       		.byte	0
 8085 03e2 3D       		.uleb128 0x3d
 8086 03e3 02       		.uleb128 0x2
 8087 03e4 01       		.byte	0x1
 8088 03e5 03       		.uleb128 0x3
 8089 03e6 08       		.uleb128 0x8
 8090 03e7 0B       		.uleb128 0xb
GAS LISTING C:\Users\NJLLMR~1\AppData\Local\Temp\ccWOhw13.s 			page 180


 8091 03e8 0B       		.uleb128 0xb
 8092 03e9 3A       		.uleb128 0x3a
 8093 03ea 0B       		.uleb128 0xb
 8094 03eb 3B       		.uleb128 0x3b
 8095 03ec 05       		.uleb128 0x5
 8096 03ed 32       		.uleb128 0x32
 8097 03ee 0B       		.uleb128 0xb
 8098 03ef 01       		.uleb128 0x1
 8099 03f0 13       		.uleb128 0x13
 8100 03f1 00       		.byte	0
 8101 03f2 00       		.byte	0
 8102 03f3 3E       		.uleb128 0x3e
 8103 03f4 0D       		.uleb128 0xd
 8104 03f5 00       		.byte	0
 8105 03f6 03       		.uleb128 0x3
 8106 03f7 08       		.uleb128 0x8
 8107 03f8 3A       		.uleb128 0x3a
 8108 03f9 0B       		.uleb128 0xb
 8109 03fa 3B       		.uleb128 0x3b
 8110 03fb 05       		.uleb128 0x5
 8111 03fc 49       		.uleb128 0x49
 8112 03fd 13       		.uleb128 0x13
 8113 03fe 3F       		.uleb128 0x3f
 8114 03ff 19       		.uleb128 0x19
 8115 0400 3C       		.uleb128 0x3c
 8116 0401 19       		.uleb128 0x19
 8117 0402 00       		.byte	0
 8118 0403 00       		.byte	0
 8119 0404 3F       		.uleb128 0x3f
 8120 0405 2E       		.uleb128 0x2e
 8121 0406 01       		.byte	0x1
 8122 0407 3F       		.uleb128 0x3f
 8123 0408 19       		.uleb128 0x19
 8124 0409 03       		.uleb128 0x3
 8125 040a 08       		.uleb128 0x8
 8126 040b 3A       		.uleb128 0x3a
 8127 040c 0B       		.uleb128 0xb
 8128 040d 3B       		.uleb128 0x3b
 8129 040e 05       		.uleb128 0x5
 8130 040f 32       		.uleb128 0x32
 8131 0410 0B       		.uleb128 0xb
 8132 0411 3C       		.uleb128 0x3c
 8133 0412 19       		.uleb128 0x19
 8134 0413 64       		.uleb128 0x64
 8135 0414 13       		.uleb128 0x13
 8136 0415 00       		.byte	0
 8137 0416 00       		.byte	0
 8138 0417 40       		.uleb128 0x40
 8139 0418 16       		.uleb128 0x16
 8140 0419 00       		.byte	0
 8141 041a 03       		.uleb128 0x3
 8142 041b 08       		.uleb128 0x8
 8143 041c 3A       		.uleb128 0x3a
 8144 041d 0B       		.uleb128 0xb
 8145 041e 3B       		.uleb128 0x3b
 8146 041f 05       		.uleb128 0x5
 8147 0420 49       		.uleb128 0x49
GAS LISTING C:\Users\NJLLMR~1\AppData\Local\Temp\ccWOhw13.s 			page 181


 8148 0421 13       		.uleb128 0x13
 8149 0422 32       		.uleb128 0x32
 8150 0423 0B       		.uleb128 0xb
 8151 0424 00       		.byte	0
 8152 0425 00       		.byte	0
 8153 0426 41       		.uleb128 0x41
 8154 0427 0D       		.uleb128 0xd
 8155 0428 00       		.byte	0
 8156 0429 03       		.uleb128 0x3
 8157 042a 08       		.uleb128 0x8
 8158 042b 3A       		.uleb128 0x3a
 8159 042c 0B       		.uleb128 0xb
 8160 042d 3B       		.uleb128 0x3b
 8161 042e 05       		.uleb128 0x5
 8162 042f 49       		.uleb128 0x49
 8163 0430 13       		.uleb128 0x13
 8164 0431 3F       		.uleb128 0x3f
 8165 0432 19       		.uleb128 0x19
 8166 0433 32       		.uleb128 0x32
 8167 0434 0B       		.uleb128 0xb
 8168 0435 3C       		.uleb128 0x3c
 8169 0436 19       		.uleb128 0x19
 8170 0437 1C       		.uleb128 0x1c
 8171 0438 0B       		.uleb128 0xb
 8172 0439 00       		.byte	0
 8173 043a 00       		.byte	0
 8174 043b 42       		.uleb128 0x42
 8175 043c 0D       		.uleb128 0xd
 8176 043d 00       		.byte	0
 8177 043e 03       		.uleb128 0x3
 8178 043f 08       		.uleb128 0x8
 8179 0440 3A       		.uleb128 0x3a
 8180 0441 0B       		.uleb128 0xb
 8181 0442 3B       		.uleb128 0x3b
 8182 0443 05       		.uleb128 0x5
 8183 0444 49       		.uleb128 0x49
 8184 0445 13       		.uleb128 0x13
 8185 0446 3F       		.uleb128 0x3f
 8186 0447 19       		.uleb128 0x19
 8187 0448 32       		.uleb128 0x32
 8188 0449 0B       		.uleb128 0xb
 8189 044a 3C       		.uleb128 0x3c
 8190 044b 19       		.uleb128 0x19
 8191 044c 1C       		.uleb128 0x1c
 8192 044d 05       		.uleb128 0x5
 8193 044e 00       		.byte	0
 8194 044f 00       		.byte	0
 8195 0450 43       		.uleb128 0x43
 8196 0451 34       		.uleb128 0x34
 8197 0452 00       		.byte	0
 8198 0453 03       		.uleb128 0x3
 8199 0454 08       		.uleb128 0x8
 8200 0455 3A       		.uleb128 0x3a
 8201 0456 0B       		.uleb128 0xb
 8202 0457 3B       		.uleb128 0x3b
 8203 0458 0B       		.uleb128 0xb
 8204 0459 6E       		.uleb128 0x6e
GAS LISTING C:\Users\NJLLMR~1\AppData\Local\Temp\ccWOhw13.s 			page 182


 8205 045a 08       		.uleb128 0x8
 8206 045b 49       		.uleb128 0x49
 8207 045c 13       		.uleb128 0x13
 8208 045d 3F       		.uleb128 0x3f
 8209 045e 19       		.uleb128 0x19
 8210 045f 3C       		.uleb128 0x3c
 8211 0460 19       		.uleb128 0x19
 8212 0461 00       		.byte	0
 8213 0462 00       		.byte	0
 8214 0463 44       		.uleb128 0x44
 8215 0464 34       		.uleb128 0x34
 8216 0465 00       		.byte	0
 8217 0466 03       		.uleb128 0x3
 8218 0467 08       		.uleb128 0x8
 8219 0468 3A       		.uleb128 0x3a
 8220 0469 0B       		.uleb128 0xb
 8221 046a 3B       		.uleb128 0x3b
 8222 046b 0B       		.uleb128 0xb
 8223 046c 49       		.uleb128 0x49
 8224 046d 13       		.uleb128 0x13
 8225 046e 3C       		.uleb128 0x3c
 8226 046f 19       		.uleb128 0x19
 8227 0470 00       		.byte	0
 8228 0471 00       		.byte	0
 8229 0472 45       		.uleb128 0x45
 8230 0473 2E       		.uleb128 0x2e
 8231 0474 01       		.byte	0x1
 8232 0475 3F       		.uleb128 0x3f
 8233 0476 19       		.uleb128 0x19
 8234 0477 03       		.uleb128 0x3
 8235 0478 08       		.uleb128 0x8
 8236 0479 3A       		.uleb128 0x3a
 8237 047a 0B       		.uleb128 0xb
 8238 047b 3B       		.uleb128 0x3b
 8239 047c 05       		.uleb128 0x5
 8240 047d 49       		.uleb128 0x49
 8241 047e 13       		.uleb128 0x13
 8242 047f 3C       		.uleb128 0x3c
 8243 0480 19       		.uleb128 0x19
 8244 0481 01       		.uleb128 0x1
 8245 0482 13       		.uleb128 0x13
 8246 0483 00       		.byte	0
 8247 0484 00       		.byte	0
 8248 0485 46       		.uleb128 0x46
 8249 0486 2E       		.uleb128 0x2e
 8250 0487 01       		.byte	0x1
 8251 0488 3F       		.uleb128 0x3f
 8252 0489 19       		.uleb128 0x19
 8253 048a 03       		.uleb128 0x3
 8254 048b 08       		.uleb128 0x8
 8255 048c 3A       		.uleb128 0x3a
 8256 048d 0B       		.uleb128 0xb
 8257 048e 3B       		.uleb128 0x3b
 8258 048f 0B       		.uleb128 0xb
 8259 0490 49       		.uleb128 0x49
 8260 0491 13       		.uleb128 0x13
 8261 0492 3C       		.uleb128 0x3c
GAS LISTING C:\Users\NJLLMR~1\AppData\Local\Temp\ccWOhw13.s 			page 183


 8262 0493 19       		.uleb128 0x19
 8263 0494 01       		.uleb128 0x1
 8264 0495 13       		.uleb128 0x13
 8265 0496 00       		.byte	0
 8266 0497 00       		.byte	0
 8267 0498 47       		.uleb128 0x47
 8268 0499 18       		.uleb128 0x18
 8269 049a 00       		.byte	0
 8270 049b 00       		.byte	0
 8271 049c 00       		.byte	0
 8272 049d 48       		.uleb128 0x48
 8273 049e 2E       		.uleb128 0x2e
 8274 049f 00       		.byte	0
 8275 04a0 3F       		.uleb128 0x3f
 8276 04a1 19       		.uleb128 0x19
 8277 04a2 03       		.uleb128 0x3
 8278 04a3 08       		.uleb128 0x8
 8279 04a4 3A       		.uleb128 0x3a
 8280 04a5 0B       		.uleb128 0xb
 8281 04a6 3B       		.uleb128 0x3b
 8282 04a7 0B       		.uleb128 0xb
 8283 04a8 49       		.uleb128 0x49
 8284 04a9 13       		.uleb128 0x13
 8285 04aa 3C       		.uleb128 0x3c
 8286 04ab 19       		.uleb128 0x19
 8287 04ac 00       		.byte	0
 8288 04ad 00       		.byte	0
 8289 04ae 49       		.uleb128 0x49
 8290 04af 2E       		.uleb128 0x2e
 8291 04b0 01       		.byte	0x1
 8292 04b1 3F       		.uleb128 0x3f
 8293 04b2 19       		.uleb128 0x19
 8294 04b3 03       		.uleb128 0x3
 8295 04b4 08       		.uleb128 0x8
 8296 04b5 3A       		.uleb128 0x3a
 8297 04b6 0B       		.uleb128 0xb
 8298 04b7 3B       		.uleb128 0x3b
 8299 04b8 0B       		.uleb128 0xb
 8300 04b9 6E       		.uleb128 0x6e
 8301 04ba 08       		.uleb128 0x8
 8302 04bb 49       		.uleb128 0x49
 8303 04bc 13       		.uleb128 0x13
 8304 04bd 32       		.uleb128 0x32
 8305 04be 0B       		.uleb128 0xb
 8306 04bf 3C       		.uleb128 0x3c
 8307 04c0 19       		.uleb128 0x19
 8308 04c1 64       		.uleb128 0x64
 8309 04c2 13       		.uleb128 0x13
 8310 04c3 01       		.uleb128 0x1
 8311 04c4 13       		.uleb128 0x13
 8312 04c5 00       		.byte	0
 8313 04c6 00       		.byte	0
 8314 04c7 4A       		.uleb128 0x4a
 8315 04c8 2F       		.uleb128 0x2f
 8316 04c9 00       		.byte	0
 8317 04ca 03       		.uleb128 0x3
 8318 04cb 08       		.uleb128 0x8
GAS LISTING C:\Users\NJLLMR~1\AppData\Local\Temp\ccWOhw13.s 			page 184


 8319 04cc 49       		.uleb128 0x49
 8320 04cd 13       		.uleb128 0x13
 8321 04ce 00       		.byte	0
 8322 04cf 00       		.byte	0
 8323 04d0 4B       		.uleb128 0x4b
 8324 04d1 0D       		.uleb128 0xd
 8325 04d2 00       		.byte	0
 8326 04d3 03       		.uleb128 0x3
 8327 04d4 0E       		.uleb128 0xe
 8328 04d5 3A       		.uleb128 0x3a
 8329 04d6 0B       		.uleb128 0xb
 8330 04d7 3B       		.uleb128 0x3b
 8331 04d8 0B       		.uleb128 0xb
 8332 04d9 49       		.uleb128 0x49
 8333 04da 13       		.uleb128 0x13
 8334 04db 3F       		.uleb128 0x3f
 8335 04dc 19       		.uleb128 0x19
 8336 04dd 3C       		.uleb128 0x3c
 8337 04de 19       		.uleb128 0x19
 8338 04df 00       		.byte	0
 8339 04e0 00       		.byte	0
 8340 04e1 4C       		.uleb128 0x4c
 8341 04e2 13       		.uleb128 0x13
 8342 04e3 01       		.byte	0x1
 8343 04e4 03       		.uleb128 0x3
 8344 04e5 08       		.uleb128 0x8
 8345 04e6 0B       		.uleb128 0xb
 8346 04e7 0B       		.uleb128 0xb
 8347 04e8 3A       		.uleb128 0x3a
 8348 04e9 0B       		.uleb128 0xb
 8349 04ea 3B       		.uleb128 0x3b
 8350 04eb 0B       		.uleb128 0xb
 8351 04ec 00       		.byte	0
 8352 04ed 00       		.byte	0
 8353 04ee 4D       		.uleb128 0x4d
 8354 04ef 3A       		.uleb128 0x3a
 8355 04f0 00       		.byte	0
 8356 04f1 3A       		.uleb128 0x3a
 8357 04f2 0B       		.uleb128 0xb
 8358 04f3 3B       		.uleb128 0x3b
 8359 04f4 0B       		.uleb128 0xb
 8360 04f5 18       		.uleb128 0x18
 8361 04f6 13       		.uleb128 0x13
 8362 04f7 00       		.byte	0
 8363 04f8 00       		.byte	0
 8364 04f9 4E       		.uleb128 0x4e
 8365 04fa 10       		.uleb128 0x10
 8366 04fb 00       		.byte	0
 8367 04fc 0B       		.uleb128 0xb
 8368 04fd 0B       		.uleb128 0xb
 8369 04fe 49       		.uleb128 0x49
 8370 04ff 13       		.uleb128 0x13
 8371 0500 00       		.byte	0
 8372 0501 00       		.byte	0
 8373 0502 4F       		.uleb128 0x4f
 8374 0503 0F       		.uleb128 0xf
 8375 0504 00       		.byte	0
GAS LISTING C:\Users\NJLLMR~1\AppData\Local\Temp\ccWOhw13.s 			page 185


 8376 0505 0B       		.uleb128 0xb
 8377 0506 0B       		.uleb128 0xb
 8378 0507 00       		.byte	0
 8379 0508 00       		.byte	0
 8380 0509 50       		.uleb128 0x50
 8381 050a 26       		.uleb128 0x26
 8382 050b 00       		.byte	0
 8383 050c 00       		.byte	0
 8384 050d 00       		.byte	0
 8385 050e 51       		.uleb128 0x51
 8386 050f 01       		.uleb128 0x1
 8387 0510 01       		.byte	0x1
 8388 0511 49       		.uleb128 0x49
 8389 0512 13       		.uleb128 0x13
 8390 0513 01       		.uleb128 0x1
 8391 0514 13       		.uleb128 0x13
 8392 0515 00       		.byte	0
 8393 0516 00       		.byte	0
 8394 0517 52       		.uleb128 0x52
 8395 0518 21       		.uleb128 0x21
 8396 0519 00       		.byte	0
 8397 051a 00       		.byte	0
 8398 051b 00       		.byte	0
 8399 051c 53       		.uleb128 0x53
 8400 051d 2E       		.uleb128 0x2e
 8401 051e 01       		.byte	0x1
 8402 051f 3F       		.uleb128 0x3f
 8403 0520 19       		.uleb128 0x19
 8404 0521 03       		.uleb128 0x3
 8405 0522 08       		.uleb128 0x8
 8406 0523 3A       		.uleb128 0x3a
 8407 0524 0B       		.uleb128 0xb
 8408 0525 3B       		.uleb128 0x3b
 8409 0526 05       		.uleb128 0x5
 8410 0527 3C       		.uleb128 0x3c
 8411 0528 19       		.uleb128 0x19
 8412 0529 01       		.uleb128 0x1
 8413 052a 13       		.uleb128 0x13
 8414 052b 00       		.byte	0
 8415 052c 00       		.byte	0
 8416 052d 54       		.uleb128 0x54
 8417 052e 2E       		.uleb128 0x2e
 8418 052f 00       		.byte	0
 8419 0530 3F       		.uleb128 0x3f
 8420 0531 19       		.uleb128 0x19
 8421 0532 03       		.uleb128 0x3
 8422 0533 08       		.uleb128 0x8
 8423 0534 3A       		.uleb128 0x3a
 8424 0535 0B       		.uleb128 0xb
 8425 0536 3B       		.uleb128 0x3b
 8426 0537 05       		.uleb128 0x5
 8427 0538 49       		.uleb128 0x49
 8428 0539 13       		.uleb128 0x13
 8429 053a 3C       		.uleb128 0x3c
 8430 053b 19       		.uleb128 0x19
 8431 053c 00       		.byte	0
 8432 053d 00       		.byte	0
GAS LISTING C:\Users\NJLLMR~1\AppData\Local\Temp\ccWOhw13.s 			page 186


 8433 053e 55       		.uleb128 0x55
 8434 053f 2E       		.uleb128 0x2e
 8435 0540 01       		.byte	0x1
 8436 0541 3F       		.uleb128 0x3f
 8437 0542 19       		.uleb128 0x19
 8438 0543 03       		.uleb128 0x3
 8439 0544 08       		.uleb128 0x8
 8440 0545 3A       		.uleb128 0x3a
 8441 0546 0B       		.uleb128 0xb
 8442 0547 3B       		.uleb128 0x3b
 8443 0548 0B       		.uleb128 0xb
 8444 0549 3C       		.uleb128 0x3c
 8445 054a 19       		.uleb128 0x19
 8446 054b 01       		.uleb128 0x1
 8447 054c 13       		.uleb128 0x13
 8448 054d 00       		.byte	0
 8449 054e 00       		.byte	0
 8450 054f 56       		.uleb128 0x56
 8451 0550 02       		.uleb128 0x2
 8452 0551 01       		.byte	0x1
 8453 0552 03       		.uleb128 0x3
 8454 0553 0E       		.uleb128 0xe
 8455 0554 0B       		.uleb128 0xb
 8456 0555 0B       		.uleb128 0xb
 8457 0556 3A       		.uleb128 0x3a
 8458 0557 0B       		.uleb128 0xb
 8459 0558 3B       		.uleb128 0x3b
 8460 0559 0B       		.uleb128 0xb
 8461 055a 01       		.uleb128 0x1
 8462 055b 13       		.uleb128 0x13
 8463 055c 00       		.byte	0
 8464 055d 00       		.byte	0
 8465 055e 57       		.uleb128 0x57
 8466 055f 2E       		.uleb128 0x2e
 8467 0560 01       		.byte	0x1
 8468 0561 3F       		.uleb128 0x3f
 8469 0562 19       		.uleb128 0x19
 8470 0563 03       		.uleb128 0x3
 8471 0564 08       		.uleb128 0x8
 8472 0565 3A       		.uleb128 0x3a
 8473 0566 0B       		.uleb128 0xb
 8474 0567 3B       		.uleb128 0x3b
 8475 0568 0B       		.uleb128 0xb
 8476 0569 6E       		.uleb128 0x6e
 8477 056a 08       		.uleb128 0x8
 8478 056b 49       		.uleb128 0x49
 8479 056c 13       		.uleb128 0x13
 8480 056d 32       		.uleb128 0x32
 8481 056e 0B       		.uleb128 0xb
 8482 056f 3C       		.uleb128 0x3c
 8483 0570 19       		.uleb128 0x19
 8484 0571 64       		.uleb128 0x64
 8485 0572 13       		.uleb128 0x13
 8486 0573 00       		.byte	0
 8487 0574 00       		.byte	0
 8488 0575 58       		.uleb128 0x58
 8489 0576 2E       		.uleb128 0x2e
GAS LISTING C:\Users\NJLLMR~1\AppData\Local\Temp\ccWOhw13.s 			page 187


 8490 0577 01       		.byte	0x1
 8491 0578 47       		.uleb128 0x47
 8492 0579 13       		.uleb128 0x13
 8493 057a 3A       		.uleb128 0x3a
 8494 057b 0B       		.uleb128 0xb
 8495 057c 3B       		.uleb128 0x3b
 8496 057d 0B       		.uleb128 0xb
 8497 057e 20       		.uleb128 0x20
 8498 057f 0B       		.uleb128 0xb
 8499 0580 64       		.uleb128 0x64
 8500 0581 13       		.uleb128 0x13
 8501 0582 01       		.uleb128 0x1
 8502 0583 13       		.uleb128 0x13
 8503 0584 00       		.byte	0
 8504 0585 00       		.byte	0
 8505 0586 59       		.uleb128 0x59
 8506 0587 05       		.uleb128 0x5
 8507 0588 00       		.byte	0
 8508 0589 03       		.uleb128 0x3
 8509 058a 0E       		.uleb128 0xe
 8510 058b 49       		.uleb128 0x49
 8511 058c 13       		.uleb128 0x13
 8512 058d 34       		.uleb128 0x34
 8513 058e 19       		.uleb128 0x19
 8514 058f 00       		.byte	0
 8515 0590 00       		.byte	0
 8516 0591 5A       		.uleb128 0x5a
 8517 0592 2E       		.uleb128 0x2e
 8518 0593 01       		.byte	0x1
 8519 0594 31       		.uleb128 0x31
 8520 0595 13       		.uleb128 0x13
 8521 0596 6E       		.uleb128 0x6e
 8522 0597 08       		.uleb128 0x8
 8523 0598 11       		.uleb128 0x11
 8524 0599 01       		.uleb128 0x1
 8525 059a 12       		.uleb128 0x12
 8526 059b 06       		.uleb128 0x6
 8527 059c 40       		.uleb128 0x40
 8528 059d 18       		.uleb128 0x18
 8529 059e 64       		.uleb128 0x64
 8530 059f 13       		.uleb128 0x13
 8531 05a0 9742     		.uleb128 0x2117
 8532 05a2 19       		.uleb128 0x19
 8533 05a3 01       		.uleb128 0x1
 8534 05a4 13       		.uleb128 0x13
 8535 05a5 00       		.byte	0
 8536 05a6 00       		.byte	0
 8537 05a7 5B       		.uleb128 0x5b
 8538 05a8 05       		.uleb128 0x5
 8539 05a9 00       		.byte	0
 8540 05aa 31       		.uleb128 0x31
 8541 05ab 13       		.uleb128 0x13
 8542 05ac 02       		.uleb128 0x2
 8543 05ad 18       		.uleb128 0x18
 8544 05ae 00       		.byte	0
 8545 05af 00       		.byte	0
 8546 05b0 5C       		.uleb128 0x5c
GAS LISTING C:\Users\NJLLMR~1\AppData\Local\Temp\ccWOhw13.s 			page 188


 8547 05b1 2E       		.uleb128 0x2e
 8548 05b2 01       		.byte	0x1
 8549 05b3 47       		.uleb128 0x47
 8550 05b4 13       		.uleb128 0x13
 8551 05b5 3A       		.uleb128 0x3a
 8552 05b6 0B       		.uleb128 0xb
 8553 05b7 3B       		.uleb128 0x3b
 8554 05b8 0B       		.uleb128 0xb
 8555 05b9 11       		.uleb128 0x11
 8556 05ba 01       		.uleb128 0x1
 8557 05bb 12       		.uleb128 0x12
 8558 05bc 06       		.uleb128 0x6
 8559 05bd 40       		.uleb128 0x40
 8560 05be 18       		.uleb128 0x18
 8561 05bf 64       		.uleb128 0x64
 8562 05c0 13       		.uleb128 0x13
 8563 05c1 9642     		.uleb128 0x2116
 8564 05c3 19       		.uleb128 0x19
 8565 05c4 01       		.uleb128 0x1
 8566 05c5 13       		.uleb128 0x13
 8567 05c6 00       		.byte	0
 8568 05c7 00       		.byte	0
 8569 05c8 5D       		.uleb128 0x5d
 8570 05c9 05       		.uleb128 0x5
 8571 05ca 00       		.byte	0
 8572 05cb 03       		.uleb128 0x3
 8573 05cc 0E       		.uleb128 0xe
 8574 05cd 49       		.uleb128 0x49
 8575 05ce 13       		.uleb128 0x13
 8576 05cf 34       		.uleb128 0x34
 8577 05d0 19       		.uleb128 0x19
 8578 05d1 02       		.uleb128 0x2
 8579 05d2 18       		.uleb128 0x18
 8580 05d3 00       		.byte	0
 8581 05d4 00       		.byte	0
 8582 05d5 5E       		.uleb128 0x5e
 8583 05d6 0B       		.uleb128 0xb
 8584 05d7 01       		.byte	0x1
 8585 05d8 11       		.uleb128 0x11
 8586 05d9 01       		.uleb128 0x1
 8587 05da 12       		.uleb128 0x12
 8588 05db 06       		.uleb128 0x6
 8589 05dc 00       		.byte	0
 8590 05dd 00       		.byte	0
 8591 05de 5F       		.uleb128 0x5f
 8592 05df 34       		.uleb128 0x34
 8593 05e0 00       		.byte	0
 8594 05e1 03       		.uleb128 0x3
 8595 05e2 08       		.uleb128 0x8
 8596 05e3 3A       		.uleb128 0x3a
 8597 05e4 0B       		.uleb128 0xb
 8598 05e5 3B       		.uleb128 0x3b
 8599 05e6 0B       		.uleb128 0xb
 8600 05e7 49       		.uleb128 0x49
 8601 05e8 13       		.uleb128 0x13
 8602 05e9 02       		.uleb128 0x2
 8603 05ea 18       		.uleb128 0x18
GAS LISTING C:\Users\NJLLMR~1\AppData\Local\Temp\ccWOhw13.s 			page 189


 8604 05eb 00       		.byte	0
 8605 05ec 00       		.byte	0
 8606 05ed 60       		.uleb128 0x60
 8607 05ee 0B       		.uleb128 0xb
 8608 05ef 01       		.byte	0x1
 8609 05f0 55       		.uleb128 0x55
 8610 05f1 17       		.uleb128 0x17
 8611 05f2 00       		.byte	0
 8612 05f3 00       		.byte	0
 8613 05f4 61       		.uleb128 0x61
 8614 05f5 2E       		.uleb128 0x2e
 8615 05f6 01       		.byte	0x1
 8616 05f7 47       		.uleb128 0x47
 8617 05f8 13       		.uleb128 0x13
 8618 05f9 3A       		.uleb128 0x3a
 8619 05fa 0B       		.uleb128 0xb
 8620 05fb 3B       		.uleb128 0x3b
 8621 05fc 0B       		.uleb128 0xb
 8622 05fd 11       		.uleb128 0x11
 8623 05fe 01       		.uleb128 0x1
 8624 05ff 12       		.uleb128 0x12
 8625 0600 06       		.uleb128 0x6
 8626 0601 40       		.uleb128 0x40
 8627 0602 18       		.uleb128 0x18
 8628 0603 64       		.uleb128 0x64
 8629 0604 13       		.uleb128 0x13
 8630 0605 9742     		.uleb128 0x2117
 8631 0607 19       		.uleb128 0x19
 8632 0608 01       		.uleb128 0x1
 8633 0609 13       		.uleb128 0x13
 8634 060a 00       		.byte	0
 8635 060b 00       		.byte	0
 8636 060c 62       		.uleb128 0x62
 8637 060d 2E       		.uleb128 0x2e
 8638 060e 00       		.byte	0
 8639 060f 03       		.uleb128 0x3
 8640 0610 08       		.uleb128 0x8
 8641 0611 34       		.uleb128 0x34
 8642 0612 19       		.uleb128 0x19
 8643 0613 11       		.uleb128 0x11
 8644 0614 01       		.uleb128 0x1
 8645 0615 12       		.uleb128 0x12
 8646 0616 06       		.uleb128 0x6
 8647 0617 40       		.uleb128 0x40
 8648 0618 18       		.uleb128 0x18
 8649 0619 9642     		.uleb128 0x2116
 8650 061b 19       		.uleb128 0x19
 8651 061c 00       		.byte	0
 8652 061d 00       		.byte	0
 8653 061e 63       		.uleb128 0x63
 8654 061f 2E       		.uleb128 0x2e
 8655 0620 01       		.byte	0x1
 8656 0621 03       		.uleb128 0x3
 8657 0622 08       		.uleb128 0x8
 8658 0623 34       		.uleb128 0x34
 8659 0624 19       		.uleb128 0x19
 8660 0625 11       		.uleb128 0x11
GAS LISTING C:\Users\NJLLMR~1\AppData\Local\Temp\ccWOhw13.s 			page 190


 8661 0626 01       		.uleb128 0x1
 8662 0627 12       		.uleb128 0x12
 8663 0628 06       		.uleb128 0x6
 8664 0629 40       		.uleb128 0x40
 8665 062a 18       		.uleb128 0x18
 8666 062b 9642     		.uleb128 0x2116
 8667 062d 19       		.uleb128 0x19
 8668 062e 01       		.uleb128 0x1
 8669 062f 13       		.uleb128 0x13
 8670 0630 00       		.byte	0
 8671 0631 00       		.byte	0
 8672 0632 64       		.uleb128 0x64
 8673 0633 05       		.uleb128 0x5
 8674 0634 00       		.byte	0
 8675 0635 03       		.uleb128 0x3
 8676 0636 08       		.uleb128 0x8
 8677 0637 3A       		.uleb128 0x3a
 8678 0638 0B       		.uleb128 0xb
 8679 0639 3B       		.uleb128 0x3b
 8680 063a 0B       		.uleb128 0xb
 8681 063b 49       		.uleb128 0x49
 8682 063c 13       		.uleb128 0x13
 8683 063d 02       		.uleb128 0x2
 8684 063e 18       		.uleb128 0x18
 8685 063f 00       		.byte	0
 8686 0640 00       		.byte	0
 8687 0641 65       		.uleb128 0x65
 8688 0642 34       		.uleb128 0x34
 8689 0643 00       		.byte	0
 8690 0644 03       		.uleb128 0x3
 8691 0645 08       		.uleb128 0x8
 8692 0646 3A       		.uleb128 0x3a
 8693 0647 0B       		.uleb128 0xb
 8694 0648 3B       		.uleb128 0x3b
 8695 0649 0B       		.uleb128 0xb
 8696 064a 49       		.uleb128 0x49
 8697 064b 13       		.uleb128 0x13
 8698 064c 3F       		.uleb128 0x3f
 8699 064d 19       		.uleb128 0x19
 8700 064e 3C       		.uleb128 0x3c
 8701 064f 19       		.uleb128 0x19
 8702 0650 00       		.byte	0
 8703 0651 00       		.byte	0
 8704 0652 66       		.uleb128 0x66
 8705 0653 34       		.uleb128 0x34
 8706 0654 00       		.byte	0
 8707 0655 47       		.uleb128 0x47
 8708 0656 13       		.uleb128 0x13
 8709 0657 02       		.uleb128 0x2
 8710 0658 18       		.uleb128 0x18
 8711 0659 00       		.byte	0
 8712 065a 00       		.byte	0
 8713 065b 67       		.uleb128 0x67
 8714 065c 34       		.uleb128 0x34
 8715 065d 00       		.byte	0
 8716 065e 47       		.uleb128 0x47
 8717 065f 13       		.uleb128 0x13
GAS LISTING C:\Users\NJLLMR~1\AppData\Local\Temp\ccWOhw13.s 			page 191


 8718 0660 6E       		.uleb128 0x6e
 8719 0661 08       		.uleb128 0x8
 8720 0662 1C       		.uleb128 0x1c
 8721 0663 0D       		.uleb128 0xd
 8722 0664 00       		.byte	0
 8723 0665 00       		.byte	0
 8724 0666 68       		.uleb128 0x68
 8725 0667 34       		.uleb128 0x34
 8726 0668 00       		.byte	0
 8727 0669 47       		.uleb128 0x47
 8728 066a 13       		.uleb128 0x13
 8729 066b 6E       		.uleb128 0x6e
 8730 066c 08       		.uleb128 0x8
 8731 066d 1C       		.uleb128 0x1c
 8732 066e 06       		.uleb128 0x6
 8733 066f 00       		.byte	0
 8734 0670 00       		.byte	0
 8735 0671 69       		.uleb128 0x69
 8736 0672 34       		.uleb128 0x34
 8737 0673 00       		.byte	0
 8738 0674 47       		.uleb128 0x47
 8739 0675 13       		.uleb128 0x13
 8740 0676 6E       		.uleb128 0x6e
 8741 0677 08       		.uleb128 0x8
 8742 0678 1C       		.uleb128 0x1c
 8743 0679 0B       		.uleb128 0xb
 8744 067a 00       		.byte	0
 8745 067b 00       		.byte	0
 8746 067c 6A       		.uleb128 0x6a
 8747 067d 34       		.uleb128 0x34
 8748 067e 00       		.byte	0
 8749 067f 47       		.uleb128 0x47
 8750 0680 13       		.uleb128 0x13
 8751 0681 6E       		.uleb128 0x6e
 8752 0682 08       		.uleb128 0x8
 8753 0683 1C       		.uleb128 0x1c
 8754 0684 05       		.uleb128 0x5
 8755 0685 00       		.byte	0
 8756 0686 00       		.byte	0
 8757 0687 00       		.byte	0
 8758              		.section	.debug_aranges,"dr"
 8759 0000 1C000000 		.long	0x1c
 8760 0004 0200     		.word	0x2
 8761 0006 00000000 		.secrel32	Ldebug_info0
 8762 000a 04       		.byte	0x4
 8763 000b 00       		.byte	0
 8764 000c 0000     		.word	0
 8765 000e 0000     		.word	0
 8766 0010 00000000 		.long	Ltext0
 8767 0014 A20D0000 		.long	Letext0-Ltext0
 8768 0018 00000000 		.long	0
 8769 001c 00000000 		.long	0
 8770              		.section	.debug_ranges,"dr"
 8771              	Ldebug_ranges0:
 8772 0000 60040000 		.long	LBB4-Ltext0
 8773 0004 C5090000 		.long	LBE4-Ltext0
 8774 0008 400A0000 		.long	LBB7-Ltext0
GAS LISTING C:\Users\NJLLMR~1\AppData\Local\Temp\ccWOhw13.s 			page 192


 8775 000c 1A0C0000 		.long	LBE7-Ltext0
 8776 0010 00000000 		.long	0
 8777 0014 00000000 		.long	0
 8778 0018 6C040000 		.long	LBB5-Ltext0
 8779 001c B5090000 		.long	LBE5-Ltext0
 8780 0020 400A0000 		.long	LBB6-Ltext0
 8781 0024 1A0C0000 		.long	LBE6-Ltext0
 8782 0028 00000000 		.long	0
 8783 002c 00000000 		.long	0
 8784              		.section	.debug_line,"dr"
 8785              	Ldebug_line0:
 8786 0000 C4060000 		.section	.debug_str,"dr"
 8786      02005104 
 8786      00000101 
 8786      FB0E0D00 
 8786      01010101 
 8787              	LASF16:
 8788 0000 7265706C 		.ascii "replace\0"
 8788      61636500 
 8789              	LASF23:
 8790 0008 5F436861 		.ascii "_CharT\0"
 8790      725400
 8791              	LASF22:
 8792 000f 5F547261 		.ascii "_Traits\0"
 8792      69747300 
 8793              	LASF3:
 8794 0017 72656665 		.ascii "reference\0"
 8794      72656E63 
 8794      6500
 8795              	LASF26:
 8796 0021 5F5F6D61 		.ascii "__max\0"
 8796      7800
 8797              	LASF27:
 8798 0027 5F5F6973 		.ascii "__is_signed\0"
 8798      5F736967 
 8798      6E656400 
 8799              	LASF9:
 8800 0033 62617369 		.ascii "basic_string\0"
 8800      635F7374 
 8800      72696E67 
 8800      00
 8801              	LASF12:
 8802 0040 6F706572 		.ascii "operator[]\0"
 8802      61746F72 
 8802      5B5D00
 8803              	LASF24:
 8804 004b 6E65775F 		.ascii "new_allocator\0"
 8804      616C6C6F 
 8804      6361746F 
 8804      7200
 8805              	LASF18:
 8806 0059 66696E64 		.ascii "find_first_of\0"
 8806      5F666972 
 8806      73745F6F 
 8806      6600
 8807              	LASF21:
 8808 0067 66696E64 		.ascii "find_last_not_of\0"
GAS LISTING C:\Users\NJLLMR~1\AppData\Local\Temp\ccWOhw13.s 			page 193


 8808      5F6C6173 
 8808      745F6E6F 
 8808      745F6F66 
 8808      00
 8809              	LASF25:
 8810 0078 5F5F6D69 		.ascii "__min\0"
 8810      6E00
 8811              	LASF31:
 8812 007e 74686973 		.ascii "this\0"
 8812      00
 8813              	LASF6:
 8814 0083 5F416C6C 		.ascii "_Alloc_hider\0"
 8814      6F635F68 
 8814      69646572 
 8814      00
 8815              	LASF30:
 8816 0090 56616C69 		.ascii "Validate\0"
 8816      64617465 
 8816      00
 8817              	LASF8:
 8818 0099 5F535F63 		.ascii "_S_copy_chars\0"
 8818      6F70795F 
 8818      63686172 
 8818      7300
 8819              	LASF17:
 8820 00a7 7266696E 		.ascii "rfind\0"
 8820      6400
 8821              	LASF4:
 8822 00ad 636F6E73 		.ascii "const_reference\0"
 8822      745F7265 
 8822      66657265 
 8822      6E636500 
 8823              	LASF28:
 8824 00bd 5F5F6469 		.ascii "__digits\0"
 8824      67697473 
 8824      00
 8825              	LASF11:
 8826 00c6 6D61785F 		.ascii "max_size\0"
 8826      73697A65 
 8826      00
 8827              	LASF20:
 8828 00cf 66696E64 		.ascii "find_first_not_of\0"
 8828      5F666972 
 8828      73745F6E 
 8828      6F745F6F 
 8828      6600
 8829              	LASF13:
 8830 00e1 6F706572 		.ascii "operator+=\0"
 8830      61746F72 
 8830      2B3D00
 8831              	LASF15:
 8832 00ec 696E7365 		.ascii "insert\0"
 8832      727400
 8833              	LASF29:
 8834 00f3 5F56616C 		.ascii "_Value\0"
 8834      756500
 8835              	LASF19:
GAS LISTING C:\Users\NJLLMR~1\AppData\Local\Temp\ccWOhw13.s 			page 194


 8836 00fa 66696E64 		.ascii "find_last_of\0"
 8836      5F6C6173 
 8836      745F6F66 
 8836      00
 8837              	LASF2:
 8838 0107 73697A65 		.ascii "size_type\0"
 8838      5F747970 
 8838      6500
 8839              	LASF14:
 8840 0111 61707065 		.ascii "append\0"
 8840      6E6400
 8841              	LASF7:
 8842 0118 5F535F65 		.ascii "_S_empty_rep\0"
 8842      6D707479 
 8842      5F726570 
 8842      00
 8843              	LASF10:
 8844 0125 6F706572 		.ascii "operator=\0"
 8844      61746F72 
 8844      3D00
 8845              	LASF0:
 8846 012f 636F6D70 		.ascii "compare\0"
 8846      61726500 
 8847              	LASF1:
 8848 0137 61737369 		.ascii "assign\0"
 8848      676E00
 8849              	LASF5:
 8850 013e 616C6C6F 		.ascii "allocator\0"
 8850      6361746F 
 8850      7200
 8851              		.ident	"GCC: (tdm-1) 4.9.2"
GAS LISTING C:\Users\NJLLMR~1\AppData\Local\Temp\ccWOhw13.s 			page 195


DEFINED SYMBOLS
                            *ABS*:00000000 Main_ui.cpp
                             .bss:00000000 __ZStL8__ioinit
C:\Users\NJLLMR~1\AppData\Local\Temp\ccWOhw13.s:9      .text:00000000 __ZN7Main_uiC2Ev
C:\Users\NJLLMR~1\AppData\Local\Temp\ccWOhw13.s:9      .text:00000000 __ZN7Main_uiC1Ev
C:\Users\NJLLMR~1\AppData\Local\Temp\ccWOhw13.s:69     .text:0000000c __ZN7Main_ui9main_menuEv
C:\Users\NJLLMR~1\AppData\Local\Temp\ccWOhw13.s:316    .text:000002d8 __ZN7Main_ui11addEmplMenuEv
C:\Users\NJLLMR~1\AppData\Local\Temp\ccWOhw13.s:1125   .text:00000d24 __ZN7Main_ui11getRcrdMenuEv
C:\Users\NJLLMR~1\AppData\Local\Temp\ccWOhw13.s:1146   .text:00000d30 __ZN7Main_ui12getYrPayMenuEv
C:\Users\NJLLMR~1\AppData\Local\Temp\ccWOhw13.s:1167   .text:00000d3c __ZN7Main_ui12getHiPayMenuEv
C:\Users\NJLLMR~1\AppData\Local\Temp\ccWOhw13.s:1186   .text:00000d47 ___tcf_0
C:\Users\NJLLMR~1\AppData\Local\Temp\ccWOhw13.s:1207   .text:00000d59 __Z41__static_initialization_and_destruction_0ii
C:\Users\NJLLMR~1\AppData\Local\Temp\ccWOhw13.s:1237   .text:00000d86 __GLOBAL__sub_I__ZN7Main_uiC2Ev

UNDEFINED SYMBOLS
__ZSt4cout
__ZSt3cin
___gxx_personality_sj0
__Unwind_SjLj_Register
__Unwind_SjLj_Unregister
__ZStlsISt11char_traitsIcEERSt13basic_ostreamIcT_ES5_PKc
__ZSt4endlIcSt11char_traitsIcEERSt13basic_ostreamIT_T0_ES6_
__ZNSolsEPFRSoS_E
__ZStrsIcSt11char_traitsIcEERSt13basic_istreamIT_T0_ES6_RS3_
_system
__ZN8ValidateC1Ev
__ZNSsC1Ev
__ZNSi6ignoreEv
__ZSt7getlineIcSt11char_traitsIcESaIcEERSt13basic_istreamIT_T0_ES7_RSbIS4_S5_T1_E
__ZNSsC1ERKSs
__ZN8Validate12validateNameESs
__ZNSsD1Ev
__ZStrsIcSt11char_traitsIcESaIcEERSt13basic_istreamIT_T0_ES7_RSbIS4_S5_T1_E
__ZN8Validate11validateSSNESs
__ZN8Validate14validateSalaryESs
__ZN8Validate13validateMonthESs
__ZN8Validate12validateYearESs
__ZN7ServiceC1Ev
__ZN7Service19writeEmployeeInFileESsSsSsSsSs
__ZN7ServiceD1Ev
__Unwind_SjLj_Resume
__ZNSt8ios_base4InitD1Ev
__ZNSt8ios_base4InitC1Ev
_atexit
