GAS LISTING C:\Users\NJLLMR~1\AppData\Local\Temp\cc3wbcxt.s 			page 1


   1              		.file	"Validate.cpp"
   2              		.text
   3              	Ltext0:
   4              		.cfi_sections	.debug_frame
   5              		.section	.text$_ZStorSt13_Ios_OpenmodeS_,"x"
   6              		.linkonce discard
   7              		.globl	__ZStorSt13_Ios_OpenmodeS_
   9              	__ZStorSt13_Ios_OpenmodeS_:
  10              	LFB637:
  11              		.file 1 "C:/Program Files (x86)/CodeBlocks/MinGW/lib/gcc/mingw32/4.9.2/include/c++/bits/ios_base.h
   1:C:/Program Files (x86)/CodeBlocks/MinGW/lib/gcc/mingw32/4.9.2/include/c++/bits\ios_base.h **** // Iostreams base classes -*- C++ -*-
   2:C:/Program Files (x86)/CodeBlocks/MinGW/lib/gcc/mingw32/4.9.2/include/c++/bits\ios_base.h **** 
   3:C:/Program Files (x86)/CodeBlocks/MinGW/lib/gcc/mingw32/4.9.2/include/c++/bits\ios_base.h **** // Copyright (C) 1997-2014 Free Software Foundation, Inc.
   4:C:/Program Files (x86)/CodeBlocks/MinGW/lib/gcc/mingw32/4.9.2/include/c++/bits\ios_base.h **** //
   5:C:/Program Files (x86)/CodeBlocks/MinGW/lib/gcc/mingw32/4.9.2/include/c++/bits\ios_base.h **** // This file is part of the GNU ISO C++ Library.  This library is free
   6:C:/Program Files (x86)/CodeBlocks/MinGW/lib/gcc/mingw32/4.9.2/include/c++/bits\ios_base.h **** // software; you can redistribute it and/or modify it under the
   7:C:/Program Files (x86)/CodeBlocks/MinGW/lib/gcc/mingw32/4.9.2/include/c++/bits\ios_base.h **** // terms of the GNU General Public License as published by the
   8:C:/Program Files (x86)/CodeBlocks/MinGW/lib/gcc/mingw32/4.9.2/include/c++/bits\ios_base.h **** // Free Software Foundation; either version 3, or (at your option)
   9:C:/Program Files (x86)/CodeBlocks/MinGW/lib/gcc/mingw32/4.9.2/include/c++/bits\ios_base.h **** // any later version.
  10:C:/Program Files (x86)/CodeBlocks/MinGW/lib/gcc/mingw32/4.9.2/include/c++/bits\ios_base.h **** 
  11:C:/Program Files (x86)/CodeBlocks/MinGW/lib/gcc/mingw32/4.9.2/include/c++/bits\ios_base.h **** // This library is distributed in the hope that it will be useful,
  12:C:/Program Files (x86)/CodeBlocks/MinGW/lib/gcc/mingw32/4.9.2/include/c++/bits\ios_base.h **** // but WITHOUT ANY WARRANTY; without even the implied warranty of
  13:C:/Program Files (x86)/CodeBlocks/MinGW/lib/gcc/mingw32/4.9.2/include/c++/bits\ios_base.h **** // MERCHANTABILITY or FITNESS FOR A PARTICULAR PURPOSE.  See the
  14:C:/Program Files (x86)/CodeBlocks/MinGW/lib/gcc/mingw32/4.9.2/include/c++/bits\ios_base.h **** // GNU General Public License for more details.
  15:C:/Program Files (x86)/CodeBlocks/MinGW/lib/gcc/mingw32/4.9.2/include/c++/bits\ios_base.h **** 
  16:C:/Program Files (x86)/CodeBlocks/MinGW/lib/gcc/mingw32/4.9.2/include/c++/bits\ios_base.h **** // Under Section 7 of GPL version 3, you are granted additional
  17:C:/Program Files (x86)/CodeBlocks/MinGW/lib/gcc/mingw32/4.9.2/include/c++/bits\ios_base.h **** // permissions described in the GCC Runtime Library Exception, version
  18:C:/Program Files (x86)/CodeBlocks/MinGW/lib/gcc/mingw32/4.9.2/include/c++/bits\ios_base.h **** // 3.1, as published by the Free Software Foundation.
  19:C:/Program Files (x86)/CodeBlocks/MinGW/lib/gcc/mingw32/4.9.2/include/c++/bits\ios_base.h **** 
  20:C:/Program Files (x86)/CodeBlocks/MinGW/lib/gcc/mingw32/4.9.2/include/c++/bits\ios_base.h **** // You should have received a copy of the GNU General Public License and
  21:C:/Program Files (x86)/CodeBlocks/MinGW/lib/gcc/mingw32/4.9.2/include/c++/bits\ios_base.h **** // a copy of the GCC Runtime Library Exception along with this program;
  22:C:/Program Files (x86)/CodeBlocks/MinGW/lib/gcc/mingw32/4.9.2/include/c++/bits\ios_base.h **** // see the files COPYING3 and COPYING.RUNTIME respectively.  If not, see
  23:C:/Program Files (x86)/CodeBlocks/MinGW/lib/gcc/mingw32/4.9.2/include/c++/bits\ios_base.h **** // <http://www.gnu.org/licenses/>.
  24:C:/Program Files (x86)/CodeBlocks/MinGW/lib/gcc/mingw32/4.9.2/include/c++/bits\ios_base.h **** 
  25:C:/Program Files (x86)/CodeBlocks/MinGW/lib/gcc/mingw32/4.9.2/include/c++/bits\ios_base.h **** /** @file bits/ios_base.h
  26:C:/Program Files (x86)/CodeBlocks/MinGW/lib/gcc/mingw32/4.9.2/include/c++/bits\ios_base.h ****  *  This is an internal header file, included by other library headers.
  27:C:/Program Files (x86)/CodeBlocks/MinGW/lib/gcc/mingw32/4.9.2/include/c++/bits\ios_base.h ****  *  Do not attempt to use it directly. @headername{ios}
  28:C:/Program Files (x86)/CodeBlocks/MinGW/lib/gcc/mingw32/4.9.2/include/c++/bits\ios_base.h ****  */
  29:C:/Program Files (x86)/CodeBlocks/MinGW/lib/gcc/mingw32/4.9.2/include/c++/bits\ios_base.h **** 
  30:C:/Program Files (x86)/CodeBlocks/MinGW/lib/gcc/mingw32/4.9.2/include/c++/bits\ios_base.h **** //
  31:C:/Program Files (x86)/CodeBlocks/MinGW/lib/gcc/mingw32/4.9.2/include/c++/bits\ios_base.h **** // ISO C++ 14882: 27.4  Iostreams base classes
  32:C:/Program Files (x86)/CodeBlocks/MinGW/lib/gcc/mingw32/4.9.2/include/c++/bits\ios_base.h **** //
  33:C:/Program Files (x86)/CodeBlocks/MinGW/lib/gcc/mingw32/4.9.2/include/c++/bits\ios_base.h **** 
  34:C:/Program Files (x86)/CodeBlocks/MinGW/lib/gcc/mingw32/4.9.2/include/c++/bits\ios_base.h **** #ifndef _IOS_BASE_H
  35:C:/Program Files (x86)/CodeBlocks/MinGW/lib/gcc/mingw32/4.9.2/include/c++/bits\ios_base.h **** #define _IOS_BASE_H 1
  36:C:/Program Files (x86)/CodeBlocks/MinGW/lib/gcc/mingw32/4.9.2/include/c++/bits\ios_base.h **** 
  37:C:/Program Files (x86)/CodeBlocks/MinGW/lib/gcc/mingw32/4.9.2/include/c++/bits\ios_base.h **** #pragma GCC system_header
  38:C:/Program Files (x86)/CodeBlocks/MinGW/lib/gcc/mingw32/4.9.2/include/c++/bits\ios_base.h **** 
  39:C:/Program Files (x86)/CodeBlocks/MinGW/lib/gcc/mingw32/4.9.2/include/c++/bits\ios_base.h **** #include <ext/atomicity.h>
  40:C:/Program Files (x86)/CodeBlocks/MinGW/lib/gcc/mingw32/4.9.2/include/c++/bits\ios_base.h **** #include <bits/localefwd.h>
  41:C:/Program Files (x86)/CodeBlocks/MinGW/lib/gcc/mingw32/4.9.2/include/c++/bits\ios_base.h **** #include <bits/locale_classes.h>
  42:C:/Program Files (x86)/CodeBlocks/MinGW/lib/gcc/mingw32/4.9.2/include/c++/bits\ios_base.h **** 
  43:C:/Program Files (x86)/CodeBlocks/MinGW/lib/gcc/mingw32/4.9.2/include/c++/bits\ios_base.h **** namespace std _GLIBCXX_VISIBILITY(default)
  44:C:/Program Files (x86)/CodeBlocks/MinGW/lib/gcc/mingw32/4.9.2/include/c++/bits\ios_base.h **** {
  45:C:/Program Files (x86)/CodeBlocks/MinGW/lib/gcc/mingw32/4.9.2/include/c++/bits\ios_base.h **** _GLIBCXX_BEGIN_NAMESPACE_VERSION
  46:C:/Program Files (x86)/CodeBlocks/MinGW/lib/gcc/mingw32/4.9.2/include/c++/bits\ios_base.h **** 
  47:C:/Program Files (x86)/CodeBlocks/MinGW/lib/gcc/mingw32/4.9.2/include/c++/bits\ios_base.h ****   // The following definitions of bitmask types are enums, not ints,
GAS LISTING C:\Users\NJLLMR~1\AppData\Local\Temp\cc3wbcxt.s 			page 2


  48:C:/Program Files (x86)/CodeBlocks/MinGW/lib/gcc/mingw32/4.9.2/include/c++/bits\ios_base.h ****   // as permitted (but not required) in the standard, in order to provide
  49:C:/Program Files (x86)/CodeBlocks/MinGW/lib/gcc/mingw32/4.9.2/include/c++/bits\ios_base.h ****   // better type safety in iostream calls.  A side effect is that
  50:C:/Program Files (x86)/CodeBlocks/MinGW/lib/gcc/mingw32/4.9.2/include/c++/bits\ios_base.h ****   // expressions involving them are no longer compile-time constants.
  51:C:/Program Files (x86)/CodeBlocks/MinGW/lib/gcc/mingw32/4.9.2/include/c++/bits\ios_base.h ****   enum _Ios_Fmtflags 
  52:C:/Program Files (x86)/CodeBlocks/MinGW/lib/gcc/mingw32/4.9.2/include/c++/bits\ios_base.h ****     { 
  53:C:/Program Files (x86)/CodeBlocks/MinGW/lib/gcc/mingw32/4.9.2/include/c++/bits\ios_base.h ****       _S_boolalpha 	= 1L << 0,
  54:C:/Program Files (x86)/CodeBlocks/MinGW/lib/gcc/mingw32/4.9.2/include/c++/bits\ios_base.h ****       _S_dec 		= 1L << 1,
  55:C:/Program Files (x86)/CodeBlocks/MinGW/lib/gcc/mingw32/4.9.2/include/c++/bits\ios_base.h ****       _S_fixed 		= 1L << 2,
  56:C:/Program Files (x86)/CodeBlocks/MinGW/lib/gcc/mingw32/4.9.2/include/c++/bits\ios_base.h ****       _S_hex 		= 1L << 3,
  57:C:/Program Files (x86)/CodeBlocks/MinGW/lib/gcc/mingw32/4.9.2/include/c++/bits\ios_base.h ****       _S_internal 	= 1L << 4,
  58:C:/Program Files (x86)/CodeBlocks/MinGW/lib/gcc/mingw32/4.9.2/include/c++/bits\ios_base.h ****       _S_left 		= 1L << 5,
  59:C:/Program Files (x86)/CodeBlocks/MinGW/lib/gcc/mingw32/4.9.2/include/c++/bits\ios_base.h ****       _S_oct 		= 1L << 6,
  60:C:/Program Files (x86)/CodeBlocks/MinGW/lib/gcc/mingw32/4.9.2/include/c++/bits\ios_base.h ****       _S_right 		= 1L << 7,
  61:C:/Program Files (x86)/CodeBlocks/MinGW/lib/gcc/mingw32/4.9.2/include/c++/bits\ios_base.h ****       _S_scientific 	= 1L << 8,
  62:C:/Program Files (x86)/CodeBlocks/MinGW/lib/gcc/mingw32/4.9.2/include/c++/bits\ios_base.h ****       _S_showbase 	= 1L << 9,
  63:C:/Program Files (x86)/CodeBlocks/MinGW/lib/gcc/mingw32/4.9.2/include/c++/bits\ios_base.h ****       _S_showpoint 	= 1L << 10,
  64:C:/Program Files (x86)/CodeBlocks/MinGW/lib/gcc/mingw32/4.9.2/include/c++/bits\ios_base.h ****       _S_showpos 	= 1L << 11,
  65:C:/Program Files (x86)/CodeBlocks/MinGW/lib/gcc/mingw32/4.9.2/include/c++/bits\ios_base.h ****       _S_skipws 	= 1L << 12,
  66:C:/Program Files (x86)/CodeBlocks/MinGW/lib/gcc/mingw32/4.9.2/include/c++/bits\ios_base.h ****       _S_unitbuf 	= 1L << 13,
  67:C:/Program Files (x86)/CodeBlocks/MinGW/lib/gcc/mingw32/4.9.2/include/c++/bits\ios_base.h ****       _S_uppercase 	= 1L << 14,
  68:C:/Program Files (x86)/CodeBlocks/MinGW/lib/gcc/mingw32/4.9.2/include/c++/bits\ios_base.h ****       _S_adjustfield 	= _S_left | _S_right | _S_internal,
  69:C:/Program Files (x86)/CodeBlocks/MinGW/lib/gcc/mingw32/4.9.2/include/c++/bits\ios_base.h ****       _S_basefield 	= _S_dec | _S_oct | _S_hex,
  70:C:/Program Files (x86)/CodeBlocks/MinGW/lib/gcc/mingw32/4.9.2/include/c++/bits\ios_base.h ****       _S_floatfield 	= _S_scientific | _S_fixed,
  71:C:/Program Files (x86)/CodeBlocks/MinGW/lib/gcc/mingw32/4.9.2/include/c++/bits\ios_base.h ****       _S_ios_fmtflags_end = 1L << 16 
  72:C:/Program Files (x86)/CodeBlocks/MinGW/lib/gcc/mingw32/4.9.2/include/c++/bits\ios_base.h ****     };
  73:C:/Program Files (x86)/CodeBlocks/MinGW/lib/gcc/mingw32/4.9.2/include/c++/bits\ios_base.h **** 
  74:C:/Program Files (x86)/CodeBlocks/MinGW/lib/gcc/mingw32/4.9.2/include/c++/bits\ios_base.h ****   inline _GLIBCXX_CONSTEXPR _Ios_Fmtflags
  75:C:/Program Files (x86)/CodeBlocks/MinGW/lib/gcc/mingw32/4.9.2/include/c++/bits\ios_base.h ****   operator&(_Ios_Fmtflags __a, _Ios_Fmtflags __b)
  76:C:/Program Files (x86)/CodeBlocks/MinGW/lib/gcc/mingw32/4.9.2/include/c++/bits\ios_base.h ****   { return _Ios_Fmtflags(static_cast<int>(__a) & static_cast<int>(__b)); }
  77:C:/Program Files (x86)/CodeBlocks/MinGW/lib/gcc/mingw32/4.9.2/include/c++/bits\ios_base.h **** 
  78:C:/Program Files (x86)/CodeBlocks/MinGW/lib/gcc/mingw32/4.9.2/include/c++/bits\ios_base.h ****   inline _GLIBCXX_CONSTEXPR _Ios_Fmtflags
  79:C:/Program Files (x86)/CodeBlocks/MinGW/lib/gcc/mingw32/4.9.2/include/c++/bits\ios_base.h ****   operator|(_Ios_Fmtflags __a, _Ios_Fmtflags __b)
  80:C:/Program Files (x86)/CodeBlocks/MinGW/lib/gcc/mingw32/4.9.2/include/c++/bits\ios_base.h ****   { return _Ios_Fmtflags(static_cast<int>(__a) | static_cast<int>(__b)); }
  81:C:/Program Files (x86)/CodeBlocks/MinGW/lib/gcc/mingw32/4.9.2/include/c++/bits\ios_base.h **** 
  82:C:/Program Files (x86)/CodeBlocks/MinGW/lib/gcc/mingw32/4.9.2/include/c++/bits\ios_base.h ****   inline _GLIBCXX_CONSTEXPR _Ios_Fmtflags
  83:C:/Program Files (x86)/CodeBlocks/MinGW/lib/gcc/mingw32/4.9.2/include/c++/bits\ios_base.h ****   operator^(_Ios_Fmtflags __a, _Ios_Fmtflags __b)
  84:C:/Program Files (x86)/CodeBlocks/MinGW/lib/gcc/mingw32/4.9.2/include/c++/bits\ios_base.h ****   { return _Ios_Fmtflags(static_cast<int>(__a) ^ static_cast<int>(__b)); }
  85:C:/Program Files (x86)/CodeBlocks/MinGW/lib/gcc/mingw32/4.9.2/include/c++/bits\ios_base.h **** 
  86:C:/Program Files (x86)/CodeBlocks/MinGW/lib/gcc/mingw32/4.9.2/include/c++/bits\ios_base.h ****   inline _GLIBCXX_CONSTEXPR _Ios_Fmtflags
  87:C:/Program Files (x86)/CodeBlocks/MinGW/lib/gcc/mingw32/4.9.2/include/c++/bits\ios_base.h ****   operator~(_Ios_Fmtflags __a)
  88:C:/Program Files (x86)/CodeBlocks/MinGW/lib/gcc/mingw32/4.9.2/include/c++/bits\ios_base.h ****   { return _Ios_Fmtflags(~static_cast<int>(__a)); }
  89:C:/Program Files (x86)/CodeBlocks/MinGW/lib/gcc/mingw32/4.9.2/include/c++/bits\ios_base.h **** 
  90:C:/Program Files (x86)/CodeBlocks/MinGW/lib/gcc/mingw32/4.9.2/include/c++/bits\ios_base.h ****   inline const _Ios_Fmtflags&
  91:C:/Program Files (x86)/CodeBlocks/MinGW/lib/gcc/mingw32/4.9.2/include/c++/bits\ios_base.h ****   operator|=(_Ios_Fmtflags& __a, _Ios_Fmtflags __b)
  92:C:/Program Files (x86)/CodeBlocks/MinGW/lib/gcc/mingw32/4.9.2/include/c++/bits\ios_base.h ****   { return __a = __a | __b; }
  93:C:/Program Files (x86)/CodeBlocks/MinGW/lib/gcc/mingw32/4.9.2/include/c++/bits\ios_base.h **** 
  94:C:/Program Files (x86)/CodeBlocks/MinGW/lib/gcc/mingw32/4.9.2/include/c++/bits\ios_base.h ****   inline const _Ios_Fmtflags&
  95:C:/Program Files (x86)/CodeBlocks/MinGW/lib/gcc/mingw32/4.9.2/include/c++/bits\ios_base.h ****   operator&=(_Ios_Fmtflags& __a, _Ios_Fmtflags __b)
  96:C:/Program Files (x86)/CodeBlocks/MinGW/lib/gcc/mingw32/4.9.2/include/c++/bits\ios_base.h ****   { return __a = __a & __b; }
  97:C:/Program Files (x86)/CodeBlocks/MinGW/lib/gcc/mingw32/4.9.2/include/c++/bits\ios_base.h **** 
  98:C:/Program Files (x86)/CodeBlocks/MinGW/lib/gcc/mingw32/4.9.2/include/c++/bits\ios_base.h ****   inline const _Ios_Fmtflags&
  99:C:/Program Files (x86)/CodeBlocks/MinGW/lib/gcc/mingw32/4.9.2/include/c++/bits\ios_base.h ****   operator^=(_Ios_Fmtflags& __a, _Ios_Fmtflags __b)
 100:C:/Program Files (x86)/CodeBlocks/MinGW/lib/gcc/mingw32/4.9.2/include/c++/bits\ios_base.h ****   { return __a = __a ^ __b; }
 101:C:/Program Files (x86)/CodeBlocks/MinGW/lib/gcc/mingw32/4.9.2/include/c++/bits\ios_base.h **** 
 102:C:/Program Files (x86)/CodeBlocks/MinGW/lib/gcc/mingw32/4.9.2/include/c++/bits\ios_base.h **** 
 103:C:/Program Files (x86)/CodeBlocks/MinGW/lib/gcc/mingw32/4.9.2/include/c++/bits\ios_base.h ****   enum _Ios_Openmode 
 104:C:/Program Files (x86)/CodeBlocks/MinGW/lib/gcc/mingw32/4.9.2/include/c++/bits\ios_base.h ****     { 
GAS LISTING C:\Users\NJLLMR~1\AppData\Local\Temp\cc3wbcxt.s 			page 3


 105:C:/Program Files (x86)/CodeBlocks/MinGW/lib/gcc/mingw32/4.9.2/include/c++/bits\ios_base.h ****       _S_app 		= 1L << 0,
 106:C:/Program Files (x86)/CodeBlocks/MinGW/lib/gcc/mingw32/4.9.2/include/c++/bits\ios_base.h ****       _S_ate 		= 1L << 1,
 107:C:/Program Files (x86)/CodeBlocks/MinGW/lib/gcc/mingw32/4.9.2/include/c++/bits\ios_base.h ****       _S_bin 		= 1L << 2,
 108:C:/Program Files (x86)/CodeBlocks/MinGW/lib/gcc/mingw32/4.9.2/include/c++/bits\ios_base.h ****       _S_in 		= 1L << 3,
 109:C:/Program Files (x86)/CodeBlocks/MinGW/lib/gcc/mingw32/4.9.2/include/c++/bits\ios_base.h ****       _S_out 		= 1L << 4,
 110:C:/Program Files (x86)/CodeBlocks/MinGW/lib/gcc/mingw32/4.9.2/include/c++/bits\ios_base.h ****       _S_trunc 		= 1L << 5,
 111:C:/Program Files (x86)/CodeBlocks/MinGW/lib/gcc/mingw32/4.9.2/include/c++/bits\ios_base.h ****       _S_ios_openmode_end = 1L << 16 
 112:C:/Program Files (x86)/CodeBlocks/MinGW/lib/gcc/mingw32/4.9.2/include/c++/bits\ios_base.h ****     };
 113:C:/Program Files (x86)/CodeBlocks/MinGW/lib/gcc/mingw32/4.9.2/include/c++/bits\ios_base.h **** 
 114:C:/Program Files (x86)/CodeBlocks/MinGW/lib/gcc/mingw32/4.9.2/include/c++/bits\ios_base.h ****   inline _GLIBCXX_CONSTEXPR _Ios_Openmode
 115:C:/Program Files (x86)/CodeBlocks/MinGW/lib/gcc/mingw32/4.9.2/include/c++/bits\ios_base.h ****   operator&(_Ios_Openmode __a, _Ios_Openmode __b)
 116:C:/Program Files (x86)/CodeBlocks/MinGW/lib/gcc/mingw32/4.9.2/include/c++/bits\ios_base.h ****   { return _Ios_Openmode(static_cast<int>(__a) & static_cast<int>(__b)); }
 117:C:/Program Files (x86)/CodeBlocks/MinGW/lib/gcc/mingw32/4.9.2/include/c++/bits\ios_base.h **** 
 118:C:/Program Files (x86)/CodeBlocks/MinGW/lib/gcc/mingw32/4.9.2/include/c++/bits\ios_base.h ****   inline _GLIBCXX_CONSTEXPR _Ios_Openmode
 119:C:/Program Files (x86)/CodeBlocks/MinGW/lib/gcc/mingw32/4.9.2/include/c++/bits\ios_base.h ****   operator|(_Ios_Openmode __a, _Ios_Openmode __b)
 120:C:/Program Files (x86)/CodeBlocks/MinGW/lib/gcc/mingw32/4.9.2/include/c++/bits\ios_base.h ****   { return _Ios_Openmode(static_cast<int>(__a) | static_cast<int>(__b)); }
  12              		.loc 1 120 0
  13              		.cfi_startproc
  14 0000 55       		pushl	%ebp
  15              		.cfi_def_cfa_offset 8
  16              		.cfi_offset 5, -8
  17 0001 89E5     		movl	%esp, %ebp
  18              		.cfi_def_cfa_register 5
  19              		.loc 1 120 0
  20 0003 8B5508   		movl	8(%ebp), %edx
  21 0006 8B450C   		movl	12(%ebp), %eax
  22 0009 09D0     		orl	%edx, %eax
  23 000b 5D       		popl	%ebp
  24              		.cfi_restore 5
  25              		.cfi_def_cfa 4, 4
  26 000c C3       		ret
  27              		.cfi_endproc
  28              	LFE637:
  29              	.lcomm __ZStL8__ioinit,1,1
  30 000d 909090   		.section	.text$_ZN15InvalidInputExcD1Ev,"x"
  31              		.linkonce discard
  32              		.align 2
  33              		.globl	__ZN15InvalidInputExcD1Ev
  35              	__ZN15InvalidInputExcD1Ev:
  36              	LFB1407:
  37              		.file 2 "include/exceptions/InvalidInputExc.h"
   1:include/exceptions/InvalidInputExc.h **** #ifndef INVALIDINPUTEXC_H
   2:include/exceptions/InvalidInputExc.h **** #define INVALIDINPUTEXC_H
   3:include/exceptions/InvalidInputExc.h **** 
   4:include/exceptions/InvalidInputExc.h **** #include "Employee.h"
   5:include/exceptions/InvalidInputExc.h **** 
   6:include/exceptions/InvalidInputExc.h **** class InvalidInputExc
  38              		.loc 2 6 0
  39              		.cfi_startproc
  40 0000 55       		pushl	%ebp
  41              		.cfi_def_cfa_offset 8
  42              		.cfi_offset 5, -8
  43 0001 89E5     		movl	%esp, %ebp
  44              		.cfi_def_cfa_register 5
  45 0003 83EC18   		subl	$24, %esp
  46 0006 894DF4   		movl	%ecx, -12(%ebp)
  47              	LBB2:
GAS LISTING C:\Users\NJLLMR~1\AppData\Local\Temp\cc3wbcxt.s 			page 4


  48              		.loc 2 6 0
  49 0009 8B45F4   		movl	-12(%ebp), %eax
  50 000c 89C1     		movl	%eax, %ecx
  51 000e E8000000 		call	__ZNSsD1Ev
  51      00
  52              	LBE2:
  53 0013 C9       		leave
  54              		.cfi_restore 5
  55              		.cfi_def_cfa 4, 4
  56 0014 C3       		ret
  57              		.cfi_endproc
  58              	LFE1407:
  59 0015 909090   		.section .rdata,"dr"
  60              	LC0:
  61 0000 496E7661 		.ascii "Invalid input - (digits only)\0"
  61      6C696420 
  61      696E7075 
  61      74202D20 
  61      28646967 
  62              	LC1:
  63 001e 496E7661 		.ascii "Invalid input - (1 to 10)\0"
  63      6C696420 
  63      696E7075 
  63      74202D20 
  63      28312074 
  67              		.text
  68              		.align 2
  69              		.globl	__ZN8Validate13validateInputESs
  71              	__ZN8Validate13validateInputESs:
  72              	LFB1404:
  73              		.file 3 "C:/Users/Nj\341ll M\375rdal/3viknanamskeid/LitidVerk1/Verkefni2/Vikuverk2/src/services/Va
   1:C:/Users/Njáll Mýrdal/3viknanamskeid/LitidVerk1/Verkefni2/Vikuverk2/src/services\Validate.cpp **** #include "Validate.h"
   2:C:/Users/Njáll Mýrdal/3viknanamskeid/LitidVerk1/Verkefni2/Vikuverk2/src/services\Validate.cpp **** 
   3:C:/Users/Njáll Mýrdal/3viknanamskeid/LitidVerk1/Verkefni2/Vikuverk2/src/services\Validate.cpp **** /// Validate how many employees the user wants to create, maximum 10, and if it is a digit,
   4:C:/Users/Njáll Mýrdal/3viknanamskeid/LitidVerk1/Verkefni2/Vikuverk2/src/services\Validate.cpp **** bool Validate::validateInput(string input){
  74              		.loc 3 4 0
  75              		.cfi_startproc
  76              		.cfi_personality 0,___gxx_personality_sj0
  77              		.cfi_lsda 0,LLSDA1404
  78 0000 55       		pushl	%ebp
  79              		.cfi_def_cfa_offset 8
  80              		.cfi_offset 5, -8
  81 0001 89E5     		movl	%esp, %ebp
  82              		.cfi_def_cfa_register 5
  83 0003 57       		pushl	%edi
  84 0004 56       		pushl	%esi
  85 0005 53       		pushl	%ebx
  86 0006 81EC3C01 		subl	$316, %esp
  86      0000
  87              		.cfi_offset 7, -12
  88              		.cfi_offset 6, -16
  89              		.cfi_offset 3, -20
  90 000c 898D04FF 		movl	%ecx, -252(%ebp)
  90      FFFF
  91 0012 C785E8FE 		movl	$___gxx_personality_sj0, -280(%ebp)
  91      FFFF0000 
  91      0000
GAS LISTING C:\Users\NJLLMR~1\AppData\Local\Temp\cc3wbcxt.s 			page 5


  92 001c C785ECFE 		movl	$LLSDA1404, -276(%ebp)
  92      FFFF0000 
  92      0000
  93 0026 8D85F0FE 		leal	-272(%ebp), %eax
  93      FFFF
  94 002c 8D5DE8   		leal	-24(%ebp), %ebx
  95 002f 8918     		movl	%ebx, (%eax)
  96 0031 BAB40200 		movl	$L16, %edx
  96      00
  97 0036 895004   		movl	%edx, 4(%eax)
  98 0039 896008   		movl	%esp, 8(%eax)
  99 003c 8D85D0FE 		leal	-304(%ebp), %eax
  99      FFFF
 100 0042 890424   		movl	%eax, (%esp)
 101 0045 E8000000 		call	__Unwind_SjLj_Register
 101      00
 102              	LBB3:
 103              	LBB4:
   5:C:/Users/Njáll Mýrdal/3viknanamskeid/LitidVerk1/Verkefni2/Vikuverk2/src/services\Validate.cpp ****     for(unsigned int i = 0; i < input.length(); i++) {  /// goes through the string,
 104              		.loc 3 5 0
 105 004a C745E400 		movl	$0, -28(%ebp)
 105      000000
 106 0051 E9DB0000 		jmp	L6
 106      00
 107              	L8:
   6:C:/Users/Njáll Mýrdal/3viknanamskeid/LitidVerk1/Verkefni2/Vikuverk2/src/services\Validate.cpp ****         if(!isdigit(input[i])){     /// checks if it is only digits, if not
 108              		.loc 3 6 0
 109 0056 8B45E4   		movl	-28(%ebp), %eax
 110 0059 890424   		movl	%eax, (%esp)
 111 005c C785D4FE 		movl	$-1, -300(%ebp)
 111      FFFFFFFF 
 111      FFFF
 112 0066 8B4D08   		movl	8(%ebp), %ecx
 113 0069 E8000000 		call	__ZNSsixEj
 113      00
 114 006e 83EC04   		subl	$4, %esp
 115 0071 0FB600   		movzbl	(%eax), %eax
 116 0074 0FBEC0   		movsbl	%al, %eax
 117 0077 83E830   		subl	$48, %eax
 118 007a 83F809   		cmpl	$9, %eax
 119 007d 0F97C0   		seta	%al
 120 0080 84C0     		testb	%al, %al
 121 0082 0F84A500 		je	L7
 121      0000
   7:C:/Users/Njáll Mýrdal/3viknanamskeid/LitidVerk1/Verkefni2/Vikuverk2/src/services\Validate.cpp ****             throw(InvalidInputExc("Invalid input - (digits only)"));  /// it throws the invalid inp
 122              		.loc 3 7 0
 123 0088 C7042404 		movl	$4, (%esp)
 123      000000
 124 008f E8000000 		call	___cxa_allocate_exception
 124      00
 125 0094 8985CCFE 		movl	%eax, -308(%ebp)
 125      FFFF
 126 009a 8D45DB   		leal	-37(%ebp), %eax
 127 009d 89C1     		movl	%eax, %ecx
 128 009f E8000000 		call	__ZNSaIcEC1Ev
 128      00
 129 00a4 8D45D4   		leal	-44(%ebp), %eax
GAS LISTING C:\Users\NJLLMR~1\AppData\Local\Temp\cc3wbcxt.s 			page 6


 130 00a7 8D55DB   		leal	-37(%ebp), %edx
 131 00aa 89542404 		movl	%edx, 4(%esp)
 132 00ae C7042400 		movl	$LC0, (%esp)
 132      000000
 133 00b5 C785D4FE 		movl	$1, -300(%ebp)
 133      FFFF0100 
 133      0000
 134 00bf 89C1     		movl	%eax, %ecx
 135 00c1 E8000000 		call	__ZNSsC1EPKcRKSaIcE
 135      00
 136 00c6 83EC08   		subl	$8, %esp
 137 00c9 8D45D4   		leal	-44(%ebp), %eax
 138 00cc 890424   		movl	%eax, (%esp)
 139 00cf C785D4FE 		movl	$2, -300(%ebp)
 139      FFFF0200 
 139      0000
 140 00d9 8B8DCCFE 		movl	-308(%ebp), %ecx
 140      FFFF
 141 00df E8000000 		call	__ZN15InvalidInputExcC1ESs
 141      00
 142              		.loc 3 7 0 is_stmt 0 discriminator 2
 143 00e4 83EC04   		subl	$4, %esp
 144 00e7 8D45D4   		leal	-44(%ebp), %eax
 145 00ea C785D4FE 		movl	$0, -300(%ebp)
 145      FFFF0000 
 145      0000
 146 00f4 89C1     		movl	%eax, %ecx
 147 00f6 E8000000 		call	__ZNSsD1Ev
 147      00
 148 00fb 8D45DB   		leal	-37(%ebp), %eax
 149 00fe 89C1     		movl	%eax, %ecx
 150 0100 E8000000 		call	__ZNSaIcED1Ev
 150      00
 151 0105 C7442408 		movl	$__ZN15InvalidInputExcD1Ev, 8(%esp)
 151      00000000 
 152 010d C7442404 		movl	$__ZTI15InvalidInputExc, 4(%esp)
 152      00000000 
 153 0115 8B85CCFE 		movl	-308(%ebp), %eax
 153      FFFF
 154 011b 890424   		movl	%eax, (%esp)
 155 011e C785D4FE 		movl	$-1, -300(%ebp)
 155      FFFFFFFF 
 155      FFFF
 156 0128 E8000000 		call	___cxa_throw
 156      00
 157              	L7:
   5:C:/Users/Njáll Mýrdal/3viknanamskeid/LitidVerk1/Verkefni2/Vikuverk2/src/services\Validate.cpp ****     for(unsigned int i = 0; i < input.length(); i++) {  /// goes through the string,
 158              		.loc 3 5 0 is_stmt 1 discriminator 2
 159 012d 8345E401 		addl	$1, -28(%ebp)
 160              	L6:
   5:C:/Users/Njáll Mýrdal/3viknanamskeid/LitidVerk1/Verkefni2/Vikuverk2/src/services\Validate.cpp ****     for(unsigned int i = 0; i < input.length(); i++) {  /// goes through the string,
 161              		.loc 3 5 0 is_stmt 0 discriminator 1
 162 0131 C785D4FE 		movl	$-1, -300(%ebp)
 162      FFFFFFFF 
 162      FFFF
 163 013b 8B4D08   		movl	8(%ebp), %ecx
 164 013e E8000000 		call	__ZNKSs6lengthEv
GAS LISTING C:\Users\NJLLMR~1\AppData\Local\Temp\cc3wbcxt.s 			page 7


 164      00
 165 0143 3B45E4   		cmpl	-28(%ebp), %eax
 166 0146 0F97C0   		seta	%al
 167 0149 84C0     		testb	%al, %al
 168 014b 0F8505FF 		jne	L8
 168      FFFF
 169              	LBE4:
   8:C:/Users/Njáll Mýrdal/3viknanamskeid/LitidVerk1/Verkefni2/Vikuverk2/src/services\Validate.cpp ****         }
   9:C:/Users/Njáll Mýrdal/3viknanamskeid/LitidVerk1/Verkefni2/Vikuverk2/src/services\Validate.cpp ****     }
  10:C:/Users/Njáll Mýrdal/3viknanamskeid/LitidVerk1/Verkefni2/Vikuverk2/src/services\Validate.cpp ****     int tmpInput = 0;
 170              		.loc 3 10 0 is_stmt 1
 171 0151 C745D000 		movl	$0, -48(%ebp)
 171      000000
  11:C:/Users/Njáll Mýrdal/3viknanamskeid/LitidVerk1/Verkefni2/Vikuverk2/src/services\Validate.cpp ****     stringstream sin1(input);
 172              		.loc 3 11 0
 173 0158 C7442404 		movl	$8, 4(%esp)
 173      08000000 
 174 0160 C7042410 		movl	$16, (%esp)
 174      000000
 175 0167 E8000000 		call	__ZStorSt13_Ios_OpenmodeS_
 175      00
 176 016c 89C2     		movl	%eax, %edx
 177 016e 8D8514FF 		leal	-236(%ebp), %eax
 177      FFFF
 178 0174 89542404 		movl	%edx, 4(%esp)
 179 0178 8B5508   		movl	8(%ebp), %edx
 180 017b 891424   		movl	%edx, (%esp)
 181 017e 89C1     		movl	%eax, %ecx
 182 0180 E8000000 		call	__ZNSt18basic_stringstreamIcSt11char_traitsIcESaIcEEC1ERKSsSt13_Ios_Openmode
 182      00
 183 0185 83EC08   		subl	$8, %esp
  12:C:/Users/Njáll Mýrdal/3viknanamskeid/LitidVerk1/Verkefni2/Vikuverk2/src/services\Validate.cpp ****     sin1 >> tmpInput;           /// convert the string to int
 184              		.loc 3 12 0
 185 0188 8D8514FF 		leal	-236(%ebp), %eax
 185      FFFF
 186 018e 8D55D0   		leal	-48(%ebp), %edx
 187 0191 891424   		movl	%edx, (%esp)
 188 0194 C785D4FE 		movl	$3, -300(%ebp)
 188      FFFF0300 
 188      0000
 189 019e 89C1     		movl	%eax, %ecx
 190 01a0 E8000000 		call	__ZNSirsERi
 190      00
 191 01a5 83EC04   		subl	$4, %esp
  13:C:/Users/Njáll Mýrdal/3viknanamskeid/LitidVerk1/Verkefni2/Vikuverk2/src/services\Validate.cpp ****     if (tmpInput >= 1 && tmpInput <= 10){           /// checks if it is 1 to 10
 192              		.loc 3 13 0
 193 01a8 8B45D0   		movl	-48(%ebp), %eax
 194 01ab 85C0     		testl	%eax, %eax
 195 01ad 7E38     		jle	L9
 196              		.loc 3 13 0 is_stmt 0 discriminator 1
 197 01af 8B45D0   		movl	-48(%ebp), %eax
 198 01b2 83F80A   		cmpl	$10, %eax
 199 01b5 7F30     		jg	L9
  14:C:/Users/Njáll Mýrdal/3viknanamskeid/LitidVerk1/Verkefni2/Vikuverk2/src/services\Validate.cpp ****         return true;
 200              		.loc 3 14 0 is_stmt 1
 201 01b7 C685CCFE 		movb	$1, -308(%ebp)
 201      FFFF01
GAS LISTING C:\Users\NJLLMR~1\AppData\Local\Temp\cc3wbcxt.s 			page 8


  15:C:/Users/Njáll Mýrdal/3viknanamskeid/LitidVerk1/Verkefni2/Vikuverk2/src/services\Validate.cpp ****     }
  16:C:/Users/Njáll Mýrdal/3viknanamskeid/LitidVerk1/Verkefni2/Vikuverk2/src/services\Validate.cpp ****     else {
  17:C:/Users/Njáll Mýrdal/3viknanamskeid/LitidVerk1/Verkefni2/Vikuverk2/src/services\Validate.cpp ****         throw(InvalidInputExc("Invalid input - (1 to 10)"));  /// if not, throws another invalid in
  18:C:/Users/Njáll Mýrdal/3viknanamskeid/LitidVerk1/Verkefni2/Vikuverk2/src/services\Validate.cpp ****     }
 202              		.loc 3 18 0
 203 01be 8D8514FF 		leal	-236(%ebp), %eax
 203      FFFF
 204 01c4 C785D4FE 		movl	$-1, -300(%ebp)
 204      FFFFFFFF 
 204      FFFF
 205 01ce 89C1     		movl	%eax, %ecx
 206 01d0 E8000000 		call	__ZNSt18basic_stringstreamIcSt11char_traitsIcESaIcEED1Ev
 206      00
  14:C:/Users/Njáll Mýrdal/3viknanamskeid/LitidVerk1/Verkefni2/Vikuverk2/src/services\Validate.cpp ****         return true;
 207              		.loc 3 14 0
 208 01d5 0FB685CC 		movzbl	-308(%ebp), %eax
 208      FEFFFF
 209 01dc 8885CCFE 		movb	%al, -308(%ebp)
 209      FFFF
 210 01e2 E9DC0100 		jmp	L22
 210      00
 211              	L9:
  17:C:/Users/Njáll Mýrdal/3viknanamskeid/LitidVerk1/Verkefni2/Vikuverk2/src/services\Validate.cpp ****     }
 212              		.loc 3 17 0
 213 01e7 C7042404 		movl	$4, (%esp)
 213      000000
 214 01ee E8000000 		call	___cxa_allocate_exception
 214      00
 215 01f3 8985C8FE 		movl	%eax, -312(%ebp)
 215      FFFF
 216 01f9 8D45E3   		leal	-29(%ebp), %eax
 217 01fc 89C1     		movl	%eax, %ecx
 218 01fe E8000000 		call	__ZNSaIcEC1Ev
 218      00
 219 0203 8D45DC   		leal	-36(%ebp), %eax
 220 0206 8D55E3   		leal	-29(%ebp), %edx
 221 0209 89542404 		movl	%edx, 4(%esp)
 222 020d C704241E 		movl	$LC1, (%esp)
 222      000000
 223 0214 C785D4FE 		movl	$4, -300(%ebp)
 223      FFFF0400 
 223      0000
 224 021e 89C1     		movl	%eax, %ecx
 225 0220 E8000000 		call	__ZNSsC1EPKcRKSaIcE
 225      00
 226 0225 83EC08   		subl	$8, %esp
 227 0228 8D45DC   		leal	-36(%ebp), %eax
 228 022b 890424   		movl	%eax, (%esp)
 229 022e C785D4FE 		movl	$5, -300(%ebp)
 229      FFFF0500 
 229      0000
 230 0238 8B8DC8FE 		movl	-312(%ebp), %ecx
 230      FFFF
 231 023e E8000000 		call	__ZN15InvalidInputExcC1ESs
 231      00
  17:C:/Users/Njáll Mýrdal/3viknanamskeid/LitidVerk1/Verkefni2/Vikuverk2/src/services\Validate.cpp ****     }
 232              		.loc 3 17 0 is_stmt 0 discriminator 2
GAS LISTING C:\Users\NJLLMR~1\AppData\Local\Temp\cc3wbcxt.s 			page 9


 233 0243 83EC04   		subl	$4, %esp
 234 0246 8D45DC   		leal	-36(%ebp), %eax
 235 0249 C785D4FE 		movl	$0, -300(%ebp)
 235      FFFF0000 
 235      0000
 236 0253 89C1     		movl	%eax, %ecx
 237 0255 E8000000 		call	__ZNSsD1Ev
 237      00
 238 025a 8D45E3   		leal	-29(%ebp), %eax
 239 025d 89C1     		movl	%eax, %ecx
 240 025f E8000000 		call	__ZNSaIcED1Ev
 240      00
 241 0264 C7442408 		movl	$__ZN15InvalidInputExcD1Ev, 8(%esp)
 241      00000000 
 242 026c C7442404 		movl	$__ZTI15InvalidInputExc, 4(%esp)
 242      00000000 
 243 0274 8B85C8FE 		movl	-312(%ebp), %eax
 243      FFFF
 244 027a 890424   		movl	%eax, (%esp)
 245 027d C785D4FE 		movl	$3, -300(%ebp)
 245      FFFF0300 
 245      0000
 246 0287 E8000000 		call	___cxa_throw
 246      00
 247              	L18:
 248 028c 8995C8FE 		movl	%edx, -312(%ebp)
 248      FFFF
 249              	LBB5:
   7:C:/Users/Njáll Mýrdal/3viknanamskeid/LitidVerk1/Verkefni2/Vikuverk2/src/services\Validate.cpp ****         }
 250              		.loc 3 7 0 is_stmt 1
 251 0292 8D45D4   		leal	-44(%ebp), %eax
 252 0295 C785D4FE 		movl	$0, -300(%ebp)
 252      FFFF0000 
 252      0000
 253 029f 89C1     		movl	%eax, %ecx
 254 02a1 E8000000 		call	__ZNSsD1Ev
 254      00
 255 02a6 8B85C8FE 		movl	-312(%ebp), %eax
 255      FFFF
 256 02ac 8985C8FE 		movl	%eax, -312(%ebp)
 256      FFFF
 257 02b2 EB3E     		jmp	L12
 258              	L16:
 259 02b4 8D6D18   		leal	24(%ebp), %ebp
 260 02b7 8B95D8FE 		movl	-296(%ebp), %edx
 260      FFFF
 261 02bd 8B85D4FE 		movl	-300(%ebp), %eax
 261      FFFF
 262 02c3 85C0     		testl	%eax, %eax
 263 02c5 7425     		je	L17
 264 02c7 83E801   		subl	$1, %eax
 265 02ca 85C0     		testl	%eax, %eax
 266 02cc 74BE     		je	L18
 267 02ce 83E801   		subl	$1, %eax
 268 02d1 85C0     		testl	%eax, %eax
 269 02d3 0F84B500 		je	L19
 269      0000
GAS LISTING C:\Users\NJLLMR~1\AppData\Local\Temp\cc3wbcxt.s 			page 10


 270 02d9 83E801   		subl	$1, %eax
 271 02dc 85C0     		testl	%eax, %eax
 272 02de 7476     		je	L20
 273 02e0 83E801   		subl	$1, %eax
 274 02e3 85C0     		testl	%eax, %eax
 275 02e5 7447     		je	L21
 276 02e7 83E801   		subl	$1, %eax
 277 02ea 0F0B     		ud2
 278              	L17:
 279 02ec 8995C8FE 		movl	%edx, -312(%ebp)
 279      FFFF
 280              	L12:
   7:C:/Users/Njáll Mýrdal/3viknanamskeid/LitidVerk1/Verkefni2/Vikuverk2/src/services\Validate.cpp ****         }
 281              		.loc 3 7 0 is_stmt 0 discriminator 1
 282 02f2 8D45DB   		leal	-37(%ebp), %eax
 283 02f5 89C1     		movl	%eax, %ecx
 284 02f7 E8000000 		call	__ZNSaIcED1Ev
 284      00
 285 02fc 8B85C8FE 		movl	-312(%ebp), %eax
 285      FFFF
 286 0302 8985C8FE 		movl	%eax, -312(%ebp)
 286      FFFF
 287 0308 8BB5CCFE 		movl	-308(%ebp), %esi
 287      FFFF
 288 030e 893424   		movl	%esi, (%esp)
 289 0311 E8000000 		call	___cxa_free_exception
 289      00
 290 0316 8B85C8FE 		movl	-312(%ebp), %eax
 290      FFFF
 291 031c 890424   		movl	%eax, (%esp)
 292 031f C785D4FE 		movl	$-1, -300(%ebp)
 292      FFFFFFFF 
 292      FFFF
 293 0329 E8000000 		call	__Unwind_SjLj_Resume
 293      00
 294              	L21:
 295 032e 8995CCFE 		movl	%edx, -308(%ebp)
 295      FFFF
 296              	LBE5:
  17:C:/Users/Njáll Mýrdal/3viknanamskeid/LitidVerk1/Verkefni2/Vikuverk2/src/services\Validate.cpp ****     }
 297              		.loc 3 17 0 is_stmt 1
 298 0334 8D45DC   		leal	-36(%ebp), %eax
 299 0337 C785D4FE 		movl	$0, -300(%ebp)
 299      FFFF0000 
 299      0000
 300 0341 89C1     		movl	%eax, %ecx
 301 0343 E8000000 		call	__ZNSsD1Ev
 301      00
 302 0348 8B85CCFE 		movl	-308(%ebp), %eax
 302      FFFF
 303 034e 8985CCFE 		movl	%eax, -308(%ebp)
 303      FFFF
 304 0354 EB06     		jmp	L14
 305              	L20:
 306 0356 8995CCFE 		movl	%edx, -308(%ebp)
 306      FFFF
 307              	L14:
GAS LISTING C:\Users\NJLLMR~1\AppData\Local\Temp\cc3wbcxt.s 			page 11


  17:C:/Users/Njáll Mýrdal/3viknanamskeid/LitidVerk1/Verkefni2/Vikuverk2/src/services\Validate.cpp ****     }
 308              		.loc 3 17 0 is_stmt 0 discriminator 1
 309 035c 8D45E3   		leal	-29(%ebp), %eax
 310 035f 89C1     		movl	%eax, %ecx
 311 0361 E8000000 		call	__ZNSaIcED1Ev
 311      00
 312 0366 8B85CCFE 		movl	-308(%ebp), %eax
 312      FFFF
 313 036c 8985CCFE 		movl	%eax, -308(%ebp)
 313      FFFF
 314 0372 8BBDC8FE 		movl	-312(%ebp), %edi
 314      FFFF
 315 0378 893C24   		movl	%edi, (%esp)
 316 037b E8000000 		call	___cxa_free_exception
 316      00
 317 0380 8B85CCFE 		movl	-308(%ebp), %eax
 317      FFFF
 318 0386 8985CCFE 		movl	%eax, -308(%ebp)
 318      FFFF
 319 038c EB06     		jmp	L15
 320              	L19:
 321 038e 8995CCFE 		movl	%edx, -308(%ebp)
 321      FFFF
 322              	L15:
 323              		.loc 3 18 0 is_stmt 1
 324 0394 8D8514FF 		leal	-236(%ebp), %eax
 324      FFFF
 325 039a C785D4FE 		movl	$0, -300(%ebp)
 325      FFFF0000 
 325      0000
 326 03a4 89C1     		movl	%eax, %ecx
 327 03a6 E8000000 		call	__ZNSt18basic_stringstreamIcSt11char_traitsIcESaIcEED1Ev
 327      00
 328 03ab 8B85CCFE 		movl	-308(%ebp), %eax
 328      FFFF
 329 03b1 890424   		movl	%eax, (%esp)
 330 03b4 C785D4FE 		movl	$-1, -300(%ebp)
 330      FFFFFFFF 
 330      FFFF
 331 03be E8000000 		call	__Unwind_SjLj_Resume
 331      00
 332              	L22:
 333 03c3 8D85D0FE 		leal	-304(%ebp), %eax
 333      FFFF
 334 03c9 890424   		movl	%eax, (%esp)
 335 03cc E8000000 		call	__Unwind_SjLj_Unregister
 335      00
 336              	LBE3:
  19:C:/Users/Njáll Mýrdal/3viknanamskeid/LitidVerk1/Verkefni2/Vikuverk2/src/services\Validate.cpp **** 
  20:C:/Users/Njáll Mýrdal/3viknanamskeid/LitidVerk1/Verkefni2/Vikuverk2/src/services\Validate.cpp **** }
 337              		.loc 3 20 0
 338 03d1 0FB685CC 		movzbl	-308(%ebp), %eax
 338      FEFFFF
 339 03d8 8D65F4   		leal	-12(%ebp), %esp
 340 03db 5B       		popl	%ebx
 341              		.cfi_restore 3
 342 03dc 5E       		popl	%esi
GAS LISTING C:\Users\NJLLMR~1\AppData\Local\Temp\cc3wbcxt.s 			page 12


 343              		.cfi_restore 6
 344 03dd 5F       		popl	%edi
 345              		.cfi_restore 7
 346 03de 5D       		popl	%ebp
 347              		.cfi_restore 5
 348              		.cfi_def_cfa 4, 4
 349 03df C20400   		ret	$4
 350              		.cfi_endproc
 351              	LFE1404:
 352              		.section	.gcc_except_table,"w"
 353              	LLSDA1404:
 354 0000 FF       		.byte	0xff
 355 0001 FF       		.byte	0xff
 356 0002 01       		.byte	0x1
 357 0003 0A       		.uleb128 LLSDACSE1404-LLSDACSB1404
 358              	LLSDACSB1404:
 359 0004 00       		.uleb128 0
 360 0005 00       		.uleb128 0
 361 0006 01       		.uleb128 0x1
 362 0007 00       		.uleb128 0
 363 0008 02       		.uleb128 0x2
 364 0009 00       		.uleb128 0
 365 000a 03       		.uleb128 0x3
 366 000b 00       		.uleb128 0
 367 000c 04       		.uleb128 0x4
 368 000d 00       		.uleb128 0
 369              	LLSDACSE1404:
 370              		.text
 371              		.section	.text$_ZN16InvalidSalaryExcD1Ev,"x"
 372              		.linkonce discard
 373              		.align 2
 374              		.globl	__ZN16InvalidSalaryExcD1Ev
 376              	__ZN16InvalidSalaryExcD1Ev:
 377              	LFB1414:
 378              		.file 4 "include/exceptions/InvalidSalaryExc.h"
   1:include/exceptions/InvalidSalaryExc.h **** #ifndef INVALIDSALARYEXC_H
   2:include/exceptions/InvalidSalaryExc.h **** #define INVALIDSALARYEXC_H
   3:include/exceptions/InvalidSalaryExc.h **** 
   4:include/exceptions/InvalidSalaryExc.h **** #include "Employee.h"
   5:include/exceptions/InvalidSalaryExc.h **** 
   6:include/exceptions/InvalidSalaryExc.h **** class InvalidSalaryExc
 379              		.loc 4 6 0
 380              		.cfi_startproc
 381 0000 55       		pushl	%ebp
 382              		.cfi_def_cfa_offset 8
 383              		.cfi_offset 5, -8
 384 0001 89E5     		movl	%esp, %ebp
 385              		.cfi_def_cfa_register 5
 386 0003 83EC18   		subl	$24, %esp
 387 0006 894DF4   		movl	%ecx, -12(%ebp)
 388              	LBB6:
 389              		.loc 4 6 0
 390 0009 8B45F4   		movl	-12(%ebp), %eax
 391 000c 89C1     		movl	%eax, %ecx
 392 000e E8000000 		call	__ZNSsD1Ev
 392      00
 393              	LBE6:
GAS LISTING C:\Users\NJLLMR~1\AppData\Local\Temp\cc3wbcxt.s 			page 13


 394 0013 C9       		leave
 395              		.cfi_restore 5
 396              		.cfi_def_cfa 4, 4
 397 0014 C3       		ret
 398              		.cfi_endproc
 399              	LFE1414:
 400 0015 909090   		.text
 401              		.align 2
 402              		.globl	__ZN8Validate14validateSalaryESs
 404              	__ZN8Validate14validateSalaryESs:
 405              	LFB1411:
  21:C:/Users/Njáll Mýrdal/3viknanamskeid/LitidVerk1/Verkefni2/Vikuverk2/src/services\Validate.cpp **** 
  22:C:/Users/Njáll Mýrdal/3viknanamskeid/LitidVerk1/Verkefni2/Vikuverk2/src/services\Validate.cpp **** /// validates the salary
  23:C:/Users/Njáll Mýrdal/3viknanamskeid/LitidVerk1/Verkefni2/Vikuverk2/src/services\Validate.cpp **** bool Validate::validateSalary(string salary)
  24:C:/Users/Njáll Mýrdal/3viknanamskeid/LitidVerk1/Verkefni2/Vikuverk2/src/services\Validate.cpp **** {
 406              		.loc 3 24 0
 407              		.cfi_startproc
 408              		.cfi_personality 0,___gxx_personality_sj0
 409              		.cfi_lsda 0,LLSDA1411
 410 03e2 55       		pushl	%ebp
 411              		.cfi_def_cfa_offset 8
 412              		.cfi_offset 5, -8
 413 03e3 89E5     		movl	%esp, %ebp
 414              		.cfi_def_cfa_register 5
 415 03e5 57       		pushl	%edi
 416 03e6 56       		pushl	%esi
 417 03e7 53       		pushl	%ebx
 418 03e8 83EC6C   		subl	$108, %esp
 419              		.cfi_offset 7, -12
 420              		.cfi_offset 6, -16
 421              		.cfi_offset 3, -20
 422 03eb 894DD4   		movl	%ecx, -44(%ebp)
 423 03ee C745B800 		movl	$___gxx_personality_sj0, -72(%ebp)
 423      000000
 424 03f5 C745BC0E 		movl	$LLSDA1411, -68(%ebp)
 424      000000
 425 03fc 8D45C0   		leal	-64(%ebp), %eax
 426 03ff 8D5DE8   		leal	-24(%ebp), %ebx
 427 0402 8918     		movl	%ebx, (%eax)
 428 0404 BA2C0500 		movl	$L32, %edx
 428      00
 429 0409 895004   		movl	%edx, 4(%eax)
 430 040c 896008   		movl	%esp, 8(%eax)
 431 040f 8D45A0   		leal	-96(%ebp), %eax
 432 0412 890424   		movl	%eax, (%esp)
 433 0415 E8000000 		call	__Unwind_SjLj_Register
 433      00
 434              	LBB7:
 435              	LBB8:
  25:C:/Users/Njáll Mýrdal/3viknanamskeid/LitidVerk1/Verkefni2/Vikuverk2/src/services\Validate.cpp ****     for (unsigned int i = 0; i < salary.length(); i++){ /// goes through the string, check if only 
 436              		.loc 3 25 0
 437 041a C745E400 		movl	$0, -28(%ebp)
 437      000000
 438 0421 E9C30000 		jmp	L26
 438      00
 439              	L28:
  26:C:/Users/Njáll Mýrdal/3viknanamskeid/LitidVerk1/Verkefni2/Vikuverk2/src/services\Validate.cpp ****         if (!isdigit(salary[i])){
GAS LISTING C:\Users\NJLLMR~1\AppData\Local\Temp\cc3wbcxt.s 			page 14


 440              		.loc 3 26 0
 441 0426 8B45E4   		movl	-28(%ebp), %eax
 442 0429 890424   		movl	%eax, (%esp)
 443 042c C745A4FF 		movl	$-1, -92(%ebp)
 443      FFFFFF
 444 0433 8B4D08   		movl	8(%ebp), %ecx
 445 0436 E8000000 		call	__ZNSsixEj
 445      00
 446 043b 83EC04   		subl	$4, %esp
 447 043e 0FB600   		movzbl	(%eax), %eax
 448 0441 0FBEC0   		movsbl	%al, %eax
 449 0444 83E830   		subl	$48, %eax
 450 0447 83F809   		cmpl	$9, %eax
 451 044a 0F97C0   		seta	%al
 452 044d 84C0     		testb	%al, %al
 453 044f 0F849000 		je	L27
 453      0000
  27:C:/Users/Njáll Mýrdal/3viknanamskeid/LitidVerk1/Verkefni2/Vikuverk2/src/services\Validate.cpp ****             throw(InvalidSalaryExc("Invalid input - (digits only)")); /// if not, throws invalidsal
 454              		.loc 3 27 0
 455 0455 C7042404 		movl	$4, (%esp)
 455      000000
 456 045c E8000000 		call	___cxa_allocate_exception
 456      00
 457 0461 89459C   		movl	%eax, -100(%ebp)
 458 0464 8D45E3   		leal	-29(%ebp), %eax
 459 0467 89C1     		movl	%eax, %ecx
 460 0469 E8000000 		call	__ZNSaIcEC1Ev
 460      00
 461 046e 8D45DC   		leal	-36(%ebp), %eax
 462 0471 8D55E3   		leal	-29(%ebp), %edx
 463 0474 89542404 		movl	%edx, 4(%esp)
 464 0478 C7042400 		movl	$LC0, (%esp)
 464      000000
 465 047f C745A401 		movl	$1, -92(%ebp)
 465      000000
 466 0486 89C1     		movl	%eax, %ecx
 467 0488 E8000000 		call	__ZNSsC1EPKcRKSaIcE
 467      00
 468 048d 83EC08   		subl	$8, %esp
 469 0490 8D45DC   		leal	-36(%ebp), %eax
 470 0493 890424   		movl	%eax, (%esp)
 471 0496 C745A402 		movl	$2, -92(%ebp)
 471      000000
 472 049d 8B4D9C   		movl	-100(%ebp), %ecx
 473 04a0 E8000000 		call	__ZN16InvalidSalaryExcC1ESs
 473      00
 474              		.loc 3 27 0 is_stmt 0 discriminator 2
 475 04a5 83EC04   		subl	$4, %esp
 476 04a8 8D45DC   		leal	-36(%ebp), %eax
 477 04ab C745A400 		movl	$0, -92(%ebp)
 477      000000
 478 04b2 89C1     		movl	%eax, %ecx
 479 04b4 E8000000 		call	__ZNSsD1Ev
 479      00
 480 04b9 8D45E3   		leal	-29(%ebp), %eax
 481 04bc 89C1     		movl	%eax, %ecx
 482 04be E8000000 		call	__ZNSaIcED1Ev
GAS LISTING C:\Users\NJLLMR~1\AppData\Local\Temp\cc3wbcxt.s 			page 15


 482      00
 483 04c3 C7442408 		movl	$__ZN16InvalidSalaryExcD1Ev, 8(%esp)
 483      00000000 
 484 04cb C7442404 		movl	$__ZTI16InvalidSalaryExc, 4(%esp)
 484      00000000 
 485 04d3 8B459C   		movl	-100(%ebp), %eax
 486 04d6 890424   		movl	%eax, (%esp)
 487 04d9 C745A4FF 		movl	$-1, -92(%ebp)
 487      FFFFFF
 488 04e0 E8000000 		call	___cxa_throw
 488      00
 489              	L27:
  25:C:/Users/Njáll Mýrdal/3viknanamskeid/LitidVerk1/Verkefni2/Vikuverk2/src/services\Validate.cpp ****     for (unsigned int i = 0; i < salary.length(); i++){ /// goes through the string, check if only 
 490              		.loc 3 25 0 is_stmt 1 discriminator 2
 491 04e5 8345E401 		addl	$1, -28(%ebp)
 492              	L26:
  25:C:/Users/Njáll Mýrdal/3viknanamskeid/LitidVerk1/Verkefni2/Vikuverk2/src/services\Validate.cpp ****     for (unsigned int i = 0; i < salary.length(); i++){ /// goes through the string, check if only 
 493              		.loc 3 25 0 is_stmt 0 discriminator 1
 494 04e9 C745A4FF 		movl	$-1, -92(%ebp)
 494      FFFFFF
 495 04f0 8B4D08   		movl	8(%ebp), %ecx
 496 04f3 E8000000 		call	__ZNKSs6lengthEv
 496      00
 497 04f8 3B45E4   		cmpl	-28(%ebp), %eax
 498 04fb 0F97C0   		seta	%al
 499 04fe 84C0     		testb	%al, %al
 500 0500 0F8520FF 		jne	L28
 500      FFFF
 501              	LBE8:
  28:C:/Users/Njáll Mýrdal/3viknanamskeid/LitidVerk1/Verkefni2/Vikuverk2/src/services\Validate.cpp ****         }
  29:C:/Users/Njáll Mýrdal/3viknanamskeid/LitidVerk1/Verkefni2/Vikuverk2/src/services\Validate.cpp ****     }
  30:C:/Users/Njáll Mýrdal/3viknanamskeid/LitidVerk1/Verkefni2/Vikuverk2/src/services\Validate.cpp **** return true;
 502              		.loc 3 30 0 is_stmt 1
 503 0506 B8010000 		movl	$1, %eax
 503      00
 504 050b 88459C   		movb	%al, -100(%ebp)
 505 050e EB65     		jmp	L35
 506              	L34:
 507 0510 895598   		movl	%edx, -104(%ebp)
 508              	LBB9:
  27:C:/Users/Njáll Mýrdal/3viknanamskeid/LitidVerk1/Verkefni2/Vikuverk2/src/services\Validate.cpp ****             throw(InvalidSalaryExc("Invalid input - (digits only)")); /// if not, throws invalidsal
 509              		.loc 3 27 0
 510 0513 8D45DC   		leal	-36(%ebp), %eax
 511 0516 C745A400 		movl	$0, -92(%ebp)
 511      000000
 512 051d 89C1     		movl	%eax, %ecx
 513 051f E8000000 		call	__ZNSsD1Ev
 513      00
 514 0524 8B4598   		movl	-104(%ebp), %eax
 515 0527 894598   		movl	%eax, -104(%ebp)
 516 052a EB1C     		jmp	L31
 517              	L32:
 518 052c 8D6D18   		leal	24(%ebp), %ebp
 519 052f 8B55A8   		movl	-88(%ebp), %edx
 520 0532 8B45A4   		movl	-92(%ebp), %eax
 521 0535 85C0     		testl	%eax, %eax
 522 0537 740C     		je	L33
GAS LISTING C:\Users\NJLLMR~1\AppData\Local\Temp\cc3wbcxt.s 			page 16


 523 0539 83E801   		subl	$1, %eax
 524 053c 85C0     		testl	%eax, %eax
 525 053e 74D0     		je	L34
 526 0540 83E801   		subl	$1, %eax
 527 0543 0F0B     		ud2
 528              	L33:
 529 0545 895598   		movl	%edx, -104(%ebp)
 530              	L31:
  27:C:/Users/Njáll Mýrdal/3viknanamskeid/LitidVerk1/Verkefni2/Vikuverk2/src/services\Validate.cpp ****             throw(InvalidSalaryExc("Invalid input - (digits only)")); /// if not, throws invalidsal
 531              		.loc 3 27 0 is_stmt 0 discriminator 1
 532 0548 8D45E3   		leal	-29(%ebp), %eax
 533 054b 89C1     		movl	%eax, %ecx
 534 054d E8000000 		call	__ZNSaIcED1Ev
 534      00
 535 0552 8B4598   		movl	-104(%ebp), %eax
 536 0555 894598   		movl	%eax, -104(%ebp)
 537 0558 8B759C   		movl	-100(%ebp), %esi
 538 055b 893424   		movl	%esi, (%esp)
 539 055e E8000000 		call	___cxa_free_exception
 539      00
 540 0563 8B4598   		movl	-104(%ebp), %eax
 541 0566 890424   		movl	%eax, (%esp)
 542 0569 C745A4FF 		movl	$-1, -92(%ebp)
 542      FFFFFF
 543 0570 E8000000 		call	__Unwind_SjLj_Resume
 543      00
 544              	L35:
 545 0575 8D45A0   		leal	-96(%ebp), %eax
 546 0578 890424   		movl	%eax, (%esp)
 547 057b E8000000 		call	__Unwind_SjLj_Unregister
 547      00
 548              	LBE9:
 549              	LBE7:
  31:C:/Users/Njáll Mýrdal/3viknanamskeid/LitidVerk1/Verkefni2/Vikuverk2/src/services\Validate.cpp **** }
 550              		.loc 3 31 0 is_stmt 1
 551 0580 0FB6459C 		movzbl	-100(%ebp), %eax
 552 0584 8D65F4   		leal	-12(%ebp), %esp
 553 0587 5B       		popl	%ebx
 554              		.cfi_restore 3
 555 0588 5E       		popl	%esi
 556              		.cfi_restore 6
 557 0589 5F       		popl	%edi
 558              		.cfi_restore 7
 559 058a 5D       		popl	%ebp
 560              		.cfi_restore 5
 561              		.cfi_def_cfa 4, 4
 562 058b C20400   		ret	$4
 563              		.cfi_endproc
 564              	LFE1411:
 565              		.section	.gcc_except_table,"w"
 566              	LLSDA1411:
 567 000e FF       		.byte	0xff
 568 000f FF       		.byte	0xff
 569 0010 01       		.byte	0x1
 570 0011 04       		.uleb128 LLSDACSE1411-LLSDACSB1411
 571              	LLSDACSB1411:
 572 0012 00       		.uleb128 0
GAS LISTING C:\Users\NJLLMR~1\AppData\Local\Temp\cc3wbcxt.s 			page 17


 573 0013 00       		.uleb128 0
 574 0014 01       		.uleb128 0x1
 575 0015 00       		.uleb128 0
 576              	LLSDACSE1411:
 577              		.text
 578              		.section	.text$_ZN13InvalidSsnExcD1Ev,"x"
 579              		.linkonce discard
 580              		.align 2
 581              		.globl	__ZN13InvalidSsnExcD1Ev
 583              	__ZN13InvalidSsnExcD1Ev:
 584              	LFB1421:
 585              		.file 5 "include/exceptions/InvalidSsnExc.h"
   1:include/exceptions/InvalidSsnExc.h **** #ifndef INVALIDSSNEXC_H
   2:include/exceptions/InvalidSsnExc.h **** #define INVALIDSSNEXC_H
   3:include/exceptions/InvalidSsnExc.h **** 
   4:include/exceptions/InvalidSsnExc.h **** #include "Employee.h"
   5:include/exceptions/InvalidSsnExc.h **** 
   6:include/exceptions/InvalidSsnExc.h **** class InvalidSsnExc
 586              		.loc 5 6 0
 587              		.cfi_startproc
 588 0000 55       		pushl	%ebp
 589              		.cfi_def_cfa_offset 8
 590              		.cfi_offset 5, -8
 591 0001 89E5     		movl	%esp, %ebp
 592              		.cfi_def_cfa_register 5
 593 0003 83EC18   		subl	$24, %esp
 594 0006 894DF4   		movl	%ecx, -12(%ebp)
 595              	LBB10:
 596              		.loc 5 6 0
 597 0009 8B45F4   		movl	-12(%ebp), %eax
 598 000c 89C1     		movl	%eax, %ecx
 599 000e E8000000 		call	__ZNSsD1Ev
 599      00
 600              	LBE10:
 601 0013 C9       		leave
 602              		.cfi_restore 5
 603              		.cfi_def_cfa 4, 4
 604 0014 C3       		ret
 605              		.cfi_endproc
 606              	LFE1421:
 607 0015 909090   		.section .rdata,"dr"
 608              		.align 4
 609              	LC2:
 610 0038 496E7661 		.ascii "Invalid input - (10 - digits only)\0"
 610      6C696420 
 610      696E7075 
 610      74202D20 
 610      28313020 
 611 005b 00       		.align 4
 612              	LC3:
 613 005c 496E7661 		.ascii "Invalid lenght - (10 - digits)\0"
 613      6C696420 
 613      6C656E67 
 613      6874202D 
 613      20283130 
 614              		.text
 615              		.align 2
GAS LISTING C:\Users\NJLLMR~1\AppData\Local\Temp\cc3wbcxt.s 			page 18


 616              		.globl	__ZN8Validate11validateSSNESs
 618              	__ZN8Validate11validateSSNESs:
 619              	LFB1418:
  32:C:/Users/Njáll Mýrdal/3viknanamskeid/LitidVerk1/Verkefni2/Vikuverk2/src/services\Validate.cpp **** 
  33:C:/Users/Njáll Mýrdal/3viknanamskeid/LitidVerk1/Verkefni2/Vikuverk2/src/services\Validate.cpp **** /// To validate the SSN
  34:C:/Users/Njáll Mýrdal/3viknanamskeid/LitidVerk1/Verkefni2/Vikuverk2/src/services\Validate.cpp **** bool Validate::validateSSN(string ssn)
  35:C:/Users/Njáll Mýrdal/3viknanamskeid/LitidVerk1/Verkefni2/Vikuverk2/src/services\Validate.cpp **** {
 620              		.loc 3 35 0
 621              		.cfi_startproc
 622              		.cfi_personality 0,___gxx_personality_sj0
 623              		.cfi_lsda 0,LLSDA1418
 624 058e 55       		pushl	%ebp
 625              		.cfi_def_cfa_offset 8
 626              		.cfi_offset 5, -8
 627 058f 89E5     		movl	%esp, %ebp
 628              		.cfi_def_cfa_register 5
 629 0591 57       		pushl	%edi
 630 0592 56       		pushl	%esi
 631 0593 53       		pushl	%ebx
 632 0594 83EC7C   		subl	$124, %esp
 633              		.cfi_offset 7, -12
 634              		.cfi_offset 6, -16
 635              		.cfi_offset 3, -20
 636 0597 894DC4   		movl	%ecx, -60(%ebp)
 637 059a C745A800 		movl	$___gxx_personality_sj0, -88(%ebp)
 637      000000
 638 05a1 C745AC16 		movl	$LLSDA1418, -84(%ebp)
 638      000000
 639 05a8 8D45B0   		leal	-80(%ebp), %eax
 640 05ab 8D5DE8   		leal	-24(%ebp), %ebx
 641 05ae 8918     		movl	%ebx, (%eax)
 642 05b0 BA880700 		movl	$L49, %edx
 642      00
 643 05b5 895004   		movl	%edx, 4(%eax)
 644 05b8 896008   		movl	%esp, 8(%eax)
 645 05bb 8D4590   		leal	-112(%ebp), %eax
 646 05be 890424   		movl	%eax, (%esp)
 647 05c1 E8000000 		call	__Unwind_SjLj_Register
 647      00
 648              	LBB11:
 649              	LBB12:
  36:C:/Users/Njáll Mýrdal/3viknanamskeid/LitidVerk1/Verkefni2/Vikuverk2/src/services\Validate.cpp ****     if (ssn.length() == 10)     /// checks the strings length, must be length of 10
 650              		.loc 3 36 0
 651 05c6 C74594FF 		movl	$-1, -108(%ebp)
 651      FFFFFF
 652 05cd 8B4D08   		movl	8(%ebp), %ecx
 653 05d0 E8000000 		call	__ZNKSs6lengthEv
 653      00
 654 05d5 83F80A   		cmpl	$10, %eax
 655 05d8 0F94C0   		sete	%al
 656 05db 84C0     		testb	%al, %al
 657 05dd 0F84F900 		je	L39
 657      0000
 658              	LBB13:
 659              	LBB14:
  37:C:/Users/Njáll Mýrdal/3viknanamskeid/LitidVerk1/Verkefni2/Vikuverk2/src/services\Validate.cpp ****     {
  38:C:/Users/Njáll Mýrdal/3viknanamskeid/LitidVerk1/Verkefni2/Vikuverk2/src/services\Validate.cpp ****         for (unsigned int i = 0; i < ssn.length(); i++)     /// goes through the string, check if o
GAS LISTING C:\Users\NJLLMR~1\AppData\Local\Temp\cc3wbcxt.s 			page 19


 660              		.loc 3 38 0
 661 05e3 C745E400 		movl	$0, -28(%ebp)
 661      000000
 662 05ea E9C30000 		jmp	L40
 662      00
 663              	L42:
  39:C:/Users/Njáll Mýrdal/3viknanamskeid/LitidVerk1/Verkefni2/Vikuverk2/src/services\Validate.cpp ****         {
  40:C:/Users/Njáll Mýrdal/3viknanamskeid/LitidVerk1/Verkefni2/Vikuverk2/src/services\Validate.cpp ****             if (!isdigit(ssn[i]))
 664              		.loc 3 40 0
 665 05ef 8B45E4   		movl	-28(%ebp), %eax
 666 05f2 890424   		movl	%eax, (%esp)
 667 05f5 C74594FF 		movl	$-1, -108(%ebp)
 667      FFFFFF
 668 05fc 8B4D08   		movl	8(%ebp), %ecx
 669 05ff E8000000 		call	__ZNSsixEj
 669      00
 670 0604 83EC04   		subl	$4, %esp
 671 0607 0FB600   		movzbl	(%eax), %eax
 672 060a 0FBEC0   		movsbl	%al, %eax
 673 060d 83E830   		subl	$48, %eax
 674 0610 83F809   		cmpl	$9, %eax
 675 0613 0F97C0   		seta	%al
 676 0616 84C0     		testb	%al, %al
 677 0618 0F849000 		je	L41
 677      0000
  41:C:/Users/Njáll Mýrdal/3viknanamskeid/LitidVerk1/Verkefni2/Vikuverk2/src/services\Validate.cpp ****             {
  42:C:/Users/Njáll Mýrdal/3viknanamskeid/LitidVerk1/Verkefni2/Vikuverk2/src/services\Validate.cpp ****                 throw(InvalidSsnExc("Invalid input - (10 - digits only)"));   /// if not, throws an
 678              		.loc 3 42 0
 679 061e C7042404 		movl	$4, (%esp)
 679      000000
 680 0625 E8000000 		call	___cxa_allocate_exception
 680      00
 681 062a 89458C   		movl	%eax, -116(%ebp)
 682 062d 8D45DB   		leal	-37(%ebp), %eax
 683 0630 89C1     		movl	%eax, %ecx
 684 0632 E8000000 		call	__ZNSaIcEC1Ev
 684      00
 685 0637 8D45D4   		leal	-44(%ebp), %eax
 686 063a 8D55DB   		leal	-37(%ebp), %edx
 687 063d 89542404 		movl	%edx, 4(%esp)
 688 0641 C7042438 		movl	$LC2, (%esp)
 688      000000
 689 0648 C7459401 		movl	$1, -108(%ebp)
 689      000000
 690 064f 89C1     		movl	%eax, %ecx
 691 0651 E8000000 		call	__ZNSsC1EPKcRKSaIcE
 691      00
 692 0656 83EC08   		subl	$8, %esp
 693 0659 8D45D4   		leal	-44(%ebp), %eax
 694 065c 890424   		movl	%eax, (%esp)
 695 065f C7459402 		movl	$2, -108(%ebp)
 695      000000
 696 0666 8B4D8C   		movl	-116(%ebp), %ecx
 697 0669 E8000000 		call	__ZN13InvalidSsnExcC1ESs
 697      00
 698              		.loc 3 42 0 is_stmt 0 discriminator 2
 699 066e 83EC04   		subl	$4, %esp
GAS LISTING C:\Users\NJLLMR~1\AppData\Local\Temp\cc3wbcxt.s 			page 20


 700 0671 8D45D4   		leal	-44(%ebp), %eax
 701 0674 C7459400 		movl	$0, -108(%ebp)
 701      000000
 702 067b 89C1     		movl	%eax, %ecx
 703 067d E8000000 		call	__ZNSsD1Ev
 703      00
 704 0682 8D45DB   		leal	-37(%ebp), %eax
 705 0685 89C1     		movl	%eax, %ecx
 706 0687 E8000000 		call	__ZNSaIcED1Ev
 706      00
 707 068c C7442408 		movl	$__ZN13InvalidSsnExcD1Ev, 8(%esp)
 707      00000000 
 708 0694 C7442404 		movl	$__ZTI13InvalidSsnExc, 4(%esp)
 708      00000000 
 709 069c 8B458C   		movl	-116(%ebp), %eax
 710 069f 890424   		movl	%eax, (%esp)
 711 06a2 C74594FF 		movl	$-1, -108(%ebp)
 711      FFFFFF
 712 06a9 E8000000 		call	___cxa_throw
 712      00
 713              	L41:
  38:C:/Users/Njáll Mýrdal/3viknanamskeid/LitidVerk1/Verkefni2/Vikuverk2/src/services\Validate.cpp ****         {
 714              		.loc 3 38 0 is_stmt 1 discriminator 2
 715 06ae 8345E401 		addl	$1, -28(%ebp)
 716              	L40:
  38:C:/Users/Njáll Mýrdal/3viknanamskeid/LitidVerk1/Verkefni2/Vikuverk2/src/services\Validate.cpp ****         {
 717              		.loc 3 38 0 is_stmt 0 discriminator 1
 718 06b2 C74594FF 		movl	$-1, -108(%ebp)
 718      FFFFFF
 719 06b9 8B4D08   		movl	8(%ebp), %ecx
 720 06bc E8000000 		call	__ZNKSs6lengthEv
 720      00
 721 06c1 3B45E4   		cmpl	-28(%ebp), %eax
 722 06c4 0F97C0   		seta	%al
 723 06c7 84C0     		testb	%al, %al
 724 06c9 0F8520FF 		jne	L42
 724      FFFF
 725              	LBE14:
 726              	LBE13:
 727              	LBE12:
  43:C:/Users/Njáll Mýrdal/3viknanamskeid/LitidVerk1/Verkefni2/Vikuverk2/src/services\Validate.cpp ****             }
  44:C:/Users/Njáll Mýrdal/3viknanamskeid/LitidVerk1/Verkefni2/Vikuverk2/src/services\Validate.cpp ****         }
  45:C:/Users/Njáll Mýrdal/3viknanamskeid/LitidVerk1/Verkefni2/Vikuverk2/src/services\Validate.cpp ****     }
  46:C:/Users/Njáll Mýrdal/3viknanamskeid/LitidVerk1/Verkefni2/Vikuverk2/src/services\Validate.cpp ****     else {
  47:C:/Users/Njáll Mýrdal/3viknanamskeid/LitidVerk1/Verkefni2/Vikuverk2/src/services\Validate.cpp ****         throw(InvalidSsnExc("Invalid lenght - (10 - digits)"));   /// throws another error if it is
  48:C:/Users/Njáll Mýrdal/3viknanamskeid/LitidVerk1/Verkefni2/Vikuverk2/src/services\Validate.cpp ****     }
  49:C:/Users/Njáll Mýrdal/3viknanamskeid/LitidVerk1/Verkefni2/Vikuverk2/src/services\Validate.cpp **** return true;
 728              		.loc 3 49 0 is_stmt 1
 729 06cf B8010000 		movl	$1, %eax
 729      00
 730 06d4 88458C   		movb	%al, -116(%ebp)
 731 06d7 E94F0100 		jmp	L54
 731      00
 732              	L39:
 733              	LBB17:
  47:C:/Users/Njáll Mýrdal/3viknanamskeid/LitidVerk1/Verkefni2/Vikuverk2/src/services\Validate.cpp ****     }
 734              		.loc 3 47 0
GAS LISTING C:\Users\NJLLMR~1\AppData\Local\Temp\cc3wbcxt.s 			page 21


 735 06dc C7042404 		movl	$4, (%esp)
 735      000000
 736 06e3 E8000000 		call	___cxa_allocate_exception
 736      00
 737 06e8 894588   		movl	%eax, -120(%ebp)
 738 06eb 8D45E3   		leal	-29(%ebp), %eax
 739 06ee 89C1     		movl	%eax, %ecx
 740 06f0 E8000000 		call	__ZNSaIcEC1Ev
 740      00
 741 06f5 8D45DC   		leal	-36(%ebp), %eax
 742 06f8 8D55E3   		leal	-29(%ebp), %edx
 743 06fb 89542404 		movl	%edx, 4(%esp)
 744 06ff C704245C 		movl	$LC3, (%esp)
 744      000000
 745 0706 C7459403 		movl	$3, -108(%ebp)
 745      000000
 746 070d 89C1     		movl	%eax, %ecx
 747 070f E8000000 		call	__ZNSsC1EPKcRKSaIcE
 747      00
 748 0714 83EC08   		subl	$8, %esp
 749 0717 8D45DC   		leal	-36(%ebp), %eax
 750 071a 890424   		movl	%eax, (%esp)
 751 071d C7459404 		movl	$4, -108(%ebp)
 751      000000
 752 0724 8B4D88   		movl	-120(%ebp), %ecx
 753 0727 E8000000 		call	__ZN13InvalidSsnExcC1ESs
 753      00
  47:C:/Users/Njáll Mýrdal/3viknanamskeid/LitidVerk1/Verkefni2/Vikuverk2/src/services\Validate.cpp ****     }
 754              		.loc 3 47 0 is_stmt 0 discriminator 2
 755 072c 83EC04   		subl	$4, %esp
 756 072f 8D45DC   		leal	-36(%ebp), %eax
 757 0732 C7459400 		movl	$0, -108(%ebp)
 757      000000
 758 0739 89C1     		movl	%eax, %ecx
 759 073b E8000000 		call	__ZNSsD1Ev
 759      00
 760 0740 8D45E3   		leal	-29(%ebp), %eax
 761 0743 89C1     		movl	%eax, %ecx
 762 0745 E8000000 		call	__ZNSaIcED1Ev
 762      00
 763 074a C7442408 		movl	$__ZN13InvalidSsnExcD1Ev, 8(%esp)
 763      00000000 
 764 0752 C7442404 		movl	$__ZTI13InvalidSsnExc, 4(%esp)
 764      00000000 
 765 075a 8B4588   		movl	-120(%ebp), %eax
 766 075d 890424   		movl	%eax, (%esp)
 767 0760 C74594FF 		movl	$-1, -108(%ebp)
 767      FFFFFF
 768 0767 E8000000 		call	___cxa_throw
 768      00
 769              	L51:
 770 076c 895588   		movl	%edx, -120(%ebp)
 771              	LBB16:
 772              	LBB15:
  42:C:/Users/Njáll Mýrdal/3viknanamskeid/LitidVerk1/Verkefni2/Vikuverk2/src/services\Validate.cpp ****             }
 773              		.loc 3 42 0 is_stmt 1
 774 076f 8D45D4   		leal	-44(%ebp), %eax
GAS LISTING C:\Users\NJLLMR~1\AppData\Local\Temp\cc3wbcxt.s 			page 22


 775 0772 C7459400 		movl	$0, -108(%ebp)
 775      000000
 776 0779 89C1     		movl	%eax, %ecx
 777 077b E8000000 		call	__ZNSsD1Ev
 777      00
 778 0780 8B4588   		movl	-120(%ebp), %eax
 779 0783 894588   		movl	%eax, -120(%ebp)
 780 0786 EB2A     		jmp	L46
 781              	L49:
 782 0788 8D6D18   		leal	24(%ebp), %ebp
 783 078b 8B5598   		movl	-104(%ebp), %edx
 784 078e 8B4594   		movl	-108(%ebp), %eax
 785 0791 85C0     		testl	%eax, %eax
 786 0793 741A     		je	L50
 787 0795 83E801   		subl	$1, %eax
 788 0798 85C0     		testl	%eax, %eax
 789 079a 74D0     		je	L51
 790 079c 83E801   		subl	$1, %eax
 791 079f 85C0     		testl	%eax, %eax
 792 07a1 7458     		je	L52
 793 07a3 83E801   		subl	$1, %eax
 794 07a6 85C0     		testl	%eax, %eax
 795 07a8 7435     		je	L53
 796 07aa 83E801   		subl	$1, %eax
 797 07ad 0F0B     		ud2
 798              	L50:
 799 07af 895588   		movl	%edx, -120(%ebp)
 800              	L46:
  42:C:/Users/Njáll Mýrdal/3viknanamskeid/LitidVerk1/Verkefni2/Vikuverk2/src/services\Validate.cpp ****             }
 801              		.loc 3 42 0 is_stmt 0 discriminator 1
 802 07b2 8D45DB   		leal	-37(%ebp), %eax
 803 07b5 89C1     		movl	%eax, %ecx
 804 07b7 E8000000 		call	__ZNSaIcED1Ev
 804      00
 805 07bc 8B4588   		movl	-120(%ebp), %eax
 806 07bf 894588   		movl	%eax, -120(%ebp)
 807 07c2 8B758C   		movl	-116(%ebp), %esi
 808 07c5 893424   		movl	%esi, (%esp)
 809 07c8 E8000000 		call	___cxa_free_exception
 809      00
 810 07cd 8B4588   		movl	-120(%ebp), %eax
 811 07d0 890424   		movl	%eax, (%esp)
 812 07d3 C74594FF 		movl	$-1, -108(%ebp)
 812      FFFFFF
 813 07da E8000000 		call	__Unwind_SjLj_Resume
 813      00
 814              	L53:
 815 07df 89558C   		movl	%edx, -116(%ebp)
 816              	LBE15:
 817              	LBE16:
  47:C:/Users/Njáll Mýrdal/3viknanamskeid/LitidVerk1/Verkefni2/Vikuverk2/src/services\Validate.cpp ****     }
 818              		.loc 3 47 0 is_stmt 1
 819 07e2 8D45DC   		leal	-36(%ebp), %eax
 820 07e5 C7459400 		movl	$0, -108(%ebp)
 820      000000
 821 07ec 89C1     		movl	%eax, %ecx
 822 07ee E8000000 		call	__ZNSsD1Ev
GAS LISTING C:\Users\NJLLMR~1\AppData\Local\Temp\cc3wbcxt.s 			page 23


 822      00
 823 07f3 8B458C   		movl	-116(%ebp), %eax
 824 07f6 89458C   		movl	%eax, -116(%ebp)
 825 07f9 EB03     		jmp	L48
 826              	L52:
 827 07fb 89558C   		movl	%edx, -116(%ebp)
 828              	L48:
  47:C:/Users/Njáll Mýrdal/3viknanamskeid/LitidVerk1/Verkefni2/Vikuverk2/src/services\Validate.cpp ****     }
 829              		.loc 3 47 0 is_stmt 0 discriminator 1
 830 07fe 8D45E3   		leal	-29(%ebp), %eax
 831 0801 89C1     		movl	%eax, %ecx
 832 0803 E8000000 		call	__ZNSaIcED1Ev
 832      00
 833 0808 8B458C   		movl	-116(%ebp), %eax
 834 080b 89458C   		movl	%eax, -116(%ebp)
 835 080e 8B7D88   		movl	-120(%ebp), %edi
 836 0811 893C24   		movl	%edi, (%esp)
 837 0814 E8000000 		call	___cxa_free_exception
 837      00
 838 0819 8B458C   		movl	-116(%ebp), %eax
 839 081c 890424   		movl	%eax, (%esp)
 840 081f C74594FF 		movl	$-1, -108(%ebp)
 840      FFFFFF
 841 0826 E8000000 		call	__Unwind_SjLj_Resume
 841      00
 842              	L54:
 843 082b 8D4590   		leal	-112(%ebp), %eax
 844 082e 890424   		movl	%eax, (%esp)
 845 0831 E8000000 		call	__Unwind_SjLj_Unregister
 845      00
 846              	LBE17:
 847              	LBE11:
  50:C:/Users/Njáll Mýrdal/3viknanamskeid/LitidVerk1/Verkefni2/Vikuverk2/src/services\Validate.cpp **** }
 848              		.loc 3 50 0 is_stmt 1
 849 0836 0FB6458C 		movzbl	-116(%ebp), %eax
 850 083a 8D65F4   		leal	-12(%ebp), %esp
 851 083d 5B       		popl	%ebx
 852              		.cfi_restore 3
 853 083e 5E       		popl	%esi
 854              		.cfi_restore 6
 855 083f 5F       		popl	%edi
 856              		.cfi_restore 7
 857 0840 5D       		popl	%ebp
 858              		.cfi_restore 5
 859              		.cfi_def_cfa 4, 4
 860 0841 C20400   		ret	$4
 861              		.cfi_endproc
 862              	LFE1418:
 863              		.section	.gcc_except_table,"w"
 864              	LLSDA1418:
 865 0016 FF       		.byte	0xff
 866 0017 FF       		.byte	0xff
 867 0018 01       		.byte	0x1
 868 0019 08       		.uleb128 LLSDACSE1418-LLSDACSB1418
 869              	LLSDACSB1418:
 870 001a 00       		.uleb128 0
 871 001b 00       		.uleb128 0
GAS LISTING C:\Users\NJLLMR~1\AppData\Local\Temp\cc3wbcxt.s 			page 24


 872 001c 01       		.uleb128 0x1
 873 001d 00       		.uleb128 0
 874 001e 02       		.uleb128 0x2
 875 001f 00       		.uleb128 0
 876 0020 03       		.uleb128 0x3
 877 0021 00       		.uleb128 0
 878              	LLSDACSE1418:
 879              		.text
 880              		.section	.text$_ZN15InvalidMonthExcD1Ev,"x"
 881              		.linkonce discard
 882              		.align 2
 883              		.globl	__ZN15InvalidMonthExcD1Ev
 885              	__ZN15InvalidMonthExcD1Ev:
 886              	LFB1428:
 887              		.file 6 "include/exceptions/InvalidMonthExc.h"
   1:include/exceptions/InvalidMonthExc.h **** #ifndef INVALIDMONTHEXC_H
   2:include/exceptions/InvalidMonthExc.h **** #define INVALIDMONTHEXC_H
   3:include/exceptions/InvalidMonthExc.h **** 
   4:include/exceptions/InvalidMonthExc.h **** #include "Employee.h"
   5:include/exceptions/InvalidMonthExc.h **** 
   6:include/exceptions/InvalidMonthExc.h **** 
   7:include/exceptions/InvalidMonthExc.h **** class InvalidMonthExc
 888              		.loc 6 7 0
 889              		.cfi_startproc
 890 0000 55       		pushl	%ebp
 891              		.cfi_def_cfa_offset 8
 892              		.cfi_offset 5, -8
 893 0001 89E5     		movl	%esp, %ebp
 894              		.cfi_def_cfa_register 5
 895 0003 83EC18   		subl	$24, %esp
 896 0006 894DF4   		movl	%ecx, -12(%ebp)
 897              	LBB18:
 898              		.loc 6 7 0
 899 0009 8B45F4   		movl	-12(%ebp), %eax
 900 000c 89C1     		movl	%eax, %ecx
 901 000e E8000000 		call	__ZNSsD1Ev
 901      00
 902              	LBE18:
 903 0013 C9       		leave
 904              		.cfi_restore 5
 905              		.cfi_def_cfa 4, 4
 906 0014 C3       		ret
 907              		.cfi_endproc
 908              	LFE1428:
 909 0015 909090   		.section .rdata,"dr"
 910              	LC4:
 911 007b 496E7661 		.ascii "Invalid input - (1 to 12)\0"
 911      6C696420 
 911      696E7075 
 911      74202D20 
 911      28312074 
 912              		.text
 913              		.align 2
 914              		.globl	__ZN8Validate13validateMonthESs
 916              	__ZN8Validate13validateMonthESs:
 917              	LFB1425:
  51:C:/Users/Njáll Mýrdal/3viknanamskeid/LitidVerk1/Verkefni2/Vikuverk2/src/services\Validate.cpp **** 
GAS LISTING C:\Users\NJLLMR~1\AppData\Local\Temp\cc3wbcxt.s 			page 25


  52:C:/Users/Njáll Mýrdal/3viknanamskeid/LitidVerk1/Verkefni2/Vikuverk2/src/services\Validate.cpp **** /// to Validate month
  53:C:/Users/Njáll Mýrdal/3viknanamskeid/LitidVerk1/Verkefni2/Vikuverk2/src/services\Validate.cpp **** bool Validate::validateMonth(string month)
  54:C:/Users/Njáll Mýrdal/3viknanamskeid/LitidVerk1/Verkefni2/Vikuverk2/src/services\Validate.cpp **** {
 918              		.loc 3 54 0
 919              		.cfi_startproc
 920              		.cfi_personality 0,___gxx_personality_sj0
 921              		.cfi_lsda 0,LLSDA1425
 922 0844 55       		pushl	%ebp
 923              		.cfi_def_cfa_offset 8
 924              		.cfi_offset 5, -8
 925 0845 89E5     		movl	%esp, %ebp
 926              		.cfi_def_cfa_register 5
 927 0847 57       		pushl	%edi
 928 0848 56       		pushl	%esi
 929 0849 53       		pushl	%ebx
 930 084a 81EC3C01 		subl	$316, %esp
 930      0000
 931              		.cfi_offset 7, -12
 932              		.cfi_offset 6, -16
 933              		.cfi_offset 3, -20
 934 0850 898D04FF 		movl	%ecx, -252(%ebp)
 934      FFFF
 935 0856 C785E8FE 		movl	$___gxx_personality_sj0, -280(%ebp)
 935      FFFF0000 
 935      0000
 936 0860 C785ECFE 		movl	$LLSDA1425, -276(%ebp)
 936      FFFF2200 
 936      0000
 937 086a 8D85F0FE 		leal	-272(%ebp), %eax
 937      FFFF
 938 0870 8D5DE8   		leal	-24(%ebp), %ebx
 939 0873 8918     		movl	%ebx, (%eax)
 940 0875 BAF80A00 		movl	$L68, %edx
 940      00
 941 087a 895004   		movl	%edx, 4(%eax)
 942 087d 896008   		movl	%esp, 8(%eax)
 943 0880 8D85D0FE 		leal	-304(%ebp), %eax
 943      FFFF
 944 0886 890424   		movl	%eax, (%esp)
 945 0889 E8000000 		call	__Unwind_SjLj_Register
 945      00
 946              	LBB19:
 947              	LBB20:
  55:C:/Users/Njáll Mýrdal/3viknanamskeid/LitidVerk1/Verkefni2/Vikuverk2/src/services\Validate.cpp ****     for(unsigned int i = 0; i < month.length(); i++) {  /// check if only digit
 948              		.loc 3 55 0
 949 088e C745E400 		movl	$0, -28(%ebp)
 949      000000
 950 0895 E9DB0000 		jmp	L58
 950      00
 951              	L60:
  56:C:/Users/Njáll Mýrdal/3viknanamskeid/LitidVerk1/Verkefni2/Vikuverk2/src/services\Validate.cpp ****         if(!isdigit(month[i])){
 952              		.loc 3 56 0
 953 089a 8B45E4   		movl	-28(%ebp), %eax
 954 089d 890424   		movl	%eax, (%esp)
 955 08a0 C785D4FE 		movl	$-1, -300(%ebp)
 955      FFFFFFFF 
 955      FFFF
GAS LISTING C:\Users\NJLLMR~1\AppData\Local\Temp\cc3wbcxt.s 			page 26


 956 08aa 8B4D08   		movl	8(%ebp), %ecx
 957 08ad E8000000 		call	__ZNSsixEj
 957      00
 958 08b2 83EC04   		subl	$4, %esp
 959 08b5 0FB600   		movzbl	(%eax), %eax
 960 08b8 0FBEC0   		movsbl	%al, %eax
 961 08bb 83E830   		subl	$48, %eax
 962 08be 83F809   		cmpl	$9, %eax
 963 08c1 0F97C0   		seta	%al
 964 08c4 84C0     		testb	%al, %al
 965 08c6 0F84A500 		je	L59
 965      0000
  57:C:/Users/Njáll Mýrdal/3viknanamskeid/LitidVerk1/Verkefni2/Vikuverk2/src/services\Validate.cpp ****             throw(InvalidMonthExc("Invalid input - (digits only)"));  /// throws an error if it is 
 966              		.loc 3 57 0
 967 08cc C7042404 		movl	$4, (%esp)
 967      000000
 968 08d3 E8000000 		call	___cxa_allocate_exception
 968      00
 969 08d8 8985CCFE 		movl	%eax, -308(%ebp)
 969      FFFF
 970 08de 8D45DB   		leal	-37(%ebp), %eax
 971 08e1 89C1     		movl	%eax, %ecx
 972 08e3 E8000000 		call	__ZNSaIcEC1Ev
 972      00
 973 08e8 8D45D4   		leal	-44(%ebp), %eax
 974 08eb 8D55DB   		leal	-37(%ebp), %edx
 975 08ee 89542404 		movl	%edx, 4(%esp)
 976 08f2 C7042400 		movl	$LC0, (%esp)
 976      000000
 977 08f9 C785D4FE 		movl	$1, -300(%ebp)
 977      FFFF0100 
 977      0000
 978 0903 89C1     		movl	%eax, %ecx
 979 0905 E8000000 		call	__ZNSsC1EPKcRKSaIcE
 979      00
 980 090a 83EC08   		subl	$8, %esp
 981 090d 8D45D4   		leal	-44(%ebp), %eax
 982 0910 890424   		movl	%eax, (%esp)
 983 0913 C785D4FE 		movl	$2, -300(%ebp)
 983      FFFF0200 
 983      0000
 984 091d 8B8DCCFE 		movl	-308(%ebp), %ecx
 984      FFFF
 985 0923 E8000000 		call	__ZN15InvalidMonthExcC1ESs
 985      00
 986              		.loc 3 57 0 is_stmt 0 discriminator 2
 987 0928 83EC04   		subl	$4, %esp
 988 092b 8D45D4   		leal	-44(%ebp), %eax
 989 092e C785D4FE 		movl	$0, -300(%ebp)
 989      FFFF0000 
 989      0000
 990 0938 89C1     		movl	%eax, %ecx
 991 093a E8000000 		call	__ZNSsD1Ev
 991      00
 992 093f 8D45DB   		leal	-37(%ebp), %eax
 993 0942 89C1     		movl	%eax, %ecx
 994 0944 E8000000 		call	__ZNSaIcED1Ev
GAS LISTING C:\Users\NJLLMR~1\AppData\Local\Temp\cc3wbcxt.s 			page 27


 994      00
 995 0949 C7442408 		movl	$__ZN15InvalidMonthExcD1Ev, 8(%esp)
 995      00000000 
 996 0951 C7442404 		movl	$__ZTI15InvalidMonthExc, 4(%esp)
 996      00000000 
 997 0959 8B85CCFE 		movl	-308(%ebp), %eax
 997      FFFF
 998 095f 890424   		movl	%eax, (%esp)
 999 0962 C785D4FE 		movl	$-1, -300(%ebp)
 999      FFFFFFFF 
 999      FFFF
 1000 096c E8000000 		call	___cxa_throw
 1000      00
 1001              	L59:
  55:C:/Users/Njáll Mýrdal/3viknanamskeid/LitidVerk1/Verkefni2/Vikuverk2/src/services\Validate.cpp ****     for(unsigned int i = 0; i < month.length(); i++) {  /// check if only digit
 1002              		.loc 3 55 0 is_stmt 1 discriminator 2
 1003 0971 8345E401 		addl	$1, -28(%ebp)
 1004              	L58:
  55:C:/Users/Njáll Mýrdal/3viknanamskeid/LitidVerk1/Verkefni2/Vikuverk2/src/services\Validate.cpp ****     for(unsigned int i = 0; i < month.length(); i++) {  /// check if only digit
 1005              		.loc 3 55 0 is_stmt 0 discriminator 1
 1006 0975 C785D4FE 		movl	$-1, -300(%ebp)
 1006      FFFFFFFF 
 1006      FFFF
 1007 097f 8B4D08   		movl	8(%ebp), %ecx
 1008 0982 E8000000 		call	__ZNKSs6lengthEv
 1008      00
 1009 0987 3B45E4   		cmpl	-28(%ebp), %eax
 1010 098a 0F97C0   		seta	%al
 1011 098d 84C0     		testb	%al, %al
 1012 098f 0F8505FF 		jne	L60
 1012      FFFF
 1013              	LBE20:
  58:C:/Users/Njáll Mýrdal/3viknanamskeid/LitidVerk1/Verkefni2/Vikuverk2/src/services\Validate.cpp ****         }
  59:C:/Users/Njáll Mýrdal/3viknanamskeid/LitidVerk1/Verkefni2/Vikuverk2/src/services\Validate.cpp ****     }
  60:C:/Users/Njáll Mýrdal/3viknanamskeid/LitidVerk1/Verkefni2/Vikuverk2/src/services\Validate.cpp ****     int tmpMonth = 0;
 1014              		.loc 3 60 0 is_stmt 1
 1015 0995 C745D000 		movl	$0, -48(%ebp)
 1015      000000
  61:C:/Users/Njáll Mýrdal/3viknanamskeid/LitidVerk1/Verkefni2/Vikuverk2/src/services\Validate.cpp ****     stringstream sin1(month);
 1016              		.loc 3 61 0
 1017 099c C7442404 		movl	$8, 4(%esp)
 1017      08000000 
 1018 09a4 C7042410 		movl	$16, (%esp)
 1018      000000
 1019 09ab E8000000 		call	__ZStorSt13_Ios_OpenmodeS_
 1019      00
 1020 09b0 89C2     		movl	%eax, %edx
 1021 09b2 8D8514FF 		leal	-236(%ebp), %eax
 1021      FFFF
 1022 09b8 89542404 		movl	%edx, 4(%esp)
 1023 09bc 8B5508   		movl	8(%ebp), %edx
 1024 09bf 891424   		movl	%edx, (%esp)
 1025 09c2 89C1     		movl	%eax, %ecx
 1026 09c4 E8000000 		call	__ZNSt18basic_stringstreamIcSt11char_traitsIcESaIcEEC1ERKSsSt13_Ios_Openmode
 1026      00
 1027 09c9 83EC08   		subl	$8, %esp
  62:C:/Users/Njáll Mýrdal/3viknanamskeid/LitidVerk1/Verkefni2/Vikuverk2/src/services\Validate.cpp ****     sin1 >> tmpMonth;       /// converts to integer
GAS LISTING C:\Users\NJLLMR~1\AppData\Local\Temp\cc3wbcxt.s 			page 28


 1028              		.loc 3 62 0
 1029 09cc 8D8514FF 		leal	-236(%ebp), %eax
 1029      FFFF
 1030 09d2 8D55D0   		leal	-48(%ebp), %edx
 1031 09d5 891424   		movl	%edx, (%esp)
 1032 09d8 C785D4FE 		movl	$3, -300(%ebp)
 1032      FFFF0300 
 1032      0000
 1033 09e2 89C1     		movl	%eax, %ecx
 1034 09e4 E8000000 		call	__ZNSirsERi
 1034      00
 1035 09e9 83EC04   		subl	$4, %esp
  63:C:/Users/Njáll Mýrdal/3viknanamskeid/LitidVerk1/Verkefni2/Vikuverk2/src/services\Validate.cpp ****     if (tmpMonth <= 12 && tmpMonth >= 1){   /// check if it is from 1 to 12
 1036              		.loc 3 63 0
 1037 09ec 8B45D0   		movl	-48(%ebp), %eax
 1038 09ef 83F80C   		cmpl	$12, %eax
 1039 09f2 7F37     		jg	L61
 1040              		.loc 3 63 0 is_stmt 0 discriminator 1
 1041 09f4 8B45D0   		movl	-48(%ebp), %eax
 1042 09f7 85C0     		testl	%eax, %eax
 1043 09f9 7E30     		jle	L61
  64:C:/Users/Njáll Mýrdal/3viknanamskeid/LitidVerk1/Verkefni2/Vikuverk2/src/services\Validate.cpp ****         return true;
 1044              		.loc 3 64 0 is_stmt 1
 1045 09fb C685CCFE 		movb	$1, -308(%ebp)
 1045      FFFF01
  65:C:/Users/Njáll Mýrdal/3viknanamskeid/LitidVerk1/Verkefni2/Vikuverk2/src/services\Validate.cpp ****     }
  66:C:/Users/Njáll Mýrdal/3viknanamskeid/LitidVerk1/Verkefni2/Vikuverk2/src/services\Validate.cpp ****     else{
  67:C:/Users/Njáll Mýrdal/3viknanamskeid/LitidVerk1/Verkefni2/Vikuverk2/src/services\Validate.cpp ****         throw(InvalidMonthExc("Invalid input - (1 to 12)"));  /// throws error, must be 1 to 12
  68:C:/Users/Njáll Mýrdal/3viknanamskeid/LitidVerk1/Verkefni2/Vikuverk2/src/services\Validate.cpp ****     }
 1046              		.loc 3 68 0
 1047 0a02 8D8514FF 		leal	-236(%ebp), %eax
 1047      FFFF
 1048 0a08 C785D4FE 		movl	$-1, -300(%ebp)
 1048      FFFFFFFF 
 1048      FFFF
 1049 0a12 89C1     		movl	%eax, %ecx
 1050 0a14 E8000000 		call	__ZNSt18basic_stringstreamIcSt11char_traitsIcESaIcEED1Ev
 1050      00
  64:C:/Users/Njáll Mýrdal/3viknanamskeid/LitidVerk1/Verkefni2/Vikuverk2/src/services\Validate.cpp ****         return true;
 1051              		.loc 3 64 0
 1052 0a19 0FB685CC 		movzbl	-308(%ebp), %eax
 1052      FEFFFF
 1053 0a20 8885CCFE 		movb	%al, -308(%ebp)
 1053      FFFF
 1054 0a26 E9DC0100 		jmp	L74
 1054      00
 1055              	L61:
  67:C:/Users/Njáll Mýrdal/3viknanamskeid/LitidVerk1/Verkefni2/Vikuverk2/src/services\Validate.cpp ****     }
 1056              		.loc 3 67 0
 1057 0a2b C7042404 		movl	$4, (%esp)
 1057      000000
 1058 0a32 E8000000 		call	___cxa_allocate_exception
 1058      00
 1059 0a37 8985C8FE 		movl	%eax, -312(%ebp)
 1059      FFFF
 1060 0a3d 8D45E3   		leal	-29(%ebp), %eax
 1061 0a40 89C1     		movl	%eax, %ecx
GAS LISTING C:\Users\NJLLMR~1\AppData\Local\Temp\cc3wbcxt.s 			page 29


 1062 0a42 E8000000 		call	__ZNSaIcEC1Ev
 1062      00
 1063 0a47 8D45DC   		leal	-36(%ebp), %eax
 1064 0a4a 8D55E3   		leal	-29(%ebp), %edx
 1065 0a4d 89542404 		movl	%edx, 4(%esp)
 1066 0a51 C704247B 		movl	$LC4, (%esp)
 1066      000000
 1067 0a58 C785D4FE 		movl	$4, -300(%ebp)
 1067      FFFF0400 
 1067      0000
 1068 0a62 89C1     		movl	%eax, %ecx
 1069 0a64 E8000000 		call	__ZNSsC1EPKcRKSaIcE
 1069      00
 1070 0a69 83EC08   		subl	$8, %esp
 1071 0a6c 8D45DC   		leal	-36(%ebp), %eax
 1072 0a6f 890424   		movl	%eax, (%esp)
 1073 0a72 C785D4FE 		movl	$5, -300(%ebp)
 1073      FFFF0500 
 1073      0000
 1074 0a7c 8B8DC8FE 		movl	-312(%ebp), %ecx
 1074      FFFF
 1075 0a82 E8000000 		call	__ZN15InvalidMonthExcC1ESs
 1075      00
  67:C:/Users/Njáll Mýrdal/3viknanamskeid/LitidVerk1/Verkefni2/Vikuverk2/src/services\Validate.cpp ****     }
 1076              		.loc 3 67 0 is_stmt 0 discriminator 2
 1077 0a87 83EC04   		subl	$4, %esp
 1078 0a8a 8D45DC   		leal	-36(%ebp), %eax
 1079 0a8d C785D4FE 		movl	$0, -300(%ebp)
 1079      FFFF0000 
 1079      0000
 1080 0a97 89C1     		movl	%eax, %ecx
 1081 0a99 E8000000 		call	__ZNSsD1Ev
 1081      00
 1082 0a9e 8D45E3   		leal	-29(%ebp), %eax
 1083 0aa1 89C1     		movl	%eax, %ecx
 1084 0aa3 E8000000 		call	__ZNSaIcED1Ev
 1084      00
 1085 0aa8 C7442408 		movl	$__ZN15InvalidMonthExcD1Ev, 8(%esp)
 1085      00000000 
 1086 0ab0 C7442404 		movl	$__ZTI15InvalidMonthExc, 4(%esp)
 1086      00000000 
 1087 0ab8 8B85C8FE 		movl	-312(%ebp), %eax
 1087      FFFF
 1088 0abe 890424   		movl	%eax, (%esp)
 1089 0ac1 C785D4FE 		movl	$3, -300(%ebp)
 1089      FFFF0300 
 1089      0000
 1090 0acb E8000000 		call	___cxa_throw
 1090      00
 1091              	L70:
 1092 0ad0 8995C8FE 		movl	%edx, -312(%ebp)
 1092      FFFF
 1093              	LBB21:
  57:C:/Users/Njáll Mýrdal/3viknanamskeid/LitidVerk1/Verkefni2/Vikuverk2/src/services\Validate.cpp ****         }
 1094              		.loc 3 57 0 is_stmt 1
 1095 0ad6 8D45D4   		leal	-44(%ebp), %eax
 1096 0ad9 C785D4FE 		movl	$0, -300(%ebp)
GAS LISTING C:\Users\NJLLMR~1\AppData\Local\Temp\cc3wbcxt.s 			page 30


 1096      FFFF0000 
 1096      0000
 1097 0ae3 89C1     		movl	%eax, %ecx
 1098 0ae5 E8000000 		call	__ZNSsD1Ev
 1098      00
 1099 0aea 8B85C8FE 		movl	-312(%ebp), %eax
 1099      FFFF
 1100 0af0 8985C8FE 		movl	%eax, -312(%ebp)
 1100      FFFF
 1101 0af6 EB3E     		jmp	L64
 1102              	L68:
 1103 0af8 8D6D18   		leal	24(%ebp), %ebp
 1104 0afb 8B95D8FE 		movl	-296(%ebp), %edx
 1104      FFFF
 1105 0b01 8B85D4FE 		movl	-300(%ebp), %eax
 1105      FFFF
 1106 0b07 85C0     		testl	%eax, %eax
 1107 0b09 7425     		je	L69
 1108 0b0b 83E801   		subl	$1, %eax
 1109 0b0e 85C0     		testl	%eax, %eax
 1110 0b10 74BE     		je	L70
 1111 0b12 83E801   		subl	$1, %eax
 1112 0b15 85C0     		testl	%eax, %eax
 1113 0b17 0F84B500 		je	L71
 1113      0000
 1114 0b1d 83E801   		subl	$1, %eax
 1115 0b20 85C0     		testl	%eax, %eax
 1116 0b22 7476     		je	L72
 1117 0b24 83E801   		subl	$1, %eax
 1118 0b27 85C0     		testl	%eax, %eax
 1119 0b29 7447     		je	L73
 1120 0b2b 83E801   		subl	$1, %eax
 1121 0b2e 0F0B     		ud2
 1122              	L69:
 1123 0b30 8995C8FE 		movl	%edx, -312(%ebp)
 1123      FFFF
 1124              	L64:
  57:C:/Users/Njáll Mýrdal/3viknanamskeid/LitidVerk1/Verkefni2/Vikuverk2/src/services\Validate.cpp ****         }
 1125              		.loc 3 57 0 is_stmt 0 discriminator 1
 1126 0b36 8D45DB   		leal	-37(%ebp), %eax
 1127 0b39 89C1     		movl	%eax, %ecx
 1128 0b3b E8000000 		call	__ZNSaIcED1Ev
 1128      00
 1129 0b40 8B85C8FE 		movl	-312(%ebp), %eax
 1129      FFFF
 1130 0b46 8985C8FE 		movl	%eax, -312(%ebp)
 1130      FFFF
 1131 0b4c 8BB5CCFE 		movl	-308(%ebp), %esi
 1131      FFFF
 1132 0b52 893424   		movl	%esi, (%esp)
 1133 0b55 E8000000 		call	___cxa_free_exception
 1133      00
 1134 0b5a 8B85C8FE 		movl	-312(%ebp), %eax
 1134      FFFF
 1135 0b60 890424   		movl	%eax, (%esp)
 1136 0b63 C785D4FE 		movl	$-1, -300(%ebp)
 1136      FFFFFFFF 
GAS LISTING C:\Users\NJLLMR~1\AppData\Local\Temp\cc3wbcxt.s 			page 31


 1136      FFFF
 1137 0b6d E8000000 		call	__Unwind_SjLj_Resume
 1137      00
 1138              	L73:
 1139 0b72 8995CCFE 		movl	%edx, -308(%ebp)
 1139      FFFF
 1140              	LBE21:
  67:C:/Users/Njáll Mýrdal/3viknanamskeid/LitidVerk1/Verkefni2/Vikuverk2/src/services\Validate.cpp ****     }
 1141              		.loc 3 67 0 is_stmt 1
 1142 0b78 8D45DC   		leal	-36(%ebp), %eax
 1143 0b7b C785D4FE 		movl	$0, -300(%ebp)
 1143      FFFF0000 
 1143      0000
 1144 0b85 89C1     		movl	%eax, %ecx
 1145 0b87 E8000000 		call	__ZNSsD1Ev
 1145      00
 1146 0b8c 8B85CCFE 		movl	-308(%ebp), %eax
 1146      FFFF
 1147 0b92 8985CCFE 		movl	%eax, -308(%ebp)
 1147      FFFF
 1148 0b98 EB06     		jmp	L66
 1149              	L72:
 1150 0b9a 8995CCFE 		movl	%edx, -308(%ebp)
 1150      FFFF
 1151              	L66:
  67:C:/Users/Njáll Mýrdal/3viknanamskeid/LitidVerk1/Verkefni2/Vikuverk2/src/services\Validate.cpp ****     }
 1152              		.loc 3 67 0 is_stmt 0 discriminator 1
 1153 0ba0 8D45E3   		leal	-29(%ebp), %eax
 1154 0ba3 89C1     		movl	%eax, %ecx
 1155 0ba5 E8000000 		call	__ZNSaIcED1Ev
 1155      00
 1156 0baa 8B85CCFE 		movl	-308(%ebp), %eax
 1156      FFFF
 1157 0bb0 8985CCFE 		movl	%eax, -308(%ebp)
 1157      FFFF
 1158 0bb6 8BBDC8FE 		movl	-312(%ebp), %edi
 1158      FFFF
 1159 0bbc 893C24   		movl	%edi, (%esp)
 1160 0bbf E8000000 		call	___cxa_free_exception
 1160      00
 1161 0bc4 8B85CCFE 		movl	-308(%ebp), %eax
 1161      FFFF
 1162 0bca 8985CCFE 		movl	%eax, -308(%ebp)
 1162      FFFF
 1163 0bd0 EB06     		jmp	L67
 1164              	L71:
 1165 0bd2 8995CCFE 		movl	%edx, -308(%ebp)
 1165      FFFF
 1166              	L67:
 1167              		.loc 3 68 0 is_stmt 1
 1168 0bd8 8D8514FF 		leal	-236(%ebp), %eax
 1168      FFFF
 1169 0bde C785D4FE 		movl	$0, -300(%ebp)
 1169      FFFF0000 
 1169      0000
 1170 0be8 89C1     		movl	%eax, %ecx
 1171 0bea E8000000 		call	__ZNSt18basic_stringstreamIcSt11char_traitsIcESaIcEED1Ev
GAS LISTING C:\Users\NJLLMR~1\AppData\Local\Temp\cc3wbcxt.s 			page 32


 1171      00
 1172 0bef 8B85CCFE 		movl	-308(%ebp), %eax
 1172      FFFF
 1173 0bf5 890424   		movl	%eax, (%esp)
 1174 0bf8 C785D4FE 		movl	$-1, -300(%ebp)
 1174      FFFFFFFF 
 1174      FFFF
 1175 0c02 E8000000 		call	__Unwind_SjLj_Resume
 1175      00
 1176              	L74:
 1177 0c07 8D85D0FE 		leal	-304(%ebp), %eax
 1177      FFFF
 1178 0c0d 890424   		movl	%eax, (%esp)
 1179 0c10 E8000000 		call	__Unwind_SjLj_Unregister
 1179      00
 1180              	LBE19:
  69:C:/Users/Njáll Mýrdal/3viknanamskeid/LitidVerk1/Verkefni2/Vikuverk2/src/services\Validate.cpp **** }
 1181              		.loc 3 69 0
 1182 0c15 0FB685CC 		movzbl	-308(%ebp), %eax
 1182      FEFFFF
 1183 0c1c 8D65F4   		leal	-12(%ebp), %esp
 1184 0c1f 5B       		popl	%ebx
 1185              		.cfi_restore 3
 1186 0c20 5E       		popl	%esi
 1187              		.cfi_restore 6
 1188 0c21 5F       		popl	%edi
 1189              		.cfi_restore 7
 1190 0c22 5D       		popl	%ebp
 1191              		.cfi_restore 5
 1192              		.cfi_def_cfa 4, 4
 1193 0c23 C20400   		ret	$4
 1194              		.cfi_endproc
 1195              	LFE1425:
 1196              		.section	.gcc_except_table,"w"
 1197              	LLSDA1425:
 1198 0022 FF       		.byte	0xff
 1199 0023 FF       		.byte	0xff
 1200 0024 01       		.byte	0x1
 1201 0025 0A       		.uleb128 LLSDACSE1425-LLSDACSB1425
 1202              	LLSDACSB1425:
 1203 0026 00       		.uleb128 0
 1204 0027 00       		.uleb128 0
 1205 0028 01       		.uleb128 0x1
 1206 0029 00       		.uleb128 0
 1207 002a 02       		.uleb128 0x2
 1208 002b 00       		.uleb128 0
 1209 002c 03       		.uleb128 0x3
 1210 002d 00       		.uleb128 0
 1211 002e 04       		.uleb128 0x4
 1212 002f 00       		.uleb128 0
 1213              	LLSDACSE1425:
 1214              		.text
 1215              		.section	.text$_ZN14InvalidNameExcD1Ev,"x"
 1216              		.linkonce discard
 1217              		.align 2
 1218              		.globl	__ZN14InvalidNameExcD1Ev
 1220              	__ZN14InvalidNameExcD1Ev:
GAS LISTING C:\Users\NJLLMR~1\AppData\Local\Temp\cc3wbcxt.s 			page 33


 1221              	LFB1435:
 1222              		.file 7 "include/exceptions/InvalidNameExc.h"
   1:include/exceptions/InvalidNameExc.h **** #ifndef INVALIDNAMEEXC_H
   2:include/exceptions/InvalidNameExc.h **** #define INVALIDNAMEEXC_H
   3:include/exceptions/InvalidNameExc.h **** 
   4:include/exceptions/InvalidNameExc.h **** #include "Employee.h"
   5:include/exceptions/InvalidNameExc.h **** 
   6:include/exceptions/InvalidNameExc.h **** class InvalidNameExc
 1223              		.loc 7 6 0
 1224              		.cfi_startproc
 1225 0000 55       		pushl	%ebp
 1226              		.cfi_def_cfa_offset 8
 1227              		.cfi_offset 5, -8
 1228 0001 89E5     		movl	%esp, %ebp
 1229              		.cfi_def_cfa_register 5
 1230 0003 83EC18   		subl	$24, %esp
 1231 0006 894DF4   		movl	%ecx, -12(%ebp)
 1232              	LBB22:
 1233              		.loc 7 6 0
 1234 0009 8B45F4   		movl	-12(%ebp), %eax
 1235 000c 89C1     		movl	%eax, %ecx
 1236 000e E8000000 		call	__ZNSsD1Ev
 1236      00
 1237              	LBE22:
 1238 0013 C9       		leave
 1239              		.cfi_restore 5
 1240              		.cfi_def_cfa 4, 4
 1241 0014 C3       		ret
 1242              		.cfi_endproc
 1243              	LFE1435:
 1244 0015 909090   		.section .rdata,"dr"
 1245 0095 000000   		.align 4
 1246              	LC5:
 1247 0098 496E7661 		.ascii "Invalid input - (letters only)\0"
 1247      6C696420 
 1247      696E7075 
 1247      74202D20 
 1247      286C6574 
 1248 00b7 00       		.align 4
 1249              	LC6:
 1250 00b8 496E7661 		.ascii "Invalid input - (must start with a letter)\0"
 1250      6C696420 
 1250      696E7075 
 1250      74202D20 
 1250      286D7573 
 1251              		.text
 1252              		.align 2
 1253              		.globl	__ZN8Validate12validateNameESs
 1255              	__ZN8Validate12validateNameESs:
 1256              	LFB1432:
  70:C:/Users/Njáll Mýrdal/3viknanamskeid/LitidVerk1/Verkefni2/Vikuverk2/src/services\Validate.cpp **** 
  71:C:/Users/Njáll Mýrdal/3viknanamskeid/LitidVerk1/Verkefni2/Vikuverk2/src/services\Validate.cpp **** /// to validate the  name
  72:C:/Users/Njáll Mýrdal/3viknanamskeid/LitidVerk1/Verkefni2/Vikuverk2/src/services\Validate.cpp **** bool Validate::validateName(string name)
  73:C:/Users/Njáll Mýrdal/3viknanamskeid/LitidVerk1/Verkefni2/Vikuverk2/src/services\Validate.cpp **** {
 1257              		.loc 3 73 0
 1258              		.cfi_startproc
 1259              		.cfi_personality 0,___gxx_personality_sj0
GAS LISTING C:\Users\NJLLMR~1\AppData\Local\Temp\cc3wbcxt.s 			page 34


 1260              		.cfi_lsda 0,LLSDA1432
 1261 0c26 55       		pushl	%ebp
 1262              		.cfi_def_cfa_offset 8
 1263              		.cfi_offset 5, -8
 1264 0c27 89E5     		movl	%esp, %ebp
 1265              		.cfi_def_cfa_register 5
 1266 0c29 57       		pushl	%edi
 1267 0c2a 56       		pushl	%esi
 1268 0c2b 53       		pushl	%ebx
 1269 0c2c 83EC7C   		subl	$124, %esp
 1270              		.cfi_offset 7, -12
 1271              		.cfi_offset 6, -16
 1272              		.cfi_offset 3, -20
 1273 0c2f 894DC4   		movl	%ecx, -60(%ebp)
 1274 0c32 C745A800 		movl	$___gxx_personality_sj0, -88(%ebp)
 1274      000000
 1275 0c39 C745AC30 		movl	$LLSDA1432, -84(%ebp)
 1275      000000
 1276 0c40 8D45B0   		leal	-80(%ebp), %eax
 1277 0c43 8D5DE8   		leal	-24(%ebp), %ebx
 1278 0c46 8918     		movl	%ebx, (%eax)
 1279 0c48 BA4C0E00 		movl	$L89, %edx
 1279      00
 1280 0c4d 895004   		movl	%edx, 4(%eax)
 1281 0c50 896008   		movl	%esp, 8(%eax)
 1282 0c53 8D4590   		leal	-112(%ebp), %eax
 1283 0c56 890424   		movl	%eax, (%esp)
 1284 0c59 E8000000 		call	__Unwind_SjLj_Register
 1284      00
 1285              	LBB23:
 1286              	LBB24:
  74:C:/Users/Njáll Mýrdal/3viknanamskeid/LitidVerk1/Verkefni2/Vikuverk2/src/services\Validate.cpp ****     for (unsigned int i = 0; i < name.length(); i++)    /// check if it is only letter
 1287              		.loc 3 74 0
 1288 0c5e C745E400 		movl	$0, -28(%ebp)
 1288      000000
 1289 0c65 E9EA0000 		jmp	L78
 1289      00
 1290              	L82:
  75:C:/Users/Njáll Mýrdal/3viknanamskeid/LitidVerk1/Verkefni2/Vikuverk2/src/services\Validate.cpp ****     {
  76:C:/Users/Njáll Mýrdal/3viknanamskeid/LitidVerk1/Verkefni2/Vikuverk2/src/services\Validate.cpp ****         if (!isalpha(name[i]) && name[i] != ' ')    /// string can have whitespace
 1291              		.loc 3 76 0
 1292 0c6a 8B45E4   		movl	-28(%ebp), %eax
 1293 0c6d 890424   		movl	%eax, (%esp)
 1294 0c70 C74594FF 		movl	$-1, -108(%ebp)
 1294      FFFFFF
 1295 0c77 8B4D08   		movl	8(%ebp), %ecx
 1296 0c7a E8000000 		call	__ZNSsixEj
 1296      00
 1297 0c7f 83EC04   		subl	$4, %esp
 1298 0c82 0FB600   		movzbl	(%eax), %eax
 1299 0c85 0FBEC0   		movsbl	%al, %eax
 1300 0c88 890424   		movl	%eax, (%esp)
 1301 0c8b E8000000 		call	_isalpha
 1301      00
 1302 0c90 85C0     		testl	%eax, %eax
 1303 0c92 751F     		jne	L79
 1304              		.loc 3 76 0 is_stmt 0 discriminator 1
GAS LISTING C:\Users\NJLLMR~1\AppData\Local\Temp\cc3wbcxt.s 			page 35


 1305 0c94 8B45E4   		movl	-28(%ebp), %eax
 1306 0c97 890424   		movl	%eax, (%esp)
 1307 0c9a 8B4D08   		movl	8(%ebp), %ecx
 1308 0c9d E8000000 		call	__ZNSsixEj
 1308      00
 1309 0ca2 83EC04   		subl	$4, %esp
 1310 0ca5 0FB600   		movzbl	(%eax), %eax
 1311 0ca8 3C20     		cmpb	$32, %al
 1312 0caa 7407     		je	L79
 1313              		.loc 3 76 0 discriminator 3
 1314 0cac B8010000 		movl	$1, %eax
 1314      00
 1315 0cb1 EB05     		jmp	L80
 1316              	L79:
 1317              		.loc 3 76 0 discriminator 4
 1318 0cb3 B8000000 		movl	$0, %eax
 1318      00
 1319              	L80:
 1320              		.loc 3 76 0 discriminator 6
 1321 0cb8 84C0     		testb	%al, %al
 1322 0cba 0F849000 		je	L81
 1322      0000
  77:C:/Users/Njáll Mýrdal/3viknanamskeid/LitidVerk1/Verkefni2/Vikuverk2/src/services\Validate.cpp ****         {
  78:C:/Users/Njáll Mýrdal/3viknanamskeid/LitidVerk1/Verkefni2/Vikuverk2/src/services\Validate.cpp ****             throw(InvalidNameExc("Invalid input - (letters only)"));  /// throws error, if it conta
 1323              		.loc 3 78 0 is_stmt 1
 1324 0cc0 C7042404 		movl	$4, (%esp)
 1324      000000
 1325 0cc7 E8000000 		call	___cxa_allocate_exception
 1325      00
 1326 0ccc 89458C   		movl	%eax, -116(%ebp)
 1327 0ccf 8D45DB   		leal	-37(%ebp), %eax
 1328 0cd2 89C1     		movl	%eax, %ecx
 1329 0cd4 E8000000 		call	__ZNSaIcEC1Ev
 1329      00
 1330 0cd9 8D45D4   		leal	-44(%ebp), %eax
 1331 0cdc 8D55DB   		leal	-37(%ebp), %edx
 1332 0cdf 89542404 		movl	%edx, 4(%esp)
 1333 0ce3 C7042498 		movl	$LC5, (%esp)
 1333      000000
 1334 0cea C7459401 		movl	$1, -108(%ebp)
 1334      000000
 1335 0cf1 89C1     		movl	%eax, %ecx
 1336 0cf3 E8000000 		call	__ZNSsC1EPKcRKSaIcE
 1336      00
 1337 0cf8 83EC08   		subl	$8, %esp
 1338 0cfb 8D45D4   		leal	-44(%ebp), %eax
 1339 0cfe 890424   		movl	%eax, (%esp)
 1340 0d01 C7459402 		movl	$2, -108(%ebp)
 1340      000000
 1341 0d08 8B4D8C   		movl	-116(%ebp), %ecx
 1342 0d0b E8000000 		call	__ZN14InvalidNameExcC1ESs
 1342      00
 1343              		.loc 3 78 0 is_stmt 0 discriminator 2
 1344 0d10 83EC04   		subl	$4, %esp
 1345 0d13 8D45D4   		leal	-44(%ebp), %eax
 1346 0d16 C7459400 		movl	$0, -108(%ebp)
 1346      000000
GAS LISTING C:\Users\NJLLMR~1\AppData\Local\Temp\cc3wbcxt.s 			page 36


 1347 0d1d 89C1     		movl	%eax, %ecx
 1348 0d1f E8000000 		call	__ZNSsD1Ev
 1348      00
 1349 0d24 8D45DB   		leal	-37(%ebp), %eax
 1350 0d27 89C1     		movl	%eax, %ecx
 1351 0d29 E8000000 		call	__ZNSaIcED1Ev
 1351      00
 1352 0d2e C7442408 		movl	$__ZN14InvalidNameExcD1Ev, 8(%esp)
 1352      00000000 
 1353 0d36 C7442404 		movl	$__ZTI14InvalidNameExc, 4(%esp)
 1353      00000000 
 1354 0d3e 8B458C   		movl	-116(%ebp), %eax
 1355 0d41 890424   		movl	%eax, (%esp)
 1356 0d44 C74594FF 		movl	$-1, -108(%ebp)
 1356      FFFFFF
 1357 0d4b E8000000 		call	___cxa_throw
 1357      00
 1358              	L81:
  74:C:/Users/Njáll Mýrdal/3viknanamskeid/LitidVerk1/Verkefni2/Vikuverk2/src/services\Validate.cpp ****     {
 1359              		.loc 3 74 0 is_stmt 1 discriminator 2
 1360 0d50 8345E401 		addl	$1, -28(%ebp)
 1361              	L78:
  74:C:/Users/Njáll Mýrdal/3viknanamskeid/LitidVerk1/Verkefni2/Vikuverk2/src/services\Validate.cpp ****     {
 1362              		.loc 3 74 0 is_stmt 0 discriminator 1
 1363 0d54 C74594FF 		movl	$-1, -108(%ebp)
 1363      FFFFFF
 1364 0d5b 8B4D08   		movl	8(%ebp), %ecx
 1365 0d5e E8000000 		call	__ZNKSs6lengthEv
 1365      00
 1366 0d63 3B45E4   		cmpl	-28(%ebp), %eax
 1367 0d66 0F97C0   		seta	%al
 1368 0d69 84C0     		testb	%al, %al
 1369 0d6b 0F85F9FE 		jne	L82
 1369      FFFF
 1370              	LBE24:
  79:C:/Users/Njáll Mýrdal/3viknanamskeid/LitidVerk1/Verkefni2/Vikuverk2/src/services\Validate.cpp ****         }
  80:C:/Users/Njáll Mýrdal/3viknanamskeid/LitidVerk1/Verkefni2/Vikuverk2/src/services\Validate.cpp ****     }
  81:C:/Users/Njáll Mýrdal/3viknanamskeid/LitidVerk1/Verkefni2/Vikuverk2/src/services\Validate.cpp ****     if (name[0] == ' '){    /// checks if the first letter is not a whitespace, throws an error mes
 1371              		.loc 3 81 0 is_stmt 1
 1372 0d71 C7042400 		movl	$0, (%esp)
 1372      000000
 1373 0d78 8B4D08   		movl	8(%ebp), %ecx
 1374 0d7b E8000000 		call	__ZNSsixEj
 1374      00
 1375 0d80 83EC04   		subl	$4, %esp
 1376 0d83 0FB600   		movzbl	(%eax), %eax
 1377 0d86 3C20     		cmpb	$32, %al
 1378 0d88 0F94C0   		sete	%al
 1379 0d8b 84C0     		testb	%al, %al
 1380 0d8d 0F849000 		je	L83
 1380      0000
  82:C:/Users/Njáll Mýrdal/3viknanamskeid/LitidVerk1/Verkefni2/Vikuverk2/src/services\Validate.cpp ****         throw(InvalidNameExc("Invalid input - (must start with a letter)"));
 1381              		.loc 3 82 0
 1382 0d93 C7042404 		movl	$4, (%esp)
 1382      000000
 1383 0d9a E8000000 		call	___cxa_allocate_exception
 1383      00
GAS LISTING C:\Users\NJLLMR~1\AppData\Local\Temp\cc3wbcxt.s 			page 37


 1384 0d9f 894588   		movl	%eax, -120(%ebp)
 1385 0da2 8D45E3   		leal	-29(%ebp), %eax
 1386 0da5 89C1     		movl	%eax, %ecx
 1387 0da7 E8000000 		call	__ZNSaIcEC1Ev
 1387      00
 1388 0dac 8D45DC   		leal	-36(%ebp), %eax
 1389 0daf 8D55E3   		leal	-29(%ebp), %edx
 1390 0db2 89542404 		movl	%edx, 4(%esp)
 1391 0db6 C70424B8 		movl	$LC6, (%esp)
 1391      000000
 1392 0dbd C7459403 		movl	$3, -108(%ebp)
 1392      000000
 1393 0dc4 89C1     		movl	%eax, %ecx
 1394 0dc6 E8000000 		call	__ZNSsC1EPKcRKSaIcE
 1394      00
 1395 0dcb 83EC08   		subl	$8, %esp
 1396 0dce 8D45DC   		leal	-36(%ebp), %eax
 1397 0dd1 890424   		movl	%eax, (%esp)
 1398 0dd4 C7459404 		movl	$4, -108(%ebp)
 1398      000000
 1399 0ddb 8B4D88   		movl	-120(%ebp), %ecx
 1400 0dde E8000000 		call	__ZN14InvalidNameExcC1ESs
 1400      00
 1401              		.loc 3 82 0 is_stmt 0 discriminator 2
 1402 0de3 83EC04   		subl	$4, %esp
 1403 0de6 8D45DC   		leal	-36(%ebp), %eax
 1404 0de9 C7459400 		movl	$0, -108(%ebp)
 1404      000000
 1405 0df0 89C1     		movl	%eax, %ecx
 1406 0df2 E8000000 		call	__ZNSsD1Ev
 1406      00
 1407 0df7 8D45E3   		leal	-29(%ebp), %eax
 1408 0dfa 89C1     		movl	%eax, %ecx
 1409 0dfc E8000000 		call	__ZNSaIcED1Ev
 1409      00
 1410 0e01 C7442408 		movl	$__ZN14InvalidNameExcD1Ev, 8(%esp)
 1410      00000000 
 1411 0e09 C7442404 		movl	$__ZTI14InvalidNameExc, 4(%esp)
 1411      00000000 
 1412 0e11 8B4588   		movl	-120(%ebp), %eax
 1413 0e14 890424   		movl	%eax, (%esp)
 1414 0e17 C74594FF 		movl	$-1, -108(%ebp)
 1414      FFFFFF
 1415 0e1e E8000000 		call	___cxa_throw
 1415      00
 1416              	L83:
  83:C:/Users/Njáll Mýrdal/3viknanamskeid/LitidVerk1/Verkefni2/Vikuverk2/src/services\Validate.cpp ****     }
  84:C:/Users/Njáll Mýrdal/3viknanamskeid/LitidVerk1/Verkefni2/Vikuverk2/src/services\Validate.cpp **** return true;
 1417              		.loc 3 84 0 is_stmt 1
 1418 0e23 B8010000 		movl	$1, %eax
 1418      00
 1419 0e28 88458C   		movb	%al, -116(%ebp)
 1420 0e2b E9BF0000 		jmp	L94
 1420      00
 1421              	L91:
 1422 0e30 895588   		movl	%edx, -120(%ebp)
 1423              	LBB25:
GAS LISTING C:\Users\NJLLMR~1\AppData\Local\Temp\cc3wbcxt.s 			page 38


  78:C:/Users/Njáll Mýrdal/3viknanamskeid/LitidVerk1/Verkefni2/Vikuverk2/src/services\Validate.cpp ****         }
 1424              		.loc 3 78 0
 1425 0e33 8D45D4   		leal	-44(%ebp), %eax
 1426 0e36 C7459400 		movl	$0, -108(%ebp)
 1426      000000
 1427 0e3d 89C1     		movl	%eax, %ecx
 1428 0e3f E8000000 		call	__ZNSsD1Ev
 1428      00
 1429 0e44 8B4588   		movl	-120(%ebp), %eax
 1430 0e47 894588   		movl	%eax, -120(%ebp)
 1431 0e4a EB2A     		jmp	L86
 1432              	L89:
 1433 0e4c 8D6D18   		leal	24(%ebp), %ebp
 1434 0e4f 8B5598   		movl	-104(%ebp), %edx
 1435 0e52 8B4594   		movl	-108(%ebp), %eax
 1436 0e55 85C0     		testl	%eax, %eax
 1437 0e57 741A     		je	L90
 1438 0e59 83E801   		subl	$1, %eax
 1439 0e5c 85C0     		testl	%eax, %eax
 1440 0e5e 74D0     		je	L91
 1441 0e60 83E801   		subl	$1, %eax
 1442 0e63 85C0     		testl	%eax, %eax
 1443 0e65 7458     		je	L92
 1444 0e67 83E801   		subl	$1, %eax
 1445 0e6a 85C0     		testl	%eax, %eax
 1446 0e6c 7435     		je	L93
 1447 0e6e 83E801   		subl	$1, %eax
 1448 0e71 0F0B     		ud2
 1449              	L90:
 1450 0e73 895588   		movl	%edx, -120(%ebp)
 1451              	L86:
  78:C:/Users/Njáll Mýrdal/3viknanamskeid/LitidVerk1/Verkefni2/Vikuverk2/src/services\Validate.cpp ****         }
 1452              		.loc 3 78 0 is_stmt 0 discriminator 1
 1453 0e76 8D45DB   		leal	-37(%ebp), %eax
 1454 0e79 89C1     		movl	%eax, %ecx
 1455 0e7b E8000000 		call	__ZNSaIcED1Ev
 1455      00
 1456 0e80 8B4588   		movl	-120(%ebp), %eax
 1457 0e83 894588   		movl	%eax, -120(%ebp)
 1458 0e86 8B758C   		movl	-116(%ebp), %esi
 1459 0e89 893424   		movl	%esi, (%esp)
 1460 0e8c E8000000 		call	___cxa_free_exception
 1460      00
 1461 0e91 8B4588   		movl	-120(%ebp), %eax
 1462 0e94 890424   		movl	%eax, (%esp)
 1463 0e97 C74594FF 		movl	$-1, -108(%ebp)
 1463      FFFFFF
 1464 0e9e E8000000 		call	__Unwind_SjLj_Resume
 1464      00
 1465              	L93:
 1466 0ea3 89558C   		movl	%edx, -116(%ebp)
 1467              	LBE25:
  82:C:/Users/Njáll Mýrdal/3viknanamskeid/LitidVerk1/Verkefni2/Vikuverk2/src/services\Validate.cpp ****         throw(InvalidNameExc("Invalid input - (must start with a letter)"));
 1468              		.loc 3 82 0 is_stmt 1
 1469 0ea6 8D45DC   		leal	-36(%ebp), %eax
 1470 0ea9 C7459400 		movl	$0, -108(%ebp)
 1470      000000
GAS LISTING C:\Users\NJLLMR~1\AppData\Local\Temp\cc3wbcxt.s 			page 39


 1471 0eb0 89C1     		movl	%eax, %ecx
 1472 0eb2 E8000000 		call	__ZNSsD1Ev
 1472      00
 1473 0eb7 8B458C   		movl	-116(%ebp), %eax
 1474 0eba 89458C   		movl	%eax, -116(%ebp)
 1475 0ebd EB03     		jmp	L88
 1476              	L92:
 1477 0ebf 89558C   		movl	%edx, -116(%ebp)
 1478              	L88:
  82:C:/Users/Njáll Mýrdal/3viknanamskeid/LitidVerk1/Verkefni2/Vikuverk2/src/services\Validate.cpp ****         throw(InvalidNameExc("Invalid input - (must start with a letter)"));
 1479              		.loc 3 82 0 is_stmt 0 discriminator 1
 1480 0ec2 8D45E3   		leal	-29(%ebp), %eax
 1481 0ec5 89C1     		movl	%eax, %ecx
 1482 0ec7 E8000000 		call	__ZNSaIcED1Ev
 1482      00
 1483 0ecc 8B458C   		movl	-116(%ebp), %eax
 1484 0ecf 89458C   		movl	%eax, -116(%ebp)
 1485 0ed2 8B7D88   		movl	-120(%ebp), %edi
 1486 0ed5 893C24   		movl	%edi, (%esp)
 1487 0ed8 E8000000 		call	___cxa_free_exception
 1487      00
 1488 0edd 8B458C   		movl	-116(%ebp), %eax
 1489 0ee0 890424   		movl	%eax, (%esp)
 1490 0ee3 C74594FF 		movl	$-1, -108(%ebp)
 1490      FFFFFF
 1491 0eea E8000000 		call	__Unwind_SjLj_Resume
 1491      00
 1492              	L94:
 1493 0eef 8D4590   		leal	-112(%ebp), %eax
 1494 0ef2 890424   		movl	%eax, (%esp)
 1495 0ef5 E8000000 		call	__Unwind_SjLj_Unregister
 1495      00
 1496              	LBE23:
  85:C:/Users/Njáll Mýrdal/3viknanamskeid/LitidVerk1/Verkefni2/Vikuverk2/src/services\Validate.cpp **** }
 1497              		.loc 3 85 0 is_stmt 1
 1498 0efa 0FB6458C 		movzbl	-116(%ebp), %eax
 1499 0efe 8D65F4   		leal	-12(%ebp), %esp
 1500 0f01 5B       		popl	%ebx
 1501              		.cfi_restore 3
 1502 0f02 5E       		popl	%esi
 1503              		.cfi_restore 6
 1504 0f03 5F       		popl	%edi
 1505              		.cfi_restore 7
 1506 0f04 5D       		popl	%ebp
 1507              		.cfi_restore 5
 1508              		.cfi_def_cfa 4, 4
 1509 0f05 C20400   		ret	$4
 1510              		.cfi_endproc
 1511              	LFE1432:
 1512              		.section	.gcc_except_table,"w"
 1513              	LLSDA1432:
 1514 0030 FF       		.byte	0xff
 1515 0031 FF       		.byte	0xff
 1516 0032 01       		.byte	0x1
 1517 0033 08       		.uleb128 LLSDACSE1432-LLSDACSB1432
 1518              	LLSDACSB1432:
 1519 0034 00       		.uleb128 0
GAS LISTING C:\Users\NJLLMR~1\AppData\Local\Temp\cc3wbcxt.s 			page 40


 1520 0035 00       		.uleb128 0
 1521 0036 01       		.uleb128 0x1
 1522 0037 00       		.uleb128 0
 1523 0038 02       		.uleb128 0x2
 1524 0039 00       		.uleb128 0
 1525 003a 03       		.uleb128 0x3
 1526 003b 00       		.uleb128 0
 1527              	LLSDACSE1432:
 1528              		.text
 1529              		.section	.text$_ZN14InvalidYearExcD1Ev,"x"
 1530              		.linkonce discard
 1531              		.align 2
 1532              		.globl	__ZN14InvalidYearExcD1Ev
 1534              	__ZN14InvalidYearExcD1Ev:
 1535              	LFB1442:
 1536              		.file 8 "include/exceptions/InvalidYearExc.h"
   1:include/exceptions/InvalidYearExc.h **** #ifndef INVALIDYEAREXC_H
   2:include/exceptions/InvalidYearExc.h **** #define INVALIDYEAREXC_H
   3:include/exceptions/InvalidYearExc.h **** 
   4:include/exceptions/InvalidYearExc.h **** #include "Employee.h"
   5:include/exceptions/InvalidYearExc.h **** 
   6:include/exceptions/InvalidYearExc.h **** class InvalidYearExc
 1537              		.loc 8 6 0
 1538              		.cfi_startproc
 1539 0000 55       		pushl	%ebp
 1540              		.cfi_def_cfa_offset 8
 1541              		.cfi_offset 5, -8
 1542 0001 89E5     		movl	%esp, %ebp
 1543              		.cfi_def_cfa_register 5
 1544 0003 83EC18   		subl	$24, %esp
 1545 0006 894DF4   		movl	%ecx, -12(%ebp)
 1546              	LBB26:
 1547              		.loc 8 6 0
 1548 0009 8B45F4   		movl	-12(%ebp), %eax
 1549 000c 89C1     		movl	%eax, %ecx
 1550 000e E8000000 		call	__ZNSsD1Ev
 1550      00
 1551              	LBE26:
 1552 0013 C9       		leave
 1553              		.cfi_restore 5
 1554              		.cfi_def_cfa 4, 4
 1555 0014 C3       		ret
 1556              		.cfi_endproc
 1557              	LFE1442:
 1558 0015 909090   		.section .rdata,"dr"
 1559 00e3 00       		.align 4
 1560              	LC7:
 1561 00e4 496E7661 		.ascii "Invalid input - (4 - digits only)\0"
 1561      6C696420 
 1561      696E7075 
 1561      74202D20 
 1561      2834202D 
 1562 0106 0000     		.align 4
 1563              	LC8:
 1564 0108 496E7661 		.ascii "Invalid input - (1900 to 2017)\0"
 1564      6C696420 
 1564      696E7075 
GAS LISTING C:\Users\NJLLMR~1\AppData\Local\Temp\cc3wbcxt.s 			page 41


 1564      74202D20 
 1564      28313930 
 1565              		.text
 1566              		.align 2
 1567              		.globl	__ZN8Validate12validateYearESs
 1569              	__ZN8Validate12validateYearESs:
 1570              	LFB1439:
  86:C:/Users/Njáll Mýrdal/3viknanamskeid/LitidVerk1/Verkefni2/Vikuverk2/src/services\Validate.cpp **** 
  87:C:/Users/Njáll Mýrdal/3viknanamskeid/LitidVerk1/Verkefni2/Vikuverk2/src/services\Validate.cpp **** /// to validate the year
  88:C:/Users/Njáll Mýrdal/3viknanamskeid/LitidVerk1/Verkefni2/Vikuverk2/src/services\Validate.cpp **** bool Validate::validateYear(string year)
  89:C:/Users/Njáll Mýrdal/3viknanamskeid/LitidVerk1/Verkefni2/Vikuverk2/src/services\Validate.cpp **** {
 1571              		.loc 3 89 0
 1572              		.cfi_startproc
 1573              		.cfi_personality 0,___gxx_personality_sj0
 1574              		.cfi_lsda 0,LLSDA1439
 1575 0f08 55       		pushl	%ebp
 1576              		.cfi_def_cfa_offset 8
 1577              		.cfi_offset 5, -8
 1578 0f09 89E5     		movl	%esp, %ebp
 1579              		.cfi_def_cfa_register 5
 1580 0f0b 57       		pushl	%edi
 1581 0f0c 56       		pushl	%esi
 1582 0f0d 53       		pushl	%ebx
 1583 0f0e 81EC5C01 		subl	$348, %esp
 1583      0000
 1584              		.cfi_offset 7, -12
 1585              		.cfi_offset 6, -16
 1586              		.cfi_offset 3, -20
 1587 0f14 898DF4FE 		movl	%ecx, -268(%ebp)
 1587      FFFF
 1588 0f1a C785D8FE 		movl	$___gxx_personality_sj0, -296(%ebp)
 1588      FFFF0000 
 1588      0000
 1589 0f24 C785DCFE 		movl	$LLSDA1439, -292(%ebp)
 1589      FFFF3C00 
 1589      0000
 1590 0f2e 8D85E0FE 		leal	-288(%ebp), %eax
 1590      FFFF
 1591 0f34 8D5DE8   		leal	-24(%ebp), %ebx
 1592 0f37 8918     		movl	%ebx, (%eax)
 1593 0f39 BA861200 		movl	$L111, %edx
 1593      00
 1594 0f3e 895004   		movl	%edx, 4(%eax)
 1595 0f41 896008   		movl	%esp, 8(%eax)
 1596 0f44 8D85C0FE 		leal	-320(%ebp), %eax
 1596      FFFF
 1597 0f4a 890424   		movl	%eax, (%esp)
 1598 0f4d E8000000 		call	__Unwind_SjLj_Register
 1598      00
 1599              	LBB27:
 1600              	LBB28:
  90:C:/Users/Njáll Mýrdal/3viknanamskeid/LitidVerk1/Verkefni2/Vikuverk2/src/services\Validate.cpp ****     for(unsigned int i = 0; i < year.length(); i++) {   /// checks if it contains only digits
 1601              		.loc 3 90 0
 1602 0f52 C745E400 		movl	$0, -28(%ebp)
 1602      000000
 1603 0f59 E9DB0000 		jmp	L98
 1603      00
GAS LISTING C:\Users\NJLLMR~1\AppData\Local\Temp\cc3wbcxt.s 			page 42


 1604              	L100:
  91:C:/Users/Njáll Mýrdal/3viknanamskeid/LitidVerk1/Verkefni2/Vikuverk2/src/services\Validate.cpp ****         if(!isdigit(year[i])){
 1605              		.loc 3 91 0
 1606 0f5e 8B45E4   		movl	-28(%ebp), %eax
 1607 0f61 890424   		movl	%eax, (%esp)
 1608 0f64 C785C4FE 		movl	$-1, -316(%ebp)
 1608      FFFFFFFF 
 1608      FFFF
 1609 0f6e 8B4D08   		movl	8(%ebp), %ecx
 1610 0f71 E8000000 		call	__ZNSsixEj
 1610      00
 1611 0f76 83EC04   		subl	$4, %esp
 1612 0f79 0FB600   		movzbl	(%eax), %eax
 1613 0f7c 0FBEC0   		movsbl	%al, %eax
 1614 0f7f 83E830   		subl	$48, %eax
 1615 0f82 83F809   		cmpl	$9, %eax
 1616 0f85 0F97C0   		seta	%al
 1617 0f88 84C0     		testb	%al, %al
 1618 0f8a 0F84A500 		je	L99
 1618      0000
  92:C:/Users/Njáll Mýrdal/3viknanamskeid/LitidVerk1/Verkefni2/Vikuverk2/src/services\Validate.cpp ****             throw(InvalidYearExc("Invalid input - (digits only)"));   /// throws an error message
 1619              		.loc 3 92 0
 1620 0f90 C7042404 		movl	$4, (%esp)
 1620      000000
 1621 0f97 E8000000 		call	___cxa_allocate_exception
 1621      00
 1622 0f9c 8985BCFE 		movl	%eax, -324(%ebp)
 1622      FFFF
 1623 0fa2 8D45CB   		leal	-53(%ebp), %eax
 1624 0fa5 89C1     		movl	%eax, %ecx
 1625 0fa7 E8000000 		call	__ZNSaIcEC1Ev
 1625      00
 1626 0fac 8D45C4   		leal	-60(%ebp), %eax
 1627 0faf 8D55CB   		leal	-53(%ebp), %edx
 1628 0fb2 89542404 		movl	%edx, 4(%esp)
 1629 0fb6 C7042400 		movl	$LC0, (%esp)
 1629      000000
 1630 0fbd C785C4FE 		movl	$1, -316(%ebp)
 1630      FFFF0100 
 1630      0000
 1631 0fc7 89C1     		movl	%eax, %ecx
 1632 0fc9 E8000000 		call	__ZNSsC1EPKcRKSaIcE
 1632      00
 1633 0fce 83EC08   		subl	$8, %esp
 1634 0fd1 8D45C4   		leal	-60(%ebp), %eax
 1635 0fd4 890424   		movl	%eax, (%esp)
 1636 0fd7 C785C4FE 		movl	$2, -316(%ebp)
 1636      FFFF0200 
 1636      0000
 1637 0fe1 8B8DBCFE 		movl	-324(%ebp), %ecx
 1637      FFFF
 1638 0fe7 E8000000 		call	__ZN14InvalidYearExcC1ESs
 1638      00
 1639              		.loc 3 92 0 is_stmt 0 discriminator 2
 1640 0fec 83EC04   		subl	$4, %esp
 1641 0fef 8D45C4   		leal	-60(%ebp), %eax
 1642 0ff2 C785C4FE 		movl	$0, -316(%ebp)
GAS LISTING C:\Users\NJLLMR~1\AppData\Local\Temp\cc3wbcxt.s 			page 43


 1642      FFFF0000 
 1642      0000
 1643 0ffc 89C1     		movl	%eax, %ecx
 1644 0ffe E8000000 		call	__ZNSsD1Ev
 1644      00
 1645 1003 8D45CB   		leal	-53(%ebp), %eax
 1646 1006 89C1     		movl	%eax, %ecx
 1647 1008 E8000000 		call	__ZNSaIcED1Ev
 1647      00
 1648 100d C7442408 		movl	$__ZN14InvalidYearExcD1Ev, 8(%esp)
 1648      00000000 
 1649 1015 C7442404 		movl	$__ZTI14InvalidYearExc, 4(%esp)
 1649      00000000 
 1650 101d 8B85BCFE 		movl	-324(%ebp), %eax
 1650      FFFF
 1651 1023 890424   		movl	%eax, (%esp)
 1652 1026 C785C4FE 		movl	$-1, -316(%ebp)
 1652      FFFFFFFF 
 1652      FFFF
 1653 1030 E8000000 		call	___cxa_throw
 1653      00
 1654              	L99:
  90:C:/Users/Njáll Mýrdal/3viknanamskeid/LitidVerk1/Verkefni2/Vikuverk2/src/services\Validate.cpp ****     for(unsigned int i = 0; i < year.length(); i++) {   /// checks if it contains only digits
 1655              		.loc 3 90 0 is_stmt 1 discriminator 2
 1656 1035 8345E401 		addl	$1, -28(%ebp)
 1657              	L98:
  90:C:/Users/Njáll Mýrdal/3viknanamskeid/LitidVerk1/Verkefni2/Vikuverk2/src/services\Validate.cpp ****     for(unsigned int i = 0; i < year.length(); i++) {   /// checks if it contains only digits
 1658              		.loc 3 90 0 is_stmt 0 discriminator 1
 1659 1039 C785C4FE 		movl	$-1, -316(%ebp)
 1659      FFFFFFFF 
 1659      FFFF
 1660 1043 8B4D08   		movl	8(%ebp), %ecx
 1661 1046 E8000000 		call	__ZNKSs6lengthEv
 1661      00
 1662 104b 3B45E4   		cmpl	-28(%ebp), %eax
 1663 104e 0F97C0   		seta	%al
 1664 1051 84C0     		testb	%al, %al
 1665 1053 0F8505FF 		jne	L100
 1665      FFFF
 1666              	LBE28:
  93:C:/Users/Njáll Mýrdal/3viknanamskeid/LitidVerk1/Verkefni2/Vikuverk2/src/services\Validate.cpp ****         }
  94:C:/Users/Njáll Mýrdal/3viknanamskeid/LitidVerk1/Verkefni2/Vikuverk2/src/services\Validate.cpp ****     }
  95:C:/Users/Njáll Mýrdal/3viknanamskeid/LitidVerk1/Verkefni2/Vikuverk2/src/services\Validate.cpp ****     int tmpYear = 0;
 1667              		.loc 3 95 0 is_stmt 1
 1668 1059 C745C000 		movl	$0, -64(%ebp)
 1668      000000
  96:C:/Users/Njáll Mýrdal/3viknanamskeid/LitidVerk1/Verkefni2/Vikuverk2/src/services\Validate.cpp ****     if(year.length() != 4) {    /// checks if it is only 4 digits in length
 1669              		.loc 3 96 0
 1670 1060 8B4D08   		movl	8(%ebp), %ecx
 1671 1063 E8000000 		call	__ZNKSs6lengthEv
 1671      00
 1672 1068 83F804   		cmpl	$4, %eax
 1673 106b 0F95C0   		setne	%al
 1674 106e 84C0     		testb	%al, %al
 1675 1070 0F84A500 		je	L101
 1675      0000
  97:C:/Users/Njáll Mýrdal/3viknanamskeid/LitidVerk1/Verkefni2/Vikuverk2/src/services\Validate.cpp ****         throw(InvalidYearExc("Invalid input - (4 - digits only)"));   /// throws an error message
GAS LISTING C:\Users\NJLLMR~1\AppData\Local\Temp\cc3wbcxt.s 			page 44


 1676              		.loc 3 97 0
 1677 1076 C7042404 		movl	$4, (%esp)
 1677      000000
 1678 107d E8000000 		call	___cxa_allocate_exception
 1678      00
 1679 1082 8985B4FE 		movl	%eax, -332(%ebp)
 1679      FFFF
 1680 1088 8D45D3   		leal	-45(%ebp), %eax
 1681 108b 89C1     		movl	%eax, %ecx
 1682 108d E8000000 		call	__ZNSaIcEC1Ev
 1682      00
 1683 1092 8D45CC   		leal	-52(%ebp), %eax
 1684 1095 8D55D3   		leal	-45(%ebp), %edx
 1685 1098 89542404 		movl	%edx, 4(%esp)
 1686 109c C70424E4 		movl	$LC7, (%esp)
 1686      000000
 1687 10a3 C785C4FE 		movl	$3, -316(%ebp)
 1687      FFFF0300 
 1687      0000
 1688 10ad 89C1     		movl	%eax, %ecx
 1689 10af E8000000 		call	__ZNSsC1EPKcRKSaIcE
 1689      00
 1690 10b4 83EC08   		subl	$8, %esp
 1691 10b7 8D45CC   		leal	-52(%ebp), %eax
 1692 10ba 890424   		movl	%eax, (%esp)
 1693 10bd C785C4FE 		movl	$4, -316(%ebp)
 1693      FFFF0400 
 1693      0000
 1694 10c7 8B8DB4FE 		movl	-332(%ebp), %ecx
 1694      FFFF
 1695 10cd E8000000 		call	__ZN14InvalidYearExcC1ESs
 1695      00
 1696              		.loc 3 97 0 is_stmt 0 discriminator 2
 1697 10d2 83EC04   		subl	$4, %esp
 1698 10d5 8D45CC   		leal	-52(%ebp), %eax
 1699 10d8 C785C4FE 		movl	$0, -316(%ebp)
 1699      FFFF0000 
 1699      0000
 1700 10e2 89C1     		movl	%eax, %ecx
 1701 10e4 E8000000 		call	__ZNSsD1Ev
 1701      00
 1702 10e9 8D45D3   		leal	-45(%ebp), %eax
 1703 10ec 89C1     		movl	%eax, %ecx
 1704 10ee E8000000 		call	__ZNSaIcED1Ev
 1704      00
 1705 10f3 C7442408 		movl	$__ZN14InvalidYearExcD1Ev, 8(%esp)
 1705      00000000 
 1706 10fb C7442404 		movl	$__ZTI14InvalidYearExc, 4(%esp)
 1706      00000000 
 1707 1103 8B85B4FE 		movl	-332(%ebp), %eax
 1707      FFFF
 1708 1109 890424   		movl	%eax, (%esp)
 1709 110c C785C4FE 		movl	$-1, -316(%ebp)
 1709      FFFFFFFF 
 1709      FFFF
 1710 1116 E8000000 		call	___cxa_throw
 1710      00
GAS LISTING C:\Users\NJLLMR~1\AppData\Local\Temp\cc3wbcxt.s 			page 45


 1711              	L101:
  98:C:/Users/Njáll Mýrdal/3viknanamskeid/LitidVerk1/Verkefni2/Vikuverk2/src/services\Validate.cpp ****     }
  99:C:/Users/Njáll Mýrdal/3viknanamskeid/LitidVerk1/Verkefni2/Vikuverk2/src/services\Validate.cpp ****     stringstream sin1(year);
 1712              		.loc 3 99 0 is_stmt 1
 1713 111b C7442404 		movl	$8, 4(%esp)
 1713      08000000 
 1714 1123 C7042410 		movl	$16, (%esp)
 1714      000000
 1715 112a E8000000 		call	__ZStorSt13_Ios_OpenmodeS_
 1715      00
 1716 112f 89C2     		movl	%eax, %edx
 1717 1131 8D8504FF 		leal	-252(%ebp), %eax
 1717      FFFF
 1718 1137 89542404 		movl	%edx, 4(%esp)
 1719 113b 8B5508   		movl	8(%ebp), %edx
 1720 113e 891424   		movl	%edx, (%esp)
 1721 1141 C785C4FE 		movl	$-1, -316(%ebp)
 1721      FFFFFFFF 
 1721      FFFF
 1722 114b 89C1     		movl	%eax, %ecx
 1723 114d E8000000 		call	__ZNSt18basic_stringstreamIcSt11char_traitsIcESaIcEEC1ERKSsSt13_Ios_Openmode
 1723      00
 1724 1152 83EC08   		subl	$8, %esp
 100:C:/Users/Njáll Mýrdal/3viknanamskeid/LitidVerk1/Verkefni2/Vikuverk2/src/services\Validate.cpp ****     sin1 >> tmpYear;    /// converts the string to integer
 1725              		.loc 3 100 0
 1726 1155 8D8504FF 		leal	-252(%ebp), %eax
 1726      FFFF
 1727 115b 8D55C0   		leal	-64(%ebp), %edx
 1728 115e 891424   		movl	%edx, (%esp)
 1729 1161 C785C4FE 		movl	$5, -316(%ebp)
 1729      FFFF0500 
 1729      0000
 1730 116b 89C1     		movl	%eax, %ecx
 1731 116d E8000000 		call	__ZNSirsERi
 1731      00
 1732 1172 83EC04   		subl	$4, %esp
 101:C:/Users/Njáll Mýrdal/3viknanamskeid/LitidVerk1/Verkefni2/Vikuverk2/src/services\Validate.cpp ****     if (tmpYear >= 1900 && tmpYear <= 2017) /// check if it is between 1900 and 2017
 1733              		.loc 3 101 0
 1734 1175 8B45C0   		movl	-64(%ebp), %eax
 1735 1178 3D6B0700 		cmpl	$1899, %eax
 1735      00
 1736 117d 7E3A     		jle	L102
 1737              		.loc 3 101 0 is_stmt 0 discriminator 1
 1738 117f 8B45C0   		movl	-64(%ebp), %eax
 1739 1182 3DE10700 		cmpl	$2017, %eax
 1739      00
 1740 1187 7F30     		jg	L102
 102:C:/Users/Njáll Mýrdal/3viknanamskeid/LitidVerk1/Verkefni2/Vikuverk2/src/services\Validate.cpp ****     {
 103:C:/Users/Njáll Mýrdal/3viknanamskeid/LitidVerk1/Verkefni2/Vikuverk2/src/services\Validate.cpp ****             return true;
 1741              		.loc 3 103 0 is_stmt 1
 1742 1189 C685BCFE 		movb	$1, -324(%ebp)
 1742      FFFF01
 104:C:/Users/Njáll Mýrdal/3viknanamskeid/LitidVerk1/Verkefni2/Vikuverk2/src/services\Validate.cpp ****     }
 105:C:/Users/Njáll Mýrdal/3viknanamskeid/LitidVerk1/Verkefni2/Vikuverk2/src/services\Validate.cpp ****     else
 106:C:/Users/Njáll Mýrdal/3viknanamskeid/LitidVerk1/Verkefni2/Vikuverk2/src/services\Validate.cpp ****     {
 107:C:/Users/Njáll Mýrdal/3viknanamskeid/LitidVerk1/Verkefni2/Vikuverk2/src/services\Validate.cpp ****         throw(InvalidYearExc("Invalid input - (1900 to 2017)"));  /// throws an error message
 108:C:/Users/Njáll Mýrdal/3viknanamskeid/LitidVerk1/Verkefni2/Vikuverk2/src/services\Validate.cpp ****     }
GAS LISTING C:\Users\NJLLMR~1\AppData\Local\Temp\cc3wbcxt.s 			page 46


 109:C:/Users/Njáll Mýrdal/3viknanamskeid/LitidVerk1/Verkefni2/Vikuverk2/src/services\Validate.cpp **** throw(InvalidYearExc("Invalid input"));
 1743              		.loc 3 109 0
 1744 1190 8D8504FF 		leal	-252(%ebp), %eax
 1744      FFFF
 1745 1196 C785C4FE 		movl	$-1, -316(%ebp)
 1745      FFFFFFFF 
 1745      FFFF
 1746 11a0 89C1     		movl	%eax, %ecx
 1747 11a2 E8000000 		call	__ZNSt18basic_stringstreamIcSt11char_traitsIcESaIcEED1Ev
 1747      00
 103:C:/Users/Njáll Mýrdal/3viknanamskeid/LitidVerk1/Verkefni2/Vikuverk2/src/services\Validate.cpp ****     }
 1748              		.loc 3 103 0
 1749 11a7 0FB685BC 		movzbl	-324(%ebp), %eax
 1749      FEFFFF
 1750 11ae 8885BCFE 		movb	%al, -324(%ebp)
 1750      FFFF
 1751 11b4 E9350200 		jmp	L121
 1751      00
 1752              	L102:
 107:C:/Users/Njáll Mýrdal/3viknanamskeid/LitidVerk1/Verkefni2/Vikuverk2/src/services\Validate.cpp ****     }
 1753              		.loc 3 107 0
 1754 11b9 C7042404 		movl	$4, (%esp)
 1754      000000
 1755 11c0 E8000000 		call	___cxa_allocate_exception
 1755      00
 1756 11c5 8985B8FE 		movl	%eax, -328(%ebp)
 1756      FFFF
 1757 11cb 8D45DB   		leal	-37(%ebp), %eax
 1758 11ce 89C1     		movl	%eax, %ecx
 1759 11d0 E8000000 		call	__ZNSaIcEC1Ev
 1759      00
 1760 11d5 8D45D4   		leal	-44(%ebp), %eax
 1761 11d8 8D55DB   		leal	-37(%ebp), %edx
 1762 11db 89542404 		movl	%edx, 4(%esp)
 1763 11df C7042408 		movl	$LC8, (%esp)
 1763      010000
 1764 11e6 C785C4FE 		movl	$6, -316(%ebp)
 1764      FFFF0600 
 1764      0000
 1765 11f0 89C1     		movl	%eax, %ecx
 1766 11f2 E8000000 		call	__ZNSsC1EPKcRKSaIcE
 1766      00
 1767 11f7 83EC08   		subl	$8, %esp
 1768 11fa 8D45D4   		leal	-44(%ebp), %eax
 1769 11fd 890424   		movl	%eax, (%esp)
 1770 1200 C785C4FE 		movl	$7, -316(%ebp)
 1770      FFFF0700 
 1770      0000
 1771 120a 8B8DB8FE 		movl	-328(%ebp), %ecx
 1771      FFFF
 1772 1210 E8000000 		call	__ZN14InvalidYearExcC1ESs
 1772      00
 107:C:/Users/Njáll Mýrdal/3viknanamskeid/LitidVerk1/Verkefni2/Vikuverk2/src/services\Validate.cpp ****     }
 1773              		.loc 3 107 0 is_stmt 0 discriminator 2
 1774 1215 83EC04   		subl	$4, %esp
 1775 1218 8D45D4   		leal	-44(%ebp), %eax
 1776 121b C785C4FE 		movl	$0, -316(%ebp)
GAS LISTING C:\Users\NJLLMR~1\AppData\Local\Temp\cc3wbcxt.s 			page 47


 1776      FFFF0000 
 1776      0000
 1777 1225 89C1     		movl	%eax, %ecx
 1778 1227 E8000000 		call	__ZNSsD1Ev
 1778      00
 1779 122c 8D45DB   		leal	-37(%ebp), %eax
 1780 122f 89C1     		movl	%eax, %ecx
 1781 1231 E8000000 		call	__ZNSaIcED1Ev
 1781      00
 1782 1236 C7442408 		movl	$__ZN14InvalidYearExcD1Ev, 8(%esp)
 1782      00000000 
 1783 123e C7442404 		movl	$__ZTI14InvalidYearExc, 4(%esp)
 1783      00000000 
 1784 1246 8B85B8FE 		movl	-328(%ebp), %eax
 1784      FFFF
 1785 124c 890424   		movl	%eax, (%esp)
 1786 124f C785C4FE 		movl	$5, -316(%ebp)
 1786      FFFF0500 
 1786      0000
 1787 1259 E8000000 		call	___cxa_throw
 1787      00
 1788              	L113:
 1789 125e 8985B8FE 		movl	%eax, -328(%ebp)
 1789      FFFF
 1790              	LBB29:
  92:C:/Users/Njáll Mýrdal/3viknanamskeid/LitidVerk1/Verkefni2/Vikuverk2/src/services\Validate.cpp ****         }
 1791              		.loc 3 92 0 is_stmt 1
 1792 1264 8D45C4   		leal	-60(%ebp), %eax
 1793 1267 C785C4FE 		movl	$0, -316(%ebp)
 1793      FFFF0000 
 1793      0000
 1794 1271 89C1     		movl	%eax, %ecx
 1795 1273 E8000000 		call	__ZNSsD1Ev
 1795      00
 1796 1278 8B85B8FE 		movl	-328(%ebp), %eax
 1796      FFFF
 1797 127e 8985B8FE 		movl	%eax, -328(%ebp)
 1797      FFFF
 1798 1284 EB2D     		jmp	L105
 1799              	L111:
 1800 1286 8D6D18   		leal	24(%ebp), %ebp
 1801 1289 8B85C8FE 		movl	-312(%ebp), %eax
 1801      FFFF
 1802 128f 83BDC4FE 		cmpl	$6, -316(%ebp)
 1802      FFFF06
 1803 1296 7713     		ja	L119
 1804 1298 8B95C4FE 		movl	-316(%ebp), %edx
 1804      FFFF
 1805 129e C1E202   		sall	$2, %edx
 1806 12a1 81C22801 		addl	$L120, %edx
 1806      0000
 1807 12a7 8B12     		movl	(%edx), %edx
 1808 12a9 FFE2     		jmp	*%edx
 1809              		.section .rdata,"dr"
 1810 0127 00       		.align 4
 1811              	L120:
 1812 0128 AD120000 		.long	L112
GAS LISTING C:\Users\NJLLMR~1\AppData\Local\Temp\cc3wbcxt.s 			page 48


 1813 012c 5E120000 		.long	L113
 1814 0130 17130000 		.long	L114
 1815 0134 EF120000 		.long	L115
 1816 0138 B9130000 		.long	L116
 1817 013c 81130000 		.long	L117
 1818 0140 59130000 		.long	L118
 1819              		.text
 1820              	L119:
 1821 12ab 0F0B     		ud2
 1822              	L112:
 1823 12ad 8985B8FE 		movl	%eax, -328(%ebp)
 1823      FFFF
 1824              	L105:
  92:C:/Users/Njáll Mýrdal/3viknanamskeid/LitidVerk1/Verkefni2/Vikuverk2/src/services\Validate.cpp ****         }
 1825              		.loc 3 92 0 is_stmt 0 discriminator 1
 1826 12b3 8D45CB   		leal	-53(%ebp), %eax
 1827 12b6 89C1     		movl	%eax, %ecx
 1828 12b8 E8000000 		call	__ZNSaIcED1Ev
 1828      00
 1829 12bd 8B85B8FE 		movl	-328(%ebp), %eax
 1829      FFFF
 1830 12c3 8985B8FE 		movl	%eax, -328(%ebp)
 1830      FFFF
 1831 12c9 8BB5BCFE 		movl	-324(%ebp), %esi
 1831      FFFF
 1832 12cf 893424   		movl	%esi, (%esp)
 1833 12d2 E8000000 		call	___cxa_free_exception
 1833      00
 1834 12d7 8B85B8FE 		movl	-328(%ebp), %eax
 1834      FFFF
 1835 12dd 890424   		movl	%eax, (%esp)
 1836 12e0 C785C4FE 		movl	$-1, -316(%ebp)
 1836      FFFFFFFF 
 1836      FFFF
 1837 12ea E8000000 		call	__Unwind_SjLj_Resume
 1837      00
 1838              	L115:
 1839 12ef 8985BCFE 		movl	%eax, -324(%ebp)
 1839      FFFF
 1840              	LBE29:
  97:C:/Users/Njáll Mýrdal/3viknanamskeid/LitidVerk1/Verkefni2/Vikuverk2/src/services\Validate.cpp ****     }
 1841              		.loc 3 97 0 is_stmt 1
 1842 12f5 8D45CC   		leal	-52(%ebp), %eax
 1843 12f8 C785C4FE 		movl	$0, -316(%ebp)
 1843      FFFF0000 
 1843      0000
 1844 1302 89C1     		movl	%eax, %ecx
 1845 1304 E8000000 		call	__ZNSsD1Ev
 1845      00
 1846 1309 8B85BCFE 		movl	-324(%ebp), %eax
 1846      FFFF
 1847 130f 8985BCFE 		movl	%eax, -324(%ebp)
 1847      FFFF
 1848 1315 EB06     		jmp	L107
 1849              	L114:
 1850 1317 8985BCFE 		movl	%eax, -324(%ebp)
 1850      FFFF
GAS LISTING C:\Users\NJLLMR~1\AppData\Local\Temp\cc3wbcxt.s 			page 49


 1851              	L107:
  97:C:/Users/Njáll Mýrdal/3viknanamskeid/LitidVerk1/Verkefni2/Vikuverk2/src/services\Validate.cpp ****     }
 1852              		.loc 3 97 0 is_stmt 0 discriminator 1
 1853 131d 8D45D3   		leal	-45(%ebp), %eax
 1854 1320 89C1     		movl	%eax, %ecx
 1855 1322 E8000000 		call	__ZNSaIcED1Ev
 1855      00
 1856 1327 8B85BCFE 		movl	-324(%ebp), %eax
 1856      FFFF
 1857 132d 8985BCFE 		movl	%eax, -324(%ebp)
 1857      FFFF
 1858 1333 8BBDB4FE 		movl	-332(%ebp), %edi
 1858      FFFF
 1859 1339 893C24   		movl	%edi, (%esp)
 1860 133c E8000000 		call	___cxa_free_exception
 1860      00
 1861 1341 8B85BCFE 		movl	-324(%ebp), %eax
 1861      FFFF
 1862 1347 890424   		movl	%eax, (%esp)
 1863 134a C785C4FE 		movl	$-1, -316(%ebp)
 1863      FFFFFFFF 
 1863      FFFF
 1864 1354 E8000000 		call	__Unwind_SjLj_Resume
 1864      00
 1865              	L118:
 1866 1359 8985BCFE 		movl	%eax, -324(%ebp)
 1866      FFFF
 107:C:/Users/Njáll Mýrdal/3viknanamskeid/LitidVerk1/Verkefni2/Vikuverk2/src/services\Validate.cpp ****     }
 1867              		.loc 3 107 0 is_stmt 1
 1868 135f 8D45D4   		leal	-44(%ebp), %eax
 1869 1362 C785C4FE 		movl	$0, -316(%ebp)
 1869      FFFF0000 
 1869      0000
 1870 136c 89C1     		movl	%eax, %ecx
 1871 136e E8000000 		call	__ZNSsD1Ev
 1871      00
 1872 1373 8B85BCFE 		movl	-324(%ebp), %eax
 1872      FFFF
 1873 1379 8985BCFE 		movl	%eax, -324(%ebp)
 1873      FFFF
 1874 137f EB06     		jmp	L109
 1875              	L117:
 1876 1381 8985BCFE 		movl	%eax, -324(%ebp)
 1876      FFFF
 1877              	L109:
 107:C:/Users/Njáll Mýrdal/3viknanamskeid/LitidVerk1/Verkefni2/Vikuverk2/src/services\Validate.cpp ****     }
 1878              		.loc 3 107 0 is_stmt 0 discriminator 1
 1879 1387 8D45DB   		leal	-37(%ebp), %eax
 1880 138a 89C1     		movl	%eax, %ecx
 1881 138c E8000000 		call	__ZNSaIcED1Ev
 1881      00
 1882 1391 8B85BCFE 		movl	-324(%ebp), %eax
 1882      FFFF
 1883 1397 8985BCFE 		movl	%eax, -324(%ebp)
 1883      FFFF
 1884 139d 8B9DB8FE 		movl	-328(%ebp), %ebx
 1884      FFFF
GAS LISTING C:\Users\NJLLMR~1\AppData\Local\Temp\cc3wbcxt.s 			page 50


 1885 13a3 891C24   		movl	%ebx, (%esp)
 1886 13a6 E8000000 		call	___cxa_free_exception
 1886      00
 1887 13ab 8B85BCFE 		movl	-324(%ebp), %eax
 1887      FFFF
 1888 13b1 8985BCFE 		movl	%eax, -324(%ebp)
 1888      FFFF
 1889 13b7 EB06     		jmp	L110
 1890              	L116:
 1891 13b9 8985BCFE 		movl	%eax, -324(%ebp)
 1891      FFFF
 1892              	L110:
 1893              		.loc 3 109 0 is_stmt 1 discriminator 5
 1894 13bf 8D8504FF 		leal	-252(%ebp), %eax
 1894      FFFF
 1895 13c5 C785C4FE 		movl	$0, -316(%ebp)
 1895      FFFF0000 
 1895      0000
 1896 13cf 89C1     		movl	%eax, %ecx
 1897 13d1 E8000000 		call	__ZNSt18basic_stringstreamIcSt11char_traitsIcESaIcEED1Ev
 1897      00
 1898 13d6 8B85BCFE 		movl	-324(%ebp), %eax
 1898      FFFF
 1899 13dc 890424   		movl	%eax, (%esp)
 1900 13df C785C4FE 		movl	$-1, -316(%ebp)
 1900      FFFFFFFF 
 1900      FFFF
 1901 13e9 E8000000 		call	__Unwind_SjLj_Resume
 1901      00
 1902              	L121:
 1903 13ee 8D85C0FE 		leal	-320(%ebp), %eax
 1903      FFFF
 1904 13f4 890424   		movl	%eax, (%esp)
 1905 13f7 E8000000 		call	__Unwind_SjLj_Unregister
 1905      00
 1906              	LBE27:
 110:C:/Users/Njáll Mýrdal/3viknanamskeid/LitidVerk1/Verkefni2/Vikuverk2/src/services\Validate.cpp **** }
 1907              		.loc 3 110 0
 1908 13fc 0FB685BC 		movzbl	-324(%ebp), %eax
 1908      FEFFFF
 1909 1403 8D65F4   		leal	-12(%ebp), %esp
 1910 1406 5B       		popl	%ebx
 1911              		.cfi_restore 3
 1912 1407 5E       		popl	%esi
 1913              		.cfi_restore 6
 1914 1408 5F       		popl	%edi
 1915              		.cfi_restore 7
 1916 1409 5D       		popl	%ebp
 1917              		.cfi_restore 5
 1918              		.cfi_def_cfa 4, 4
 1919 140a C20400   		ret	$4
 1920              		.cfi_endproc
 1921              	LFE1439:
 1922              		.section	.gcc_except_table,"w"
 1923              	LLSDA1439:
 1924 003c FF       		.byte	0xff
 1925 003d FF       		.byte	0xff
GAS LISTING C:\Users\NJLLMR~1\AppData\Local\Temp\cc3wbcxt.s 			page 51


 1926 003e 01       		.byte	0x1
 1927 003f 0E       		.uleb128 LLSDACSE1439-LLSDACSB1439
 1928              	LLSDACSB1439:
 1929 0040 00       		.uleb128 0
 1930 0041 00       		.uleb128 0
 1931 0042 01       		.uleb128 0x1
 1932 0043 00       		.uleb128 0
 1933 0044 02       		.uleb128 0x2
 1934 0045 00       		.uleb128 0
 1935 0046 03       		.uleb128 0x3
 1936 0047 00       		.uleb128 0
 1937 0048 04       		.uleb128 0x4
 1938 0049 00       		.uleb128 0
 1939 004a 05       		.uleb128 0x5
 1940 004b 00       		.uleb128 0
 1941 004c 06       		.uleb128 0x6
 1942 004d 00       		.uleb128 0
 1943              	LLSDACSE1439:
 1944 004e 0000     		.text
 1945              		.globl	__ZTS14InvalidYearExc
 1946              		.section	.rdata$_ZTS14InvalidYearExc,"dr"
 1947              		.linkonce same_size
 1948              	__ZTS14InvalidYearExc:
 1949 0000 3134496E 		.ascii "14InvalidYearExc\0"
 1949      76616C69 
 1949      64596561 
 1949      72457863 
 1949      00
 1950              		.globl	__ZTI14InvalidYearExc
 1951 0011 000000   		.section	.rdata$_ZTI14InvalidYearExc,"dr"
 1952              		.linkonce same_size
 1953              		.align 4
 1954              	__ZTI14InvalidYearExc:
 1955 0000 08000000 		.long	__ZTVN10__cxxabiv117__class_type_infoE+8
 1956 0004 00000000 		.long	__ZTS14InvalidYearExc
 1957              		.globl	__ZTS14InvalidNameExc
 1958              		.section	.rdata$_ZTS14InvalidNameExc,"dr"
 1959              		.linkonce same_size
 1960              	__ZTS14InvalidNameExc:
 1961 0000 3134496E 		.ascii "14InvalidNameExc\0"
 1961      76616C69 
 1961      644E616D 
 1961      65457863 
 1961      00
 1962              		.globl	__ZTI14InvalidNameExc
 1963 0011 000000   		.section	.rdata$_ZTI14InvalidNameExc,"dr"
 1964              		.linkonce same_size
 1965              		.align 4
 1966              	__ZTI14InvalidNameExc:
 1967 0000 08000000 		.long	__ZTVN10__cxxabiv117__class_type_infoE+8
 1968 0004 00000000 		.long	__ZTS14InvalidNameExc
 1969              		.globl	__ZTS15InvalidMonthExc
 1970              		.section	.rdata$_ZTS15InvalidMonthExc,"dr"
 1971              		.linkonce same_size
 1972              	__ZTS15InvalidMonthExc:
 1973 0000 3135496E 		.ascii "15InvalidMonthExc\0"
 1973      76616C69 
GAS LISTING C:\Users\NJLLMR~1\AppData\Local\Temp\cc3wbcxt.s 			page 52


 1973      644D6F6E 
 1973      74684578 
 1973      6300
 1974              		.globl	__ZTI15InvalidMonthExc
 1975 0012 0000     		.section	.rdata$_ZTI15InvalidMonthExc,"dr"
 1976              		.linkonce same_size
 1977              		.align 4
 1978              	__ZTI15InvalidMonthExc:
 1979 0000 08000000 		.long	__ZTVN10__cxxabiv117__class_type_infoE+8
 1980 0004 00000000 		.long	__ZTS15InvalidMonthExc
 1981              		.globl	__ZTS13InvalidSsnExc
 1982              		.section	.rdata$_ZTS13InvalidSsnExc,"dr"
 1983              		.linkonce same_size
 1984              	__ZTS13InvalidSsnExc:
 1985 0000 3133496E 		.ascii "13InvalidSsnExc\0"
 1985      76616C69 
 1985      6453736E 
 1985      45786300 
 1986              		.globl	__ZTI13InvalidSsnExc
 1987              		.section	.rdata$_ZTI13InvalidSsnExc,"dr"
 1988              		.linkonce same_size
 1989              		.align 4
 1990              	__ZTI13InvalidSsnExc:
 1991 0000 08000000 		.long	__ZTVN10__cxxabiv117__class_type_infoE+8
 1992 0004 00000000 		.long	__ZTS13InvalidSsnExc
 1993              		.globl	__ZTS16InvalidSalaryExc
 1994              		.section	.rdata$_ZTS16InvalidSalaryExc,"dr"
 1995              		.linkonce same_size
 1996              	__ZTS16InvalidSalaryExc:
 1997 0000 3136496E 		.ascii "16InvalidSalaryExc\0"
 1997      76616C69 
 1997      6453616C 
 1997      61727945 
 1997      786300
 1998              		.globl	__ZTI16InvalidSalaryExc
 1999 0013 00       		.section	.rdata$_ZTI16InvalidSalaryExc,"dr"
 2000              		.linkonce same_size
 2001              		.align 4
 2002              	__ZTI16InvalidSalaryExc:
 2003 0000 08000000 		.long	__ZTVN10__cxxabiv117__class_type_infoE+8
 2004 0004 00000000 		.long	__ZTS16InvalidSalaryExc
 2005              		.globl	__ZTS15InvalidInputExc
 2006              		.section	.rdata$_ZTS15InvalidInputExc,"dr"
 2007              		.linkonce same_size
 2008              	__ZTS15InvalidInputExc:
 2009 0000 3135496E 		.ascii "15InvalidInputExc\0"
 2009      76616C69 
 2009      64496E70 
 2009      75744578 
 2009      6300
 2010              		.globl	__ZTI15InvalidInputExc
 2011 0012 0000     		.section	.rdata$_ZTI15InvalidInputExc,"dr"
 2012              		.linkonce same_size
 2013              		.align 4
 2014              	__ZTI15InvalidInputExc:
 2015 0000 08000000 		.long	__ZTVN10__cxxabiv117__class_type_infoE+8
 2016 0004 00000000 		.long	__ZTS15InvalidInputExc
GAS LISTING C:\Users\NJLLMR~1\AppData\Local\Temp\cc3wbcxt.s 			page 53


 2017              		.text
 2019              	___tcf_0:
 2020              	LFB1535:
 2021              		.file 9 "C:/Program Files (x86)/CodeBlocks/MinGW/lib/gcc/mingw32/4.9.2/include/c++/iostream"
   1:C:/Program Files (x86)/CodeBlocks/MinGW/lib/gcc/mingw32/4.9.2/include/c++\iostream **** // Standard iostream objects -*- C++ -*-
   2:C:/Program Files (x86)/CodeBlocks/MinGW/lib/gcc/mingw32/4.9.2/include/c++\iostream **** 
   3:C:/Program Files (x86)/CodeBlocks/MinGW/lib/gcc/mingw32/4.9.2/include/c++\iostream **** // Copyright (C) 1997-2014 Free Software Foundation, Inc.
   4:C:/Program Files (x86)/CodeBlocks/MinGW/lib/gcc/mingw32/4.9.2/include/c++\iostream **** //
   5:C:/Program Files (x86)/CodeBlocks/MinGW/lib/gcc/mingw32/4.9.2/include/c++\iostream **** // This file is part of the GNU ISO C++ Library.  This library is free
   6:C:/Program Files (x86)/CodeBlocks/MinGW/lib/gcc/mingw32/4.9.2/include/c++\iostream **** // software; you can redistribute it and/or modify it under the
   7:C:/Program Files (x86)/CodeBlocks/MinGW/lib/gcc/mingw32/4.9.2/include/c++\iostream **** // terms of the GNU General Public License as published by the
   8:C:/Program Files (x86)/CodeBlocks/MinGW/lib/gcc/mingw32/4.9.2/include/c++\iostream **** // Free Software Foundation; either version 3, or (at your option)
   9:C:/Program Files (x86)/CodeBlocks/MinGW/lib/gcc/mingw32/4.9.2/include/c++\iostream **** // any later version.
  10:C:/Program Files (x86)/CodeBlocks/MinGW/lib/gcc/mingw32/4.9.2/include/c++\iostream **** 
  11:C:/Program Files (x86)/CodeBlocks/MinGW/lib/gcc/mingw32/4.9.2/include/c++\iostream **** // This library is distributed in the hope that it will be useful,
  12:C:/Program Files (x86)/CodeBlocks/MinGW/lib/gcc/mingw32/4.9.2/include/c++\iostream **** // but WITHOUT ANY WARRANTY; without even the implied warranty of
  13:C:/Program Files (x86)/CodeBlocks/MinGW/lib/gcc/mingw32/4.9.2/include/c++\iostream **** // MERCHANTABILITY or FITNESS FOR A PARTICULAR PURPOSE.  See the
  14:C:/Program Files (x86)/CodeBlocks/MinGW/lib/gcc/mingw32/4.9.2/include/c++\iostream **** // GNU General Public License for more details.
  15:C:/Program Files (x86)/CodeBlocks/MinGW/lib/gcc/mingw32/4.9.2/include/c++\iostream **** 
  16:C:/Program Files (x86)/CodeBlocks/MinGW/lib/gcc/mingw32/4.9.2/include/c++\iostream **** // Under Section 7 of GPL version 3, you are granted additional
  17:C:/Program Files (x86)/CodeBlocks/MinGW/lib/gcc/mingw32/4.9.2/include/c++\iostream **** // permissions described in the GCC Runtime Library Exception, version
  18:C:/Program Files (x86)/CodeBlocks/MinGW/lib/gcc/mingw32/4.9.2/include/c++\iostream **** // 3.1, as published by the Free Software Foundation.
  19:C:/Program Files (x86)/CodeBlocks/MinGW/lib/gcc/mingw32/4.9.2/include/c++\iostream **** 
  20:C:/Program Files (x86)/CodeBlocks/MinGW/lib/gcc/mingw32/4.9.2/include/c++\iostream **** // You should have received a copy of the GNU General Public License and
  21:C:/Program Files (x86)/CodeBlocks/MinGW/lib/gcc/mingw32/4.9.2/include/c++\iostream **** // a copy of the GCC Runtime Library Exception along with this program;
  22:C:/Program Files (x86)/CodeBlocks/MinGW/lib/gcc/mingw32/4.9.2/include/c++\iostream **** // see the files COPYING3 and COPYING.RUNTIME respectively.  If not, see
  23:C:/Program Files (x86)/CodeBlocks/MinGW/lib/gcc/mingw32/4.9.2/include/c++\iostream **** // <http://www.gnu.org/licenses/>.
  24:C:/Program Files (x86)/CodeBlocks/MinGW/lib/gcc/mingw32/4.9.2/include/c++\iostream **** 
  25:C:/Program Files (x86)/CodeBlocks/MinGW/lib/gcc/mingw32/4.9.2/include/c++\iostream **** /** @file include/iostream
  26:C:/Program Files (x86)/CodeBlocks/MinGW/lib/gcc/mingw32/4.9.2/include/c++\iostream ****  *  This is a Standard C++ Library header.
  27:C:/Program Files (x86)/CodeBlocks/MinGW/lib/gcc/mingw32/4.9.2/include/c++\iostream ****  */
  28:C:/Program Files (x86)/CodeBlocks/MinGW/lib/gcc/mingw32/4.9.2/include/c++\iostream **** 
  29:C:/Program Files (x86)/CodeBlocks/MinGW/lib/gcc/mingw32/4.9.2/include/c++\iostream **** //
  30:C:/Program Files (x86)/CodeBlocks/MinGW/lib/gcc/mingw32/4.9.2/include/c++\iostream **** // ISO C++ 14882: 27.3  Standard iostream objects
  31:C:/Program Files (x86)/CodeBlocks/MinGW/lib/gcc/mingw32/4.9.2/include/c++\iostream **** //
  32:C:/Program Files (x86)/CodeBlocks/MinGW/lib/gcc/mingw32/4.9.2/include/c++\iostream **** 
  33:C:/Program Files (x86)/CodeBlocks/MinGW/lib/gcc/mingw32/4.9.2/include/c++\iostream **** #ifndef _GLIBCXX_IOSTREAM
  34:C:/Program Files (x86)/CodeBlocks/MinGW/lib/gcc/mingw32/4.9.2/include/c++\iostream **** #define _GLIBCXX_IOSTREAM 1
  35:C:/Program Files (x86)/CodeBlocks/MinGW/lib/gcc/mingw32/4.9.2/include/c++\iostream **** 
  36:C:/Program Files (x86)/CodeBlocks/MinGW/lib/gcc/mingw32/4.9.2/include/c++\iostream **** #pragma GCC system_header
  37:C:/Program Files (x86)/CodeBlocks/MinGW/lib/gcc/mingw32/4.9.2/include/c++\iostream **** 
  38:C:/Program Files (x86)/CodeBlocks/MinGW/lib/gcc/mingw32/4.9.2/include/c++\iostream **** #include <bits/c++config.h>
  39:C:/Program Files (x86)/CodeBlocks/MinGW/lib/gcc/mingw32/4.9.2/include/c++\iostream **** #include <ostream>
  40:C:/Program Files (x86)/CodeBlocks/MinGW/lib/gcc/mingw32/4.9.2/include/c++\iostream **** #include <istream>
  41:C:/Program Files (x86)/CodeBlocks/MinGW/lib/gcc/mingw32/4.9.2/include/c++\iostream **** 
  42:C:/Program Files (x86)/CodeBlocks/MinGW/lib/gcc/mingw32/4.9.2/include/c++\iostream **** namespace std _GLIBCXX_VISIBILITY(default)
  43:C:/Program Files (x86)/CodeBlocks/MinGW/lib/gcc/mingw32/4.9.2/include/c++\iostream **** {
  44:C:/Program Files (x86)/CodeBlocks/MinGW/lib/gcc/mingw32/4.9.2/include/c++\iostream **** _GLIBCXX_BEGIN_NAMESPACE_VERSION
  45:C:/Program Files (x86)/CodeBlocks/MinGW/lib/gcc/mingw32/4.9.2/include/c++\iostream **** 
  46:C:/Program Files (x86)/CodeBlocks/MinGW/lib/gcc/mingw32/4.9.2/include/c++\iostream ****   /**
  47:C:/Program Files (x86)/CodeBlocks/MinGW/lib/gcc/mingw32/4.9.2/include/c++\iostream ****    *  @name Standard Stream Objects
  48:C:/Program Files (x86)/CodeBlocks/MinGW/lib/gcc/mingw32/4.9.2/include/c++\iostream ****    *
  49:C:/Program Files (x86)/CodeBlocks/MinGW/lib/gcc/mingw32/4.9.2/include/c++\iostream ****    *  The &lt;iostream&gt; header declares the eight <em>standard stream
  50:C:/Program Files (x86)/CodeBlocks/MinGW/lib/gcc/mingw32/4.9.2/include/c++\iostream ****    *  objects</em>.  For other declarations, see
  51:C:/Program Files (x86)/CodeBlocks/MinGW/lib/gcc/mingw32/4.9.2/include/c++\iostream ****    *  http://gcc.gnu.org/onlinedocs/libstdc++/manual/io.html
  52:C:/Program Files (x86)/CodeBlocks/MinGW/lib/gcc/mingw32/4.9.2/include/c++\iostream ****    *  and the @link iosfwd I/O forward declarations @endlink
  53:C:/Program Files (x86)/CodeBlocks/MinGW/lib/gcc/mingw32/4.9.2/include/c++\iostream ****    *
GAS LISTING C:\Users\NJLLMR~1\AppData\Local\Temp\cc3wbcxt.s 			page 54


  54:C:/Program Files (x86)/CodeBlocks/MinGW/lib/gcc/mingw32/4.9.2/include/c++\iostream ****    *  They are required by default to cooperate with the global C
  55:C:/Program Files (x86)/CodeBlocks/MinGW/lib/gcc/mingw32/4.9.2/include/c++\iostream ****    *  library's @c FILE streams, and to be available during program
  56:C:/Program Files (x86)/CodeBlocks/MinGW/lib/gcc/mingw32/4.9.2/include/c++\iostream ****    *  startup and termination. For more information, see the section of the
  57:C:/Program Files (x86)/CodeBlocks/MinGW/lib/gcc/mingw32/4.9.2/include/c++\iostream ****    *  manual linked to above.
  58:C:/Program Files (x86)/CodeBlocks/MinGW/lib/gcc/mingw32/4.9.2/include/c++\iostream ****   */
  59:C:/Program Files (x86)/CodeBlocks/MinGW/lib/gcc/mingw32/4.9.2/include/c++\iostream ****   //@{
  60:C:/Program Files (x86)/CodeBlocks/MinGW/lib/gcc/mingw32/4.9.2/include/c++\iostream ****   extern istream cin;		/// Linked to standard input
  61:C:/Program Files (x86)/CodeBlocks/MinGW/lib/gcc/mingw32/4.9.2/include/c++\iostream ****   extern ostream cout;		/// Linked to standard output
  62:C:/Program Files (x86)/CodeBlocks/MinGW/lib/gcc/mingw32/4.9.2/include/c++\iostream ****   extern ostream cerr;		/// Linked to standard error (unbuffered)
  63:C:/Program Files (x86)/CodeBlocks/MinGW/lib/gcc/mingw32/4.9.2/include/c++\iostream ****   extern ostream clog;		/// Linked to standard error (buffered)
  64:C:/Program Files (x86)/CodeBlocks/MinGW/lib/gcc/mingw32/4.9.2/include/c++\iostream **** 
  65:C:/Program Files (x86)/CodeBlocks/MinGW/lib/gcc/mingw32/4.9.2/include/c++\iostream **** #ifdef _GLIBCXX_USE_WCHAR_T
  66:C:/Program Files (x86)/CodeBlocks/MinGW/lib/gcc/mingw32/4.9.2/include/c++\iostream ****   extern wistream wcin;		/// Linked to standard input
  67:C:/Program Files (x86)/CodeBlocks/MinGW/lib/gcc/mingw32/4.9.2/include/c++\iostream ****   extern wostream wcout;	/// Linked to standard output
  68:C:/Program Files (x86)/CodeBlocks/MinGW/lib/gcc/mingw32/4.9.2/include/c++\iostream ****   extern wostream wcerr;	/// Linked to standard error (unbuffered)
  69:C:/Program Files (x86)/CodeBlocks/MinGW/lib/gcc/mingw32/4.9.2/include/c++\iostream ****   extern wostream wclog;	/// Linked to standard error (buffered)
  70:C:/Program Files (x86)/CodeBlocks/MinGW/lib/gcc/mingw32/4.9.2/include/c++\iostream **** #endif
  71:C:/Program Files (x86)/CodeBlocks/MinGW/lib/gcc/mingw32/4.9.2/include/c++\iostream ****   //@}
  72:C:/Program Files (x86)/CodeBlocks/MinGW/lib/gcc/mingw32/4.9.2/include/c++\iostream **** 
  73:C:/Program Files (x86)/CodeBlocks/MinGW/lib/gcc/mingw32/4.9.2/include/c++\iostream ****   // For construction of filebuffers for cout, cin, cerr, clog et. al.
  74:C:/Program Files (x86)/CodeBlocks/MinGW/lib/gcc/mingw32/4.9.2/include/c++\iostream ****   static ios_base::Init __ioinit;
 2022              		.loc 9 74 0
 2023              		.cfi_startproc
 2024 140d 55       		pushl	%ebp
 2025              		.cfi_def_cfa_offset 8
 2026              		.cfi_offset 5, -8
 2027 140e 89E5     		movl	%esp, %ebp
 2028              		.cfi_def_cfa_register 5
 2029 1410 83EC08   		subl	$8, %esp
 2030              		.loc 9 74 0
 2031 1413 B9000000 		movl	$__ZStL8__ioinit, %ecx
 2031      00
 2032 1418 E8000000 		call	__ZNSt8ios_base4InitD1Ev
 2032      00
 2033 141d C9       		leave
 2034              		.cfi_restore 5
 2035              		.cfi_def_cfa 4, 4
 2036 141e C3       		ret
 2037              		.cfi_endproc
 2038              	LFE1535:
 2040              	__Z41__static_initialization_and_destruction_0ii:
 2041              	LFB1534:
 2042              		.loc 3 110 0
 2043              		.cfi_startproc
 2044 141f 55       		pushl	%ebp
 2045              		.cfi_def_cfa_offset 8
 2046              		.cfi_offset 5, -8
 2047 1420 89E5     		movl	%esp, %ebp
 2048              		.cfi_def_cfa_register 5
 2049 1422 83EC18   		subl	$24, %esp
 2050              		.loc 3 110 0
 2051 1425 837D0801 		cmpl	$1, 8(%ebp)
 2052 1429 751F     		jne	L123
 2053              		.loc 3 110 0 is_stmt 0 discriminator 1
 2054 142b 817D0CFF 		cmpl	$65535, 12(%ebp)
 2054      FF0000
 2055 1432 7516     		jne	L123
GAS LISTING C:\Users\NJLLMR~1\AppData\Local\Temp\cc3wbcxt.s 			page 55


 2056              		.loc 9 74 0 is_stmt 1
 2057 1434 B9000000 		movl	$__ZStL8__ioinit, %ecx
 2057      00
 2058 1439 E8000000 		call	__ZNSt8ios_base4InitC1Ev
 2058      00
 2059 143e C704240D 		movl	$___tcf_0, (%esp)
 2059      140000
 2060 1445 E8000000 		call	_atexit
 2060      00
 2061              	L123:
 2062              		.loc 3 110 0
 2063 144a C9       		leave
 2064              		.cfi_restore 5
 2065              		.cfi_def_cfa 4, 4
 2066 144b C3       		ret
 2067              		.cfi_endproc
 2068              	LFE1534:
 2070              	__GLOBAL__sub_I__ZN8Validate13validateInputESs:
 2071              	LFB1536:
 2072              		.loc 3 110 0
 2073              		.cfi_startproc
 2074 144c 55       		pushl	%ebp
 2075              		.cfi_def_cfa_offset 8
 2076              		.cfi_offset 5, -8
 2077 144d 89E5     		movl	%esp, %ebp
 2078              		.cfi_def_cfa_register 5
 2079 144f 83EC18   		subl	$24, %esp
 2080              		.loc 3 110 0
 2081 1452 C7442404 		movl	$65535, 4(%esp)
 2081      FFFF0000 
 2082 145a C7042401 		movl	$1, (%esp)
 2082      000000
 2083 1461 E8B9FFFF 		call	__Z41__static_initialization_and_destruction_0ii
 2083      FF
 2084 1466 C9       		leave
 2085              		.cfi_restore 5
 2086              		.cfi_def_cfa 4, 4
 2087 1467 C3       		ret
 2088              		.cfi_endproc
 2089              	LFE1536:
 2090              		.section	.ctors,"w"
 2091              		.align 4
 2092 0000 4C140000 		.long	__GLOBAL__sub_I__ZN8Validate13validateInputESs
 2093              		.text
 2094              	Letext0:
 2095              		.file 10 "C:/Program Files (x86)/CodeBlocks/MinGW/lib/gcc/mingw32/4.9.2/include/stddef.h"
 2096              		.file 11 "C:/Program Files (x86)/CodeBlocks/MinGW/include/wctype.h"
 2097              		.file 12 "C:/Program Files (x86)/CodeBlocks/MinGW/include/wchar.h"
 2098              		.file 13 "C:/Program Files (x86)/CodeBlocks/MinGW/lib/gcc/mingw32/4.9.2/include/c++/cwchar"
 2099              		.file 14 "C:/Program Files (x86)/CodeBlocks/MinGW/lib/gcc/mingw32/4.9.2/include/c++/bits/cpp_type_
 2100              		.file 15 "C:/Program Files (x86)/CodeBlocks/MinGW/lib/gcc/mingw32/4.9.2/include/c++/bits/char_trai
 2101              		.file 16 "C:/Program Files (x86)/CodeBlocks/MinGW/lib/gcc/mingw32/4.9.2/include/c++/mingw32/bits/c
 2102              		.file 17 "C:/Program Files (x86)/CodeBlocks/MinGW/lib/gcc/mingw32/4.9.2/include/c++/clocale"
 2103              		.file 18 "C:/Program Files (x86)/CodeBlocks/MinGW/lib/gcc/mingw32/4.9.2/include/c++/bits/allocator
 2104              		.file 19 "C:/Program Files (x86)/CodeBlocks/MinGW/lib/gcc/mingw32/4.9.2/include/c++/bits/basic_str
 2105              		.file 20 "C:/Program Files (x86)/CodeBlocks/MinGW/lib/gcc/mingw32/4.9.2/include/c++/bits/basic_str
 2106              		.file 21 "C:/Program Files (x86)/CodeBlocks/MinGW/lib/gcc/mingw32/4.9.2/include/c++/bits/stringfwd
GAS LISTING C:\Users\NJLLMR~1\AppData\Local\Temp\cc3wbcxt.s 			page 56


 2107              		.file 22 "C:/Program Files (x86)/CodeBlocks/MinGW/lib/gcc/mingw32/4.9.2/include/c++/cwctype"
 2108              		.file 23 "C:/Program Files (x86)/CodeBlocks/MinGW/lib/gcc/mingw32/4.9.2/include/c++/cstdio"
 2109              		.file 24 "C:/Program Files (x86)/CodeBlocks/MinGW/lib/gcc/mingw32/4.9.2/include/c++/iosfwd"
 2110              		.file 25 "<built-in>"
 2111              		.file 26 "C:/Program Files (x86)/CodeBlocks/MinGW/lib/gcc/mingw32/4.9.2/include/c++/debug/debug.h"
 2112              		.file 27 "C:/Program Files (x86)/CodeBlocks/MinGW/lib/gcc/mingw32/4.9.2/include/c++/bits/predefine
 2113              		.file 28 "C:/Program Files (x86)/CodeBlocks/MinGW/lib/gcc/mingw32/4.9.2/include/c++/ext/new_alloca
 2114              		.file 29 "C:/Program Files (x86)/CodeBlocks/MinGW/lib/gcc/mingw32/4.9.2/include/c++/ext/numeric_tr
 2115              		.file 30 "C:/Program Files (x86)/CodeBlocks/MinGW/include/locale.h"
 2116              		.file 31 "C:/Program Files (x86)/CodeBlocks/MinGW/lib/gcc/mingw32/4.9.2/include/c++/mingw32/bits/a
 2117              		.file 32 "C:/Program Files (x86)/CodeBlocks/MinGW/include/ctype.h"
 2118              		.file 33 "C:/Program Files (x86)/CodeBlocks/MinGW/include/stdio.h"
 2119              		.file 34 "include/models/Employee.h"
 2120              		.file 35 "include/Repository/Repository.h"
 2121              		.file 36 "include/services/Service.h"
 2122              		.file 37 "include/services/Validate.h"
 2123              		.section	.debug_info,"dr"
 2124              	Ldebug_info0:
 2125 0000 64560000 		.long	0x5664
 2126 0004 0400     		.word	0x4
 2127 0006 00000000 		.secrel32	Ldebug_abbrev0
 2128 000a 04       		.byte	0x4
 2129 000b 01       		.uleb128 0x1
 2130 000c 474E5520 		.ascii "GNU C++ 4.9.2 -mtune=generic -march=pentiumpro -g -fexceptions\0"
 2130      432B2B20 
 2130      342E392E 
 2130      32202D6D 
 2130      74756E65 
 2131 004b 04       		.byte	0x4
 2132 004c 433A5C55 		.ascii "C:\\Users\\Nj\341ll M\375rdal\\3viknanamskeid\\LitidVerk1\\Verkefni2\\Vikuverk2\\src\\serv
 2132      73657273 
 2132      5C4E6AE1 
 2132      6C6C204D 
 2132      FD726461 
 2133 00aa 433A5C55 		.ascii "C:\\Users\\Nj\341ll M\375rdal\\3viknanamskeid\\LitidVerk1\\Verkefni2\\Vikuverk2\0"
 2133      73657273 
 2133      5C4E6AE1 
 2133      6C6C204D 
 2133      FD726461 
 2134 00ee 90000000 		.secrel32	Ldebug_ranges0+0x90
 2135 00f2 00000000 		.long	0
 2136 00f6 00000000 		.secrel32	Ldebug_line0
 2137 00fa 02       		.uleb128 0x2
 2138 00fb 73697A65 		.ascii "size_t\0"
 2138      5F7400
 2139 0102 0A       		.byte	0xa
 2140 0103 D4       		.byte	0xd4
 2141 0104 08010000 		.long	0x108
 2142 0108 03       		.uleb128 0x3
 2143 0109 04       		.byte	0x4
 2144 010a 07       		.byte	0x7
 2145 010b 756E7369 		.ascii "unsigned int\0"
 2145      676E6564 
 2145      20696E74 
 2145      00
 2146 0118 04       		.uleb128 0x4
 2147 0119 77696E74 		.ascii "wint_t\0"
GAS LISTING C:\Users\NJLLMR~1\AppData\Local\Temp\cc3wbcxt.s 			page 57


 2147      5F7400
 2148 0120 0A       		.byte	0xa
 2149 0121 6101     		.word	0x161
 2150 0123 27010000 		.long	0x127
 2151 0127 03       		.uleb128 0x3
 2152 0128 02       		.byte	0x2
 2153 0129 07       		.byte	0x7
 2154 012a 73686F72 		.ascii "short unsigned int\0"
 2154      7420756E 
 2154      7369676E 
 2154      65642069 
 2154      6E7400
 2155 013d 05       		.uleb128 0x5
 2156 013e 04       		.byte	0x4
 2157 013f 5F5F6275 		.ascii "__builtin_va_list\0"
 2157      696C7469 
 2157      6E5F7661 
 2157      5F6C6973 
 2157      7400
 2158 0151 55010000 		.long	0x155
 2159 0155 03       		.uleb128 0x3
 2160 0156 01       		.byte	0x1
 2161 0157 06       		.byte	0x6
 2162 0158 63686172 		.ascii "char\0"
 2162      00
 2163 015d 02       		.uleb128 0x2
 2164 015e 77637479 		.ascii "wctype_t\0"
 2164      70655F74 
 2164      00
 2165 0167 0B       		.byte	0xb
 2166 0168 3E       		.byte	0x3e
 2167 0169 6D010000 		.long	0x16d
 2168 016d 03       		.uleb128 0x3
 2169 016e 02       		.byte	0x2
 2170 016f 07       		.byte	0x7
 2171 0170 77636861 		.ascii "wchar_t\0"
 2171      725F7400 
 2172 0178 02       		.uleb128 0x2
 2173 0179 77637472 		.ascii "wctrans_t\0"
 2173      616E735F 
 2173      7400
 2174 0183 0B       		.byte	0xb
 2175 0184 94       		.byte	0x94
 2176 0185 6D010000 		.long	0x16d
 2177 0189 03       		.uleb128 0x3
 2178 018a 04       		.byte	0x4
 2179 018b 05       		.byte	0x5
 2180 018c 696E7400 		.ascii "int\0"
 2181 0190 03       		.uleb128 0x3
 2182 0191 04       		.byte	0x4
 2183 0192 05       		.byte	0x5
 2184 0193 6C6F6E67 		.ascii "long int\0"
 2184      20696E74 
 2184      00
 2185 019c 03       		.uleb128 0x3
 2186 019d 08       		.byte	0x8
 2187 019e 05       		.byte	0x5
GAS LISTING C:\Users\NJLLMR~1\AppData\Local\Temp\cc3wbcxt.s 			page 58


 2188 019f 6C6F6E67 		.ascii "long long int\0"
 2188      206C6F6E 
 2188      6720696E 
 2188      7400
 2189 01ad 03       		.uleb128 0x3
 2190 01ae 02       		.byte	0x2
 2191 01af 05       		.byte	0x5
 2192 01b0 73686F72 		.ascii "short int\0"
 2192      7420696E 
 2192      7400
 2193 01ba 06       		.uleb128 0x6
 2194 01bb 5F696F62 		.ascii "_iobuf\0"
 2194      756600
 2195 01c2 20       		.byte	0x20
 2196 01c3 0C       		.byte	0xc
 2197 01c4 44       		.byte	0x44
 2198 01c5 41020000 		.long	0x241
 2199 01c9 07       		.uleb128 0x7
 2200 01ca 5F707472 		.ascii "_ptr\0"
 2200      00
 2201 01cf 0C       		.byte	0xc
 2202 01d0 46       		.byte	0x46
 2203 01d1 41020000 		.long	0x241
 2204 01d5 00       		.byte	0
 2205 01d6 07       		.uleb128 0x7
 2206 01d7 5F636E74 		.ascii "_cnt\0"
 2206      00
 2207 01dc 0C       		.byte	0xc
 2208 01dd 47       		.byte	0x47
 2209 01de 89010000 		.long	0x189
 2210 01e2 04       		.byte	0x4
 2211 01e3 07       		.uleb128 0x7
 2212 01e4 5F626173 		.ascii "_base\0"
 2212      6500
 2213 01ea 0C       		.byte	0xc
 2214 01eb 48       		.byte	0x48
 2215 01ec 41020000 		.long	0x241
 2216 01f0 08       		.byte	0x8
 2217 01f1 07       		.uleb128 0x7
 2218 01f2 5F666C61 		.ascii "_flag\0"
 2218      6700
 2219 01f8 0C       		.byte	0xc
 2220 01f9 49       		.byte	0x49
 2221 01fa 89010000 		.long	0x189
 2222 01fe 0C       		.byte	0xc
 2223 01ff 07       		.uleb128 0x7
 2224 0200 5F66696C 		.ascii "_file\0"
 2224      6500
 2225 0206 0C       		.byte	0xc
 2226 0207 4A       		.byte	0x4a
 2227 0208 89010000 		.long	0x189
 2228 020c 10       		.byte	0x10
 2229 020d 07       		.uleb128 0x7
 2230 020e 5F636861 		.ascii "_charbuf\0"
 2230      72627566 
 2230      00
 2231 0217 0C       		.byte	0xc
GAS LISTING C:\Users\NJLLMR~1\AppData\Local\Temp\cc3wbcxt.s 			page 59


 2232 0218 4B       		.byte	0x4b
 2233 0219 89010000 		.long	0x189
 2234 021d 14       		.byte	0x14
 2235 021e 07       		.uleb128 0x7
 2236 021f 5F627566 		.ascii "_bufsiz\0"
 2236      73697A00 
 2237 0227 0C       		.byte	0xc
 2238 0228 4C       		.byte	0x4c
 2239 0229 89010000 		.long	0x189
 2240 022d 18       		.byte	0x18
 2241 022e 07       		.uleb128 0x7
 2242 022f 5F746D70 		.ascii "_tmpfname\0"
 2242      666E616D 
 2242      6500
 2243 0239 0C       		.byte	0xc
 2244 023a 4D       		.byte	0x4d
 2245 023b 41020000 		.long	0x241
 2246 023f 1C       		.byte	0x1c
 2247 0240 00       		.byte	0
 2248 0241 08       		.uleb128 0x8
 2249 0242 04       		.byte	0x4
 2250 0243 55010000 		.long	0x155
 2251 0247 02       		.uleb128 0x2
 2252 0248 46494C45 		.ascii "FILE\0"
 2252      00
 2253 024d 0C       		.byte	0xc
 2254 024e 4E       		.byte	0x4e
 2255 024f BA010000 		.long	0x1ba
 2256 0253 06       		.uleb128 0x6
 2257 0254 746D00   		.ascii "tm\0"
 2258 0257 24       		.byte	0x24
 2259 0258 0C       		.byte	0xc
 2260 0259 57       		.byte	0x57
 2261 025a ED020000 		.long	0x2ed
 2262 025e 07       		.uleb128 0x7
 2263 025f 746D5F73 		.ascii "tm_sec\0"
 2263      656300
 2264 0266 0C       		.byte	0xc
 2265 0267 58       		.byte	0x58
 2266 0268 89010000 		.long	0x189
 2267 026c 00       		.byte	0
 2268 026d 07       		.uleb128 0x7
 2269 026e 746D5F6D 		.ascii "tm_min\0"
 2269      696E00
 2270 0275 0C       		.byte	0xc
 2271 0276 59       		.byte	0x59
 2272 0277 89010000 		.long	0x189
 2273 027b 04       		.byte	0x4
 2274 027c 07       		.uleb128 0x7
 2275 027d 746D5F68 		.ascii "tm_hour\0"
 2275      6F757200 
 2276 0285 0C       		.byte	0xc
 2277 0286 5A       		.byte	0x5a
 2278 0287 89010000 		.long	0x189
 2279 028b 08       		.byte	0x8
 2280 028c 07       		.uleb128 0x7
 2281 028d 746D5F6D 		.ascii "tm_mday\0"
GAS LISTING C:\Users\NJLLMR~1\AppData\Local\Temp\cc3wbcxt.s 			page 60


 2281      64617900 
 2282 0295 0C       		.byte	0xc
 2283 0296 5B       		.byte	0x5b
 2284 0297 89010000 		.long	0x189
 2285 029b 0C       		.byte	0xc
 2286 029c 07       		.uleb128 0x7
 2287 029d 746D5F6D 		.ascii "tm_mon\0"
 2287      6F6E00
 2288 02a4 0C       		.byte	0xc
 2289 02a5 5C       		.byte	0x5c
 2290 02a6 89010000 		.long	0x189
 2291 02aa 10       		.byte	0x10
 2292 02ab 07       		.uleb128 0x7
 2293 02ac 746D5F79 		.ascii "tm_year\0"
 2293      65617200 
 2294 02b4 0C       		.byte	0xc
 2295 02b5 5D       		.byte	0x5d
 2296 02b6 89010000 		.long	0x189
 2297 02ba 14       		.byte	0x14
 2298 02bb 07       		.uleb128 0x7
 2299 02bc 746D5F77 		.ascii "tm_wday\0"
 2299      64617900 
 2300 02c4 0C       		.byte	0xc
 2301 02c5 5E       		.byte	0x5e
 2302 02c6 89010000 		.long	0x189
 2303 02ca 18       		.byte	0x18
 2304 02cb 07       		.uleb128 0x7
 2305 02cc 746D5F79 		.ascii "tm_yday\0"
 2305      64617900 
 2306 02d4 0C       		.byte	0xc
 2307 02d5 5F       		.byte	0x5f
 2308 02d6 89010000 		.long	0x189
 2309 02da 1C       		.byte	0x1c
 2310 02db 07       		.uleb128 0x7
 2311 02dc 746D5F69 		.ascii "tm_isdst\0"
 2311      73647374 
 2311      00
 2312 02e5 0C       		.byte	0xc
 2313 02e6 60       		.byte	0x60
 2314 02e7 89010000 		.long	0x189
 2315 02eb 20       		.byte	0x20
 2316 02ec 00       		.byte	0
 2317 02ed 04       		.uleb128 0x4
 2318 02ee 6D627374 		.ascii "mbstate_t\0"
 2318      6174655F 
 2318      7400
 2319 02f8 0C       		.byte	0xc
 2320 02f9 2701     		.word	0x127
 2321 02fb 89010000 		.long	0x189
 2322 02ff 03       		.uleb128 0x3
 2323 0300 04       		.byte	0x4
 2324 0301 07       		.byte	0x7
 2325 0302 6C6F6E67 		.ascii "long unsigned int\0"
 2325      20756E73 
 2325      69676E65 
 2325      6420696E 
 2325      7400
GAS LISTING C:\Users\NJLLMR~1\AppData\Local\Temp\cc3wbcxt.s 			page 61


 2326 0314 03       		.uleb128 0x3
 2327 0315 04       		.byte	0x4
 2328 0316 07       		.byte	0x7
 2329 0317 73697A65 		.ascii "sizetype\0"
 2329      74797065 
 2329      00
 2330 0320 03       		.uleb128 0x3
 2331 0321 01       		.byte	0x1
 2332 0322 06       		.byte	0x6
 2333 0323 7369676E 		.ascii "signed char\0"
 2333      65642063 
 2333      68617200 
 2334 032f 03       		.uleb128 0x3
 2335 0330 01       		.byte	0x1
 2336 0331 08       		.byte	0x8
 2337 0332 756E7369 		.ascii "unsigned char\0"
 2337      676E6564 
 2337      20636861 
 2337      7200
 2338 0340 03       		.uleb128 0x3
 2339 0341 08       		.byte	0x8
 2340 0342 07       		.byte	0x7
 2341 0343 6C6F6E67 		.ascii "long long unsigned int\0"
 2341      206C6F6E 
 2341      6720756E 
 2341      7369676E 
 2341      65642069 
 2342 035a 09       		.uleb128 0x9
 2343 035b 73746400 		.ascii "std\0"
 2344 035f 19       		.byte	0x19
 2345 0360 00       		.byte	0
 2346 0361 E9360000 		.long	0x36e9
 2347 0365 0A       		.uleb128 0xa
 2348 0366 0D       		.byte	0xd
 2349 0367 40       		.byte	0x40
 2350 0368 ED020000 		.long	0x2ed
 2351 036c 0A       		.uleb128 0xa
 2352 036d 0D       		.byte	0xd
 2353 036e 8B       		.byte	0x8b
 2354 036f 18010000 		.long	0x118
 2355 0373 0A       		.uleb128 0xa
 2356 0374 0D       		.byte	0xd
 2357 0375 8D       		.byte	0x8d
 2358 0376 E9360000 		.long	0x36e9
 2359 037a 0A       		.uleb128 0xa
 2360 037b 0D       		.byte	0xd
 2361 037c 8E       		.byte	0x8e
 2362 037d 01370000 		.long	0x3701
 2363 0381 0A       		.uleb128 0xa
 2364 0382 0D       		.byte	0xd
 2365 0383 8F       		.byte	0x8f
 2366 0384 1F370000 		.long	0x371f
 2367 0388 0A       		.uleb128 0xa
 2368 0389 0D       		.byte	0xd
 2369 038a 90       		.byte	0x90
 2370 038b 47370000 		.long	0x3747
 2371 038f 0A       		.uleb128 0xa
GAS LISTING C:\Users\NJLLMR~1\AppData\Local\Temp\cc3wbcxt.s 			page 62


 2372 0390 0D       		.byte	0xd
 2373 0391 91       		.byte	0x91
 2374 0392 64370000 		.long	0x3764
 2375 0396 0A       		.uleb128 0xa
 2376 0397 0D       		.byte	0xd
 2377 0398 92       		.byte	0x92
 2378 0399 8C370000 		.long	0x378c
 2379 039d 0A       		.uleb128 0xa
 2380 039e 0D       		.byte	0xd
 2381 039f 93       		.byte	0x93
 2382 03a0 A9370000 		.long	0x37a9
 2383 03a4 0A       		.uleb128 0xa
 2384 03a5 0D       		.byte	0xd
 2385 03a6 94       		.byte	0x94
 2386 03a7 C9370000 		.long	0x37c9
 2387 03ab 0A       		.uleb128 0xa
 2388 03ac 0D       		.byte	0xd
 2389 03ad 95       		.byte	0x95
 2390 03ae E8370000 		.long	0x37e8
 2391 03b2 0A       		.uleb128 0xa
 2392 03b3 0D       		.byte	0xd
 2393 03b4 96       		.byte	0x96
 2394 03b5 FF370000 		.long	0x37ff
 2395 03b9 0A       		.uleb128 0xa
 2396 03ba 0D       		.byte	0xd
 2397 03bb 97       		.byte	0x97
 2398 03bc 0F380000 		.long	0x380f
 2399 03c0 0A       		.uleb128 0xa
 2400 03c1 0D       		.byte	0xd
 2401 03c2 98       		.byte	0x98
 2402 03c3 43380000 		.long	0x3843
 2403 03c7 0A       		.uleb128 0xa
 2404 03c8 0D       		.byte	0xd
 2405 03c9 99       		.byte	0x99
 2406 03ca 6C380000 		.long	0x386c
 2407 03ce 0A       		.uleb128 0xa
 2408 03cf 0D       		.byte	0xd
 2409 03d0 9A       		.byte	0x9a
 2410 03d1 91380000 		.long	0x3891
 2411 03d5 0A       		.uleb128 0xa
 2412 03d6 0D       		.byte	0xd
 2413 03d7 9B       		.byte	0x9b
 2414 03d8 C2380000 		.long	0x38c2
 2415 03dc 0A       		.uleb128 0xa
 2416 03dd 0D       		.byte	0xd
 2417 03de 9C       		.byte	0x9c
 2418 03df DE380000 		.long	0x38de
 2419 03e3 0A       		.uleb128 0xa
 2420 03e4 0D       		.byte	0xd
 2421 03e5 A0       		.byte	0xa0
 2422 03e6 F8380000 		.long	0x38f8
 2423 03ea 0A       		.uleb128 0xa
 2424 03eb 0D       		.byte	0xd
 2425 03ec A1       		.byte	0xa1
 2426 03ed 17390000 		.long	0x3917
 2427 03f1 0A       		.uleb128 0xa
 2428 03f2 0D       		.byte	0xd
GAS LISTING C:\Users\NJLLMR~1\AppData\Local\Temp\cc3wbcxt.s 			page 63


 2429 03f3 A2       		.byte	0xa2
 2430 03f4 35390000 		.long	0x3935
 2431 03f8 0A       		.uleb128 0xa
 2432 03f9 0D       		.byte	0xd
 2433 03fa A4       		.byte	0xa4
 2434 03fb 5A390000 		.long	0x395a
 2435 03ff 0A       		.uleb128 0xa
 2436 0400 0D       		.byte	0xd
 2437 0401 AA       		.byte	0xaa
 2438 0402 7E390000 		.long	0x397e
 2439 0406 0A       		.uleb128 0xa
 2440 0407 0D       		.byte	0xd
 2441 0408 AC       		.byte	0xac
 2442 0409 A2390000 		.long	0x39a2
 2443 040d 0A       		.uleb128 0xa
 2444 040e 0D       		.byte	0xd
 2445 040f AE       		.byte	0xae
 2446 0410 C1390000 		.long	0x39c1
 2447 0414 0A       		.uleb128 0xa
 2448 0415 0D       		.byte	0xd
 2449 0416 B0       		.byte	0xb0
 2450 0417 DF390000 		.long	0x39df
 2451 041b 0A       		.uleb128 0xa
 2452 041c 0D       		.byte	0xd
 2453 041d B1       		.byte	0xb1
 2454 041e 033A0000 		.long	0x3a03
 2455 0422 0A       		.uleb128 0xa
 2456 0423 0D       		.byte	0xd
 2457 0424 B2       		.byte	0xb2
 2458 0425 203A0000 		.long	0x3a20
 2459 0429 0A       		.uleb128 0xa
 2460 042a 0D       		.byte	0xd
 2461 042b B3       		.byte	0xb3
 2462 042c 3D3A0000 		.long	0x3a3d
 2463 0430 0A       		.uleb128 0xa
 2464 0431 0D       		.byte	0xd
 2465 0432 B4       		.byte	0xb4
 2466 0433 5B3A0000 		.long	0x3a5b
 2467 0437 0A       		.uleb128 0xa
 2468 0438 0D       		.byte	0xd
 2469 0439 B5       		.byte	0xb5
 2470 043a 783A0000 		.long	0x3a78
 2471 043e 0A       		.uleb128 0xa
 2472 043f 0D       		.byte	0xd
 2473 0440 B6       		.byte	0xb6
 2474 0441 963A0000 		.long	0x3a96
 2475 0445 0A       		.uleb128 0xa
 2476 0446 0D       		.byte	0xd
 2477 0447 B7       		.byte	0xb7
 2478 0448 CA3A0000 		.long	0x3aca
 2479 044c 0A       		.uleb128 0xa
 2480 044d 0D       		.byte	0xd
 2481 044e B8       		.byte	0xb8
 2482 044f E23A0000 		.long	0x3ae2
 2483 0453 0A       		.uleb128 0xa
 2484 0454 0D       		.byte	0xd
 2485 0455 B9       		.byte	0xb9
GAS LISTING C:\Users\NJLLMR~1\AppData\Local\Temp\cc3wbcxt.s 			page 64


 2486 0456 053B0000 		.long	0x3b05
 2487 045a 0A       		.uleb128 0xa
 2488 045b 0D       		.byte	0xd
 2489 045c BA       		.byte	0xba
 2490 045d 283B0000 		.long	0x3b28
 2491 0461 0A       		.uleb128 0xa
 2492 0462 0D       		.byte	0xd
 2493 0463 BB       		.byte	0xbb
 2494 0464 4B3B0000 		.long	0x3b4b
 2495 0468 0A       		.uleb128 0xa
 2496 0469 0D       		.byte	0xd
 2497 046a BC       		.byte	0xbc
 2498 046b 7C3B0000 		.long	0x3b7c
 2499 046f 0A       		.uleb128 0xa
 2500 0470 0D       		.byte	0xd
 2501 0471 BD       		.byte	0xbd
 2502 0472 993B0000 		.long	0x3b99
 2503 0476 0A       		.uleb128 0xa
 2504 0477 0D       		.byte	0xd
 2505 0478 BF       		.byte	0xbf
 2506 0479 C63B0000 		.long	0x3bc6
 2507 047d 0A       		.uleb128 0xa
 2508 047e 0D       		.byte	0xd
 2509 047f C1       		.byte	0xc1
 2510 0480 EC3B0000 		.long	0x3bec
 2511 0484 0A       		.uleb128 0xa
 2512 0485 0D       		.byte	0xd
 2513 0486 C2       		.byte	0xc2
 2514 0487 093C0000 		.long	0x3c09
 2515 048b 0A       		.uleb128 0xa
 2516 048c 0D       		.byte	0xd
 2517 048d C3       		.byte	0xc3
 2518 048e 2B3C0000 		.long	0x3c2b
 2519 0492 0A       		.uleb128 0xa
 2520 0493 0D       		.byte	0xd
 2521 0494 C4       		.byte	0xc4
 2522 0495 4E3C0000 		.long	0x3c4e
 2523 0499 0A       		.uleb128 0xa
 2524 049a 0D       		.byte	0xd
 2525 049b C5       		.byte	0xc5
 2526 049c 713C0000 		.long	0x3c71
 2527 04a0 0A       		.uleb128 0xa
 2528 04a1 0D       		.byte	0xd
 2529 04a2 C6       		.byte	0xc6
 2530 04a3 893C0000 		.long	0x3c89
 2531 04a7 0A       		.uleb128 0xa
 2532 04a8 0D       		.byte	0xd
 2533 04a9 C7       		.byte	0xc7
 2534 04aa AD3C0000 		.long	0x3cad
 2535 04ae 0A       		.uleb128 0xa
 2536 04af 0D       		.byte	0xd
 2537 04b0 C8       		.byte	0xc8
 2538 04b1 D13C0000 		.long	0x3cd1
 2539 04b5 0A       		.uleb128 0xa
 2540 04b6 0D       		.byte	0xd
 2541 04b7 C9       		.byte	0xc9
 2542 04b8 F63C0000 		.long	0x3cf6
GAS LISTING C:\Users\NJLLMR~1\AppData\Local\Temp\cc3wbcxt.s 			page 65


 2543 04bc 0A       		.uleb128 0xa
 2544 04bd 0D       		.byte	0xd
 2545 04be CA       		.byte	0xca
 2546 04bf 1A3D0000 		.long	0x3d1a
 2547 04c3 0A       		.uleb128 0xa
 2548 04c4 0D       		.byte	0xd
 2549 04c5 CB       		.byte	0xcb
 2550 04c6 343D0000 		.long	0x3d34
 2551 04ca 0A       		.uleb128 0xa
 2552 04cb 0D       		.byte	0xd
 2553 04cc CC       		.byte	0xcc
 2554 04cd 4D3D0000 		.long	0x3d4d
 2555 04d1 0A       		.uleb128 0xa
 2556 04d2 0D       		.byte	0xd
 2557 04d3 CD       		.byte	0xcd
 2558 04d4 6A3D0000 		.long	0x3d6a
 2559 04d8 0A       		.uleb128 0xa
 2560 04d9 0D       		.byte	0xd
 2561 04da CE       		.byte	0xce
 2562 04db 883D0000 		.long	0x3d88
 2563 04df 0A       		.uleb128 0xa
 2564 04e0 0D       		.byte	0xd
 2565 04e1 CF       		.byte	0xcf
 2566 04e2 A63D0000 		.long	0x3da6
 2567 04e6 0A       		.uleb128 0xa
 2568 04e7 0D       		.byte	0xd
 2569 04e8 D0       		.byte	0xd0
 2570 04e9 C33D0000 		.long	0x3dc3
 2571 04ed 0B       		.uleb128 0xb
 2572 04ee 0D       		.byte	0xd
 2573 04ef 0801     		.word	0x108
 2574 04f1 73430000 		.long	0x4373
 2575 04f5 0B       		.uleb128 0xb
 2576 04f6 0D       		.byte	0xd
 2577 04f7 0901     		.word	0x109
 2578 04f9 A0430000 		.long	0x43a0
 2579 04fd 0B       		.uleb128 0xb
 2580 04fe 0D       		.byte	0xd
 2581 04ff 0A01     		.word	0x10a
 2582 0501 C4430000 		.long	0x43c4
 2583 0505 06       		.uleb128 0x6
 2584 0506 5F5F6973 		.ascii "__is_integer<int>\0"
 2584      5F696E74 
 2584      65676572 
 2584      3C696E74 
 2584      3E00
 2585 0518 01       		.byte	0x1
 2586 0519 0E       		.byte	0xe
 2587 051a D5       		.byte	0xd5
 2588 051b 2B050000 		.long	0x52b
 2589 051f 0C       		.uleb128 0xc
 2590 0520 04       		.byte	0x4
 2591 0521 0E       		.byte	0xe
 2592 0522 D7       		.byte	0xd7
 2593 0523 0D       		.uleb128 0xd
 2594 0524 92010000 		.secrel32	LASF22
 2595 0528 01       		.sleb128 1
GAS LISTING C:\Users\NJLLMR~1\AppData\Local\Temp\cc3wbcxt.s 			page 66


 2596 0529 00       		.byte	0
 2597 052a 00       		.byte	0
 2598 052b 0E       		.uleb128 0xe
 2599 052c 5F5F6465 		.ascii "__debug\0"
 2599      62756700 
 2600 0534 1A       		.byte	0x1a
 2601 0535 30       		.byte	0x30
 2602 0536 06       		.uleb128 0x6
 2603 0537 63686172 		.ascii "char_traits<char>\0"
 2603      5F747261 
 2603      6974733C 
 2603      63686172 
 2603      3E00
 2604 0549 01       		.byte	0x1
 2605 054a 0F       		.byte	0xf
 2606 054b E9       		.byte	0xe9
 2607 054c ED080000 		.long	0x8ed
 2608 0550 02       		.uleb128 0x2
 2609 0551 63686172 		.ascii "char_type\0"
 2609      5F747970 
 2609      6500
 2610 055b 0F       		.byte	0xf
 2611 055c EB       		.byte	0xeb
 2612 055d 55010000 		.long	0x155
 2613 0561 02       		.uleb128 0x2
 2614 0562 696E745F 		.ascii "int_type\0"
 2614      74797065 
 2614      00
 2615 056b 0F       		.byte	0xf
 2616 056c EC       		.byte	0xec
 2617 056d 89010000 		.long	0x189
 2618 0571 0F       		.uleb128 0xf
 2619 0572 A2010000 		.secrel32	LASF1
 2620 0576 0F       		.byte	0xf
 2621 0577 F2       		.byte	0xf2
 2622 0578 5F5A4E53 		.ascii "_ZNSt11char_traitsIcE6assignERcRKc\0"
 2622      74313163 
 2622      6861725F 
 2622      74726169 
 2622      74734963 
 2623 059b AA050000 		.long	0x5aa
 2624 059f 10       		.uleb128 0x10
 2625 05a0 04440000 		.long	0x4404
 2626 05a4 10       		.uleb128 0x10
 2627 05a5 0A440000 		.long	0x440a
 2628 05a9 00       		.byte	0
 2629 05aa 11       		.uleb128 0x11
 2630 05ab 50050000 		.long	0x550
 2631 05af 12       		.uleb128 0x12
 2632 05b0 657100   		.ascii "eq\0"
 2633 05b3 0F       		.byte	0xf
 2634 05b4 F6       		.byte	0xf6
 2635 05b5 5F5A4E53 		.ascii "_ZNSt11char_traitsIcE2eqERKcS2_\0"
 2635      74313163 
 2635      6861725F 
 2635      74726169 
 2635      74734963 
GAS LISTING C:\Users\NJLLMR~1\AppData\Local\Temp\cc3wbcxt.s 			page 67


 2636 05d5 10440000 		.long	0x4410
 2637 05d9 E8050000 		.long	0x5e8
 2638 05dd 10       		.uleb128 0x10
 2639 05de 0A440000 		.long	0x440a
 2640 05e2 10       		.uleb128 0x10
 2641 05e3 0A440000 		.long	0x440a
 2642 05e7 00       		.byte	0
 2643 05e8 12       		.uleb128 0x12
 2644 05e9 6C7400   		.ascii "lt\0"
 2645 05ec 0F       		.byte	0xf
 2646 05ed FA       		.byte	0xfa
 2647 05ee 5F5A4E53 		.ascii "_ZNSt11char_traitsIcE2ltERKcS2_\0"
 2647      74313163 
 2647      6861725F 
 2647      74726169 
 2647      74734963 
 2648 060e 10440000 		.long	0x4410
 2649 0612 21060000 		.long	0x621
 2650 0616 10       		.uleb128 0x10
 2651 0617 0A440000 		.long	0x440a
 2652 061b 10       		.uleb128 0x10
 2653 061c 0A440000 		.long	0x440a
 2654 0620 00       		.byte	0
 2655 0621 13       		.uleb128 0x13
 2656 0622 9A010000 		.secrel32	LASF0
 2657 0626 0F       		.byte	0xf
 2658 0627 0201     		.word	0x102
 2659 0629 5F5A4E53 		.ascii "_ZNSt11char_traitsIcE7compareEPKcS2_j\0"
 2659      74313163 
 2659      6861725F 
 2659      74726169 
 2659      74734963 
 2660 064f 89010000 		.long	0x189
 2661 0653 67060000 		.long	0x667
 2662 0657 10       		.uleb128 0x10
 2663 0658 18440000 		.long	0x4418
 2664 065c 10       		.uleb128 0x10
 2665 065d 18440000 		.long	0x4418
 2666 0661 10       		.uleb128 0x10
 2667 0662 ED080000 		.long	0x8ed
 2668 0666 00       		.byte	0
 2669 0667 14       		.uleb128 0x14
 2670 0668 6C656E67 		.ascii "length\0"
 2670      746800
 2671 066f 0F       		.byte	0xf
 2672 0670 0601     		.word	0x106
 2673 0672 5F5A4E53 		.ascii "_ZNSt11char_traitsIcE6lengthEPKc\0"
 2673      74313163 
 2673      6861725F 
 2673      74726169 
 2673      74734963 
 2674 0693 ED080000 		.long	0x8ed
 2675 0697 A1060000 		.long	0x6a1
 2676 069b 10       		.uleb128 0x10
 2677 069c 18440000 		.long	0x4418
 2678 06a0 00       		.byte	0
 2679 06a1 14       		.uleb128 0x14
GAS LISTING C:\Users\NJLLMR~1\AppData\Local\Temp\cc3wbcxt.s 			page 68


 2680 06a2 66696E64 		.ascii "find\0"
 2680      00
 2681 06a7 0F       		.byte	0xf
 2682 06a8 0A01     		.word	0x10a
 2683 06aa 5F5A4E53 		.ascii "_ZNSt11char_traitsIcE4findEPKcjRS1_\0"
 2683      74313163 
 2683      6861725F 
 2683      74726169 
 2683      74734963 
 2684 06ce 18440000 		.long	0x4418
 2685 06d2 E6060000 		.long	0x6e6
 2686 06d6 10       		.uleb128 0x10
 2687 06d7 18440000 		.long	0x4418
 2688 06db 10       		.uleb128 0x10
 2689 06dc ED080000 		.long	0x8ed
 2690 06e0 10       		.uleb128 0x10
 2691 06e1 0A440000 		.long	0x440a
 2692 06e5 00       		.byte	0
 2693 06e6 14       		.uleb128 0x14
 2694 06e7 6D6F7665 		.ascii "move\0"
 2694      00
 2695 06ec 0F       		.byte	0xf
 2696 06ed 0E01     		.word	0x10e
 2697 06ef 5F5A4E53 		.ascii "_ZNSt11char_traitsIcE4moveEPcPKcj\0"
 2697      74313163 
 2697      6861725F 
 2697      74726169 
 2697      74734963 
 2698 0711 1E440000 		.long	0x441e
 2699 0715 29070000 		.long	0x729
 2700 0719 10       		.uleb128 0x10
 2701 071a 1E440000 		.long	0x441e
 2702 071e 10       		.uleb128 0x10
 2703 071f 18440000 		.long	0x4418
 2704 0723 10       		.uleb128 0x10
 2705 0724 ED080000 		.long	0x8ed
 2706 0728 00       		.byte	0
 2707 0729 14       		.uleb128 0x14
 2708 072a 636F7079 		.ascii "copy\0"
 2708      00
 2709 072f 0F       		.byte	0xf
 2710 0730 1201     		.word	0x112
 2711 0732 5F5A4E53 		.ascii "_ZNSt11char_traitsIcE4copyEPcPKcj\0"
 2711      74313163 
 2711      6861725F 
 2711      74726169 
 2711      74734963 
 2712 0754 1E440000 		.long	0x441e
 2713 0758 6C070000 		.long	0x76c
 2714 075c 10       		.uleb128 0x10
 2715 075d 1E440000 		.long	0x441e
 2716 0761 10       		.uleb128 0x10
 2717 0762 18440000 		.long	0x4418
 2718 0766 10       		.uleb128 0x10
 2719 0767 ED080000 		.long	0x8ed
 2720 076b 00       		.byte	0
 2721 076c 13       		.uleb128 0x13
GAS LISTING C:\Users\NJLLMR~1\AppData\Local\Temp\cc3wbcxt.s 			page 69


 2722 076d A2010000 		.secrel32	LASF1
 2723 0771 0F       		.byte	0xf
 2724 0772 1601     		.word	0x116
 2725 0774 5F5A4E53 		.ascii "_ZNSt11char_traitsIcE6assignEPcjc\0"
 2725      74313163 
 2725      6861725F 
 2725      74726169 
 2725      74734963 
 2726 0796 1E440000 		.long	0x441e
 2727 079a AE070000 		.long	0x7ae
 2728 079e 10       		.uleb128 0x10
 2729 079f 1E440000 		.long	0x441e
 2730 07a3 10       		.uleb128 0x10
 2731 07a4 ED080000 		.long	0x8ed
 2732 07a8 10       		.uleb128 0x10
 2733 07a9 50050000 		.long	0x550
 2734 07ad 00       		.byte	0
 2735 07ae 14       		.uleb128 0x14
 2736 07af 746F5F63 		.ascii "to_char_type\0"
 2736      6861725F 
 2736      74797065 
 2736      00
 2737 07bc 0F       		.byte	0xf
 2738 07bd 1A01     		.word	0x11a
 2739 07bf 5F5A4E53 		.ascii "_ZNSt11char_traitsIcE12to_char_typeERKi\0"
 2739      74313163 
 2739      6861725F 
 2739      74726169 
 2739      74734963 
 2740 07e7 50050000 		.long	0x550
 2741 07eb F5070000 		.long	0x7f5
 2742 07ef 10       		.uleb128 0x10
 2743 07f0 24440000 		.long	0x4424
 2744 07f4 00       		.byte	0
 2745 07f5 11       		.uleb128 0x11
 2746 07f6 61050000 		.long	0x561
 2747 07fa 14       		.uleb128 0x14
 2748 07fb 746F5F69 		.ascii "to_int_type\0"
 2748      6E745F74 
 2748      79706500 
 2749 0807 0F       		.byte	0xf
 2750 0808 2001     		.word	0x120
 2751 080a 5F5A4E53 		.ascii "_ZNSt11char_traitsIcE11to_int_typeERKc\0"
 2751      74313163 
 2751      6861725F 
 2751      74726169 
 2751      74734963 
 2752 0831 61050000 		.long	0x561
 2753 0835 3F080000 		.long	0x83f
 2754 0839 10       		.uleb128 0x10
 2755 083a 0A440000 		.long	0x440a
 2756 083e 00       		.byte	0
 2757 083f 14       		.uleb128 0x14
 2758 0840 65715F69 		.ascii "eq_int_type\0"
 2758      6E745F74 
 2758      79706500 
 2759 084c 0F       		.byte	0xf
GAS LISTING C:\Users\NJLLMR~1\AppData\Local\Temp\cc3wbcxt.s 			page 70


 2760 084d 2401     		.word	0x124
 2761 084f 5F5A4E53 		.ascii "_ZNSt11char_traitsIcE11eq_int_typeERKiS2_\0"
 2761      74313163 
 2761      6861725F 
 2761      74726169 
 2761      74734963 
 2762 0879 10440000 		.long	0x4410
 2763 087d 8C080000 		.long	0x88c
 2764 0881 10       		.uleb128 0x10
 2765 0882 24440000 		.long	0x4424
 2766 0886 10       		.uleb128 0x10
 2767 0887 24440000 		.long	0x4424
 2768 088b 00       		.byte	0
 2769 088c 15       		.uleb128 0x15
 2770 088d 656F6600 		.ascii "eof\0"
 2771 0891 0F       		.byte	0xf
 2772 0892 2801     		.word	0x128
 2773 0894 5F5A4E53 		.ascii "_ZNSt11char_traitsIcE3eofEv\0"
 2773      74313163 
 2773      6861725F 
 2773      74726169 
 2773      74734963 
 2774 08b0 61050000 		.long	0x561
 2775 08b4 16       		.uleb128 0x16
 2776 08b5 6E6F745F 		.ascii "not_eof\0"
 2776      656F6600 
 2777 08bd 0F       		.byte	0xf
 2778 08be 2C01     		.word	0x12c
 2779 08c0 5F5A4E53 		.ascii "_ZNSt11char_traitsIcE7not_eofERKi\0"
 2779      74313163 
 2779      6861725F 
 2779      74726169 
 2779      74734963 
 2780 08e2 61050000 		.long	0x561
 2781 08e6 10       		.uleb128 0x10
 2782 08e7 24440000 		.long	0x4424
 2783 08eb 00       		.byte	0
 2784 08ec 00       		.byte	0
 2785 08ed 02       		.uleb128 0x2
 2786 08ee 73697A65 		.ascii "size_t\0"
 2786      5F7400
 2787 08f5 10       		.byte	0x10
 2788 08f6 BC       		.byte	0xbc
 2789 08f7 08010000 		.long	0x108
 2790 08fb 0A       		.uleb128 0xa
 2791 08fc 11       		.byte	0x11
 2792 08fd 35       		.byte	0x35
 2793 08fe 2A440000 		.long	0x442a
 2794 0902 0A       		.uleb128 0xa
 2795 0903 11       		.byte	0x11
 2796 0904 36       		.byte	0x36
 2797 0905 C9450000 		.long	0x45c9
 2798 0909 0A       		.uleb128 0xa
 2799 090a 11       		.byte	0x11
 2800 090b 37       		.byte	0x37
 2801 090c E9450000 		.long	0x45e9
 2802 0910 02       		.uleb128 0x2
GAS LISTING C:\Users\NJLLMR~1\AppData\Local\Temp\cc3wbcxt.s 			page 71


 2803 0911 70747264 		.ascii "ptrdiff_t\0"
 2803      6966665F 
 2803      7400
 2804 091b 10       		.byte	0x10
 2805 091c BD       		.byte	0xbd
 2806 091d 89010000 		.long	0x189
 2807 0921 17       		.uleb128 0x17
 2808 0922 616C6C6F 		.ascii "allocator<char>\0"
 2808      6361746F 
 2808      723C6368 
 2808      61723E00 
 2809 0932 01       		.byte	0x1
 2810 0933 12       		.byte	0x12
 2811 0934 5C       		.byte	0x5c
 2812 0935 B4090000 		.long	0x9b4
 2813 0939 18       		.uleb128 0x18
 2814 093a 263E0000 		.long	0x3e26
 2815 093e 00       		.byte	0
 2816 093f 01       		.byte	0x1
 2817 0940 19       		.uleb128 0x19
 2818 0941 6A010000 		.secrel32	LASF2
 2819 0945 12       		.byte	0x12
 2820 0946 5F       		.byte	0x5f
 2821 0947 ED080000 		.long	0x8ed
 2822 094b 01       		.byte	0x1
 2823 094c 19       		.uleb128 0x19
 2824 094d 18000000 		.secrel32	LASF3
 2825 0951 12       		.byte	0x12
 2826 0952 63       		.byte	0x63
 2827 0953 1E460000 		.long	0x461e
 2828 0957 01       		.byte	0x1
 2829 0958 19       		.uleb128 0x19
 2830 0959 F0000000 		.secrel32	LASF4
 2831 095d 12       		.byte	0x12
 2832 095e 64       		.byte	0x64
 2833 095f 24460000 		.long	0x4624
 2834 0963 01       		.byte	0x1
 2835 0964 1A       		.uleb128 0x1a
 2836 0965 A9010000 		.secrel32	LASF5
 2837 0969 12       		.byte	0x12
 2838 096a 71       		.byte	0x71
 2839 096b 01       		.byte	0x1
 2840 096c 74090000 		.long	0x974
 2841 0970 7A090000 		.long	0x97a
 2842 0974 1B       		.uleb128 0x1b
 2843 0975 3C460000 		.long	0x463c
 2844 0979 00       		.byte	0
 2845 097a 1A       		.uleb128 0x1a
 2846 097b A9010000 		.secrel32	LASF5
 2847 097f 12       		.byte	0x12
 2848 0980 73       		.byte	0x73
 2849 0981 01       		.byte	0x1
 2850 0982 8A090000 		.long	0x98a
 2851 0986 95090000 		.long	0x995
 2852 098a 1B       		.uleb128 0x1b
 2853 098b 3C460000 		.long	0x463c
 2854 098f 10       		.uleb128 0x10
GAS LISTING C:\Users\NJLLMR~1\AppData\Local\Temp\cc3wbcxt.s 			page 72


 2855 0990 42460000 		.long	0x4642
 2856 0994 00       		.byte	0
 2857 0995 1C       		.uleb128 0x1c
 2858 0996 7E616C6C 		.ascii "~allocator\0"
 2858      6F636174 
 2858      6F7200
 2859 09a1 12       		.byte	0x12
 2860 09a2 79       		.byte	0x79
 2861 09a3 01       		.byte	0x1
 2862 09a4 A8090000 		.long	0x9a8
 2863 09a8 1B       		.uleb128 0x1b
 2864 09a9 3C460000 		.long	0x463c
 2865 09ad 1B       		.uleb128 0x1b
 2866 09ae 89010000 		.long	0x189
 2867 09b2 00       		.byte	0
 2868 09b3 00       		.byte	0
 2869 09b4 11       		.uleb128 0x11
 2870 09b5 21090000 		.long	0x921
 2871 09b9 17       		.uleb128 0x17
 2872 09ba 62617369 		.ascii "basic_string<char, std::char_traits<char>, std::allocator<char> >\0"
 2872      635F7374 
 2872      72696E67 
 2872      3C636861 
 2872      722C2073 
 2873 09fc 04       		.byte	0x4
 2874 09fd 13       		.byte	0x13
 2875 09fe 70       		.byte	0x70
 2876 09ff 232D0000 		.long	0x2d23
 2877 0a03 1D       		.uleb128 0x1d
 2878 0a04 A9000000 		.secrel32	LASF6
 2879 0a08 04       		.byte	0x4
 2880 0a09 13       		.byte	0x13
 2881 0a0a 1001     		.word	0x110
 2882 0a0c 410A0000 		.long	0xa41
 2883 0a10 1E       		.uleb128 0x1e
 2884 0a11 21090000 		.long	0x921
 2885 0a15 00       		.byte	0
 2886 0a16 1F       		.uleb128 0x1f
 2887 0a17 5F4D5F70 		.ascii "_M_p\0"
 2887      00
 2888 0a1c 13       		.byte	0x13
 2889 0a1d 1501     		.word	0x115
 2890 0a1f 41020000 		.long	0x241
 2891 0a23 00       		.byte	0
 2892 0a24 20       		.uleb128 0x20
 2893 0a25 A9000000 		.secrel32	LASF6
 2894 0a29 13       		.byte	0x13
 2895 0a2a 1201     		.word	0x112
 2896 0a2c 300A0000 		.long	0xa30
 2897 0a30 1B       		.uleb128 0x1b
 2898 0a31 52460000 		.long	0x4652
 2899 0a35 10       		.uleb128 0x10
 2900 0a36 41020000 		.long	0x241
 2901 0a3a 10       		.uleb128 0x10
 2902 0a3b 42460000 		.long	0x4642
 2903 0a3f 00       		.byte	0
 2904 0a40 00       		.byte	0
GAS LISTING C:\Users\NJLLMR~1\AppData\Local\Temp\cc3wbcxt.s 			page 73


 2905 0a41 19       		.uleb128 0x19
 2906 0a42 6A010000 		.secrel32	LASF2
 2907 0a46 13       		.byte	0x13
 2908 0a47 79       		.byte	0x79
 2909 0a48 40090000 		.long	0x940
 2910 0a4c 01       		.byte	0x1
 2911 0a4d 21       		.uleb128 0x21
 2912 0a4e 6E706F73 		.ascii "npos\0"
 2912      00
 2913 0a53 13       		.byte	0x13
 2914 0a54 1D01     		.word	0x11d
 2915 0a56 5B0A0000 		.long	0xa5b
 2916 0a5a 01       		.byte	0x1
 2917 0a5b 11       		.uleb128 0x11
 2918 0a5c 410A0000 		.long	0xa41
 2919 0a60 1F       		.uleb128 0x1f
 2920 0a61 5F4D5F64 		.ascii "_M_dataplus\0"
 2920      61746170 
 2920      6C757300 
 2921 0a6d 13       		.byte	0x13
 2922 0a6e 2101     		.word	0x121
 2923 0a70 030A0000 		.long	0xa03
 2924 0a74 00       		.byte	0
 2925 0a75 22       		.uleb128 0x22
 2926 0a76 616C6C6F 		.ascii "allocator_type\0"
 2926      6361746F 
 2926      725F7479 
 2926      706500
 2927 0a85 13       		.byte	0x13
 2928 0a86 78       		.byte	0x78
 2929 0a87 21090000 		.long	0x921
 2930 0a8b 01       		.byte	0x1
 2931 0a8c 19       		.uleb128 0x19
 2932 0a8d 18000000 		.secrel32	LASF3
 2933 0a91 13       		.byte	0x13
 2934 0a92 7B       		.byte	0x7b
 2935 0a93 4C090000 		.long	0x94c
 2936 0a97 01       		.byte	0x1
 2937 0a98 19       		.uleb128 0x19
 2938 0a99 F0000000 		.secrel32	LASF4
 2939 0a9d 13       		.byte	0x13
 2940 0a9e 7C       		.byte	0x7c
 2941 0a9f 58090000 		.long	0x958
 2942 0aa3 01       		.byte	0x1
 2943 0aa4 22       		.uleb128 0x22
 2944 0aa5 69746572 		.ascii "iterator\0"
 2944      61746F72 
 2944      00
 2945 0aae 13       		.byte	0x13
 2946 0aaf 7F       		.byte	0x7f
 2947 0ab0 81410000 		.long	0x4181
 2948 0ab4 01       		.byte	0x1
 2949 0ab5 22       		.uleb128 0x22
 2950 0ab6 636F6E73 		.ascii "const_iterator\0"
 2950      745F6974 
 2950      65726174 
 2950      6F7200
GAS LISTING C:\Users\NJLLMR~1\AppData\Local\Temp\cc3wbcxt.s 			page 74


 2951 0ac5 13       		.byte	0x13
 2952 0ac6 81       		.byte	0x81
 2953 0ac7 E4410000 		.long	0x41e4
 2954 0acb 01       		.byte	0x1
 2955 0acc 22       		.uleb128 0x22
 2956 0acd 636F6E73 		.ascii "const_reverse_iterator\0"
 2956      745F7265 
 2956      76657273 
 2956      655F6974 
 2956      65726174 
 2957 0ae4 13       		.byte	0x13
 2958 0ae5 82       		.byte	0x82
 2959 0ae6 232D0000 		.long	0x2d23
 2960 0aea 01       		.byte	0x1
 2961 0aeb 22       		.uleb128 0x22
 2962 0aec 72657665 		.ascii "reverse_iterator\0"
 2962      7273655F 
 2962      69746572 
 2962      61746F72 
 2962      00
 2963 0afd 13       		.byte	0x13
 2964 0afe 83       		.byte	0x83
 2965 0aff AA2D0000 		.long	0x2daa
 2966 0b03 01       		.byte	0x1
 2967 0b04 06       		.uleb128 0x6
 2968 0b05 5F526570 		.ascii "_Rep_base\0"
 2968      5F626173 
 2968      6500
 2969 0b0f 0C       		.byte	0xc
 2970 0b10 13       		.byte	0x13
 2971 0b11 94       		.byte	0x94
 2972 0b12 510B0000 		.long	0xb51
 2973 0b16 07       		.uleb128 0x7
 2974 0b17 5F4D5F6C 		.ascii "_M_length\0"
 2974      656E6774 
 2974      6800
 2975 0b21 13       		.byte	0x13
 2976 0b22 96       		.byte	0x96
 2977 0b23 410A0000 		.long	0xa41
 2978 0b27 00       		.byte	0
 2979 0b28 07       		.uleb128 0x7
 2980 0b29 5F4D5F63 		.ascii "_M_capacity\0"
 2980      61706163 
 2980      69747900 
 2981 0b35 13       		.byte	0x13
 2982 0b36 97       		.byte	0x97
 2983 0b37 410A0000 		.long	0xa41
 2984 0b3b 04       		.byte	0x4
 2985 0b3c 07       		.uleb128 0x7
 2986 0b3d 5F4D5F72 		.ascii "_M_refcount\0"
 2986      6566636F 
 2986      756E7400 
 2987 0b49 13       		.byte	0x13
 2988 0b4a 98       		.byte	0x98
 2989 0b4b 03460000 		.long	0x4603
 2990 0b4f 08       		.byte	0x8
 2991 0b50 00       		.byte	0
GAS LISTING C:\Users\NJLLMR~1\AppData\Local\Temp\cc3wbcxt.s 			page 75


 2992 0b51 06       		.uleb128 0x6
 2993 0b52 5F526570 		.ascii "_Rep\0"
 2993      00
 2994 0b57 0C       		.byte	0xc
 2995 0b58 13       		.byte	0x13
 2996 0b59 9B       		.byte	0x9b
 2997 0b5a DD0E0000 		.long	0xedd
 2998 0b5e 1E       		.uleb128 0x1e
 2999 0b5f 040B0000 		.long	0xb04
 3000 0b63 00       		.byte	0
 3001 0b64 23       		.uleb128 0x23
 3002 0b65 5F535F6D 		.ascii "_S_max_size\0"
 3002      61785F73 
 3002      697A6500 
 3003 0b71 14       		.byte	0x14
 3004 0b72 32       		.byte	0x32
 3005 0b73 5B0A0000 		.long	0xa5b
 3006 0b77 23       		.uleb128 0x23
 3007 0b78 5F535F74 		.ascii "_S_terminal\0"
 3007      65726D69 
 3007      6E616C00 
 3008 0b84 14       		.byte	0x14
 3009 0b85 37       		.byte	0x37
 3010 0b86 38380000 		.long	0x3838
 3011 0b8a 23       		.uleb128 0x23
 3012 0b8b 5F535F65 		.ascii "_S_empty_rep_storage\0"
 3012      6D707479 
 3012      5F726570 
 3012      5F73746F 
 3012      72616765 
 3013 0ba0 14       		.byte	0x14
 3014 0ba1 42       		.byte	0x42
 3015 0ba2 7C460000 		.long	0x467c
 3016 0ba6 24       		.uleb128 0x24
 3017 0ba7 85010000 		.secrel32	LASF7
 3018 0bab 13       		.byte	0x13
 3019 0bac B5       		.byte	0xb5
 3020 0bad 5F5A4E53 		.ascii "_ZNSs4_Rep12_S_empty_repEv\0"
 3020      73345F52 
 3020      65703132 
 3020      5F535F65 
 3020      6D707479 
 3021 0bc8 6A460000 		.long	0x466a
 3022 0bcc 25       		.uleb128 0x25
 3023 0bcd 5F4D5F69 		.ascii "_M_is_leaked\0"
 3023      735F6C65 
 3023      616B6564 
 3023      00
 3024 0bda 13       		.byte	0x13
 3025 0bdb BF       		.byte	0xbf
 3026 0bdc 5F5A4E4B 		.ascii "_ZNKSs4_Rep12_M_is_leakedEv\0"
 3026      5373345F 
 3026      52657031 
 3026      325F4D5F 
 3026      69735F6C 
 3027 0bf8 10440000 		.long	0x4410
 3028 0bfc 040C0000 		.long	0xc04
GAS LISTING C:\Users\NJLLMR~1\AppData\Local\Temp\cc3wbcxt.s 			page 76


 3029 0c00 0A0C0000 		.long	0xc0a
 3030 0c04 1B       		.uleb128 0x1b
 3031 0c05 87460000 		.long	0x4687
 3032 0c09 00       		.byte	0
 3033 0c0a 25       		.uleb128 0x25
 3034 0c0b 5F4D5F69 		.ascii "_M_is_shared\0"
 3034      735F7368 
 3034      61726564 
 3034      00
 3035 0c18 13       		.byte	0x13
 3036 0c19 C3       		.byte	0xc3
 3037 0c1a 5F5A4E4B 		.ascii "_ZNKSs4_Rep12_M_is_sharedEv\0"
 3037      5373345F 
 3037      52657031 
 3037      325F4D5F 
 3037      69735F73 
 3038 0c36 10440000 		.long	0x4410
 3039 0c3a 420C0000 		.long	0xc42
 3040 0c3e 480C0000 		.long	0xc48
 3041 0c42 1B       		.uleb128 0x1b
 3042 0c43 87460000 		.long	0x4687
 3043 0c47 00       		.byte	0
 3044 0c48 26       		.uleb128 0x26
 3045 0c49 5F4D5F73 		.ascii "_M_set_leaked\0"
 3045      65745F6C 
 3045      65616B65 
 3045      6400
 3046 0c57 13       		.byte	0x13
 3047 0c58 C7       		.byte	0xc7
 3048 0c59 5F5A4E53 		.ascii "_ZNSs4_Rep13_M_set_leakedEv\0"
 3048      73345F52 
 3048      65703133 
 3048      5F4D5F73 
 3048      65745F6C 
 3049 0c75 7D0C0000 		.long	0xc7d
 3050 0c79 830C0000 		.long	0xc83
 3051 0c7d 1B       		.uleb128 0x1b
 3052 0c7e 64460000 		.long	0x4664
 3053 0c82 00       		.byte	0
 3054 0c83 26       		.uleb128 0x26
 3055 0c84 5F4D5F73 		.ascii "_M_set_sharable\0"
 3055      65745F73 
 3055      68617261 
 3055      626C6500 
 3056 0c94 13       		.byte	0x13
 3057 0c95 CB       		.byte	0xcb
 3058 0c96 5F5A4E53 		.ascii "_ZNSs4_Rep15_M_set_sharableEv\0"
 3058      73345F52 
 3058      65703135 
 3058      5F4D5F73 
 3058      65745F73 
 3059 0cb4 BC0C0000 		.long	0xcbc
 3060 0cb8 C20C0000 		.long	0xcc2
 3061 0cbc 1B       		.uleb128 0x1b
 3062 0cbd 64460000 		.long	0x4664
 3063 0cc1 00       		.byte	0
 3064 0cc2 26       		.uleb128 0x26
GAS LISTING C:\Users\NJLLMR~1\AppData\Local\Temp\cc3wbcxt.s 			page 77


 3065 0cc3 5F4D5F73 		.ascii "_M_set_length_and_sharable\0"
 3065      65745F6C 
 3065      656E6774 
 3065      685F616E 
 3065      645F7368 
 3066 0cde 13       		.byte	0x13
 3067 0cdf CF       		.byte	0xcf
 3068 0ce0 5F5A4E53 		.ascii "_ZNSs4_Rep26_M_set_length_and_sharableEj\0"
 3068      73345F52 
 3068      65703236 
 3068      5F4D5F73 
 3068      65745F6C 
 3069 0d09 110D0000 		.long	0xd11
 3070 0d0d 1C0D0000 		.long	0xd1c
 3071 0d11 1B       		.uleb128 0x1b
 3072 0d12 64460000 		.long	0x4664
 3073 0d16 10       		.uleb128 0x10
 3074 0d17 410A0000 		.long	0xa41
 3075 0d1b 00       		.byte	0
 3076 0d1c 25       		.uleb128 0x25
 3077 0d1d 5F4D5F72 		.ascii "_M_refdata\0"
 3077      65666461 
 3077      746100
 3078 0d28 13       		.byte	0x13
 3079 0d29 DE       		.byte	0xde
 3080 0d2a 5F5A4E53 		.ascii "_ZNSs4_Rep10_M_refdataEv\0"
 3080      73345F52 
 3080      65703130 
 3080      5F4D5F72 
 3080      65666461 
 3081 0d43 41020000 		.long	0x241
 3082 0d47 4F0D0000 		.long	0xd4f
 3083 0d4b 550D0000 		.long	0xd55
 3084 0d4f 1B       		.uleb128 0x1b
 3085 0d50 64460000 		.long	0x4664
 3086 0d54 00       		.byte	0
 3087 0d55 25       		.uleb128 0x25
 3088 0d56 5F4D5F67 		.ascii "_M_grab\0"
 3088      72616200 
 3089 0d5e 13       		.byte	0x13
 3090 0d5f E2       		.byte	0xe2
 3091 0d60 5F5A4E53 		.ascii "_ZNSs4_Rep7_M_grabERKSaIcES2_\0"
 3091      73345F52 
 3091      6570375F 
 3091      4D5F6772 
 3091      61624552 
 3092 0d7e 41020000 		.long	0x241
 3093 0d82 8A0D0000 		.long	0xd8a
 3094 0d86 9A0D0000 		.long	0xd9a
 3095 0d8a 1B       		.uleb128 0x1b
 3096 0d8b 64460000 		.long	0x4664
 3097 0d8f 10       		.uleb128 0x10
 3098 0d90 42460000 		.long	0x4642
 3099 0d94 10       		.uleb128 0x10
 3100 0d95 42460000 		.long	0x4642
 3101 0d99 00       		.byte	0
 3102 0d9a 14       		.uleb128 0x14
GAS LISTING C:\Users\NJLLMR~1\AppData\Local\Temp\cc3wbcxt.s 			page 78


 3103 0d9b 5F535F63 		.ascii "_S_create\0"
 3103      72656174 
 3103      6500
 3104 0da5 14       		.byte	0x14
 3105 0da6 2102     		.word	0x221
 3106 0da8 5F5A4E53 		.ascii "_ZNSs4_Rep9_S_createEjjRKSaIcE\0"
 3106      73345F52 
 3106      6570395F 
 3106      535F6372 
 3106      65617465 
 3107 0dc7 64460000 		.long	0x4664
 3108 0dcb DF0D0000 		.long	0xddf
 3109 0dcf 10       		.uleb128 0x10
 3110 0dd0 410A0000 		.long	0xa41
 3111 0dd4 10       		.uleb128 0x10
 3112 0dd5 410A0000 		.long	0xa41
 3113 0dd9 10       		.uleb128 0x10
 3114 0dda 42460000 		.long	0x4642
 3115 0dde 00       		.byte	0
 3116 0ddf 26       		.uleb128 0x26
 3117 0de0 5F4D5F64 		.ascii "_M_dispose\0"
 3117      6973706F 
 3117      736500
 3118 0deb 13       		.byte	0x13
 3119 0dec ED       		.byte	0xed
 3120 0ded 5F5A4E53 		.ascii "_ZNSs4_Rep10_M_disposeERKSaIcE\0"
 3120      73345F52 
 3120      65703130 
 3120      5F4D5F64 
 3120      6973706F 
 3121 0e0c 140E0000 		.long	0xe14
 3122 0e10 1F0E0000 		.long	0xe1f
 3123 0e14 1B       		.uleb128 0x1b
 3124 0e15 64460000 		.long	0x4664
 3125 0e19 10       		.uleb128 0x10
 3126 0e1a 42460000 		.long	0x4642
 3127 0e1e 00       		.byte	0
 3128 0e1f 27       		.uleb128 0x27
 3129 0e20 5F4D5F64 		.ascii "_M_destroy\0"
 3129      65737472 
 3129      6F7900
 3130 0e2b 14       		.byte	0x14
 3131 0e2c BC01     		.word	0x1bc
 3132 0e2e 5F5A4E53 		.ascii "_ZNSs4_Rep10_M_destroyERKSaIcE\0"
 3132      73345F52 
 3132      65703130 
 3132      5F4D5F64 
 3132      65737472 
 3133 0e4d 550E0000 		.long	0xe55
 3134 0e51 600E0000 		.long	0xe60
 3135 0e55 1B       		.uleb128 0x1b
 3136 0e56 64460000 		.long	0x4664
 3137 0e5a 10       		.uleb128 0x10
 3138 0e5b 42460000 		.long	0x4642
 3139 0e5f 00       		.byte	0
 3140 0e60 28       		.uleb128 0x28
 3141 0e61 5F4D5F72 		.ascii "_M_refcopy\0"
GAS LISTING C:\Users\NJLLMR~1\AppData\Local\Temp\cc3wbcxt.s 			page 79


 3141      6566636F 
 3141      707900
 3142 0e6c 13       		.byte	0x13
 3143 0e6d 0201     		.word	0x102
 3144 0e6f 5F5A4E53 		.ascii "_ZNSs4_Rep10_M_refcopyEv\0"
 3144      73345F52 
 3144      65703130 
 3144      5F4D5F72 
 3144      6566636F 
 3145 0e88 41020000 		.long	0x241
 3146 0e8c 940E0000 		.long	0xe94
 3147 0e90 9A0E0000 		.long	0xe9a
 3148 0e94 1B       		.uleb128 0x1b
 3149 0e95 64460000 		.long	0x4664
 3150 0e99 00       		.byte	0
 3151 0e9a 29       		.uleb128 0x29
 3152 0e9b 5F4D5F63 		.ascii "_M_clone\0"
 3152      6C6F6E65 
 3152      00
 3153 0ea4 14       		.byte	0x14
 3154 0ea5 6F02     		.word	0x26f
 3155 0ea7 5F5A4E53 		.ascii "_ZNSs4_Rep8_M_cloneERKSaIcEj\0"
 3155      73345F52 
 3155      6570385F 
 3155      4D5F636C 
 3155      6F6E6545 
 3156 0ec4 41020000 		.long	0x241
 3157 0ec8 CC0E0000 		.long	0xecc
 3158 0ecc 1B       		.uleb128 0x1b
 3159 0ecd 64460000 		.long	0x4664
 3160 0ed1 10       		.uleb128 0x10
 3161 0ed2 42460000 		.long	0x4642
 3162 0ed6 10       		.uleb128 0x10
 3163 0ed7 410A0000 		.long	0xa41
 3164 0edb 00       		.byte	0
 3165 0edc 00       		.byte	0
 3166 0edd 28       		.uleb128 0x28
 3167 0ede 5F4D5F64 		.ascii "_M_data\0"
 3167      61746100 
 3168 0ee6 13       		.byte	0x13
 3169 0ee7 2401     		.word	0x124
 3170 0ee9 5F5A4E4B 		.ascii "_ZNKSs7_M_dataEv\0"
 3170      5373375F 
 3170      4D5F6461 
 3170      74614576 
 3170      00
 3171 0efa 41020000 		.long	0x241
 3172 0efe 060F0000 		.long	0xf06
 3173 0f02 0C0F0000 		.long	0xf0c
 3174 0f06 1B       		.uleb128 0x1b
 3175 0f07 58460000 		.long	0x4658
 3176 0f0b 00       		.byte	0
 3177 0f0c 28       		.uleb128 0x28
 3178 0f0d 5F4D5F64 		.ascii "_M_data\0"
 3178      61746100 
 3179 0f15 13       		.byte	0x13
 3180 0f16 2801     		.word	0x128
GAS LISTING C:\Users\NJLLMR~1\AppData\Local\Temp\cc3wbcxt.s 			page 80


 3181 0f18 5F5A4E53 		.ascii "_ZNSs7_M_dataEPc\0"
 3181      73375F4D 
 3181      5F646174 
 3181      61455063 
 3181      00
 3182 0f29 41020000 		.long	0x241
 3183 0f2d 350F0000 		.long	0xf35
 3184 0f31 400F0000 		.long	0xf40
 3185 0f35 1B       		.uleb128 0x1b
 3186 0f36 5E460000 		.long	0x465e
 3187 0f3a 10       		.uleb128 0x10
 3188 0f3b 41020000 		.long	0x241
 3189 0f3f 00       		.byte	0
 3190 0f40 28       		.uleb128 0x28
 3191 0f41 5F4D5F72 		.ascii "_M_rep\0"
 3191      657000
 3192 0f48 13       		.byte	0x13
 3193 0f49 2C01     		.word	0x12c
 3194 0f4b 5F5A4E4B 		.ascii "_ZNKSs6_M_repEv\0"
 3194      5373365F 
 3194      4D5F7265 
 3194      70457600 
 3195 0f5b 64460000 		.long	0x4664
 3196 0f5f 670F0000 		.long	0xf67
 3197 0f63 6D0F0000 		.long	0xf6d
 3198 0f67 1B       		.uleb128 0x1b
 3199 0f68 58460000 		.long	0x4658
 3200 0f6c 00       		.byte	0
 3201 0f6d 28       		.uleb128 0x28
 3202 0f6e 5F4D5F69 		.ascii "_M_ibegin\0"
 3202      62656769 
 3202      6E00
 3203 0f78 13       		.byte	0x13
 3204 0f79 3201     		.word	0x132
 3205 0f7b 5F5A4E4B 		.ascii "_ZNKSs9_M_ibeginEv\0"
 3205      5373395F 
 3205      4D5F6962 
 3205      6567696E 
 3205      457600
 3206 0f8e A40A0000 		.long	0xaa4
 3207 0f92 9A0F0000 		.long	0xf9a
 3208 0f96 A00F0000 		.long	0xfa0
 3209 0f9a 1B       		.uleb128 0x1b
 3210 0f9b 58460000 		.long	0x4658
 3211 0f9f 00       		.byte	0
 3212 0fa0 28       		.uleb128 0x28
 3213 0fa1 5F4D5F69 		.ascii "_M_iend\0"
 3213      656E6400 
 3214 0fa9 13       		.byte	0x13
 3215 0faa 3601     		.word	0x136
 3216 0fac 5F5A4E4B 		.ascii "_ZNKSs7_M_iendEv\0"
 3216      5373375F 
 3216      4D5F6965 
 3216      6E644576 
 3216      00
 3217 0fbd A40A0000 		.long	0xaa4
 3218 0fc1 C90F0000 		.long	0xfc9
GAS LISTING C:\Users\NJLLMR~1\AppData\Local\Temp\cc3wbcxt.s 			page 81


 3219 0fc5 CF0F0000 		.long	0xfcf
 3220 0fc9 1B       		.uleb128 0x1b
 3221 0fca 58460000 		.long	0x4658
 3222 0fce 00       		.byte	0
 3223 0fcf 27       		.uleb128 0x27
 3224 0fd0 5F4D5F6C 		.ascii "_M_leak\0"
 3224      65616B00 
 3225 0fd8 13       		.byte	0x13
 3226 0fd9 3A01     		.word	0x13a
 3227 0fdb 5F5A4E53 		.ascii "_ZNSs7_M_leakEv\0"
 3227      73375F4D 
 3227      5F6C6561 
 3227      6B457600 
 3228 0feb F30F0000 		.long	0xff3
 3229 0fef F90F0000 		.long	0xff9
 3230 0ff3 1B       		.uleb128 0x1b
 3231 0ff4 5E460000 		.long	0x465e
 3232 0ff8 00       		.byte	0
 3233 0ff9 28       		.uleb128 0x28
 3234 0ffa 5F4D5F63 		.ascii "_M_check\0"
 3234      6865636B 
 3234      00
 3235 1003 13       		.byte	0x13
 3236 1004 4101     		.word	0x141
 3237 1006 5F5A4E4B 		.ascii "_ZNKSs8_M_checkEjPKc\0"
 3237      5373385F 
 3237      4D5F6368 
 3237      65636B45 
 3237      6A504B63 
 3238 101b 410A0000 		.long	0xa41
 3239 101f 27100000 		.long	0x1027
 3240 1023 37100000 		.long	0x1037
 3241 1027 1B       		.uleb128 0x1b
 3242 1028 58460000 		.long	0x4658
 3243 102c 10       		.uleb128 0x10
 3244 102d 410A0000 		.long	0xa41
 3245 1031 10       		.uleb128 0x10
 3246 1032 32380000 		.long	0x3832
 3247 1036 00       		.byte	0
 3248 1037 27       		.uleb128 0x27
 3249 1038 5F4D5F63 		.ascii "_M_check_length\0"
 3249      6865636B 
 3249      5F6C656E 
 3249      67746800 
 3250 1048 13       		.byte	0x13
 3251 1049 4B01     		.word	0x14b
 3252 104b 5F5A4E4B 		.ascii "_ZNKSs15_M_check_lengthEjjPKc\0"
 3252      53733135 
 3252      5F4D5F63 
 3252      6865636B 
 3252      5F6C656E 
 3253 1069 71100000 		.long	0x1071
 3254 106d 86100000 		.long	0x1086
 3255 1071 1B       		.uleb128 0x1b
 3256 1072 58460000 		.long	0x4658
 3257 1076 10       		.uleb128 0x10
 3258 1077 410A0000 		.long	0xa41
GAS LISTING C:\Users\NJLLMR~1\AppData\Local\Temp\cc3wbcxt.s 			page 82


 3259 107b 10       		.uleb128 0x10
 3260 107c 410A0000 		.long	0xa41
 3261 1080 10       		.uleb128 0x10
 3262 1081 32380000 		.long	0x3832
 3263 1085 00       		.byte	0
 3264 1086 28       		.uleb128 0x28
 3265 1087 5F4D5F6C 		.ascii "_M_limit\0"
 3265      696D6974 
 3265      00
 3266 1090 13       		.byte	0x13
 3267 1091 5301     		.word	0x153
 3268 1093 5F5A4E4B 		.ascii "_ZNKSs8_M_limitEjj\0"
 3268      5373385F 
 3268      4D5F6C69 
 3268      6D697445 
 3268      6A6A00
 3269 10a6 410A0000 		.long	0xa41
 3270 10aa B2100000 		.long	0x10b2
 3271 10ae C2100000 		.long	0x10c2
 3272 10b2 1B       		.uleb128 0x1b
 3273 10b3 58460000 		.long	0x4658
 3274 10b7 10       		.uleb128 0x10
 3275 10b8 410A0000 		.long	0xa41
 3276 10bc 10       		.uleb128 0x10
 3277 10bd 410A0000 		.long	0xa41
 3278 10c1 00       		.byte	0
 3279 10c2 28       		.uleb128 0x28
 3280 10c3 5F4D5F64 		.ascii "_M_disjunct\0"
 3280      69736A75 
 3280      6E637400 
 3281 10cf 13       		.byte	0x13
 3282 10d0 5B01     		.word	0x15b
 3283 10d2 5F5A4E4B 		.ascii "_ZNKSs11_M_disjunctEPKc\0"
 3283      53733131 
 3283      5F4D5F64 
 3283      69736A75 
 3283      6E637445 
 3284 10ea 10440000 		.long	0x4410
 3285 10ee F6100000 		.long	0x10f6
 3286 10f2 01110000 		.long	0x1101
 3287 10f6 1B       		.uleb128 0x1b
 3288 10f7 58460000 		.long	0x4658
 3289 10fb 10       		.uleb128 0x10
 3290 10fc 32380000 		.long	0x3832
 3291 1100 00       		.byte	0
 3292 1101 2A       		.uleb128 0x2a
 3293 1102 5F4D5F63 		.ascii "_M_copy\0"
 3293      6F707900 
 3294 110a 13       		.byte	0x13
 3295 110b 6401     		.word	0x164
 3296 110d 5F5A4E53 		.ascii "_ZNSs7_M_copyEPcPKcj\0"
 3296      73375F4D 
 3296      5F636F70 
 3296      79455063 
 3296      504B636A 
 3297 1122 36110000 		.long	0x1136
 3298 1126 10       		.uleb128 0x10
GAS LISTING C:\Users\NJLLMR~1\AppData\Local\Temp\cc3wbcxt.s 			page 83


 3299 1127 41020000 		.long	0x241
 3300 112b 10       		.uleb128 0x10
 3301 112c 32380000 		.long	0x3832
 3302 1130 10       		.uleb128 0x10
 3303 1131 410A0000 		.long	0xa41
 3304 1135 00       		.byte	0
 3305 1136 2A       		.uleb128 0x2a
 3306 1137 5F4D5F6D 		.ascii "_M_move\0"
 3306      6F766500 
 3307 113f 13       		.byte	0x13
 3308 1140 6D01     		.word	0x16d
 3309 1142 5F5A4E53 		.ascii "_ZNSs7_M_moveEPcPKcj\0"
 3309      73375F4D 
 3309      5F6D6F76 
 3309      65455063 
 3309      504B636A 
 3310 1157 6B110000 		.long	0x116b
 3311 115b 10       		.uleb128 0x10
 3312 115c 41020000 		.long	0x241
 3313 1160 10       		.uleb128 0x10
 3314 1161 32380000 		.long	0x3832
 3315 1165 10       		.uleb128 0x10
 3316 1166 410A0000 		.long	0xa41
 3317 116a 00       		.byte	0
 3318 116b 2A       		.uleb128 0x2a
 3319 116c 5F4D5F61 		.ascii "_M_assign\0"
 3319      73736967 
 3319      6E00
 3320 1176 13       		.byte	0x13
 3321 1177 7601     		.word	0x176
 3322 1179 5F5A4E53 		.ascii "_ZNSs9_M_assignEPcjc\0"
 3322      73395F4D 
 3322      5F617373 
 3322      69676E45 
 3322      50636A63 
 3323 118e A2110000 		.long	0x11a2
 3324 1192 10       		.uleb128 0x10
 3325 1193 41020000 		.long	0x241
 3326 1197 10       		.uleb128 0x10
 3327 1198 410A0000 		.long	0xa41
 3328 119c 10       		.uleb128 0x10
 3329 119d 55010000 		.long	0x155
 3330 11a1 00       		.byte	0
 3331 11a2 2B       		.uleb128 0x2b
 3332 11a3 CD000000 		.secrel32	LASF8
 3333 11a7 13       		.byte	0x13
 3334 11a8 8A01     		.word	0x18a
 3335 11aa 5F5A4E53 		.ascii "_ZNSs13_S_copy_charsEPcN9__gnu_cxx17__normal_iteratorIS_SsEES2_\0"
 3335      7331335F 
 3335      535F636F 
 3335      70795F63 
 3335      68617273 
 3336 11ea FE110000 		.long	0x11fe
 3337 11ee 10       		.uleb128 0x10
 3338 11ef 41020000 		.long	0x241
 3339 11f3 10       		.uleb128 0x10
 3340 11f4 A40A0000 		.long	0xaa4
GAS LISTING C:\Users\NJLLMR~1\AppData\Local\Temp\cc3wbcxt.s 			page 84


 3341 11f8 10       		.uleb128 0x10
 3342 11f9 A40A0000 		.long	0xaa4
 3343 11fd 00       		.byte	0
 3344 11fe 2B       		.uleb128 0x2b
 3345 11ff CD000000 		.secrel32	LASF8
 3346 1203 13       		.byte	0x13
 3347 1204 8E01     		.word	0x18e
 3348 1206 5F5A4E53 		.ascii "_ZNSs13_S_copy_charsEPcN9__gnu_cxx17__normal_iteratorIPKcSsEES4_\0"
 3348      7331335F 
 3348      535F636F 
 3348      70795F63 
 3348      68617273 
 3349 1247 5B120000 		.long	0x125b
 3350 124b 10       		.uleb128 0x10
 3351 124c 41020000 		.long	0x241
 3352 1250 10       		.uleb128 0x10
 3353 1251 B50A0000 		.long	0xab5
 3354 1255 10       		.uleb128 0x10
 3355 1256 B50A0000 		.long	0xab5
 3356 125a 00       		.byte	0
 3357 125b 2B       		.uleb128 0x2b
 3358 125c CD000000 		.secrel32	LASF8
 3359 1260 13       		.byte	0x13
 3360 1261 9301     		.word	0x193
 3361 1263 5F5A4E53 		.ascii "_ZNSs13_S_copy_charsEPcS_S_\0"
 3361      7331335F 
 3361      535F636F 
 3361      70795F63 
 3361      68617273 
 3362 127f 93120000 		.long	0x1293
 3363 1283 10       		.uleb128 0x10
 3364 1284 41020000 		.long	0x241
 3365 1288 10       		.uleb128 0x10
 3366 1289 41020000 		.long	0x241
 3367 128d 10       		.uleb128 0x10
 3368 128e 41020000 		.long	0x241
 3369 1292 00       		.byte	0
 3370 1293 2B       		.uleb128 0x2b
 3371 1294 CD000000 		.secrel32	LASF8
 3372 1298 13       		.byte	0x13
 3373 1299 9701     		.word	0x197
 3374 129b 5F5A4E53 		.ascii "_ZNSs13_S_copy_charsEPcPKcS1_\0"
 3374      7331335F 
 3374      535F636F 
 3374      70795F63 
 3374      68617273 
 3375 12b9 CD120000 		.long	0x12cd
 3376 12bd 10       		.uleb128 0x10
 3377 12be 41020000 		.long	0x241
 3378 12c2 10       		.uleb128 0x10
 3379 12c3 32380000 		.long	0x3832
 3380 12c7 10       		.uleb128 0x10
 3381 12c8 32380000 		.long	0x3832
 3382 12cc 00       		.byte	0
 3383 12cd 14       		.uleb128 0x14
 3384 12ce 5F535F63 		.ascii "_S_compare\0"
 3384      6F6D7061 
GAS LISTING C:\Users\NJLLMR~1\AppData\Local\Temp\cc3wbcxt.s 			page 85


 3384      726500
 3385 12d9 13       		.byte	0x13
 3386 12da 9C01     		.word	0x19c
 3387 12dc 5F5A4E53 		.ascii "_ZNSs10_S_compareEjj\0"
 3387      7331305F 
 3387      535F636F 
 3387      6D706172 
 3387      65456A6A 
 3388 12f1 89010000 		.long	0x189
 3389 12f5 04130000 		.long	0x1304
 3390 12f9 10       		.uleb128 0x10
 3391 12fa 410A0000 		.long	0xa41
 3392 12fe 10       		.uleb128 0x10
 3393 12ff 410A0000 		.long	0xa41
 3394 1303 00       		.byte	0
 3395 1304 27       		.uleb128 0x27
 3396 1305 5F4D5F6D 		.ascii "_M_mutate\0"
 3396      75746174 
 3396      6500
 3397 130f 14       		.byte	0x14
 3398 1310 D401     		.word	0x1d4
 3399 1312 5F5A4E53 		.ascii "_ZNSs9_M_mutateEjjj\0"
 3399      73395F4D 
 3399      5F6D7574 
 3399      61746545 
 3399      6A6A6A00 
 3400 1326 2E130000 		.long	0x132e
 3401 132a 43130000 		.long	0x1343
 3402 132e 1B       		.uleb128 0x1b
 3403 132f 5E460000 		.long	0x465e
 3404 1333 10       		.uleb128 0x10
 3405 1334 410A0000 		.long	0xa41
 3406 1338 10       		.uleb128 0x10
 3407 1339 410A0000 		.long	0xa41
 3408 133d 10       		.uleb128 0x10
 3409 133e 410A0000 		.long	0xa41
 3410 1342 00       		.byte	0
 3411 1343 27       		.uleb128 0x27
 3412 1344 5F4D5F6C 		.ascii "_M_leak_hard\0"
 3412      65616B5F 
 3412      68617264 
 3412      00
 3413 1351 14       		.byte	0x14
 3414 1352 C601     		.word	0x1c6
 3415 1354 5F5A4E53 		.ascii "_ZNSs12_M_leak_hardEv\0"
 3415      7331325F 
 3415      4D5F6C65 
 3415      616B5F68 
 3415      61726445 
 3416 136a 72130000 		.long	0x1372
 3417 136e 78130000 		.long	0x1378
 3418 1372 1B       		.uleb128 0x1b
 3419 1373 5E460000 		.long	0x465e
 3420 1377 00       		.byte	0
 3421 1378 2C       		.uleb128 0x2c
 3422 1379 85010000 		.secrel32	LASF7
 3423 137d 13       		.byte	0x13
GAS LISTING C:\Users\NJLLMR~1\AppData\Local\Temp\cc3wbcxt.s 			page 86


 3424 137e AF01     		.word	0x1af
 3425 1380 5F5A4E53 		.ascii "_ZNSs12_S_empty_repEv\0"
 3425      7331325F 
 3425      535F656D 
 3425      7074795F 
 3425      72657045 
 3426 1396 6A460000 		.long	0x466a
 3427 139a 2D       		.uleb128 0x2d
 3428 139b 44000000 		.secrel32	LASF9
 3429 139f 13       		.byte	0x13
 3430 13a0 BA01     		.word	0x1ba
 3431 13a2 01       		.byte	0x1
 3432 13a3 AB130000 		.long	0x13ab
 3433 13a7 B1130000 		.long	0x13b1
 3434 13ab 1B       		.uleb128 0x1b
 3435 13ac 5E460000 		.long	0x465e
 3436 13b0 00       		.byte	0
 3437 13b1 2E       		.uleb128 0x2e
 3438 13b2 44000000 		.secrel32	LASF9
 3439 13b6 14       		.byte	0x14
 3440 13b7 B1       		.byte	0xb1
 3441 13b8 01       		.byte	0x1
 3442 13b9 C1130000 		.long	0x13c1
 3443 13bd CC130000 		.long	0x13cc
 3444 13c1 1B       		.uleb128 0x1b
 3445 13c2 5E460000 		.long	0x465e
 3446 13c6 10       		.uleb128 0x10
 3447 13c7 42460000 		.long	0x4642
 3448 13cb 00       		.byte	0
 3449 13cc 1A       		.uleb128 0x1a
 3450 13cd 44000000 		.secrel32	LASF9
 3451 13d1 14       		.byte	0x14
 3452 13d2 A9       		.byte	0xa9
 3453 13d3 01       		.byte	0x1
 3454 13d4 DC130000 		.long	0x13dc
 3455 13d8 E7130000 		.long	0x13e7
 3456 13dc 1B       		.uleb128 0x1b
 3457 13dd 5E460000 		.long	0x465e
 3458 13e1 10       		.uleb128 0x10
 3459 13e2 70460000 		.long	0x4670
 3460 13e6 00       		.byte	0
 3461 13e7 1A       		.uleb128 0x1a
 3462 13e8 44000000 		.secrel32	LASF9
 3463 13ec 14       		.byte	0x14
 3464 13ed B7       		.byte	0xb7
 3465 13ee 01       		.byte	0x1
 3466 13ef F7130000 		.long	0x13f7
 3467 13f3 0C140000 		.long	0x140c
 3468 13f7 1B       		.uleb128 0x1b
 3469 13f8 5E460000 		.long	0x465e
 3470 13fc 10       		.uleb128 0x10
 3471 13fd 70460000 		.long	0x4670
 3472 1401 10       		.uleb128 0x10
 3473 1402 410A0000 		.long	0xa41
 3474 1406 10       		.uleb128 0x10
 3475 1407 410A0000 		.long	0xa41
 3476 140b 00       		.byte	0
GAS LISTING C:\Users\NJLLMR~1\AppData\Local\Temp\cc3wbcxt.s 			page 87


 3477 140c 1A       		.uleb128 0x1a
 3478 140d 44000000 		.secrel32	LASF9
 3479 1411 14       		.byte	0x14
 3480 1412 C1       		.byte	0xc1
 3481 1413 01       		.byte	0x1
 3482 1414 1C140000 		.long	0x141c
 3483 1418 36140000 		.long	0x1436
 3484 141c 1B       		.uleb128 0x1b
 3485 141d 5E460000 		.long	0x465e
 3486 1421 10       		.uleb128 0x10
 3487 1422 70460000 		.long	0x4670
 3488 1426 10       		.uleb128 0x10
 3489 1427 410A0000 		.long	0xa41
 3490 142b 10       		.uleb128 0x10
 3491 142c 410A0000 		.long	0xa41
 3492 1430 10       		.uleb128 0x10
 3493 1431 42460000 		.long	0x4642
 3494 1435 00       		.byte	0
 3495 1436 1A       		.uleb128 0x1a
 3496 1437 44000000 		.secrel32	LASF9
 3497 143b 14       		.byte	0x14
 3498 143c CD       		.byte	0xcd
 3499 143d 01       		.byte	0x1
 3500 143e 46140000 		.long	0x1446
 3501 1442 5B140000 		.long	0x145b
 3502 1446 1B       		.uleb128 0x1b
 3503 1447 5E460000 		.long	0x465e
 3504 144b 10       		.uleb128 0x10
 3505 144c 32380000 		.long	0x3832
 3506 1450 10       		.uleb128 0x10
 3507 1451 410A0000 		.long	0xa41
 3508 1455 10       		.uleb128 0x10
 3509 1456 42460000 		.long	0x4642
 3510 145a 00       		.byte	0
 3511 145b 1A       		.uleb128 0x1a
 3512 145c 44000000 		.secrel32	LASF9
 3513 1460 14       		.byte	0x14
 3514 1461 D4       		.byte	0xd4
 3515 1462 01       		.byte	0x1
 3516 1463 6B140000 		.long	0x146b
 3517 1467 7B140000 		.long	0x147b
 3518 146b 1B       		.uleb128 0x1b
 3519 146c 5E460000 		.long	0x465e
 3520 1470 10       		.uleb128 0x10
 3521 1471 32380000 		.long	0x3832
 3522 1475 10       		.uleb128 0x10
 3523 1476 42460000 		.long	0x4642
 3524 147a 00       		.byte	0
 3525 147b 1A       		.uleb128 0x1a
 3526 147c 44000000 		.secrel32	LASF9
 3527 1480 14       		.byte	0x14
 3528 1481 DB       		.byte	0xdb
 3529 1482 01       		.byte	0x1
 3530 1483 8B140000 		.long	0x148b
 3531 1487 A0140000 		.long	0x14a0
 3532 148b 1B       		.uleb128 0x1b
 3533 148c 5E460000 		.long	0x465e
GAS LISTING C:\Users\NJLLMR~1\AppData\Local\Temp\cc3wbcxt.s 			page 88


 3534 1490 10       		.uleb128 0x10
 3535 1491 410A0000 		.long	0xa41
 3536 1495 10       		.uleb128 0x10
 3537 1496 55010000 		.long	0x155
 3538 149a 10       		.uleb128 0x10
 3539 149b 42460000 		.long	0x4642
 3540 149f 00       		.byte	0
 3541 14a0 2F       		.uleb128 0x2f
 3542 14a1 7E626173 		.ascii "~basic_string\0"
 3542      69635F73 
 3542      7472696E 
 3542      6700
 3543 14af 13       		.byte	0x13
 3544 14b0 2202     		.word	0x222
 3545 14b2 01       		.byte	0x1
 3546 14b3 BB140000 		.long	0x14bb
 3547 14b7 C6140000 		.long	0x14c6
 3548 14bb 1B       		.uleb128 0x1b
 3549 14bc 5E460000 		.long	0x465e
 3550 14c0 1B       		.uleb128 0x1b
 3551 14c1 89010000 		.long	0x189
 3552 14c5 00       		.byte	0
 3553 14c6 30       		.uleb128 0x30
 3554 14c7 8F000000 		.secrel32	LASF10
 3555 14cb 13       		.byte	0x13
 3556 14cc 2A02     		.word	0x22a
 3557 14ce 5F5A4E53 		.ascii "_ZNSsaSERKSs\0"
 3557      73615345 
 3557      524B5373 
 3557      00
 3558 14db 76460000 		.long	0x4676
 3559 14df 01       		.byte	0x1
 3560 14e0 E8140000 		.long	0x14e8
 3561 14e4 F3140000 		.long	0x14f3
 3562 14e8 1B       		.uleb128 0x1b
 3563 14e9 5E460000 		.long	0x465e
 3564 14ed 10       		.uleb128 0x10
 3565 14ee 70460000 		.long	0x4670
 3566 14f2 00       		.byte	0
 3567 14f3 30       		.uleb128 0x30
 3568 14f4 8F000000 		.secrel32	LASF10
 3569 14f8 13       		.byte	0x13
 3570 14f9 3202     		.word	0x232
 3571 14fb 5F5A4E53 		.ascii "_ZNSsaSEPKc\0"
 3571      73615345 
 3571      504B6300 
 3572 1507 76460000 		.long	0x4676
 3573 150b 01       		.byte	0x1
 3574 150c 14150000 		.long	0x1514
 3575 1510 1F150000 		.long	0x151f
 3576 1514 1B       		.uleb128 0x1b
 3577 1515 5E460000 		.long	0x465e
 3578 1519 10       		.uleb128 0x10
 3579 151a 32380000 		.long	0x3832
 3580 151e 00       		.byte	0
 3581 151f 30       		.uleb128 0x30
 3582 1520 8F000000 		.secrel32	LASF10
GAS LISTING C:\Users\NJLLMR~1\AppData\Local\Temp\cc3wbcxt.s 			page 89


 3583 1524 13       		.byte	0x13
 3584 1525 3D02     		.word	0x23d
 3585 1527 5F5A4E53 		.ascii "_ZNSsaSEc\0"
 3585      73615345 
 3585      6300
 3586 1531 76460000 		.long	0x4676
 3587 1535 01       		.byte	0x1
 3588 1536 3E150000 		.long	0x153e
 3589 153a 49150000 		.long	0x1549
 3590 153e 1B       		.uleb128 0x1b
 3591 153f 5E460000 		.long	0x465e
 3592 1543 10       		.uleb128 0x10
 3593 1544 55010000 		.long	0x155
 3594 1548 00       		.byte	0
 3595 1549 31       		.uleb128 0x31
 3596 154a 62656769 		.ascii "begin\0"
 3596      6E00
 3597 1550 13       		.byte	0x13
 3598 1551 6602     		.word	0x266
 3599 1553 5F5A4E53 		.ascii "_ZNSs5beginEv\0"
 3599      73356265 
 3599      67696E45 
 3599      7600
 3600 1561 A40A0000 		.long	0xaa4
 3601 1565 01       		.byte	0x1
 3602 1566 6E150000 		.long	0x156e
 3603 156a 74150000 		.long	0x1574
 3604 156e 1B       		.uleb128 0x1b
 3605 156f 5E460000 		.long	0x465e
 3606 1573 00       		.byte	0
 3607 1574 31       		.uleb128 0x31
 3608 1575 62656769 		.ascii "begin\0"
 3608      6E00
 3609 157b 13       		.byte	0x13
 3610 157c 7102     		.word	0x271
 3611 157e 5F5A4E4B 		.ascii "_ZNKSs5beginEv\0"
 3611      53733562 
 3611      6567696E 
 3611      457600
 3612 158d B50A0000 		.long	0xab5
 3613 1591 01       		.byte	0x1
 3614 1592 9A150000 		.long	0x159a
 3615 1596 A0150000 		.long	0x15a0
 3616 159a 1B       		.uleb128 0x1b
 3617 159b 58460000 		.long	0x4658
 3618 159f 00       		.byte	0
 3619 15a0 31       		.uleb128 0x31
 3620 15a1 656E6400 		.ascii "end\0"
 3621 15a5 13       		.byte	0x13
 3622 15a6 7902     		.word	0x279
 3623 15a8 5F5A4E53 		.ascii "_ZNSs3endEv\0"
 3623      7333656E 
 3623      64457600 
 3624 15b4 A40A0000 		.long	0xaa4
 3625 15b8 01       		.byte	0x1
 3626 15b9 C1150000 		.long	0x15c1
 3627 15bd C7150000 		.long	0x15c7
GAS LISTING C:\Users\NJLLMR~1\AppData\Local\Temp\cc3wbcxt.s 			page 90


 3628 15c1 1B       		.uleb128 0x1b
 3629 15c2 5E460000 		.long	0x465e
 3630 15c6 00       		.byte	0
 3631 15c7 31       		.uleb128 0x31
 3632 15c8 656E6400 		.ascii "end\0"
 3633 15cc 13       		.byte	0x13
 3634 15cd 8402     		.word	0x284
 3635 15cf 5F5A4E4B 		.ascii "_ZNKSs3endEv\0"
 3635      53733365 
 3635      6E644576 
 3635      00
 3636 15dc B50A0000 		.long	0xab5
 3637 15e0 01       		.byte	0x1
 3638 15e1 E9150000 		.long	0x15e9
 3639 15e5 EF150000 		.long	0x15ef
 3640 15e9 1B       		.uleb128 0x1b
 3641 15ea 58460000 		.long	0x4658
 3642 15ee 00       		.byte	0
 3643 15ef 31       		.uleb128 0x31
 3644 15f0 72626567 		.ascii "rbegin\0"
 3644      696E00
 3645 15f7 13       		.byte	0x13
 3646 15f8 8D02     		.word	0x28d
 3647 15fa 5F5A4E53 		.ascii "_ZNSs6rbeginEv\0"
 3647      73367262 
 3647      6567696E 
 3647      457600
 3648 1609 EB0A0000 		.long	0xaeb
 3649 160d 01       		.byte	0x1
 3650 160e 16160000 		.long	0x1616
 3651 1612 1C160000 		.long	0x161c
 3652 1616 1B       		.uleb128 0x1b
 3653 1617 5E460000 		.long	0x465e
 3654 161b 00       		.byte	0
 3655 161c 31       		.uleb128 0x31
 3656 161d 72626567 		.ascii "rbegin\0"
 3656      696E00
 3657 1624 13       		.byte	0x13
 3658 1625 9602     		.word	0x296
 3659 1627 5F5A4E4B 		.ascii "_ZNKSs6rbeginEv\0"
 3659      53733672 
 3659      62656769 
 3659      6E457600 
 3660 1637 CC0A0000 		.long	0xacc
 3661 163b 01       		.byte	0x1
 3662 163c 44160000 		.long	0x1644
 3663 1640 4A160000 		.long	0x164a
 3664 1644 1B       		.uleb128 0x1b
 3665 1645 58460000 		.long	0x4658
 3666 1649 00       		.byte	0
 3667 164a 31       		.uleb128 0x31
 3668 164b 72656E64 		.ascii "rend\0"
 3668      00
 3669 1650 13       		.byte	0x13
 3670 1651 9F02     		.word	0x29f
 3671 1653 5F5A4E53 		.ascii "_ZNSs4rendEv\0"
 3671      73347265 
GAS LISTING C:\Users\NJLLMR~1\AppData\Local\Temp\cc3wbcxt.s 			page 91


 3671      6E644576 
 3671      00
 3672 1660 EB0A0000 		.long	0xaeb
 3673 1664 01       		.byte	0x1
 3674 1665 6D160000 		.long	0x166d
 3675 1669 73160000 		.long	0x1673
 3676 166d 1B       		.uleb128 0x1b
 3677 166e 5E460000 		.long	0x465e
 3678 1672 00       		.byte	0
 3679 1673 31       		.uleb128 0x31
 3680 1674 72656E64 		.ascii "rend\0"
 3680      00
 3681 1679 13       		.byte	0x13
 3682 167a A802     		.word	0x2a8
 3683 167c 5F5A4E4B 		.ascii "_ZNKSs4rendEv\0"
 3683      53733472 
 3683      656E6445 
 3683      7600
 3684 168a CC0A0000 		.long	0xacc
 3685 168e 01       		.byte	0x1
 3686 168f 97160000 		.long	0x1697
 3687 1693 9D160000 		.long	0x169d
 3688 1697 1B       		.uleb128 0x1b
 3689 1698 58460000 		.long	0x4658
 3690 169c 00       		.byte	0
 3691 169d 31       		.uleb128 0x31
 3692 169e 73697A65 		.ascii "size\0"
 3692      00
 3693 16a3 13       		.byte	0x13
 3694 16a4 D402     		.word	0x2d4
 3695 16a6 5F5A4E4B 		.ascii "_ZNKSs4sizeEv\0"
 3695      53733473 
 3695      697A6545 
 3695      7600
 3696 16b4 410A0000 		.long	0xa41
 3697 16b8 01       		.byte	0x1
 3698 16b9 C1160000 		.long	0x16c1
 3699 16bd C7160000 		.long	0x16c7
 3700 16c1 1B       		.uleb128 0x1b
 3701 16c2 58460000 		.long	0x4658
 3702 16c6 00       		.byte	0
 3703 16c7 31       		.uleb128 0x31
 3704 16c8 6C656E67 		.ascii "length\0"
 3704      746800
 3705 16cf 13       		.byte	0x13
 3706 16d0 DA02     		.word	0x2da
 3707 16d2 5F5A4E4B 		.ascii "_ZNKSs6lengthEv\0"
 3707      5373366C 
 3707      656E6774 
 3707      68457600 
 3708 16e2 410A0000 		.long	0xa41
 3709 16e6 01       		.byte	0x1
 3710 16e7 EF160000 		.long	0x16ef
 3711 16eb F5160000 		.long	0x16f5
 3712 16ef 1B       		.uleb128 0x1b
 3713 16f0 58460000 		.long	0x4658
 3714 16f4 00       		.byte	0
GAS LISTING C:\Users\NJLLMR~1\AppData\Local\Temp\cc3wbcxt.s 			page 92


 3715 16f5 30       		.uleb128 0x30
 3716 16f6 0F010000 		.secrel32	LASF11
 3717 16fa 13       		.byte	0x13
 3718 16fb DF02     		.word	0x2df
 3719 16fd 5F5A4E4B 		.ascii "_ZNKSs8max_sizeEv\0"
 3719      5373386D 
 3719      61785F73 
 3719      697A6545 
 3719      7600
 3720 170f 410A0000 		.long	0xa41
 3721 1713 01       		.byte	0x1
 3722 1714 1C170000 		.long	0x171c
 3723 1718 22170000 		.long	0x1722
 3724 171c 1B       		.uleb128 0x1b
 3725 171d 58460000 		.long	0x4658
 3726 1721 00       		.byte	0
 3727 1722 32       		.uleb128 0x32
 3728 1723 72657369 		.ascii "resize\0"
 3728      7A6500
 3729 172a 14       		.byte	0x14
 3730 172b 7F02     		.word	0x27f
 3731 172d 5F5A4E53 		.ascii "_ZNSs6resizeEjc\0"
 3731      73367265 
 3731      73697A65 
 3731      456A6300 
 3732 173d 01       		.byte	0x1
 3733 173e 46170000 		.long	0x1746
 3734 1742 56170000 		.long	0x1756
 3735 1746 1B       		.uleb128 0x1b
 3736 1747 5E460000 		.long	0x465e
 3737 174b 10       		.uleb128 0x10
 3738 174c 410A0000 		.long	0xa41
 3739 1750 10       		.uleb128 0x10
 3740 1751 55010000 		.long	0x155
 3741 1755 00       		.byte	0
 3742 1756 32       		.uleb128 0x32
 3743 1757 72657369 		.ascii "resize\0"
 3743      7A6500
 3744 175e 13       		.byte	0x13
 3745 175f FA02     		.word	0x2fa
 3746 1761 5F5A4E53 		.ascii "_ZNSs6resizeEj\0"
 3746      73367265 
 3746      73697A65 
 3746      456A00
 3747 1770 01       		.byte	0x1
 3748 1771 79170000 		.long	0x1779
 3749 1775 84170000 		.long	0x1784
 3750 1779 1B       		.uleb128 0x1b
 3751 177a 5E460000 		.long	0x465e
 3752 177e 10       		.uleb128 0x10
 3753 177f 410A0000 		.long	0xa41
 3754 1783 00       		.byte	0
 3755 1784 31       		.uleb128 0x31
 3756 1785 63617061 		.ascii "capacity\0"
 3756      63697479 
 3756      00
 3757 178e 13       		.byte	0x13
GAS LISTING C:\Users\NJLLMR~1\AppData\Local\Temp\cc3wbcxt.s 			page 93


 3758 178f 1103     		.word	0x311
 3759 1791 5F5A4E4B 		.ascii "_ZNKSs8capacityEv\0"
 3759      53733863 
 3759      61706163 
 3759      69747945 
 3759      7600
 3760 17a3 410A0000 		.long	0xa41
 3761 17a7 01       		.byte	0x1
 3762 17a8 B0170000 		.long	0x17b0
 3763 17ac B6170000 		.long	0x17b6
 3764 17b0 1B       		.uleb128 0x1b
 3765 17b1 58460000 		.long	0x4658
 3766 17b5 00       		.byte	0
 3767 17b6 32       		.uleb128 0x32
 3768 17b7 72657365 		.ascii "reserve\0"
 3768      72766500 
 3769 17bf 14       		.byte	0x14
 3770 17c0 F501     		.word	0x1f5
 3771 17c2 5F5A4E53 		.ascii "_ZNSs7reserveEj\0"
 3771      73377265 
 3771      73657276 
 3771      65456A00 
 3772 17d2 01       		.byte	0x1
 3773 17d3 DB170000 		.long	0x17db
 3774 17d7 E6170000 		.long	0x17e6
 3775 17db 1B       		.uleb128 0x1b
 3776 17dc 5E460000 		.long	0x465e
 3777 17e0 10       		.uleb128 0x10
 3778 17e1 410A0000 		.long	0xa41
 3779 17e5 00       		.byte	0
 3780 17e6 32       		.uleb128 0x32
 3781 17e7 636C6561 		.ascii "clear\0"
 3781      7200
 3782 17ed 13       		.byte	0x13
 3783 17ee 2D03     		.word	0x32d
 3784 17f0 5F5A4E53 		.ascii "_ZNSs5clearEv\0"
 3784      7335636C 
 3784      65617245 
 3784      7600
 3785 17fe 01       		.byte	0x1
 3786 17ff 07180000 		.long	0x1807
 3787 1803 0D180000 		.long	0x180d
 3788 1807 1B       		.uleb128 0x1b
 3789 1808 5E460000 		.long	0x465e
 3790 180c 00       		.byte	0
 3791 180d 31       		.uleb128 0x31
 3792 180e 656D7074 		.ascii "empty\0"
 3792      7900
 3793 1814 13       		.byte	0x13
 3794 1815 3503     		.word	0x335
 3795 1817 5F5A4E4B 		.ascii "_ZNKSs5emptyEv\0"
 3795      53733565 
 3795      6D707479 
 3795      457600
 3796 1826 10440000 		.long	0x4410
 3797 182a 01       		.byte	0x1
 3798 182b 33180000 		.long	0x1833
GAS LISTING C:\Users\NJLLMR~1\AppData\Local\Temp\cc3wbcxt.s 			page 94


 3799 182f 39180000 		.long	0x1839
 3800 1833 1B       		.uleb128 0x1b
 3801 1834 58460000 		.long	0x4658
 3802 1838 00       		.byte	0
 3803 1839 30       		.uleb128 0x30
 3804 183a 51000000 		.secrel32	LASF12
 3805 183e 13       		.byte	0x13
 3806 183f 4403     		.word	0x344
 3807 1841 5F5A4E4B 		.ascii "_ZNKSsixEj\0"
 3807      53736978 
 3807      456A00
 3808 184c 980A0000 		.long	0xa98
 3809 1850 01       		.byte	0x1
 3810 1851 59180000 		.long	0x1859
 3811 1855 64180000 		.long	0x1864
 3812 1859 1B       		.uleb128 0x1b
 3813 185a 58460000 		.long	0x4658
 3814 185e 10       		.uleb128 0x10
 3815 185f 410A0000 		.long	0xa41
 3816 1863 00       		.byte	0
 3817 1864 30       		.uleb128 0x30
 3818 1865 51000000 		.secrel32	LASF12
 3819 1869 13       		.byte	0x13
 3820 186a 5503     		.word	0x355
 3821 186c 5F5A4E53 		.ascii "_ZNSsixEj\0"
 3821      73697845 
 3821      6A00
 3822 1876 8C0A0000 		.long	0xa8c
 3823 187a 01       		.byte	0x1
 3824 187b 83180000 		.long	0x1883
 3825 187f 8E180000 		.long	0x188e
 3826 1883 1B       		.uleb128 0x1b
 3827 1884 5E460000 		.long	0x465e
 3828 1888 10       		.uleb128 0x10
 3829 1889 410A0000 		.long	0xa41
 3830 188d 00       		.byte	0
 3831 188e 31       		.uleb128 0x31
 3832 188f 617400   		.ascii "at\0"
 3833 1892 13       		.byte	0x13
 3834 1893 6B03     		.word	0x36b
 3835 1895 5F5A4E4B 		.ascii "_ZNKSs2atEj\0"
 3835      53733261 
 3835      74456A00 
 3836 18a1 980A0000 		.long	0xa98
 3837 18a5 01       		.byte	0x1
 3838 18a6 AE180000 		.long	0x18ae
 3839 18aa B9180000 		.long	0x18b9
 3840 18ae 1B       		.uleb128 0x1b
 3841 18af 58460000 		.long	0x4658
 3842 18b3 10       		.uleb128 0x10
 3843 18b4 410A0000 		.long	0xa41
 3844 18b8 00       		.byte	0
 3845 18b9 31       		.uleb128 0x31
 3846 18ba 617400   		.ascii "at\0"
 3847 18bd 13       		.byte	0x13
 3848 18be 8103     		.word	0x381
 3849 18c0 5F5A4E53 		.ascii "_ZNSs2atEj\0"
GAS LISTING C:\Users\NJLLMR~1\AppData\Local\Temp\cc3wbcxt.s 			page 95


 3849      73326174 
 3849      456A00
 3850 18cb 8C0A0000 		.long	0xa8c
 3851 18cf 01       		.byte	0x1
 3852 18d0 D8180000 		.long	0x18d8
 3853 18d4 E3180000 		.long	0x18e3
 3854 18d8 1B       		.uleb128 0x1b
 3855 18d9 5E460000 		.long	0x465e
 3856 18dd 10       		.uleb128 0x10
 3857 18de 410A0000 		.long	0xa41
 3858 18e2 00       		.byte	0
 3859 18e3 30       		.uleb128 0x30
 3860 18e4 2A010000 		.secrel32	LASF13
 3861 18e8 13       		.byte	0x13
 3862 18e9 B503     		.word	0x3b5
 3863 18eb 5F5A4E53 		.ascii "_ZNSspLERKSs\0"
 3863      73704C45 
 3863      524B5373 
 3863      00
 3864 18f8 76460000 		.long	0x4676
 3865 18fc 01       		.byte	0x1
 3866 18fd 05190000 		.long	0x1905
 3867 1901 10190000 		.long	0x1910
 3868 1905 1B       		.uleb128 0x1b
 3869 1906 5E460000 		.long	0x465e
 3870 190a 10       		.uleb128 0x10
 3871 190b 70460000 		.long	0x4670
 3872 190f 00       		.byte	0
 3873 1910 30       		.uleb128 0x30
 3874 1911 2A010000 		.secrel32	LASF13
 3875 1915 13       		.byte	0x13
 3876 1916 BE03     		.word	0x3be
 3877 1918 5F5A4E53 		.ascii "_ZNSspLEPKc\0"
 3877      73704C45 
 3877      504B6300 
 3878 1924 76460000 		.long	0x4676
 3879 1928 01       		.byte	0x1
 3880 1929 31190000 		.long	0x1931
 3881 192d 3C190000 		.long	0x193c
 3882 1931 1B       		.uleb128 0x1b
 3883 1932 5E460000 		.long	0x465e
 3884 1936 10       		.uleb128 0x10
 3885 1937 32380000 		.long	0x3832
 3886 193b 00       		.byte	0
 3887 193c 30       		.uleb128 0x30
 3888 193d 2A010000 		.secrel32	LASF13
 3889 1941 13       		.byte	0x13
 3890 1942 C703     		.word	0x3c7
 3891 1944 5F5A4E53 		.ascii "_ZNSspLEc\0"
 3891      73704C45 
 3891      6300
 3892 194e 76460000 		.long	0x4676
 3893 1952 01       		.byte	0x1
 3894 1953 5B190000 		.long	0x195b
 3895 1957 66190000 		.long	0x1966
 3896 195b 1B       		.uleb128 0x1b
 3897 195c 5E460000 		.long	0x465e
GAS LISTING C:\Users\NJLLMR~1\AppData\Local\Temp\cc3wbcxt.s 			page 96


 3898 1960 10       		.uleb128 0x10
 3899 1961 55010000 		.long	0x155
 3900 1965 00       		.byte	0
 3901 1966 30       		.uleb128 0x30
 3902 1967 74010000 		.secrel32	LASF14
 3903 196b 14       		.byte	0x14
 3904 196c 4401     		.word	0x144
 3905 196e 5F5A4E53 		.ascii "_ZNSs6appendERKSs\0"
 3905      73366170 
 3905      70656E64 
 3905      45524B53 
 3905      7300
 3906 1980 76460000 		.long	0x4676
 3907 1984 01       		.byte	0x1
 3908 1985 8D190000 		.long	0x198d
 3909 1989 98190000 		.long	0x1998
 3910 198d 1B       		.uleb128 0x1b
 3911 198e 5E460000 		.long	0x465e
 3912 1992 10       		.uleb128 0x10
 3913 1993 70460000 		.long	0x4670
 3914 1997 00       		.byte	0
 3915 1998 30       		.uleb128 0x30
 3916 1999 74010000 		.secrel32	LASF14
 3917 199d 14       		.byte	0x14
 3918 199e 5501     		.word	0x155
 3919 19a0 5F5A4E53 		.ascii "_ZNSs6appendERKSsjj\0"
 3919      73366170 
 3919      70656E64 
 3919      45524B53 
 3919      736A6A00 
 3920 19b4 76460000 		.long	0x4676
 3921 19b8 01       		.byte	0x1
 3922 19b9 C1190000 		.long	0x19c1
 3923 19bd D6190000 		.long	0x19d6
 3924 19c1 1B       		.uleb128 0x1b
 3925 19c2 5E460000 		.long	0x465e
 3926 19c6 10       		.uleb128 0x10
 3927 19c7 70460000 		.long	0x4670
 3928 19cb 10       		.uleb128 0x10
 3929 19cc 410A0000 		.long	0xa41
 3930 19d0 10       		.uleb128 0x10
 3931 19d1 410A0000 		.long	0xa41
 3932 19d5 00       		.byte	0
 3933 19d6 30       		.uleb128 0x30
 3934 19d7 74010000 		.secrel32	LASF14
 3935 19db 14       		.byte	0x14
 3936 19dc 2901     		.word	0x129
 3937 19de 5F5A4E53 		.ascii "_ZNSs6appendEPKcj\0"
 3937      73366170 
 3937      70656E64 
 3937      45504B63 
 3937      6A00
 3938 19f0 76460000 		.long	0x4676
 3939 19f4 01       		.byte	0x1
 3940 19f5 FD190000 		.long	0x19fd
 3941 19f9 0D1A0000 		.long	0x1a0d
 3942 19fd 1B       		.uleb128 0x1b
GAS LISTING C:\Users\NJLLMR~1\AppData\Local\Temp\cc3wbcxt.s 			page 97


 3943 19fe 5E460000 		.long	0x465e
 3944 1a02 10       		.uleb128 0x10
 3945 1a03 32380000 		.long	0x3832
 3946 1a07 10       		.uleb128 0x10
 3947 1a08 410A0000 		.long	0xa41
 3948 1a0c 00       		.byte	0
 3949 1a0d 30       		.uleb128 0x30
 3950 1a0e 74010000 		.secrel32	LASF14
 3951 1a12 13       		.byte	0x13
 3952 1a13 FF03     		.word	0x3ff
 3953 1a15 5F5A4E53 		.ascii "_ZNSs6appendEPKc\0"
 3953      73366170 
 3953      70656E64 
 3953      45504B63 
 3953      00
 3954 1a26 76460000 		.long	0x4676
 3955 1a2a 01       		.byte	0x1
 3956 1a2b 331A0000 		.long	0x1a33
 3957 1a2f 3E1A0000 		.long	0x1a3e
 3958 1a33 1B       		.uleb128 0x1b
 3959 1a34 5E460000 		.long	0x465e
 3960 1a38 10       		.uleb128 0x10
 3961 1a39 32380000 		.long	0x3832
 3962 1a3d 00       		.byte	0
 3963 1a3e 30       		.uleb128 0x30
 3964 1a3f 74010000 		.secrel32	LASF14
 3965 1a43 14       		.byte	0x14
 3966 1a44 1801     		.word	0x118
 3967 1a46 5F5A4E53 		.ascii "_ZNSs6appendEjc\0"
 3967      73366170 
 3967      70656E64 
 3967      456A6300 
 3968 1a56 76460000 		.long	0x4676
 3969 1a5a 01       		.byte	0x1
 3970 1a5b 631A0000 		.long	0x1a63
 3971 1a5f 731A0000 		.long	0x1a73
 3972 1a63 1B       		.uleb128 0x1b
 3973 1a64 5E460000 		.long	0x465e
 3974 1a68 10       		.uleb128 0x10
 3975 1a69 410A0000 		.long	0xa41
 3976 1a6d 10       		.uleb128 0x10
 3977 1a6e 55010000 		.long	0x155
 3978 1a72 00       		.byte	0
 3979 1a73 32       		.uleb128 0x32
 3980 1a74 70757368 		.ascii "push_back\0"
 3980      5F626163 
 3980      6B00
 3981 1a7e 13       		.byte	0x13
 3982 1a7f 2D04     		.word	0x42d
 3983 1a81 5F5A4E53 		.ascii "_ZNSs9push_backEc\0"
 3983      73397075 
 3983      73685F62 
 3983      61636B45 
 3983      6300
 3984 1a93 01       		.byte	0x1
 3985 1a94 9C1A0000 		.long	0x1a9c
 3986 1a98 A71A0000 		.long	0x1aa7
GAS LISTING C:\Users\NJLLMR~1\AppData\Local\Temp\cc3wbcxt.s 			page 98


 3987 1a9c 1B       		.uleb128 0x1b
 3988 1a9d 5E460000 		.long	0x465e
 3989 1aa1 10       		.uleb128 0x10
 3990 1aa2 55010000 		.long	0x155
 3991 1aa6 00       		.byte	0
 3992 1aa7 33       		.uleb128 0x33
 3993 1aa8 A2010000 		.secrel32	LASF1
 3994 1aac 14       		.byte	0x14
 3995 1aad F2       		.byte	0xf2
 3996 1aae 5F5A4E53 		.ascii "_ZNSs6assignERKSs\0"
 3996      73366173 
 3996      7369676E 
 3996      45524B53 
 3996      7300
 3997 1ac0 76460000 		.long	0x4676
 3998 1ac4 01       		.byte	0x1
 3999 1ac5 CD1A0000 		.long	0x1acd
 4000 1ac9 D81A0000 		.long	0x1ad8
 4001 1acd 1B       		.uleb128 0x1b
 4002 1ace 5E460000 		.long	0x465e
 4003 1ad2 10       		.uleb128 0x10
 4004 1ad3 70460000 		.long	0x4670
 4005 1ad7 00       		.byte	0
 4006 1ad8 30       		.uleb128 0x30
 4007 1ad9 A2010000 		.secrel32	LASF1
 4008 1add 13       		.byte	0x13
 4009 1ade 5E04     		.word	0x45e
 4010 1ae0 5F5A4E53 		.ascii "_ZNSs6assignERKSsjj\0"
 4010      73366173 
 4010      7369676E 
 4010      45524B53 
 4010      736A6A00 
 4011 1af4 76460000 		.long	0x4676
 4012 1af8 01       		.byte	0x1
 4013 1af9 011B0000 		.long	0x1b01
 4014 1afd 161B0000 		.long	0x1b16
 4015 1b01 1B       		.uleb128 0x1b
 4016 1b02 5E460000 		.long	0x465e
 4017 1b06 10       		.uleb128 0x10
 4018 1b07 70460000 		.long	0x4670
 4019 1b0b 10       		.uleb128 0x10
 4020 1b0c 410A0000 		.long	0xa41
 4021 1b10 10       		.uleb128 0x10
 4022 1b11 410A0000 		.long	0xa41
 4023 1b15 00       		.byte	0
 4024 1b16 30       		.uleb128 0x30
 4025 1b17 A2010000 		.secrel32	LASF1
 4026 1b1b 14       		.byte	0x14
 4027 1b1c 0201     		.word	0x102
 4028 1b1e 5F5A4E53 		.ascii "_ZNSs6assignEPKcj\0"
 4028      73366173 
 4028      7369676E 
 4028      45504B63 
 4028      6A00
 4029 1b30 76460000 		.long	0x4676
 4030 1b34 01       		.byte	0x1
 4031 1b35 3D1B0000 		.long	0x1b3d
GAS LISTING C:\Users\NJLLMR~1\AppData\Local\Temp\cc3wbcxt.s 			page 99


 4032 1b39 4D1B0000 		.long	0x1b4d
 4033 1b3d 1B       		.uleb128 0x1b
 4034 1b3e 5E460000 		.long	0x465e
 4035 1b42 10       		.uleb128 0x10
 4036 1b43 32380000 		.long	0x3832
 4037 1b47 10       		.uleb128 0x10
 4038 1b48 410A0000 		.long	0xa41
 4039 1b4c 00       		.byte	0
 4040 1b4d 30       		.uleb128 0x30
 4041 1b4e A2010000 		.secrel32	LASF1
 4042 1b52 13       		.byte	0x13
 4043 1b53 7A04     		.word	0x47a
 4044 1b55 5F5A4E53 		.ascii "_ZNSs6assignEPKc\0"
 4044      73366173 
 4044      7369676E 
 4044      45504B63 
 4044      00
 4045 1b66 76460000 		.long	0x4676
 4046 1b6a 01       		.byte	0x1
 4047 1b6b 731B0000 		.long	0x1b73
 4048 1b6f 7E1B0000 		.long	0x1b7e
 4049 1b73 1B       		.uleb128 0x1b
 4050 1b74 5E460000 		.long	0x465e
 4051 1b78 10       		.uleb128 0x10
 4052 1b79 32380000 		.long	0x3832
 4053 1b7d 00       		.byte	0
 4054 1b7e 30       		.uleb128 0x30
 4055 1b7f A2010000 		.secrel32	LASF1
 4056 1b83 13       		.byte	0x13
 4057 1b84 8A04     		.word	0x48a
 4058 1b86 5F5A4E53 		.ascii "_ZNSs6assignEjc\0"
 4058      73366173 
 4058      7369676E 
 4058      456A6300 
 4059 1b96 76460000 		.long	0x4676
 4060 1b9a 01       		.byte	0x1
 4061 1b9b A31B0000 		.long	0x1ba3
 4062 1b9f B31B0000 		.long	0x1bb3
 4063 1ba3 1B       		.uleb128 0x1b
 4064 1ba4 5E460000 		.long	0x465e
 4065 1ba8 10       		.uleb128 0x10
 4066 1ba9 410A0000 		.long	0xa41
 4067 1bad 10       		.uleb128 0x10
 4068 1bae 55010000 		.long	0x155
 4069 1bb2 00       		.byte	0
 4070 1bb3 34       		.uleb128 0x34
 4071 1bb4 35010000 		.secrel32	LASF15
 4072 1bb8 13       		.byte	0x13
 4073 1bb9 B304     		.word	0x4b3
 4074 1bbb 5F5A4E53 		.ascii "_ZNSs6insertEN9__gnu_cxx17__normal_iteratorIPcSsEEjc\0"
 4074      7336696E 
 4074      73657274 
 4074      454E395F 
 4074      5F676E75 
 4075 1bf0 01       		.byte	0x1
 4076 1bf1 F91B0000 		.long	0x1bf9
 4077 1bf5 0E1C0000 		.long	0x1c0e
GAS LISTING C:\Users\NJLLMR~1\AppData\Local\Temp\cc3wbcxt.s 			page 100


 4078 1bf9 1B       		.uleb128 0x1b
 4079 1bfa 5E460000 		.long	0x465e
 4080 1bfe 10       		.uleb128 0x10
 4081 1bff A40A0000 		.long	0xaa4
 4082 1c03 10       		.uleb128 0x10
 4083 1c04 410A0000 		.long	0xa41
 4084 1c08 10       		.uleb128 0x10
 4085 1c09 55010000 		.long	0x155
 4086 1c0d 00       		.byte	0
 4087 1c0e 30       		.uleb128 0x30
 4088 1c0f 35010000 		.secrel32	LASF15
 4089 1c13 13       		.byte	0x13
 4090 1c14 E304     		.word	0x4e3
 4091 1c16 5F5A4E53 		.ascii "_ZNSs6insertEjRKSs\0"
 4091      7336696E 
 4091      73657274 
 4091      456A524B 
 4091      537300
 4092 1c29 76460000 		.long	0x4676
 4093 1c2d 01       		.byte	0x1
 4094 1c2e 361C0000 		.long	0x1c36
 4095 1c32 461C0000 		.long	0x1c46
 4096 1c36 1B       		.uleb128 0x1b
 4097 1c37 5E460000 		.long	0x465e
 4098 1c3b 10       		.uleb128 0x10
 4099 1c3c 410A0000 		.long	0xa41
 4100 1c40 10       		.uleb128 0x10
 4101 1c41 70460000 		.long	0x4670
 4102 1c45 00       		.byte	0
 4103 1c46 30       		.uleb128 0x30
 4104 1c47 35010000 		.secrel32	LASF15
 4105 1c4b 13       		.byte	0x13
 4106 1c4c F904     		.word	0x4f9
 4107 1c4e 5F5A4E53 		.ascii "_ZNSs6insertEjRKSsjj\0"
 4107      7336696E 
 4107      73657274 
 4107      456A524B 
 4107      53736A6A 
 4108 1c63 76460000 		.long	0x4676
 4109 1c67 01       		.byte	0x1
 4110 1c68 701C0000 		.long	0x1c70
 4111 1c6c 8A1C0000 		.long	0x1c8a
 4112 1c70 1B       		.uleb128 0x1b
 4113 1c71 5E460000 		.long	0x465e
 4114 1c75 10       		.uleb128 0x10
 4115 1c76 410A0000 		.long	0xa41
 4116 1c7a 10       		.uleb128 0x10
 4117 1c7b 70460000 		.long	0x4670
 4118 1c7f 10       		.uleb128 0x10
 4119 1c80 410A0000 		.long	0xa41
 4120 1c84 10       		.uleb128 0x10
 4121 1c85 410A0000 		.long	0xa41
 4122 1c89 00       		.byte	0
 4123 1c8a 30       		.uleb128 0x30
 4124 1c8b 35010000 		.secrel32	LASF15
 4125 1c8f 14       		.byte	0x14
 4126 1c90 6701     		.word	0x167
GAS LISTING C:\Users\NJLLMR~1\AppData\Local\Temp\cc3wbcxt.s 			page 101


 4127 1c92 5F5A4E53 		.ascii "_ZNSs6insertEjPKcj\0"
 4127      7336696E 
 4127      73657274 
 4127      456A504B 
 4127      636A00
 4128 1ca5 76460000 		.long	0x4676
 4129 1ca9 01       		.byte	0x1
 4130 1caa B21C0000 		.long	0x1cb2
 4131 1cae C71C0000 		.long	0x1cc7
 4132 1cb2 1B       		.uleb128 0x1b
 4133 1cb3 5E460000 		.long	0x465e
 4134 1cb7 10       		.uleb128 0x10
 4135 1cb8 410A0000 		.long	0xa41
 4136 1cbc 10       		.uleb128 0x10
 4137 1cbd 32380000 		.long	0x3832
 4138 1cc1 10       		.uleb128 0x10
 4139 1cc2 410A0000 		.long	0xa41
 4140 1cc6 00       		.byte	0
 4141 1cc7 30       		.uleb128 0x30
 4142 1cc8 35010000 		.secrel32	LASF15
 4143 1ccc 13       		.byte	0x13
 4144 1ccd 2205     		.word	0x522
 4145 1ccf 5F5A4E53 		.ascii "_ZNSs6insertEjPKc\0"
 4145      7336696E 
 4145      73657274 
 4145      456A504B 
 4145      6300
 4146 1ce1 76460000 		.long	0x4676
 4147 1ce5 01       		.byte	0x1
 4148 1ce6 EE1C0000 		.long	0x1cee
 4149 1cea FE1C0000 		.long	0x1cfe
 4150 1cee 1B       		.uleb128 0x1b
 4151 1cef 5E460000 		.long	0x465e
 4152 1cf3 10       		.uleb128 0x10
 4153 1cf4 410A0000 		.long	0xa41
 4154 1cf8 10       		.uleb128 0x10
 4155 1cf9 32380000 		.long	0x3832
 4156 1cfd 00       		.byte	0
 4157 1cfe 30       		.uleb128 0x30
 4158 1cff 35010000 		.secrel32	LASF15
 4159 1d03 13       		.byte	0x13
 4160 1d04 3905     		.word	0x539
 4161 1d06 5F5A4E53 		.ascii "_ZNSs6insertEjjc\0"
 4161      7336696E 
 4161      73657274 
 4161      456A6A63 
 4161      00
 4162 1d17 76460000 		.long	0x4676
 4163 1d1b 01       		.byte	0x1
 4164 1d1c 241D0000 		.long	0x1d24
 4165 1d20 391D0000 		.long	0x1d39
 4166 1d24 1B       		.uleb128 0x1b
 4167 1d25 5E460000 		.long	0x465e
 4168 1d29 10       		.uleb128 0x10
 4169 1d2a 410A0000 		.long	0xa41
 4170 1d2e 10       		.uleb128 0x10
 4171 1d2f 410A0000 		.long	0xa41
GAS LISTING C:\Users\NJLLMR~1\AppData\Local\Temp\cc3wbcxt.s 			page 102


 4172 1d33 10       		.uleb128 0x10
 4173 1d34 55010000 		.long	0x155
 4174 1d38 00       		.byte	0
 4175 1d39 30       		.uleb128 0x30
 4176 1d3a 35010000 		.secrel32	LASF15
 4177 1d3e 13       		.byte	0x13
 4178 1d3f 4B05     		.word	0x54b
 4179 1d41 5F5A4E53 		.ascii "_ZNSs6insertEN9__gnu_cxx17__normal_iteratorIPcSsEEc\0"
 4179      7336696E 
 4179      73657274 
 4179      454E395F 
 4179      5F676E75 
 4180 1d75 A40A0000 		.long	0xaa4
 4181 1d79 01       		.byte	0x1
 4182 1d7a 821D0000 		.long	0x1d82
 4183 1d7e 921D0000 		.long	0x1d92
 4184 1d82 1B       		.uleb128 0x1b
 4185 1d83 5E460000 		.long	0x465e
 4186 1d87 10       		.uleb128 0x10
 4187 1d88 A40A0000 		.long	0xaa4
 4188 1d8c 10       		.uleb128 0x10
 4189 1d8d 55010000 		.long	0x155
 4190 1d91 00       		.byte	0
 4191 1d92 31       		.uleb128 0x31
 4192 1d93 65726173 		.ascii "erase\0"
 4192      6500
 4193 1d99 13       		.byte	0x13
 4194 1d9a 6405     		.word	0x564
 4195 1d9c 5F5A4E53 		.ascii "_ZNSs5eraseEjj\0"
 4195      73356572 
 4195      61736545 
 4195      6A6A00
 4196 1dab 76460000 		.long	0x4676
 4197 1daf 01       		.byte	0x1
 4198 1db0 B81D0000 		.long	0x1db8
 4199 1db4 C81D0000 		.long	0x1dc8
 4200 1db8 1B       		.uleb128 0x1b
 4201 1db9 5E460000 		.long	0x465e
 4202 1dbd 10       		.uleb128 0x10
 4203 1dbe 410A0000 		.long	0xa41
 4204 1dc2 10       		.uleb128 0x10
 4205 1dc3 410A0000 		.long	0xa41
 4206 1dc7 00       		.byte	0
 4207 1dc8 31       		.uleb128 0x31
 4208 1dc9 65726173 		.ascii "erase\0"
 4208      6500
 4209 1dcf 13       		.byte	0x13
 4210 1dd0 7405     		.word	0x574
 4211 1dd2 5F5A4E53 		.ascii "_ZNSs5eraseEN9__gnu_cxx17__normal_iteratorIPcSsEE\0"
 4211      73356572 
 4211      61736545 
 4211      4E395F5F 
 4211      676E755F 
 4212 1e04 A40A0000 		.long	0xaa4
 4213 1e08 01       		.byte	0x1
 4214 1e09 111E0000 		.long	0x1e11
 4215 1e0d 1C1E0000 		.long	0x1e1c
GAS LISTING C:\Users\NJLLMR~1\AppData\Local\Temp\cc3wbcxt.s 			page 103


 4216 1e11 1B       		.uleb128 0x1b
 4217 1e12 5E460000 		.long	0x465e
 4218 1e16 10       		.uleb128 0x10
 4219 1e17 A40A0000 		.long	0xaa4
 4220 1e1b 00       		.byte	0
 4221 1e1c 31       		.uleb128 0x31
 4222 1e1d 65726173 		.ascii "erase\0"
 4222      6500
 4223 1e23 14       		.byte	0x14
 4224 1e24 8601     		.word	0x186
 4225 1e26 5F5A4E53 		.ascii "_ZNSs5eraseEN9__gnu_cxx17__normal_iteratorIPcSsEES2_\0"
 4225      73356572 
 4225      61736545 
 4225      4E395F5F 
 4225      676E755F 
 4226 1e5b A40A0000 		.long	0xaa4
 4227 1e5f 01       		.byte	0x1
 4228 1e60 681E0000 		.long	0x1e68
 4229 1e64 781E0000 		.long	0x1e78
 4230 1e68 1B       		.uleb128 0x1b
 4231 1e69 5E460000 		.long	0x465e
 4232 1e6d 10       		.uleb128 0x10
 4233 1e6e A40A0000 		.long	0xaa4
 4234 1e72 10       		.uleb128 0x10
 4235 1e73 A40A0000 		.long	0xaa4
 4236 1e77 00       		.byte	0
 4237 1e78 30       		.uleb128 0x30
 4238 1e79 10000000 		.secrel32	LASF16
 4239 1e7d 13       		.byte	0x13
 4240 1e7e A705     		.word	0x5a7
 4241 1e80 5F5A4E53 		.ascii "_ZNSs7replaceEjjRKSs\0"
 4241      73377265 
 4241      706C6163 
 4241      65456A6A 
 4241      524B5373 
 4242 1e95 76460000 		.long	0x4676
 4243 1e99 01       		.byte	0x1
 4244 1e9a A21E0000 		.long	0x1ea2
 4245 1e9e B71E0000 		.long	0x1eb7
 4246 1ea2 1B       		.uleb128 0x1b
 4247 1ea3 5E460000 		.long	0x465e
 4248 1ea7 10       		.uleb128 0x10
 4249 1ea8 410A0000 		.long	0xa41
 4250 1eac 10       		.uleb128 0x10
 4251 1ead 410A0000 		.long	0xa41
 4252 1eb1 10       		.uleb128 0x10
 4253 1eb2 70460000 		.long	0x4670
 4254 1eb6 00       		.byte	0
 4255 1eb7 30       		.uleb128 0x30
 4256 1eb8 10000000 		.secrel32	LASF16
 4257 1ebc 13       		.byte	0x13
 4258 1ebd BD05     		.word	0x5bd
 4259 1ebf 5F5A4E53 		.ascii "_ZNSs7replaceEjjRKSsjj\0"
 4259      73377265 
 4259      706C6163 
 4259      65456A6A 
 4259      524B5373 
GAS LISTING C:\Users\NJLLMR~1\AppData\Local\Temp\cc3wbcxt.s 			page 104


 4260 1ed6 76460000 		.long	0x4676
 4261 1eda 01       		.byte	0x1
 4262 1edb E31E0000 		.long	0x1ee3
 4263 1edf 021F0000 		.long	0x1f02
 4264 1ee3 1B       		.uleb128 0x1b
 4265 1ee4 5E460000 		.long	0x465e
 4266 1ee8 10       		.uleb128 0x10
 4267 1ee9 410A0000 		.long	0xa41
 4268 1eed 10       		.uleb128 0x10
 4269 1eee 410A0000 		.long	0xa41
 4270 1ef2 10       		.uleb128 0x10
 4271 1ef3 70460000 		.long	0x4670
 4272 1ef7 10       		.uleb128 0x10
 4273 1ef8 410A0000 		.long	0xa41
 4274 1efc 10       		.uleb128 0x10
 4275 1efd 410A0000 		.long	0xa41
 4276 1f01 00       		.byte	0
 4277 1f02 30       		.uleb128 0x30
 4278 1f03 10000000 		.secrel32	LASF16
 4279 1f07 14       		.byte	0x14
 4280 1f08 9D01     		.word	0x19d
 4281 1f0a 5F5A4E53 		.ascii "_ZNSs7replaceEjjPKcj\0"
 4281      73377265 
 4281      706C6163 
 4281      65456A6A 
 4281      504B636A 
 4282 1f1f 76460000 		.long	0x4676
 4283 1f23 01       		.byte	0x1
 4284 1f24 2C1F0000 		.long	0x1f2c
 4285 1f28 461F0000 		.long	0x1f46
 4286 1f2c 1B       		.uleb128 0x1b
 4287 1f2d 5E460000 		.long	0x465e
 4288 1f31 10       		.uleb128 0x10
 4289 1f32 410A0000 		.long	0xa41
 4290 1f36 10       		.uleb128 0x10
 4291 1f37 410A0000 		.long	0xa41
 4292 1f3b 10       		.uleb128 0x10
 4293 1f3c 32380000 		.long	0x3832
 4294 1f40 10       		.uleb128 0x10
 4295 1f41 410A0000 		.long	0xa41
 4296 1f45 00       		.byte	0
 4297 1f46 30       		.uleb128 0x30
 4298 1f47 10000000 		.secrel32	LASF16
 4299 1f4b 13       		.byte	0x13
 4300 1f4c EA05     		.word	0x5ea
 4301 1f4e 5F5A4E53 		.ascii "_ZNSs7replaceEjjPKc\0"
 4301      73377265 
 4301      706C6163 
 4301      65456A6A 
 4301      504B6300 
 4302 1f62 76460000 		.long	0x4676
 4303 1f66 01       		.byte	0x1
 4304 1f67 6F1F0000 		.long	0x1f6f
 4305 1f6b 841F0000 		.long	0x1f84
 4306 1f6f 1B       		.uleb128 0x1b
 4307 1f70 5E460000 		.long	0x465e
 4308 1f74 10       		.uleb128 0x10
GAS LISTING C:\Users\NJLLMR~1\AppData\Local\Temp\cc3wbcxt.s 			page 105


 4309 1f75 410A0000 		.long	0xa41
 4310 1f79 10       		.uleb128 0x10
 4311 1f7a 410A0000 		.long	0xa41
 4312 1f7e 10       		.uleb128 0x10
 4313 1f7f 32380000 		.long	0x3832
 4314 1f83 00       		.byte	0
 4315 1f84 30       		.uleb128 0x30
 4316 1f85 10000000 		.secrel32	LASF16
 4317 1f89 13       		.byte	0x13
 4318 1f8a 0206     		.word	0x602
 4319 1f8c 5F5A4E53 		.ascii "_ZNSs7replaceEjjjc\0"
 4319      73377265 
 4319      706C6163 
 4319      65456A6A 
 4319      6A6300
 4320 1f9f 76460000 		.long	0x4676
 4321 1fa3 01       		.byte	0x1
 4322 1fa4 AC1F0000 		.long	0x1fac
 4323 1fa8 C61F0000 		.long	0x1fc6
 4324 1fac 1B       		.uleb128 0x1b
 4325 1fad 5E460000 		.long	0x465e
 4326 1fb1 10       		.uleb128 0x10
 4327 1fb2 410A0000 		.long	0xa41
 4328 1fb6 10       		.uleb128 0x10
 4329 1fb7 410A0000 		.long	0xa41
 4330 1fbb 10       		.uleb128 0x10
 4331 1fbc 410A0000 		.long	0xa41
 4332 1fc0 10       		.uleb128 0x10
 4333 1fc1 55010000 		.long	0x155
 4334 1fc5 00       		.byte	0
 4335 1fc6 30       		.uleb128 0x30
 4336 1fc7 10000000 		.secrel32	LASF16
 4337 1fcb 13       		.byte	0x13
 4338 1fcc 1406     		.word	0x614
 4339 1fce 5F5A4E53 		.ascii "_ZNSs7replaceEN9__gnu_cxx17__normal_iteratorIPcSsEES2_RKSs\0"
 4339      73377265 
 4339      706C6163 
 4339      65454E39 
 4339      5F5F676E 
 4340 2009 76460000 		.long	0x4676
 4341 200d 01       		.byte	0x1
 4342 200e 16200000 		.long	0x2016
 4343 2012 2B200000 		.long	0x202b
 4344 2016 1B       		.uleb128 0x1b
 4345 2017 5E460000 		.long	0x465e
 4346 201b 10       		.uleb128 0x10
 4347 201c A40A0000 		.long	0xaa4
 4348 2020 10       		.uleb128 0x10
 4349 2021 A40A0000 		.long	0xaa4
 4350 2025 10       		.uleb128 0x10
 4351 2026 70460000 		.long	0x4670
 4352 202a 00       		.byte	0
 4353 202b 30       		.uleb128 0x30
 4354 202c 10000000 		.secrel32	LASF16
 4355 2030 13       		.byte	0x13
 4356 2031 2706     		.word	0x627
 4357 2033 5F5A4E53 		.ascii "_ZNSs7replaceEN9__gnu_cxx17__normal_iteratorIPcSsEES2_PKcj\0"
GAS LISTING C:\Users\NJLLMR~1\AppData\Local\Temp\cc3wbcxt.s 			page 106


 4357      73377265 
 4357      706C6163 
 4357      65454E39 
 4357      5F5F676E 
 4358 206e 76460000 		.long	0x4676
 4359 2072 01       		.byte	0x1
 4360 2073 7B200000 		.long	0x207b
 4361 2077 95200000 		.long	0x2095
 4362 207b 1B       		.uleb128 0x1b
 4363 207c 5E460000 		.long	0x465e
 4364 2080 10       		.uleb128 0x10
 4365 2081 A40A0000 		.long	0xaa4
 4366 2085 10       		.uleb128 0x10
 4367 2086 A40A0000 		.long	0xaa4
 4368 208a 10       		.uleb128 0x10
 4369 208b 32380000 		.long	0x3832
 4370 208f 10       		.uleb128 0x10
 4371 2090 410A0000 		.long	0xa41
 4372 2094 00       		.byte	0
 4373 2095 30       		.uleb128 0x30
 4374 2096 10000000 		.secrel32	LASF16
 4375 209a 13       		.byte	0x13
 4376 209b 3C06     		.word	0x63c
 4377 209d 5F5A4E53 		.ascii "_ZNSs7replaceEN9__gnu_cxx17__normal_iteratorIPcSsEES2_PKc\0"
 4377      73377265 
 4377      706C6163 
 4377      65454E39 
 4377      5F5F676E 
 4378 20d7 76460000 		.long	0x4676
 4379 20db 01       		.byte	0x1
 4380 20dc E4200000 		.long	0x20e4
 4381 20e0 F9200000 		.long	0x20f9
 4382 20e4 1B       		.uleb128 0x1b
 4383 20e5 5E460000 		.long	0x465e
 4384 20e9 10       		.uleb128 0x10
 4385 20ea A40A0000 		.long	0xaa4
 4386 20ee 10       		.uleb128 0x10
 4387 20ef A40A0000 		.long	0xaa4
 4388 20f3 10       		.uleb128 0x10
 4389 20f4 32380000 		.long	0x3832
 4390 20f8 00       		.byte	0
 4391 20f9 30       		.uleb128 0x30
 4392 20fa 10000000 		.secrel32	LASF16
 4393 20fe 13       		.byte	0x13
 4394 20ff 5106     		.word	0x651
 4395 2101 5F5A4E53 		.ascii "_ZNSs7replaceEN9__gnu_cxx17__normal_iteratorIPcSsEES2_jc\0"
 4395      73377265 
 4395      706C6163 
 4395      65454E39 
 4395      5F5F676E 
 4396 213a 76460000 		.long	0x4676
 4397 213e 01       		.byte	0x1
 4398 213f 47210000 		.long	0x2147
 4399 2143 61210000 		.long	0x2161
 4400 2147 1B       		.uleb128 0x1b
 4401 2148 5E460000 		.long	0x465e
 4402 214c 10       		.uleb128 0x10
GAS LISTING C:\Users\NJLLMR~1\AppData\Local\Temp\cc3wbcxt.s 			page 107


 4403 214d A40A0000 		.long	0xaa4
 4404 2151 10       		.uleb128 0x10
 4405 2152 A40A0000 		.long	0xaa4
 4406 2156 10       		.uleb128 0x10
 4407 2157 410A0000 		.long	0xa41
 4408 215b 10       		.uleb128 0x10
 4409 215c 55010000 		.long	0x155
 4410 2160 00       		.byte	0
 4411 2161 30       		.uleb128 0x30
 4412 2162 10000000 		.secrel32	LASF16
 4413 2166 13       		.byte	0x13
 4414 2167 7606     		.word	0x676
 4415 2169 5F5A4E53 		.ascii "_ZNSs7replaceEN9__gnu_cxx17__normal_iteratorIPcSsEES2_S1_S1_\0"
 4415      73377265 
 4415      706C6163 
 4415      65454E39 
 4415      5F5F676E 
 4416 21a6 76460000 		.long	0x4676
 4417 21aa 01       		.byte	0x1
 4418 21ab B3210000 		.long	0x21b3
 4419 21af CD210000 		.long	0x21cd
 4420 21b3 1B       		.uleb128 0x1b
 4421 21b4 5E460000 		.long	0x465e
 4422 21b8 10       		.uleb128 0x10
 4423 21b9 A40A0000 		.long	0xaa4
 4424 21bd 10       		.uleb128 0x10
 4425 21be A40A0000 		.long	0xaa4
 4426 21c2 10       		.uleb128 0x10
 4427 21c3 41020000 		.long	0x241
 4428 21c7 10       		.uleb128 0x10
 4429 21c8 41020000 		.long	0x241
 4430 21cc 00       		.byte	0
 4431 21cd 30       		.uleb128 0x30
 4432 21ce 10000000 		.secrel32	LASF16
 4433 21d2 13       		.byte	0x13
 4434 21d3 8006     		.word	0x680
 4435 21d5 5F5A4E53 		.ascii "_ZNSs7replaceEN9__gnu_cxx17__normal_iteratorIPcSsEES2_PKcS4_\0"
 4435      73377265 
 4435      706C6163 
 4435      65454E39 
 4435      5F5F676E 
 4436 2212 76460000 		.long	0x4676
 4437 2216 01       		.byte	0x1
 4438 2217 1F220000 		.long	0x221f
 4439 221b 39220000 		.long	0x2239
 4440 221f 1B       		.uleb128 0x1b
 4441 2220 5E460000 		.long	0x465e
 4442 2224 10       		.uleb128 0x10
 4443 2225 A40A0000 		.long	0xaa4
 4444 2229 10       		.uleb128 0x10
 4445 222a A40A0000 		.long	0xaa4
 4446 222e 10       		.uleb128 0x10
 4447 222f 32380000 		.long	0x3832
 4448 2233 10       		.uleb128 0x10
 4449 2234 32380000 		.long	0x3832
 4450 2238 00       		.byte	0
 4451 2239 30       		.uleb128 0x30
GAS LISTING C:\Users\NJLLMR~1\AppData\Local\Temp\cc3wbcxt.s 			page 108


 4452 223a 10000000 		.secrel32	LASF16
 4453 223e 13       		.byte	0x13
 4454 223f 8B06     		.word	0x68b
 4455 2241 5F5A4E53 		.ascii "_ZNSs7replaceEN9__gnu_cxx17__normal_iteratorIPcSsEES2_S2_S2_\0"
 4455      73377265 
 4455      706C6163 
 4455      65454E39 
 4455      5F5F676E 
 4456 227e 76460000 		.long	0x4676
 4457 2282 01       		.byte	0x1
 4458 2283 8B220000 		.long	0x228b
 4459 2287 A5220000 		.long	0x22a5
 4460 228b 1B       		.uleb128 0x1b
 4461 228c 5E460000 		.long	0x465e
 4462 2290 10       		.uleb128 0x10
 4463 2291 A40A0000 		.long	0xaa4
 4464 2295 10       		.uleb128 0x10
 4465 2296 A40A0000 		.long	0xaa4
 4466 229a 10       		.uleb128 0x10
 4467 229b A40A0000 		.long	0xaa4
 4468 229f 10       		.uleb128 0x10
 4469 22a0 A40A0000 		.long	0xaa4
 4470 22a4 00       		.byte	0
 4471 22a5 30       		.uleb128 0x30
 4472 22a6 10000000 		.secrel32	LASF16
 4473 22aa 13       		.byte	0x13
 4474 22ab 9506     		.word	0x695
 4475 22ad 5F5A4E53 		.ascii "_ZNSs7replaceEN9__gnu_cxx17__normal_iteratorIPcSsEES2_NS0_IPKcSsEES5_\0"
 4475      73377265 
 4475      706C6163 
 4475      65454E39 
 4475      5F5F676E 
 4476 22f3 76460000 		.long	0x4676
 4477 22f7 01       		.byte	0x1
 4478 22f8 00230000 		.long	0x2300
 4479 22fc 1A230000 		.long	0x231a
 4480 2300 1B       		.uleb128 0x1b
 4481 2301 5E460000 		.long	0x465e
 4482 2305 10       		.uleb128 0x10
 4483 2306 A40A0000 		.long	0xaa4
 4484 230a 10       		.uleb128 0x10
 4485 230b A40A0000 		.long	0xaa4
 4486 230f 10       		.uleb128 0x10
 4487 2310 B50A0000 		.long	0xab5
 4488 2314 10       		.uleb128 0x10
 4489 2315 B50A0000 		.long	0xab5
 4490 2319 00       		.byte	0
 4491 231a 28       		.uleb128 0x28
 4492 231b 5F4D5F72 		.ascii "_M_replace_aux\0"
 4492      65706C61 
 4492      63655F61 
 4492      757800
 4493 232a 14       		.byte	0x14
 4494 232b 9B02     		.word	0x29b
 4495 232d 5F5A4E53 		.ascii "_ZNSs14_M_replace_auxEjjjc\0"
 4495      7331345F 
 4495      4D5F7265 
GAS LISTING C:\Users\NJLLMR~1\AppData\Local\Temp\cc3wbcxt.s 			page 109


 4495      706C6163 
 4495      655F6175 
 4496 2348 76460000 		.long	0x4676
 4497 234c 54230000 		.long	0x2354
 4498 2350 6E230000 		.long	0x236e
 4499 2354 1B       		.uleb128 0x1b
 4500 2355 5E460000 		.long	0x465e
 4501 2359 10       		.uleb128 0x10
 4502 235a 410A0000 		.long	0xa41
 4503 235e 10       		.uleb128 0x10
 4504 235f 410A0000 		.long	0xa41
 4505 2363 10       		.uleb128 0x10
 4506 2364 410A0000 		.long	0xa41
 4507 2368 10       		.uleb128 0x10
 4508 2369 55010000 		.long	0x155
 4509 236d 00       		.byte	0
 4510 236e 28       		.uleb128 0x28
 4511 236f 5F4D5F72 		.ascii "_M_replace_safe\0"
 4511      65706C61 
 4511      63655F73 
 4511      61666500 
 4512 237f 14       		.byte	0x14
 4513 2380 A802     		.word	0x2a8
 4514 2382 5F5A4E53 		.ascii "_ZNSs15_M_replace_safeEjjPKcj\0"
 4514      7331355F 
 4514      4D5F7265 
 4514      706C6163 
 4514      655F7361 
 4515 23a0 76460000 		.long	0x4676
 4516 23a4 AC230000 		.long	0x23ac
 4517 23a8 C6230000 		.long	0x23c6
 4518 23ac 1B       		.uleb128 0x1b
 4519 23ad 5E460000 		.long	0x465e
 4520 23b1 10       		.uleb128 0x10
 4521 23b2 410A0000 		.long	0xa41
 4522 23b6 10       		.uleb128 0x10
 4523 23b7 410A0000 		.long	0xa41
 4524 23bb 10       		.uleb128 0x10
 4525 23bc 32380000 		.long	0x3832
 4526 23c0 10       		.uleb128 0x10
 4527 23c1 410A0000 		.long	0xa41
 4528 23c5 00       		.byte	0
 4529 23c6 14       		.uleb128 0x14
 4530 23c7 5F535F63 		.ascii "_S_construct_aux_2\0"
 4530      6F6E7374 
 4530      72756374 
 4530      5F617578 
 4530      5F3200
 4531 23da 13       		.byte	0x13
 4532 23db DC06     		.word	0x6dc
 4533 23dd 5F5A4E53 		.ascii "_ZNSs18_S_construct_aux_2EjcRKSaIcE\0"
 4533      7331385F 
 4533      535F636F 
 4533      6E737472 
 4533      7563745F 
 4534 2401 41020000 		.long	0x241
 4535 2405 19240000 		.long	0x2419
GAS LISTING C:\Users\NJLLMR~1\AppData\Local\Temp\cc3wbcxt.s 			page 110


 4536 2409 10       		.uleb128 0x10
 4537 240a 410A0000 		.long	0xa41
 4538 240e 10       		.uleb128 0x10
 4539 240f 55010000 		.long	0x155
 4540 2413 10       		.uleb128 0x10
 4541 2414 42460000 		.long	0x4642
 4542 2418 00       		.byte	0
 4543 2419 12       		.uleb128 0x12
 4544 241a 5F535F63 		.ascii "_S_construct\0"
 4544      6F6E7374 
 4544      72756374 
 4544      00
 4545 2427 14       		.byte	0x14
 4546 2428 98       		.byte	0x98
 4547 2429 5F5A4E53 		.ascii "_ZNSs12_S_constructEjcRKSaIcE\0"
 4547      7331325F 
 4547      535F636F 
 4547      6E737472 
 4547      75637445 
 4548 2447 41020000 		.long	0x241
 4549 244b 5F240000 		.long	0x245f
 4550 244f 10       		.uleb128 0x10
 4551 2450 410A0000 		.long	0xa41
 4552 2454 10       		.uleb128 0x10
 4553 2455 55010000 		.long	0x155
 4554 2459 10       		.uleb128 0x10
 4555 245a 42460000 		.long	0x4642
 4556 245e 00       		.byte	0
 4557 245f 31       		.uleb128 0x31
 4558 2460 636F7079 		.ascii "copy\0"
 4558      00
 4559 2465 14       		.byte	0x14
 4560 2466 D202     		.word	0x2d2
 4561 2468 5F5A4E4B 		.ascii "_ZNKSs4copyEPcjj\0"
 4561      53733463 
 4561      6F707945 
 4561      50636A6A 
 4561      00
 4562 2479 410A0000 		.long	0xa41
 4563 247d 01       		.byte	0x1
 4564 247e 86240000 		.long	0x2486
 4565 2482 9B240000 		.long	0x249b
 4566 2486 1B       		.uleb128 0x1b
 4567 2487 58460000 		.long	0x4658
 4568 248b 10       		.uleb128 0x10
 4569 248c 41020000 		.long	0x241
 4570 2490 10       		.uleb128 0x10
 4571 2491 410A0000 		.long	0xa41
 4572 2495 10       		.uleb128 0x10
 4573 2496 410A0000 		.long	0xa41
 4574 249a 00       		.byte	0
 4575 249b 32       		.uleb128 0x32
 4576 249c 73776170 		.ascii "swap\0"
 4576      00
 4577 24a1 14       		.byte	0x14
 4578 24a2 0602     		.word	0x206
 4579 24a4 5F5A4E53 		.ascii "_ZNSs4swapERSs\0"
GAS LISTING C:\Users\NJLLMR~1\AppData\Local\Temp\cc3wbcxt.s 			page 111


 4579      73347377 
 4579      61704552 
 4579      537300
 4580 24b3 01       		.byte	0x1
 4581 24b4 BC240000 		.long	0x24bc
 4582 24b8 C7240000 		.long	0x24c7
 4583 24bc 1B       		.uleb128 0x1b
 4584 24bd 5E460000 		.long	0x465e
 4585 24c1 10       		.uleb128 0x10
 4586 24c2 76460000 		.long	0x4676
 4587 24c6 00       		.byte	0
 4588 24c7 31       		.uleb128 0x31
 4589 24c8 635F7374 		.ascii "c_str\0"
 4589      7200
 4590 24ce 13       		.byte	0x13
 4591 24cf 1B07     		.word	0x71b
 4592 24d1 5F5A4E4B 		.ascii "_ZNKSs5c_strEv\0"
 4592      53733563 
 4592      5F737472 
 4592      457600
 4593 24e0 32380000 		.long	0x3832
 4594 24e4 01       		.byte	0x1
 4595 24e5 ED240000 		.long	0x24ed
 4596 24e9 F3240000 		.long	0x24f3
 4597 24ed 1B       		.uleb128 0x1b
 4598 24ee 58460000 		.long	0x4658
 4599 24f2 00       		.byte	0
 4600 24f3 31       		.uleb128 0x31
 4601 24f4 64617461 		.ascii "data\0"
 4601      00
 4602 24f9 13       		.byte	0x13
 4603 24fa 2507     		.word	0x725
 4604 24fc 5F5A4E4B 		.ascii "_ZNKSs4dataEv\0"
 4604      53733464 
 4604      61746145 
 4604      7600
 4605 250a 32380000 		.long	0x3832
 4606 250e 01       		.byte	0x1
 4607 250f 17250000 		.long	0x2517
 4608 2513 1D250000 		.long	0x251d
 4609 2517 1B       		.uleb128 0x1b
 4610 2518 58460000 		.long	0x4658
 4611 251c 00       		.byte	0
 4612 251d 31       		.uleb128 0x31
 4613 251e 6765745F 		.ascii "get_allocator\0"
 4613      616C6C6F 
 4613      6361746F 
 4613      7200
 4614 252c 13       		.byte	0x13
 4615 252d 2C07     		.word	0x72c
 4616 252f 5F5A4E4B 		.ascii "_ZNKSs13get_allocatorEv\0"
 4616      53733133 
 4616      6765745F 
 4616      616C6C6F 
 4616      6361746F 
 4617 2547 750A0000 		.long	0xa75
 4618 254b 01       		.byte	0x1
GAS LISTING C:\Users\NJLLMR~1\AppData\Local\Temp\cc3wbcxt.s 			page 112


 4619 254c 54250000 		.long	0x2554
 4620 2550 5A250000 		.long	0x255a
 4621 2554 1B       		.uleb128 0x1b
 4622 2555 58460000 		.long	0x4658
 4623 2559 00       		.byte	0
 4624 255a 31       		.uleb128 0x31
 4625 255b 66696E64 		.ascii "find\0"
 4625      00
 4626 2560 14       		.byte	0x14
 4627 2561 E002     		.word	0x2e0
 4628 2563 5F5A4E4B 		.ascii "_ZNKSs4findEPKcjj\0"
 4628      53733466 
 4628      696E6445 
 4628      504B636A 
 4628      6A00
 4629 2575 410A0000 		.long	0xa41
 4630 2579 01       		.byte	0x1
 4631 257a 82250000 		.long	0x2582
 4632 257e 97250000 		.long	0x2597
 4633 2582 1B       		.uleb128 0x1b
 4634 2583 58460000 		.long	0x4658
 4635 2587 10       		.uleb128 0x10
 4636 2588 32380000 		.long	0x3832
 4637 258c 10       		.uleb128 0x10
 4638 258d 410A0000 		.long	0xa41
 4639 2591 10       		.uleb128 0x10
 4640 2592 410A0000 		.long	0xa41
 4641 2596 00       		.byte	0
 4642 2597 31       		.uleb128 0x31
 4643 2598 66696E64 		.ascii "find\0"
 4643      00
 4644 259d 13       		.byte	0x13
 4645 259e 4907     		.word	0x749
 4646 25a0 5F5A4E4B 		.ascii "_ZNKSs4findERKSsj\0"
 4646      53733466 
 4646      696E6445 
 4646      524B5373 
 4646      6A00
 4647 25b2 410A0000 		.long	0xa41
 4648 25b6 01       		.byte	0x1
 4649 25b7 BF250000 		.long	0x25bf
 4650 25bb CF250000 		.long	0x25cf
 4651 25bf 1B       		.uleb128 0x1b
 4652 25c0 58460000 		.long	0x4658
 4653 25c4 10       		.uleb128 0x10
 4654 25c5 70460000 		.long	0x4670
 4655 25c9 10       		.uleb128 0x10
 4656 25ca 410A0000 		.long	0xa41
 4657 25ce 00       		.byte	0
 4658 25cf 31       		.uleb128 0x31
 4659 25d0 66696E64 		.ascii "find\0"
 4659      00
 4660 25d5 13       		.byte	0x13
 4661 25d6 5807     		.word	0x758
 4662 25d8 5F5A4E4B 		.ascii "_ZNKSs4findEPKcj\0"
 4662      53733466 
 4662      696E6445 
GAS LISTING C:\Users\NJLLMR~1\AppData\Local\Temp\cc3wbcxt.s 			page 113


 4662      504B636A 
 4662      00
 4663 25e9 410A0000 		.long	0xa41
 4664 25ed 01       		.byte	0x1
 4665 25ee F6250000 		.long	0x25f6
 4666 25f2 06260000 		.long	0x2606
 4667 25f6 1B       		.uleb128 0x1b
 4668 25f7 58460000 		.long	0x4658
 4669 25fb 10       		.uleb128 0x10
 4670 25fc 32380000 		.long	0x3832
 4671 2600 10       		.uleb128 0x10
 4672 2601 410A0000 		.long	0xa41
 4673 2605 00       		.byte	0
 4674 2606 31       		.uleb128 0x31
 4675 2607 66696E64 		.ascii "find\0"
 4675      00
 4676 260c 14       		.byte	0x14
 4677 260d F702     		.word	0x2f7
 4678 260f 5F5A4E4B 		.ascii "_ZNKSs4findEcj\0"
 4678      53733466 
 4678      696E6445 
 4678      636A00
 4679 261e 410A0000 		.long	0xa41
 4680 2622 01       		.byte	0x1
 4681 2623 2B260000 		.long	0x262b
 4682 2627 3B260000 		.long	0x263b
 4683 262b 1B       		.uleb128 0x1b
 4684 262c 58460000 		.long	0x4658
 4685 2630 10       		.uleb128 0x10
 4686 2631 55010000 		.long	0x155
 4687 2635 10       		.uleb128 0x10
 4688 2636 410A0000 		.long	0xa41
 4689 263a 00       		.byte	0
 4690 263b 30       		.uleb128 0x30
 4691 263c DB000000 		.secrel32	LASF17
 4692 2640 13       		.byte	0x13
 4693 2641 7607     		.word	0x776
 4694 2643 5F5A4E4B 		.ascii "_ZNKSs5rfindERKSsj\0"
 4694      53733572 
 4694      66696E64 
 4694      45524B53 
 4694      736A00
 4695 2656 410A0000 		.long	0xa41
 4696 265a 01       		.byte	0x1
 4697 265b 63260000 		.long	0x2663
 4698 265f 73260000 		.long	0x2673
 4699 2663 1B       		.uleb128 0x1b
 4700 2664 58460000 		.long	0x4658
 4701 2668 10       		.uleb128 0x10
 4702 2669 70460000 		.long	0x4670
 4703 266d 10       		.uleb128 0x10
 4704 266e 410A0000 		.long	0xa41
 4705 2672 00       		.byte	0
 4706 2673 30       		.uleb128 0x30
 4707 2674 DB000000 		.secrel32	LASF17
 4708 2678 14       		.byte	0x14
 4709 2679 0903     		.word	0x309
GAS LISTING C:\Users\NJLLMR~1\AppData\Local\Temp\cc3wbcxt.s 			page 114


 4710 267b 5F5A4E4B 		.ascii "_ZNKSs5rfindEPKcjj\0"
 4710      53733572 
 4710      66696E64 
 4710      45504B63 
 4710      6A6A00
 4711 268e 410A0000 		.long	0xa41
 4712 2692 01       		.byte	0x1
 4713 2693 9B260000 		.long	0x269b
 4714 2697 B0260000 		.long	0x26b0
 4715 269b 1B       		.uleb128 0x1b
 4716 269c 58460000 		.long	0x4658
 4717 26a0 10       		.uleb128 0x10
 4718 26a1 32380000 		.long	0x3832
 4719 26a5 10       		.uleb128 0x10
 4720 26a6 410A0000 		.long	0xa41
 4721 26aa 10       		.uleb128 0x10
 4722 26ab 410A0000 		.long	0xa41
 4723 26af 00       		.byte	0
 4724 26b0 30       		.uleb128 0x30
 4725 26b1 DB000000 		.secrel32	LASF17
 4726 26b5 13       		.byte	0x13
 4727 26b6 9407     		.word	0x794
 4728 26b8 5F5A4E4B 		.ascii "_ZNKSs5rfindEPKcj\0"
 4728      53733572 
 4728      66696E64 
 4728      45504B63 
 4728      6A00
 4729 26ca 410A0000 		.long	0xa41
 4730 26ce 01       		.byte	0x1
 4731 26cf D7260000 		.long	0x26d7
 4732 26d3 E7260000 		.long	0x26e7
 4733 26d7 1B       		.uleb128 0x1b
 4734 26d8 58460000 		.long	0x4658
 4735 26dc 10       		.uleb128 0x10
 4736 26dd 32380000 		.long	0x3832
 4737 26e1 10       		.uleb128 0x10
 4738 26e2 410A0000 		.long	0xa41
 4739 26e6 00       		.byte	0
 4740 26e7 30       		.uleb128 0x30
 4741 26e8 DB000000 		.secrel32	LASF17
 4742 26ec 14       		.byte	0x14
 4743 26ed 1E03     		.word	0x31e
 4744 26ef 5F5A4E4B 		.ascii "_ZNKSs5rfindEcj\0"
 4744      53733572 
 4744      66696E64 
 4744      45636A00 
 4745 26ff 410A0000 		.long	0xa41
 4746 2703 01       		.byte	0x1
 4747 2704 0C270000 		.long	0x270c
 4748 2708 1C270000 		.long	0x271c
 4749 270c 1B       		.uleb128 0x1b
 4750 270d 58460000 		.long	0x4658
 4751 2711 10       		.uleb128 0x10
 4752 2712 55010000 		.long	0x155
 4753 2716 10       		.uleb128 0x10
 4754 2717 410A0000 		.long	0xa41
 4755 271b 00       		.byte	0
GAS LISTING C:\Users\NJLLMR~1\AppData\Local\Temp\cc3wbcxt.s 			page 115


 4756 271c 30       		.uleb128 0x30
 4757 271d 6A000000 		.secrel32	LASF18
 4758 2721 13       		.byte	0x13
 4759 2722 B307     		.word	0x7b3
 4760 2724 5F5A4E4B 		.ascii "_ZNKSs13find_first_ofERKSsj\0"
 4760      53733133 
 4760      66696E64 
 4760      5F666972 
 4760      73745F6F 
 4761 2740 410A0000 		.long	0xa41
 4762 2744 01       		.byte	0x1
 4763 2745 4D270000 		.long	0x274d
 4764 2749 5D270000 		.long	0x275d
 4765 274d 1B       		.uleb128 0x1b
 4766 274e 58460000 		.long	0x4658
 4767 2752 10       		.uleb128 0x10
 4768 2753 70460000 		.long	0x4670
 4769 2757 10       		.uleb128 0x10
 4770 2758 410A0000 		.long	0xa41
 4771 275c 00       		.byte	0
 4772 275d 30       		.uleb128 0x30
 4773 275e 6A000000 		.secrel32	LASF18
 4774 2762 14       		.byte	0x14
 4775 2763 2F03     		.word	0x32f
 4776 2765 5F5A4E4B 		.ascii "_ZNKSs13find_first_ofEPKcjj\0"
 4776      53733133 
 4776      66696E64 
 4776      5F666972 
 4776      73745F6F 
 4777 2781 410A0000 		.long	0xa41
 4778 2785 01       		.byte	0x1
 4779 2786 8E270000 		.long	0x278e
 4780 278a A3270000 		.long	0x27a3
 4781 278e 1B       		.uleb128 0x1b
 4782 278f 58460000 		.long	0x4658
 4783 2793 10       		.uleb128 0x10
 4784 2794 32380000 		.long	0x3832
 4785 2798 10       		.uleb128 0x10
 4786 2799 410A0000 		.long	0xa41
 4787 279d 10       		.uleb128 0x10
 4788 279e 410A0000 		.long	0xa41
 4789 27a2 00       		.byte	0
 4790 27a3 30       		.uleb128 0x30
 4791 27a4 6A000000 		.secrel32	LASF18
 4792 27a8 13       		.byte	0x13
 4793 27a9 D107     		.word	0x7d1
 4794 27ab 5F5A4E4B 		.ascii "_ZNKSs13find_first_ofEPKcj\0"
 4794      53733133 
 4794      66696E64 
 4794      5F666972 
 4794      73745F6F 
 4795 27c6 410A0000 		.long	0xa41
 4796 27ca 01       		.byte	0x1
 4797 27cb D3270000 		.long	0x27d3
 4798 27cf E3270000 		.long	0x27e3
 4799 27d3 1B       		.uleb128 0x1b
 4800 27d4 58460000 		.long	0x4658
GAS LISTING C:\Users\NJLLMR~1\AppData\Local\Temp\cc3wbcxt.s 			page 116


 4801 27d8 10       		.uleb128 0x10
 4802 27d9 32380000 		.long	0x3832
 4803 27dd 10       		.uleb128 0x10
 4804 27de 410A0000 		.long	0xa41
 4805 27e2 00       		.byte	0
 4806 27e3 30       		.uleb128 0x30
 4807 27e4 6A000000 		.secrel32	LASF18
 4808 27e8 13       		.byte	0x13
 4809 27e9 E407     		.word	0x7e4
 4810 27eb 5F5A4E4B 		.ascii "_ZNKSs13find_first_ofEcj\0"
 4810      53733133 
 4810      66696E64 
 4810      5F666972 
 4810      73745F6F 
 4811 2804 410A0000 		.long	0xa41
 4812 2808 01       		.byte	0x1
 4813 2809 11280000 		.long	0x2811
 4814 280d 21280000 		.long	0x2821
 4815 2811 1B       		.uleb128 0x1b
 4816 2812 58460000 		.long	0x4658
 4817 2816 10       		.uleb128 0x10
 4818 2817 55010000 		.long	0x155
 4819 281b 10       		.uleb128 0x10
 4820 281c 410A0000 		.long	0xa41
 4821 2820 00       		.byte	0
 4822 2821 30       		.uleb128 0x30
 4823 2822 4C010000 		.secrel32	LASF19
 4824 2826 13       		.byte	0x13
 4825 2827 F307     		.word	0x7f3
 4826 2829 5F5A4E4B 		.ascii "_ZNKSs12find_last_ofERKSsj\0"
 4826      53733132 
 4826      66696E64 
 4826      5F6C6173 
 4826      745F6F66 
 4827 2844 410A0000 		.long	0xa41
 4828 2848 01       		.byte	0x1
 4829 2849 51280000 		.long	0x2851
 4830 284d 61280000 		.long	0x2861
 4831 2851 1B       		.uleb128 0x1b
 4832 2852 58460000 		.long	0x4658
 4833 2856 10       		.uleb128 0x10
 4834 2857 70460000 		.long	0x4670
 4835 285b 10       		.uleb128 0x10
 4836 285c 410A0000 		.long	0xa41
 4837 2860 00       		.byte	0
 4838 2861 30       		.uleb128 0x30
 4839 2862 4C010000 		.secrel32	LASF19
 4840 2866 14       		.byte	0x14
 4841 2867 3E03     		.word	0x33e
 4842 2869 5F5A4E4B 		.ascii "_ZNKSs12find_last_ofEPKcjj\0"
 4842      53733132 
 4842      66696E64 
 4842      5F6C6173 
 4842      745F6F66 
 4843 2884 410A0000 		.long	0xa41
 4844 2888 01       		.byte	0x1
 4845 2889 91280000 		.long	0x2891
GAS LISTING C:\Users\NJLLMR~1\AppData\Local\Temp\cc3wbcxt.s 			page 117


 4846 288d A6280000 		.long	0x28a6
 4847 2891 1B       		.uleb128 0x1b
 4848 2892 58460000 		.long	0x4658
 4849 2896 10       		.uleb128 0x10
 4850 2897 32380000 		.long	0x3832
 4851 289b 10       		.uleb128 0x10
 4852 289c 410A0000 		.long	0xa41
 4853 28a0 10       		.uleb128 0x10
 4854 28a1 410A0000 		.long	0xa41
 4855 28a5 00       		.byte	0
 4856 28a6 30       		.uleb128 0x30
 4857 28a7 4C010000 		.secrel32	LASF19
 4858 28ab 13       		.byte	0x13
 4859 28ac 1108     		.word	0x811
 4860 28ae 5F5A4E4B 		.ascii "_ZNKSs12find_last_ofEPKcj\0"
 4860      53733132 
 4860      66696E64 
 4860      5F6C6173 
 4860      745F6F66 
 4861 28c8 410A0000 		.long	0xa41
 4862 28cc 01       		.byte	0x1
 4863 28cd D5280000 		.long	0x28d5
 4864 28d1 E5280000 		.long	0x28e5
 4865 28d5 1B       		.uleb128 0x1b
 4866 28d6 58460000 		.long	0x4658
 4867 28da 10       		.uleb128 0x10
 4868 28db 32380000 		.long	0x3832
 4869 28df 10       		.uleb128 0x10
 4870 28e0 410A0000 		.long	0xa41
 4871 28e4 00       		.byte	0
 4872 28e5 30       		.uleb128 0x30
 4873 28e6 4C010000 		.secrel32	LASF19
 4874 28ea 13       		.byte	0x13
 4875 28eb 2408     		.word	0x824
 4876 28ed 5F5A4E4B 		.ascii "_ZNKSs12find_last_ofEcj\0"
 4876      53733132 
 4876      66696E64 
 4876      5F6C6173 
 4876      745F6F66 
 4877 2905 410A0000 		.long	0xa41
 4878 2909 01       		.byte	0x1
 4879 290a 12290000 		.long	0x2912
 4880 290e 22290000 		.long	0x2922
 4881 2912 1B       		.uleb128 0x1b
 4882 2913 58460000 		.long	0x4658
 4883 2917 10       		.uleb128 0x10
 4884 2918 55010000 		.long	0x155
 4885 291c 10       		.uleb128 0x10
 4886 291d 410A0000 		.long	0xa41
 4887 2921 00       		.byte	0
 4888 2922 30       		.uleb128 0x30
 4889 2923 18010000 		.secrel32	LASF20
 4890 2927 13       		.byte	0x13
 4891 2928 3208     		.word	0x832
 4892 292a 5F5A4E4B 		.ascii "_ZNKSs17find_first_not_ofERKSsj\0"
 4892      53733137 
 4892      66696E64 
GAS LISTING C:\Users\NJLLMR~1\AppData\Local\Temp\cc3wbcxt.s 			page 118


 4892      5F666972 
 4892      73745F6E 
 4893 294a 410A0000 		.long	0xa41
 4894 294e 01       		.byte	0x1
 4895 294f 57290000 		.long	0x2957
 4896 2953 67290000 		.long	0x2967
 4897 2957 1B       		.uleb128 0x1b
 4898 2958 58460000 		.long	0x4658
 4899 295c 10       		.uleb128 0x10
 4900 295d 70460000 		.long	0x4670
 4901 2961 10       		.uleb128 0x10
 4902 2962 410A0000 		.long	0xa41
 4903 2966 00       		.byte	0
 4904 2967 30       		.uleb128 0x30
 4905 2968 18010000 		.secrel32	LASF20
 4906 296c 14       		.byte	0x14
 4907 296d 5303     		.word	0x353
 4908 296f 5F5A4E4B 		.ascii "_ZNKSs17find_first_not_ofEPKcjj\0"
 4908      53733137 
 4908      66696E64 
 4908      5F666972 
 4908      73745F6E 
 4909 298f 410A0000 		.long	0xa41
 4910 2993 01       		.byte	0x1
 4911 2994 9C290000 		.long	0x299c
 4912 2998 B1290000 		.long	0x29b1
 4913 299c 1B       		.uleb128 0x1b
 4914 299d 58460000 		.long	0x4658
 4915 29a1 10       		.uleb128 0x10
 4916 29a2 32380000 		.long	0x3832
 4917 29a6 10       		.uleb128 0x10
 4918 29a7 410A0000 		.long	0xa41
 4919 29ab 10       		.uleb128 0x10
 4920 29ac 410A0000 		.long	0xa41
 4921 29b0 00       		.byte	0
 4922 29b1 30       		.uleb128 0x30
 4923 29b2 18010000 		.secrel32	LASF20
 4924 29b6 13       		.byte	0x13
 4925 29b7 5108     		.word	0x851
 4926 29b9 5F5A4E4B 		.ascii "_ZNKSs17find_first_not_ofEPKcj\0"
 4926      53733137 
 4926      66696E64 
 4926      5F666972 
 4926      73745F6E 
 4927 29d8 410A0000 		.long	0xa41
 4928 29dc 01       		.byte	0x1
 4929 29dd E5290000 		.long	0x29e5
 4930 29e1 F5290000 		.long	0x29f5
 4931 29e5 1B       		.uleb128 0x1b
 4932 29e6 58460000 		.long	0x4658
 4933 29ea 10       		.uleb128 0x10
 4934 29eb 32380000 		.long	0x3832
 4935 29ef 10       		.uleb128 0x10
 4936 29f0 410A0000 		.long	0xa41
 4937 29f4 00       		.byte	0
 4938 29f5 30       		.uleb128 0x30
 4939 29f6 18010000 		.secrel32	LASF20
GAS LISTING C:\Users\NJLLMR~1\AppData\Local\Temp\cc3wbcxt.s 			page 119


 4940 29fa 14       		.byte	0x14
 4941 29fb 5F03     		.word	0x35f
 4942 29fd 5F5A4E4B 		.ascii "_ZNKSs17find_first_not_ofEcj\0"
 4942      53733137 
 4942      66696E64 
 4942      5F666972 
 4942      73745F6E 
 4943 2a1a 410A0000 		.long	0xa41
 4944 2a1e 01       		.byte	0x1
 4945 2a1f 272A0000 		.long	0x2a27
 4946 2a23 372A0000 		.long	0x2a37
 4947 2a27 1B       		.uleb128 0x1b
 4948 2a28 58460000 		.long	0x4658
 4949 2a2c 10       		.uleb128 0x10
 4950 2a2d 55010000 		.long	0x155
 4951 2a31 10       		.uleb128 0x10
 4952 2a32 410A0000 		.long	0xa41
 4953 2a36 00       		.byte	0
 4954 2a37 30       		.uleb128 0x30
 4955 2a38 78000000 		.secrel32	LASF21
 4956 2a3c 13       		.byte	0x13
 4957 2a3d 7108     		.word	0x871
 4958 2a3f 5F5A4E4B 		.ascii "_ZNKSs16find_last_not_ofERKSsj\0"
 4958      53733136 
 4958      66696E64 
 4958      5F6C6173 
 4958      745F6E6F 
 4959 2a5e 410A0000 		.long	0xa41
 4960 2a62 01       		.byte	0x1
 4961 2a63 6B2A0000 		.long	0x2a6b
 4962 2a67 7B2A0000 		.long	0x2a7b
 4963 2a6b 1B       		.uleb128 0x1b
 4964 2a6c 58460000 		.long	0x4658
 4965 2a70 10       		.uleb128 0x10
 4966 2a71 70460000 		.long	0x4670
 4967 2a75 10       		.uleb128 0x10
 4968 2a76 410A0000 		.long	0xa41
 4969 2a7a 00       		.byte	0
 4970 2a7b 30       		.uleb128 0x30
 4971 2a7c 78000000 		.secrel32	LASF21
 4972 2a80 14       		.byte	0x14
 4973 2a81 6A03     		.word	0x36a
 4974 2a83 5F5A4E4B 		.ascii "_ZNKSs16find_last_not_ofEPKcjj\0"
 4974      53733136 
 4974      66696E64 
 4974      5F6C6173 
 4974      745F6E6F 
 4975 2aa2 410A0000 		.long	0xa41
 4976 2aa6 01       		.byte	0x1
 4977 2aa7 AF2A0000 		.long	0x2aaf
 4978 2aab C42A0000 		.long	0x2ac4
 4979 2aaf 1B       		.uleb128 0x1b
 4980 2ab0 58460000 		.long	0x4658
 4981 2ab4 10       		.uleb128 0x10
 4982 2ab5 32380000 		.long	0x3832
 4983 2ab9 10       		.uleb128 0x10
 4984 2aba 410A0000 		.long	0xa41
GAS LISTING C:\Users\NJLLMR~1\AppData\Local\Temp\cc3wbcxt.s 			page 120


 4985 2abe 10       		.uleb128 0x10
 4986 2abf 410A0000 		.long	0xa41
 4987 2ac3 00       		.byte	0
 4988 2ac4 30       		.uleb128 0x30
 4989 2ac5 78000000 		.secrel32	LASF21
 4990 2ac9 13       		.byte	0x13
 4991 2aca 9008     		.word	0x890
 4992 2acc 5F5A4E4B 		.ascii "_ZNKSs16find_last_not_ofEPKcj\0"
 4992      53733136 
 4992      66696E64 
 4992      5F6C6173 
 4992      745F6E6F 
 4993 2aea 410A0000 		.long	0xa41
 4994 2aee 01       		.byte	0x1
 4995 2aef F72A0000 		.long	0x2af7
 4996 2af3 072B0000 		.long	0x2b07
 4997 2af7 1B       		.uleb128 0x1b
 4998 2af8 58460000 		.long	0x4658
 4999 2afc 10       		.uleb128 0x10
 5000 2afd 32380000 		.long	0x3832
 5001 2b01 10       		.uleb128 0x10
 5002 2b02 410A0000 		.long	0xa41
 5003 2b06 00       		.byte	0
 5004 2b07 30       		.uleb128 0x30
 5005 2b08 78000000 		.secrel32	LASF21
 5006 2b0c 14       		.byte	0x14
 5007 2b0d 7F03     		.word	0x37f
 5008 2b0f 5F5A4E4B 		.ascii "_ZNKSs16find_last_not_ofEcj\0"
 5008      53733136 
 5008      66696E64 
 5008      5F6C6173 
 5008      745F6E6F 
 5009 2b2b 410A0000 		.long	0xa41
 5010 2b2f 01       		.byte	0x1
 5011 2b30 382B0000 		.long	0x2b38
 5012 2b34 482B0000 		.long	0x2b48
 5013 2b38 1B       		.uleb128 0x1b
 5014 2b39 58460000 		.long	0x4658
 5015 2b3d 10       		.uleb128 0x10
 5016 2b3e 55010000 		.long	0x155
 5017 2b42 10       		.uleb128 0x10
 5018 2b43 410A0000 		.long	0xa41
 5019 2b47 00       		.byte	0
 5020 2b48 31       		.uleb128 0x31
 5021 2b49 73756273 		.ascii "substr\0"
 5021      747200
 5022 2b50 13       		.byte	0x13
 5023 2b51 B108     		.word	0x8b1
 5024 2b53 5F5A4E4B 		.ascii "_ZNKSs6substrEjj\0"
 5024      53733673 
 5024      75627374 
 5024      72456A6A 
 5024      00
 5025 2b64 B9090000 		.long	0x9b9
 5026 2b68 01       		.byte	0x1
 5027 2b69 712B0000 		.long	0x2b71
 5028 2b6d 812B0000 		.long	0x2b81
GAS LISTING C:\Users\NJLLMR~1\AppData\Local\Temp\cc3wbcxt.s 			page 121


 5029 2b71 1B       		.uleb128 0x1b
 5030 2b72 58460000 		.long	0x4658
 5031 2b76 10       		.uleb128 0x10
 5032 2b77 410A0000 		.long	0xa41
 5033 2b7b 10       		.uleb128 0x10
 5034 2b7c 410A0000 		.long	0xa41
 5035 2b80 00       		.byte	0
 5036 2b81 30       		.uleb128 0x30
 5037 2b82 9A010000 		.secrel32	LASF0
 5038 2b86 13       		.byte	0x13
 5039 2b87 C408     		.word	0x8c4
 5040 2b89 5F5A4E4B 		.ascii "_ZNKSs7compareERKSs\0"
 5040      53733763 
 5040      6F6D7061 
 5040      72654552 
 5040      4B537300 
 5041 2b9d 89010000 		.long	0x189
 5042 2ba1 01       		.byte	0x1
 5043 2ba2 AA2B0000 		.long	0x2baa
 5044 2ba6 B52B0000 		.long	0x2bb5
 5045 2baa 1B       		.uleb128 0x1b
 5046 2bab 58460000 		.long	0x4658
 5047 2baf 10       		.uleb128 0x10
 5048 2bb0 70460000 		.long	0x4670
 5049 2bb4 00       		.byte	0
 5050 2bb5 30       		.uleb128 0x30
 5051 2bb6 9A010000 		.secrel32	LASF0
 5052 2bba 14       		.byte	0x14
 5053 2bbb 9303     		.word	0x393
 5054 2bbd 5F5A4E4B 		.ascii "_ZNKSs7compareEjjRKSs\0"
 5054      53733763 
 5054      6F6D7061 
 5054      7265456A 
 5054      6A524B53 
 5055 2bd3 89010000 		.long	0x189
 5056 2bd7 01       		.byte	0x1
 5057 2bd8 E02B0000 		.long	0x2be0
 5058 2bdc F52B0000 		.long	0x2bf5
 5059 2be0 1B       		.uleb128 0x1b
 5060 2be1 58460000 		.long	0x4658
 5061 2be5 10       		.uleb128 0x10
 5062 2be6 410A0000 		.long	0xa41
 5063 2bea 10       		.uleb128 0x10
 5064 2beb 410A0000 		.long	0xa41
 5065 2bef 10       		.uleb128 0x10
 5066 2bf0 70460000 		.long	0x4670
 5067 2bf4 00       		.byte	0
 5068 2bf5 30       		.uleb128 0x30
 5069 2bf6 9A010000 		.secrel32	LASF0
 5070 2bfa 14       		.byte	0x14
 5071 2bfb A203     		.word	0x3a2
 5072 2bfd 5F5A4E4B 		.ascii "_ZNKSs7compareEjjRKSsjj\0"
 5072      53733763 
 5072      6F6D7061 
 5072      7265456A 
 5072      6A524B53 
 5073 2c15 89010000 		.long	0x189
GAS LISTING C:\Users\NJLLMR~1\AppData\Local\Temp\cc3wbcxt.s 			page 122


 5074 2c19 01       		.byte	0x1
 5075 2c1a 222C0000 		.long	0x2c22
 5076 2c1e 412C0000 		.long	0x2c41
 5077 2c22 1B       		.uleb128 0x1b
 5078 2c23 58460000 		.long	0x4658
 5079 2c27 10       		.uleb128 0x10
 5080 2c28 410A0000 		.long	0xa41
 5081 2c2c 10       		.uleb128 0x10
 5082 2c2d 410A0000 		.long	0xa41
 5083 2c31 10       		.uleb128 0x10
 5084 2c32 70460000 		.long	0x4670
 5085 2c36 10       		.uleb128 0x10
 5086 2c37 410A0000 		.long	0xa41
 5087 2c3b 10       		.uleb128 0x10
 5088 2c3c 410A0000 		.long	0xa41
 5089 2c40 00       		.byte	0
 5090 2c41 30       		.uleb128 0x30
 5091 2c42 9A010000 		.secrel32	LASF0
 5092 2c46 14       		.byte	0x14
 5093 2c47 B403     		.word	0x3b4
 5094 2c49 5F5A4E4B 		.ascii "_ZNKSs7compareEPKc\0"
 5094      53733763 
 5094      6F6D7061 
 5094      72654550 
 5094      4B6300
 5095 2c5c 89010000 		.long	0x189
 5096 2c60 01       		.byte	0x1
 5097 2c61 692C0000 		.long	0x2c69
 5098 2c65 742C0000 		.long	0x2c74
 5099 2c69 1B       		.uleb128 0x1b
 5100 2c6a 58460000 		.long	0x4658
 5101 2c6e 10       		.uleb128 0x10
 5102 2c6f 32380000 		.long	0x3832
 5103 2c73 00       		.byte	0
 5104 2c74 30       		.uleb128 0x30
 5105 2c75 9A010000 		.secrel32	LASF0
 5106 2c79 14       		.byte	0x14
 5107 2c7a C303     		.word	0x3c3
 5108 2c7c 5F5A4E4B 		.ascii "_ZNKSs7compareEjjPKc\0"
 5108      53733763 
 5108      6F6D7061 
 5108      7265456A 
 5108      6A504B63 
 5109 2c91 89010000 		.long	0x189
 5110 2c95 01       		.byte	0x1
 5111 2c96 9E2C0000 		.long	0x2c9e
 5112 2c9a B32C0000 		.long	0x2cb3
 5113 2c9e 1B       		.uleb128 0x1b
 5114 2c9f 58460000 		.long	0x4658
 5115 2ca3 10       		.uleb128 0x10
 5116 2ca4 410A0000 		.long	0xa41
 5117 2ca8 10       		.uleb128 0x10
 5118 2ca9 410A0000 		.long	0xa41
 5119 2cad 10       		.uleb128 0x10
 5120 2cae 32380000 		.long	0x3832
 5121 2cb2 00       		.byte	0
 5122 2cb3 30       		.uleb128 0x30
GAS LISTING C:\Users\NJLLMR~1\AppData\Local\Temp\cc3wbcxt.s 			page 123


 5123 2cb4 9A010000 		.secrel32	LASF0
 5124 2cb8 14       		.byte	0x14
 5125 2cb9 D303     		.word	0x3d3
 5126 2cbb 5F5A4E4B 		.ascii "_ZNKSs7compareEjjPKcj\0"
 5126      53733763 
 5126      6F6D7061 
 5126      7265456A 
 5126      6A504B63 
 5127 2cd1 89010000 		.long	0x189
 5128 2cd5 01       		.byte	0x1
 5129 2cd6 DE2C0000 		.long	0x2cde
 5130 2cda F82C0000 		.long	0x2cf8
 5131 2cde 1B       		.uleb128 0x1b
 5132 2cdf 58460000 		.long	0x4658
 5133 2ce3 10       		.uleb128 0x10
 5134 2ce4 410A0000 		.long	0xa41
 5135 2ce8 10       		.uleb128 0x10
 5136 2ce9 410A0000 		.long	0xa41
 5137 2ced 10       		.uleb128 0x10
 5138 2cee 32380000 		.long	0x3832
 5139 2cf2 10       		.uleb128 0x10
 5140 2cf3 410A0000 		.long	0xa41
 5141 2cf7 00       		.byte	0
 5142 2cf8 11       		.uleb128 0x11
 5143 2cf9 510B0000 		.long	0xb51
 5144 2cfd 35       		.uleb128 0x35
 5145 2cfe 5F436861 		.ascii "_CharT\0"
 5145      725400
 5146 2d05 55010000 		.long	0x155
 5147 2d09 36       		.uleb128 0x36
 5148 2d0a 5F547261 		.ascii "_Traits\0"
 5148      69747300 
 5149 2d12 36050000 		.long	0x536
 5150 2d16 36       		.uleb128 0x36
 5151 2d17 5F416C6C 		.ascii "_Alloc\0"
 5151      6F6300
 5152 2d1e 21090000 		.long	0x921
 5153 2d22 00       		.byte	0
 5154 2d23 37       		.uleb128 0x37
 5155 2d24 72657665 		.ascii "reverse_iterator<__gnu_cxx::__normal_iterator<char const*, std::basic_string<char, std::ch
 5155      7273655F 
 5155      69746572 
 5155      61746F72 
 5155      3C5F5F67 
 5156 2daa 37       		.uleb128 0x37
 5157 2dab 72657665 		.ascii "reverse_iterator<__gnu_cxx::__normal_iterator<char*, std::basic_string<char, std::char_tra
 5157      7273655F 
 5157      69746572 
 5157      61746F72 
 5157      3C5F5F67 
 5158 2e2b 11       		.uleb128 0x11
 5159 2e2c B9090000 		.long	0x9b9
 5160 2e30 02       		.uleb128 0x2
 5161 2e31 73747269 		.ascii "string\0"
 5161      6E6700
 5162 2e38 15       		.byte	0x15
 5163 2e39 3E       		.byte	0x3e
GAS LISTING C:\Users\NJLLMR~1\AppData\Local\Temp\cc3wbcxt.s 			page 124


 5164 2e3a B9090000 		.long	0x9b9
 5165 2e3e 38       		.uleb128 0x38
 5166 2e3f 5F496F73 		.ascii "_Ios_Fmtflags\0"
 5166      5F466D74 
 5166      666C6167 
 5166      7300
 5167 2e4d 04       		.byte	0x4
 5168 2e4e 01       		.byte	0x1
 5169 2e4f 33       		.byte	0x33
 5170 2e50 652F0000 		.long	0x2f65
 5171 2e54 39       		.uleb128 0x39
 5172 2e55 5F535F62 		.ascii "_S_boolalpha\0"
 5172      6F6F6C61 
 5172      6C706861 
 5172      00
 5173 2e62 01       		.sleb128 1
 5174 2e63 39       		.uleb128 0x39
 5175 2e64 5F535F64 		.ascii "_S_dec\0"
 5175      656300
 5176 2e6b 02       		.sleb128 2
 5177 2e6c 39       		.uleb128 0x39
 5178 2e6d 5F535F66 		.ascii "_S_fixed\0"
 5178      69786564 
 5178      00
 5179 2e76 04       		.sleb128 4
 5180 2e77 39       		.uleb128 0x39
 5181 2e78 5F535F68 		.ascii "_S_hex\0"
 5181      657800
 5182 2e7f 08       		.sleb128 8
 5183 2e80 39       		.uleb128 0x39
 5184 2e81 5F535F69 		.ascii "_S_internal\0"
 5184      6E746572 
 5184      6E616C00 
 5185 2e8d 10       		.sleb128 16
 5186 2e8e 39       		.uleb128 0x39
 5187 2e8f 5F535F6C 		.ascii "_S_left\0"
 5187      65667400 
 5188 2e97 20       		.sleb128 32
 5189 2e98 39       		.uleb128 0x39
 5190 2e99 5F535F6F 		.ascii "_S_oct\0"
 5190      637400
 5191 2ea0 C000     		.sleb128 64
 5192 2ea2 39       		.uleb128 0x39
 5193 2ea3 5F535F72 		.ascii "_S_right\0"
 5193      69676874 
 5193      00
 5194 2eac 8001     		.sleb128 128
 5195 2eae 39       		.uleb128 0x39
 5196 2eaf 5F535F73 		.ascii "_S_scientific\0"
 5196      6369656E 
 5196      74696669 
 5196      6300
 5197 2ebd 8002     		.sleb128 256
 5198 2ebf 39       		.uleb128 0x39
 5199 2ec0 5F535F73 		.ascii "_S_showbase\0"
 5199      686F7762 
 5199      61736500 
GAS LISTING C:\Users\NJLLMR~1\AppData\Local\Temp\cc3wbcxt.s 			page 125


 5200 2ecc 8004     		.sleb128 512
 5201 2ece 39       		.uleb128 0x39
 5202 2ecf 5F535F73 		.ascii "_S_showpoint\0"
 5202      686F7770 
 5202      6F696E74 
 5202      00
 5203 2edc 8008     		.sleb128 1024
 5204 2ede 39       		.uleb128 0x39
 5205 2edf 5F535F73 		.ascii "_S_showpos\0"
 5205      686F7770 
 5205      6F7300
 5206 2eea 8010     		.sleb128 2048
 5207 2eec 39       		.uleb128 0x39
 5208 2eed 5F535F73 		.ascii "_S_skipws\0"
 5208      6B697077 
 5208      7300
 5209 2ef7 8020     		.sleb128 4096
 5210 2ef9 39       		.uleb128 0x39
 5211 2efa 5F535F75 		.ascii "_S_unitbuf\0"
 5211      6E697462 
 5211      756600
 5212 2f05 80C000   		.sleb128 8192
 5213 2f08 39       		.uleb128 0x39
 5214 2f09 5F535F75 		.ascii "_S_uppercase\0"
 5214      70706572 
 5214      63617365 
 5214      00
 5215 2f16 808001   		.sleb128 16384
 5216 2f19 39       		.uleb128 0x39
 5217 2f1a 5F535F61 		.ascii "_S_adjustfield\0"
 5217      646A7573 
 5217      74666965 
 5217      6C6400
 5218 2f29 B001     		.sleb128 176
 5219 2f2b 39       		.uleb128 0x39
 5220 2f2c 5F535F62 		.ascii "_S_basefield\0"
 5220      61736566 
 5220      69656C64 
 5220      00
 5221 2f39 CA00     		.sleb128 74
 5222 2f3b 39       		.uleb128 0x39
 5223 2f3c 5F535F66 		.ascii "_S_floatfield\0"
 5223      6C6F6174 
 5223      6669656C 
 5223      6400
 5224 2f4a 8402     		.sleb128 260
 5225 2f4c 39       		.uleb128 0x39
 5226 2f4d 5F535F69 		.ascii "_S_ios_fmtflags_end\0"
 5226      6F735F66 
 5226      6D74666C 
 5226      6167735F 
 5226      656E6400 
 5227 2f61 808004   		.sleb128 65536
 5228 2f64 00       		.byte	0
 5229 2f65 38       		.uleb128 0x38
 5230 2f66 5F496F73 		.ascii "_Ios_Openmode\0"
 5230      5F4F7065 
GAS LISTING C:\Users\NJLLMR~1\AppData\Local\Temp\cc3wbcxt.s 			page 126


 5230      6E6D6F64 
 5230      6500
 5231 2f74 04       		.byte	0x4
 5232 2f75 01       		.byte	0x1
 5233 2f76 67       		.byte	0x67
 5234 2f77 CB2F0000 		.long	0x2fcb
 5235 2f7b 39       		.uleb128 0x39
 5236 2f7c 5F535F61 		.ascii "_S_app\0"
 5236      707000
 5237 2f83 01       		.sleb128 1
 5238 2f84 39       		.uleb128 0x39
 5239 2f85 5F535F61 		.ascii "_S_ate\0"
 5239      746500
 5240 2f8c 02       		.sleb128 2
 5241 2f8d 39       		.uleb128 0x39
 5242 2f8e 5F535F62 		.ascii "_S_bin\0"
 5242      696E00
 5243 2f95 04       		.sleb128 4
 5244 2f96 39       		.uleb128 0x39
 5245 2f97 5F535F69 		.ascii "_S_in\0"
 5245      6E00
 5246 2f9d 08       		.sleb128 8
 5247 2f9e 39       		.uleb128 0x39
 5248 2f9f 5F535F6F 		.ascii "_S_out\0"
 5248      757400
 5249 2fa6 10       		.sleb128 16
 5250 2fa7 39       		.uleb128 0x39
 5251 2fa8 5F535F74 		.ascii "_S_trunc\0"
 5251      72756E63 
 5251      00
 5252 2fb1 20       		.sleb128 32
 5253 2fb2 39       		.uleb128 0x39
 5254 2fb3 5F535F69 		.ascii "_S_ios_openmode_end\0"
 5254      6F735F6F 
 5254      70656E6D 
 5254      6F64655F 
 5254      656E6400 
 5255 2fc7 808004   		.sleb128 65536
 5256 2fca 00       		.byte	0
 5257 2fcb 38       		.uleb128 0x38
 5258 2fcc 5F496F73 		.ascii "_Ios_Iostate\0"
 5258      5F496F73 
 5258      74617465 
 5258      00
 5259 2fd9 04       		.byte	0x4
 5260 2fda 01       		.byte	0x1
 5261 2fdb 8F       		.byte	0x8f
 5262 2fdc 2A300000 		.long	0x302a
 5263 2fe0 39       		.uleb128 0x39
 5264 2fe1 5F535F67 		.ascii "_S_goodbit\0"
 5264      6F6F6462 
 5264      697400
 5265 2fec 00       		.sleb128 0
 5266 2fed 39       		.uleb128 0x39
 5267 2fee 5F535F62 		.ascii "_S_badbit\0"
 5267      61646269 
 5267      7400
GAS LISTING C:\Users\NJLLMR~1\AppData\Local\Temp\cc3wbcxt.s 			page 127


 5268 2ff8 01       		.sleb128 1
 5269 2ff9 39       		.uleb128 0x39
 5270 2ffa 5F535F65 		.ascii "_S_eofbit\0"
 5270      6F666269 
 5270      7400
 5271 3004 02       		.sleb128 2
 5272 3005 39       		.uleb128 0x39
 5273 3006 5F535F66 		.ascii "_S_failbit\0"
 5273      61696C62 
 5273      697400
 5274 3011 04       		.sleb128 4
 5275 3012 39       		.uleb128 0x39
 5276 3013 5F535F69 		.ascii "_S_ios_iostate_end\0"
 5276      6F735F69 
 5276      6F737461 
 5276      74655F65 
 5276      6E6400
 5277 3026 808004   		.sleb128 65536
 5278 3029 00       		.byte	0
 5279 302a 38       		.uleb128 0x38
 5280 302b 5F496F73 		.ascii "_Ios_Seekdir\0"
 5280      5F536565 
 5280      6B646972 
 5280      00
 5281 3038 04       		.byte	0x4
 5282 3039 01       		.byte	0x1
 5283 303a B5       		.byte	0xb5
 5284 303b 72300000 		.long	0x3072
 5285 303f 39       		.uleb128 0x39
 5286 3040 5F535F62 		.ascii "_S_beg\0"
 5286      656700
 5287 3047 00       		.sleb128 0
 5288 3048 39       		.uleb128 0x39
 5289 3049 5F535F63 		.ascii "_S_cur\0"
 5289      757200
 5290 3050 01       		.sleb128 1
 5291 3051 39       		.uleb128 0x39
 5292 3052 5F535F65 		.ascii "_S_end\0"
 5292      6E6400
 5293 3059 02       		.sleb128 2
 5294 305a 39       		.uleb128 0x39
 5295 305b 5F535F69 		.ascii "_S_ios_seekdir_end\0"
 5295      6F735F73 
 5295      65656B64 
 5295      69725F65 
 5295      6E6400
 5296 306e 808004   		.sleb128 65536
 5297 3071 00       		.byte	0
 5298 3072 3A       		.uleb128 0x3a
 5299 3073 696F735F 		.ascii "ios_base\0"
 5299      62617365 
 5299      00
 5300 307c 61330000 		.long	0x3361
 5301 3080 3B       		.uleb128 0x3b
 5302 3081 496E6974 		.ascii "Init\0"
 5302      00
 5303 3086 01       		.byte	0x1
GAS LISTING C:\Users\NJLLMR~1\AppData\Local\Temp\cc3wbcxt.s 			page 128


 5304 3087 01       		.byte	0x1
 5305 3088 1502     		.word	0x215
 5306 308a 01       		.byte	0x1
 5307 308b F3300000 		.long	0x30f3
 5308 308f 3C       		.uleb128 0x3c
 5309 3090 5F535F72 		.ascii "_S_refcount\0"
 5309      6566636F 
 5309      756E7400 
 5310 309c 01       		.byte	0x1
 5311 309d 1D02     		.word	0x21d
 5312 309f 03460000 		.long	0x4603
 5313 30a3 3C       		.uleb128 0x3c
 5314 30a4 5F535F73 		.ascii "_S_synced_with_stdio\0"
 5314      796E6365 
 5314      645F7769 
 5314      74685F73 
 5314      7464696F 
 5315 30b9 01       		.byte	0x1
 5316 30ba 1E02     		.word	0x21e
 5317 30bc 10440000 		.long	0x4410
 5318 30c0 2F       		.uleb128 0x2f
 5319 30c1 496E6974 		.ascii "Init\0"
 5319      00
 5320 30c6 01       		.byte	0x1
 5321 30c7 1902     		.word	0x219
 5322 30c9 01       		.byte	0x1
 5323 30ca D2300000 		.long	0x30d2
 5324 30ce D8300000 		.long	0x30d8
 5325 30d2 1B       		.uleb128 0x1b
 5326 30d3 92460000 		.long	0x4692
 5327 30d7 00       		.byte	0
 5328 30d8 3D       		.uleb128 0x3d
 5329 30d9 7E496E69 		.ascii "~Init\0"
 5329      7400
 5330 30df 01       		.byte	0x1
 5331 30e0 1A02     		.word	0x21a
 5332 30e2 01       		.byte	0x1
 5333 30e3 E7300000 		.long	0x30e7
 5334 30e7 1B       		.uleb128 0x1b
 5335 30e8 92460000 		.long	0x4692
 5336 30ec 1B       		.uleb128 0x1b
 5337 30ed 89010000 		.long	0x189
 5338 30f1 00       		.byte	0
 5339 30f2 00       		.byte	0
 5340 30f3 22       		.uleb128 0x22
 5341 30f4 666D7466 		.ascii "fmtflags\0"
 5341      6C616773 
 5341      00
 5342 30fd 01       		.byte	0x1
 5343 30fe FF       		.byte	0xff
 5344 30ff 3E2E0000 		.long	0x2e3e
 5345 3103 01       		.byte	0x1
 5346 3104 3E       		.uleb128 0x3e
 5347 3105 6F70656E 		.ascii "openmode\0"
 5347      6D6F6465 
 5347      00
 5348 310e 01       		.byte	0x1
GAS LISTING C:\Users\NJLLMR~1\AppData\Local\Temp\cc3wbcxt.s 			page 129


 5349 310f 6901     		.word	0x169
 5350 3111 652F0000 		.long	0x2f65
 5351 3115 01       		.byte	0x1
 5352 3116 3E       		.uleb128 0x3e
 5353 3117 7365656B 		.ascii "seekdir\0"
 5353      64697200 
 5354 311f 01       		.byte	0x1
 5355 3120 8901     		.word	0x189
 5356 3122 2A300000 		.long	0x302a
 5357 3126 01       		.byte	0x1
 5358 3127 3F       		.uleb128 0x3f
 5359 3128 626F6F6C 		.ascii "boolalpha\0"
 5359      616C7068 
 5359      6100
 5360 3132 01       		.byte	0x1
 5361 3133 0201     		.word	0x102
 5362 3135 3B310000 		.long	0x313b
 5363 3139 01       		.byte	0x1
 5364 313a 01       		.byte	0x1
 5365 313b 11       		.uleb128 0x11
 5366 313c F3300000 		.long	0x30f3
 5367 3140 3F       		.uleb128 0x3f
 5368 3141 64656300 		.ascii "dec\0"
 5369 3145 01       		.byte	0x1
 5370 3146 0501     		.word	0x105
 5371 3148 3B310000 		.long	0x313b
 5372 314c 01       		.byte	0x1
 5373 314d 02       		.byte	0x2
 5374 314e 3F       		.uleb128 0x3f
 5375 314f 66697865 		.ascii "fixed\0"
 5375      6400
 5376 3155 01       		.byte	0x1
 5377 3156 0801     		.word	0x108
 5378 3158 3B310000 		.long	0x313b
 5379 315c 01       		.byte	0x1
 5380 315d 04       		.byte	0x4
 5381 315e 3F       		.uleb128 0x3f
 5382 315f 68657800 		.ascii "hex\0"
 5383 3163 01       		.byte	0x1
 5384 3164 0B01     		.word	0x10b
 5385 3166 3B310000 		.long	0x313b
 5386 316a 01       		.byte	0x1
 5387 316b 08       		.byte	0x8
 5388 316c 3F       		.uleb128 0x3f
 5389 316d 696E7465 		.ascii "internal\0"
 5389      726E616C 
 5389      00
 5390 3176 01       		.byte	0x1
 5391 3177 1001     		.word	0x110
 5392 3179 3B310000 		.long	0x313b
 5393 317d 01       		.byte	0x1
 5394 317e 10       		.byte	0x10
 5395 317f 3F       		.uleb128 0x3f
 5396 3180 6C656674 		.ascii "left\0"
 5396      00
 5397 3185 01       		.byte	0x1
 5398 3186 1401     		.word	0x114
GAS LISTING C:\Users\NJLLMR~1\AppData\Local\Temp\cc3wbcxt.s 			page 130


 5399 3188 3B310000 		.long	0x313b
 5400 318c 01       		.byte	0x1
 5401 318d 20       		.byte	0x20
 5402 318e 3F       		.uleb128 0x3f
 5403 318f 6F637400 		.ascii "oct\0"
 5404 3193 01       		.byte	0x1
 5405 3194 1701     		.word	0x117
 5406 3196 3B310000 		.long	0x313b
 5407 319a 01       		.byte	0x1
 5408 319b 40       		.byte	0x40
 5409 319c 3F       		.uleb128 0x3f
 5410 319d 72696768 		.ascii "right\0"
 5410      7400
 5411 31a3 01       		.byte	0x1
 5412 31a4 1B01     		.word	0x11b
 5413 31a6 3B310000 		.long	0x313b
 5414 31aa 01       		.byte	0x1
 5415 31ab 80       		.byte	0x80
 5416 31ac 40       		.uleb128 0x40
 5417 31ad 73636965 		.ascii "scientific\0"
 5417      6E746966 
 5417      696300
 5418 31b8 01       		.byte	0x1
 5419 31b9 1E01     		.word	0x11e
 5420 31bb 3B310000 		.long	0x313b
 5421 31bf 01       		.byte	0x1
 5422 31c0 0001     		.word	0x100
 5423 31c2 40       		.uleb128 0x40
 5424 31c3 73686F77 		.ascii "showbase\0"
 5424      62617365 
 5424      00
 5425 31cc 01       		.byte	0x1
 5426 31cd 2201     		.word	0x122
 5427 31cf 3B310000 		.long	0x313b
 5428 31d3 01       		.byte	0x1
 5429 31d4 0002     		.word	0x200
 5430 31d6 40       		.uleb128 0x40
 5431 31d7 73686F77 		.ascii "showpoint\0"
 5431      706F696E 
 5431      7400
 5432 31e1 01       		.byte	0x1
 5433 31e2 2601     		.word	0x126
 5434 31e4 3B310000 		.long	0x313b
 5435 31e8 01       		.byte	0x1
 5436 31e9 0004     		.word	0x400
 5437 31eb 40       		.uleb128 0x40
 5438 31ec 73686F77 		.ascii "showpos\0"
 5438      706F7300 
 5439 31f4 01       		.byte	0x1
 5440 31f5 2901     		.word	0x129
 5441 31f7 3B310000 		.long	0x313b
 5442 31fb 01       		.byte	0x1
 5443 31fc 0008     		.word	0x800
 5444 31fe 40       		.uleb128 0x40
 5445 31ff 736B6970 		.ascii "skipws\0"
 5445      777300
 5446 3206 01       		.byte	0x1
GAS LISTING C:\Users\NJLLMR~1\AppData\Local\Temp\cc3wbcxt.s 			page 131


 5447 3207 2C01     		.word	0x12c
 5448 3209 3B310000 		.long	0x313b
 5449 320d 01       		.byte	0x1
 5450 320e 0010     		.word	0x1000
 5451 3210 40       		.uleb128 0x40
 5452 3211 756E6974 		.ascii "unitbuf\0"
 5452      62756600 
 5453 3219 01       		.byte	0x1
 5454 321a 2F01     		.word	0x12f
 5455 321c 3B310000 		.long	0x313b
 5456 3220 01       		.byte	0x1
 5457 3221 0020     		.word	0x2000
 5458 3223 40       		.uleb128 0x40
 5459 3224 75707065 		.ascii "uppercase\0"
 5459      72636173 
 5459      6500
 5460 322e 01       		.byte	0x1
 5461 322f 3301     		.word	0x133
 5462 3231 3B310000 		.long	0x313b
 5463 3235 01       		.byte	0x1
 5464 3236 0040     		.word	0x4000
 5465 3238 3F       		.uleb128 0x3f
 5466 3239 61646A75 		.ascii "adjustfield\0"
 5466      73746669 
 5466      656C6400 
 5467 3245 01       		.byte	0x1
 5468 3246 3601     		.word	0x136
 5469 3248 3B310000 		.long	0x313b
 5470 324c 01       		.byte	0x1
 5471 324d B0       		.byte	0xb0
 5472 324e 3F       		.uleb128 0x3f
 5473 324f 62617365 		.ascii "basefield\0"
 5473      6669656C 
 5473      6400
 5474 3259 01       		.byte	0x1
 5475 325a 3901     		.word	0x139
 5476 325c 3B310000 		.long	0x313b
 5477 3260 01       		.byte	0x1
 5478 3261 4A       		.byte	0x4a
 5479 3262 40       		.uleb128 0x40
 5480 3263 666C6F61 		.ascii "floatfield\0"
 5480      74666965 
 5480      6C6400
 5481 326e 01       		.byte	0x1
 5482 326f 3C01     		.word	0x13c
 5483 3271 3B310000 		.long	0x313b
 5484 3275 01       		.byte	0x1
 5485 3276 0401     		.word	0x104
 5486 3278 3E       		.uleb128 0x3e
 5487 3279 696F7374 		.ascii "iostate\0"
 5487      61746500 
 5488 3281 01       		.byte	0x1
 5489 3282 4A01     		.word	0x14a
 5490 3284 CB2F0000 		.long	0x2fcb
 5491 3288 01       		.byte	0x1
 5492 3289 3F       		.uleb128 0x3f
 5493 328a 62616462 		.ascii "badbit\0"
GAS LISTING C:\Users\NJLLMR~1\AppData\Local\Temp\cc3wbcxt.s 			page 132


 5493      697400
 5494 3291 01       		.byte	0x1
 5495 3292 4E01     		.word	0x14e
 5496 3294 9A320000 		.long	0x329a
 5497 3298 01       		.byte	0x1
 5498 3299 01       		.byte	0x1
 5499 329a 11       		.uleb128 0x11
 5500 329b 78320000 		.long	0x3278
 5501 329f 3F       		.uleb128 0x3f
 5502 32a0 656F6662 		.ascii "eofbit\0"
 5502      697400
 5503 32a7 01       		.byte	0x1
 5504 32a8 5101     		.word	0x151
 5505 32aa 9A320000 		.long	0x329a
 5506 32ae 01       		.byte	0x1
 5507 32af 02       		.byte	0x2
 5508 32b0 3F       		.uleb128 0x3f
 5509 32b1 6661696C 		.ascii "failbit\0"
 5509      62697400 
 5510 32b9 01       		.byte	0x1
 5511 32ba 5601     		.word	0x156
 5512 32bc 9A320000 		.long	0x329a
 5513 32c0 01       		.byte	0x1
 5514 32c1 04       		.byte	0x4
 5515 32c2 3F       		.uleb128 0x3f
 5516 32c3 676F6F64 		.ascii "goodbit\0"
 5516      62697400 
 5517 32cb 01       		.byte	0x1
 5518 32cc 5901     		.word	0x159
 5519 32ce 9A320000 		.long	0x329a
 5520 32d2 01       		.byte	0x1
 5521 32d3 00       		.byte	0
 5522 32d4 3F       		.uleb128 0x3f
 5523 32d5 61707000 		.ascii "app\0"
 5524 32d9 01       		.byte	0x1
 5525 32da 6C01     		.word	0x16c
 5526 32dc E2320000 		.long	0x32e2
 5527 32e0 01       		.byte	0x1
 5528 32e1 01       		.byte	0x1
 5529 32e2 11       		.uleb128 0x11
 5530 32e3 04310000 		.long	0x3104
 5531 32e7 3F       		.uleb128 0x3f
 5532 32e8 61746500 		.ascii "ate\0"
 5533 32ec 01       		.byte	0x1
 5534 32ed 6F01     		.word	0x16f
 5535 32ef E2320000 		.long	0x32e2
 5536 32f3 01       		.byte	0x1
 5537 32f4 02       		.byte	0x2
 5538 32f5 3F       		.uleb128 0x3f
 5539 32f6 62696E61 		.ascii "binary\0"
 5539      727900
 5540 32fd 01       		.byte	0x1
 5541 32fe 7401     		.word	0x174
 5542 3300 E2320000 		.long	0x32e2
 5543 3304 01       		.byte	0x1
 5544 3305 04       		.byte	0x4
 5545 3306 3F       		.uleb128 0x3f
GAS LISTING C:\Users\NJLLMR~1\AppData\Local\Temp\cc3wbcxt.s 			page 133


 5546 3307 696E00   		.ascii "in\0"
 5547 330a 01       		.byte	0x1
 5548 330b 7701     		.word	0x177
 5549 330d E2320000 		.long	0x32e2
 5550 3311 01       		.byte	0x1
 5551 3312 08       		.byte	0x8
 5552 3313 3F       		.uleb128 0x3f
 5553 3314 6F757400 		.ascii "out\0"
 5554 3318 01       		.byte	0x1
 5555 3319 7A01     		.word	0x17a
 5556 331b E2320000 		.long	0x32e2
 5557 331f 01       		.byte	0x1
 5558 3320 10       		.byte	0x10
 5559 3321 3F       		.uleb128 0x3f
 5560 3322 7472756E 		.ascii "trunc\0"
 5560      6300
 5561 3328 01       		.byte	0x1
 5562 3329 7D01     		.word	0x17d
 5563 332b E2320000 		.long	0x32e2
 5564 332f 01       		.byte	0x1
 5565 3330 20       		.byte	0x20
 5566 3331 3F       		.uleb128 0x3f
 5567 3332 62656700 		.ascii "beg\0"
 5568 3336 01       		.byte	0x1
 5569 3337 8C01     		.word	0x18c
 5570 3339 3F330000 		.long	0x333f
 5571 333d 01       		.byte	0x1
 5572 333e 00       		.byte	0
 5573 333f 11       		.uleb128 0x11
 5574 3340 16310000 		.long	0x3116
 5575 3344 3F       		.uleb128 0x3f
 5576 3345 63757200 		.ascii "cur\0"
 5577 3349 01       		.byte	0x1
 5578 334a 8F01     		.word	0x18f
 5579 334c 3F330000 		.long	0x333f
 5580 3350 01       		.byte	0x1
 5581 3351 01       		.byte	0x1
 5582 3352 3F       		.uleb128 0x3f
 5583 3353 656E6400 		.ascii "end\0"
 5584 3357 01       		.byte	0x1
 5585 3358 9201     		.word	0x192
 5586 335a 3F330000 		.long	0x333f
 5587 335e 01       		.byte	0x1
 5588 335f 02       		.byte	0x2
 5589 3360 00       		.byte	0
 5590 3361 0A       		.uleb128 0xa
 5591 3362 16       		.byte	0x16
 5592 3363 52       		.byte	0x52
 5593 3364 78010000 		.long	0x178
 5594 3368 0A       		.uleb128 0xa
 5595 3369 16       		.byte	0x16
 5596 336a 53       		.byte	0x53
 5597 336b 5D010000 		.long	0x15d
 5598 336f 0A       		.uleb128 0xa
 5599 3370 16       		.byte	0x16
 5600 3371 54       		.byte	0x54
 5601 3372 18010000 		.long	0x118
GAS LISTING C:\Users\NJLLMR~1\AppData\Local\Temp\cc3wbcxt.s 			page 134


 5602 3376 0A       		.uleb128 0xa
 5603 3377 16       		.byte	0x16
 5604 3378 5C       		.byte	0x5c
 5605 3379 98460000 		.long	0x4698
 5606 337d 0A       		.uleb128 0xa
 5607 337e 16       		.byte	0x16
 5608 337f 65       		.byte	0x65
 5609 3380 B7460000 		.long	0x46b7
 5610 3384 0A       		.uleb128 0xa
 5611 3385 16       		.byte	0x16
 5612 3386 68       		.byte	0x68
 5613 3387 D7460000 		.long	0x46d7
 5614 338b 0A       		.uleb128 0xa
 5615 338c 16       		.byte	0x16
 5616 338d 69       		.byte	0x69
 5617 338e F0460000 		.long	0x46f0
 5618 3392 0A       		.uleb128 0xa
 5619 3393 17       		.byte	0x17
 5620 3394 62       		.byte	0x62
 5621 3395 47020000 		.long	0x247
 5622 3399 0A       		.uleb128 0xa
 5623 339a 17       		.byte	0x17
 5624 339b 63       		.byte	0x63
 5625 339c 0D470000 		.long	0x470d
 5626 33a0 0A       		.uleb128 0xa
 5627 33a1 17       		.byte	0x17
 5628 33a2 65       		.byte	0x65
 5629 33a3 1C470000 		.long	0x471c
 5630 33a7 0A       		.uleb128 0xa
 5631 33a8 17       		.byte	0x17
 5632 33a9 66       		.byte	0x66
 5633 33aa 33470000 		.long	0x4733
 5634 33ae 0A       		.uleb128 0xa
 5635 33af 17       		.byte	0x17
 5636 33b0 67       		.byte	0x67
 5637 33b1 4B470000 		.long	0x474b
 5638 33b5 0A       		.uleb128 0xa
 5639 33b6 17       		.byte	0x17
 5640 33b7 68       		.byte	0x68
 5641 33b8 62470000 		.long	0x4762
 5642 33bc 0A       		.uleb128 0xa
 5643 33bd 17       		.byte	0x17
 5644 33be 69       		.byte	0x69
 5645 33bf 7B470000 		.long	0x477b
 5646 33c3 0A       		.uleb128 0xa
 5647 33c4 17       		.byte	0x17
 5648 33c5 6A       		.byte	0x6a
 5649 33c6 93470000 		.long	0x4793
 5650 33ca 0A       		.uleb128 0xa
 5651 33cb 17       		.byte	0x17
 5652 33cc 6B       		.byte	0x6b
 5653 33cd AB470000 		.long	0x47ab
 5654 33d1 0A       		.uleb128 0xa
 5655 33d2 17       		.byte	0x17
 5656 33d3 6C       		.byte	0x6c
 5657 33d4 D0470000 		.long	0x47d0
 5658 33d8 0A       		.uleb128 0xa
GAS LISTING C:\Users\NJLLMR~1\AppData\Local\Temp\cc3wbcxt.s 			page 135


 5659 33d9 17       		.byte	0x17
 5660 33da 6D       		.byte	0x6d
 5661 33db F2470000 		.long	0x47f2
 5662 33df 0A       		.uleb128 0xa
 5663 33e0 17       		.byte	0x17
 5664 33e1 71       		.byte	0x71
 5665 33e2 0E480000 		.long	0x480e
 5666 33e6 0A       		.uleb128 0xa
 5667 33e7 17       		.byte	0x17
 5668 33e8 72       		.byte	0x72
 5669 33e9 35480000 		.long	0x4835
 5670 33ed 0A       		.uleb128 0xa
 5671 33ee 17       		.byte	0x17
 5672 33ef 74       		.byte	0x74
 5673 33f0 58480000 		.long	0x4858
 5674 33f4 0A       		.uleb128 0xa
 5675 33f5 17       		.byte	0x17
 5676 33f6 75       		.byte	0x75
 5677 33f7 7A480000 		.long	0x487a
 5678 33fb 0A       		.uleb128 0xa
 5679 33fc 17       		.byte	0x17
 5680 33fd 76       		.byte	0x76
 5681 33fe A4480000 		.long	0x48a4
 5682 3402 0A       		.uleb128 0xa
 5683 3403 17       		.byte	0x17
 5684 3404 78       		.byte	0x78
 5685 3405 BC480000 		.long	0x48bc
 5686 3409 0A       		.uleb128 0xa
 5687 340a 17       		.byte	0x17
 5688 340b 79       		.byte	0x79
 5689 340c D3480000 		.long	0x48d3
 5690 3410 0A       		.uleb128 0xa
 5691 3411 17       		.byte	0x17
 5692 3412 7C       		.byte	0x7c
 5693 3413 E3480000 		.long	0x48e3
 5694 3417 0A       		.uleb128 0xa
 5695 3418 17       		.byte	0x17
 5696 3419 7E       		.byte	0x7e
 5697 341a FA480000 		.long	0x48fa
 5698 341e 0A       		.uleb128 0xa
 5699 341f 17       		.byte	0x17
 5700 3420 80       		.byte	0x80
 5701 3421 0F490000 		.long	0x490f
 5702 3425 0A       		.uleb128 0xa
 5703 3426 17       		.byte	0x17
 5704 3427 81       		.byte	0x81
 5705 3428 2B490000 		.long	0x492b
 5706 342c 0A       		.uleb128 0xa
 5707 342d 17       		.byte	0x17
 5708 342e 83       		.byte	0x83
 5709 342f 45490000 		.long	0x4945
 5710 3433 0A       		.uleb128 0xa
 5711 3434 17       		.byte	0x17
 5712 3435 84       		.byte	0x84
 5713 3436 5D490000 		.long	0x495d
 5714 343a 0A       		.uleb128 0xa
 5715 343b 17       		.byte	0x17
GAS LISTING C:\Users\NJLLMR~1\AppData\Local\Temp\cc3wbcxt.s 			page 136


 5716 343c 85       		.byte	0x85
 5717 343d 7A490000 		.long	0x497a
 5718 3441 0A       		.uleb128 0xa
 5719 3442 17       		.byte	0x17
 5720 3443 87       		.byte	0x87
 5721 3444 8F490000 		.long	0x498f
 5722 3448 0A       		.uleb128 0xa
 5723 3449 17       		.byte	0x17
 5724 344a 88       		.byte	0x88
 5725 344b A8490000 		.long	0x49a8
 5726 344f 0A       		.uleb128 0xa
 5727 3450 17       		.byte	0x17
 5728 3451 8B       		.byte	0x8b
 5729 3452 D0490000 		.long	0x49d0
 5730 3456 0A       		.uleb128 0xa
 5731 3457 17       		.byte	0x17
 5732 3458 8D       		.byte	0x8d
 5733 3459 DF490000 		.long	0x49df
 5734 345d 0A       		.uleb128 0xa
 5735 345e 17       		.byte	0x17
 5736 345f 8F       		.byte	0x8f
 5737 3460 F7490000 		.long	0x49f7
 5738 3464 41       		.uleb128 0x41
 5739 3465 5F5F6973 		.ascii "__is_normal_iterator<long unsigned int*>\0"
 5739      5F6E6F72 
 5739      6D616C5F 
 5739      69746572 
 5739      61746F72 
 5740 348e 01       		.byte	0x1
 5741 348f 0E       		.byte	0xe
 5742 3490 3301     		.word	0x133
 5743 3492 B0340000 		.long	0x34b0
 5744 3496 42       		.uleb128 0x42
 5745 3497 04       		.byte	0x4
 5746 3498 0E       		.byte	0xe
 5747 3499 3501     		.word	0x135
 5748 349b A6340000 		.long	0x34a6
 5749 349f 0D       		.uleb128 0xd
 5750 34a0 92010000 		.secrel32	LASF22
 5751 34a4 00       		.sleb128 0
 5752 34a5 00       		.byte	0
 5753 34a6 35       		.uleb128 0x35
 5754 34a7 5F547000 		.ascii "_Tp\0"
 5755 34ab 784F0000 		.long	0x4f78
 5756 34af 00       		.byte	0
 5757 34b0 41       		.uleb128 0x41
 5758 34b1 5F5F6973 		.ascii "__is_pointer<int>\0"
 5758      5F706F69 
 5758      6E746572 
 5758      3C696E74 
 5758      3E00
 5759 34c3 01       		.byte	0x1
 5760 34c4 0E       		.byte	0xe
 5761 34c5 2201     		.word	0x122
 5762 34c7 E5340000 		.long	0x34e5
 5763 34cb 42       		.uleb128 0x42
 5764 34cc 04       		.byte	0x4
GAS LISTING C:\Users\NJLLMR~1\AppData\Local\Temp\cc3wbcxt.s 			page 137


 5765 34cd 0E       		.byte	0xe
 5766 34ce 2401     		.word	0x124
 5767 34d0 DB340000 		.long	0x34db
 5768 34d4 0D       		.uleb128 0xd
 5769 34d5 92010000 		.secrel32	LASF22
 5770 34d9 00       		.sleb128 0
 5771 34da 00       		.byte	0
 5772 34db 35       		.uleb128 0x35
 5773 34dc 5F547000 		.ascii "_Tp\0"
 5774 34e0 89010000 		.long	0x189
 5775 34e4 00       		.byte	0
 5776 34e5 41       		.uleb128 0x41
 5777 34e6 5F5F6973 		.ascii "__is_floating<int>\0"
 5777      5F666C6F 
 5777      6174696E 
 5777      673C696E 
 5777      743E00
 5778 34f9 01       		.byte	0x1
 5779 34fa 0E       		.byte	0xe
 5780 34fb 0201     		.word	0x102
 5781 34fd 1B350000 		.long	0x351b
 5782 3501 42       		.uleb128 0x42
 5783 3502 04       		.byte	0x4
 5784 3503 0E       		.byte	0xe
 5785 3504 0401     		.word	0x104
 5786 3506 11350000 		.long	0x3511
 5787 350a 0D       		.uleb128 0xd
 5788 350b 92010000 		.secrel32	LASF22
 5789 350f 00       		.sleb128 0
 5790 3510 00       		.byte	0
 5791 3511 35       		.uleb128 0x35
 5792 3512 5F547000 		.ascii "_Tp\0"
 5793 3516 89010000 		.long	0x189
 5794 351a 00       		.byte	0
 5795 351b 06       		.uleb128 0x6
 5796 351c 5F5F7472 		.ascii "__traitor<std::__is_integer<int>, std::__is_floating<int> >\0"
 5796      6169746F 
 5796      723C7374 
 5796      643A3A5F 
 5796      5F69735F 
 5797 3558 01       		.byte	0x1
 5798 3559 0E       		.byte	0xe
 5799 355a 60       		.byte	0x60
 5800 355b 81350000 		.long	0x3581
 5801 355f 43       		.uleb128 0x43
 5802 3560 04       		.byte	0x4
 5803 3561 0E       		.byte	0xe
 5804 3562 62       		.byte	0x62
 5805 3563 6E350000 		.long	0x356e
 5806 3567 0D       		.uleb128 0xd
 5807 3568 92010000 		.secrel32	LASF22
 5808 356c 01       		.sleb128 1
 5809 356d 00       		.byte	0
 5810 356e 35       		.uleb128 0x35
 5811 356f 5F537000 		.ascii "_Sp\0"
 5812 3573 05050000 		.long	0x505
 5813 3577 35       		.uleb128 0x35
GAS LISTING C:\Users\NJLLMR~1\AppData\Local\Temp\cc3wbcxt.s 			page 138


 5814 3578 5F547000 		.ascii "_Tp\0"
 5815 357c E5340000 		.long	0x34e5
 5816 3580 00       		.byte	0
 5817 3581 41       		.uleb128 0x41
 5818 3582 5F5F6973 		.ascii "__is_arithmetic<int>\0"
 5818      5F617269 
 5818      74686D65 
 5818      7469633C 
 5818      696E743E 
 5819 3597 01       		.byte	0x1
 5820 3598 0E       		.byte	0xe
 5821 3599 4501     		.word	0x145
 5822 359b AF350000 		.long	0x35af
 5823 359f 1E       		.uleb128 0x1e
 5824 35a0 1B350000 		.long	0x351b
 5825 35a4 00       		.byte	0
 5826 35a5 35       		.uleb128 0x35
 5827 35a6 5F547000 		.ascii "_Tp\0"
 5828 35aa 89010000 		.long	0x189
 5829 35ae 00       		.byte	0
 5830 35af 06       		.uleb128 0x6
 5831 35b0 5F5F7472 		.ascii "__traitor<std::__is_arithmetic<int>, std::__is_pointer<int> >\0"
 5831      6169746F 
 5831      723C7374 
 5831      643A3A5F 
 5831      5F69735F 
 5832 35ee 01       		.byte	0x1
 5833 35ef 0E       		.byte	0xe
 5834 35f0 60       		.byte	0x60
 5835 35f1 17360000 		.long	0x3617
 5836 35f5 43       		.uleb128 0x43
 5837 35f6 04       		.byte	0x4
 5838 35f7 0E       		.byte	0xe
 5839 35f8 62       		.byte	0x62
 5840 35f9 04360000 		.long	0x3604
 5841 35fd 0D       		.uleb128 0xd
 5842 35fe 92010000 		.secrel32	LASF22
 5843 3602 01       		.sleb128 1
 5844 3603 00       		.byte	0
 5845 3604 35       		.uleb128 0x35
 5846 3605 5F537000 		.ascii "_Sp\0"
 5847 3609 81350000 		.long	0x3581
 5848 360d 35       		.uleb128 0x35
 5849 360e 5F547000 		.ascii "_Tp\0"
 5850 3612 B0340000 		.long	0x34b0
 5851 3616 00       		.byte	0
 5852 3617 12       		.uleb128 0x12
 5853 3618 6F706572 		.ascii "operator|\0"
 5853      61746F72 
 5853      7C00
 5854 3622 01       		.byte	0x1
 5855 3623 77       		.byte	0x77
 5856 3624 5F5A5374 		.ascii "_ZStorSt13_Ios_OpenmodeS_\0"
 5856      6F725374 
 5856      31335F49 
 5856      6F735F4F 
 5856      70656E6D 
GAS LISTING C:\Users\NJLLMR~1\AppData\Local\Temp\cc3wbcxt.s 			page 139


 5857 363e 652F0000 		.long	0x2f65
 5858 3642 51360000 		.long	0x3651
 5859 3646 10       		.uleb128 0x10
 5860 3647 652F0000 		.long	0x2f65
 5861 364b 10       		.uleb128 0x10
 5862 364c 652F0000 		.long	0x2f65
 5863 3650 00       		.byte	0
 5864 3651 02       		.uleb128 0x2
 5865 3652 73747269 		.ascii "stringstream\0"
 5865      6E677374 
 5865      7265616D 
 5865      00
 5866 365f 18       		.byte	0x18
 5867 3660 97       		.byte	0x97
 5868 3661 65360000 		.long	0x3665
 5869 3665 3A       		.uleb128 0x3a
 5870 3666 62617369 		.ascii "basic_stringstream<char, std::char_traits<char>, std::allocator<char> >\0"
 5870      635F7374 
 5870      72696E67 
 5870      73747265 
 5870      616D3C63 
 5871 36ae D8360000 		.long	0x36d8
 5872 36b2 35       		.uleb128 0x35
 5873 36b3 5F436861 		.ascii "_CharT\0"
 5873      725400
 5874 36ba 55010000 		.long	0x155
 5875 36be 36       		.uleb128 0x36
 5876 36bf 5F547261 		.ascii "_Traits\0"
 5876      69747300 
 5877 36c7 36050000 		.long	0x536
 5878 36cb 36       		.uleb128 0x36
 5879 36cc 5F416C6C 		.ascii "_Alloc\0"
 5879      6F6300
 5880 36d3 21090000 		.long	0x921
 5881 36d7 00       		.byte	0
 5882 36d8 44       		.uleb128 0x44
 5883 36d9 5F5F696F 		.ascii "__ioinit\0"
 5883      696E6974 
 5883      00
 5884 36e2 09       		.byte	0x9
 5885 36e3 4A       		.byte	0x4a
 5886 36e4 80300000 		.long	0x3080
 5887 36e8 00       		.byte	0
 5888 36e9 45       		.uleb128 0x45
 5889 36ea 62746F77 		.ascii "btowc\0"
 5889      6300
 5890 36f0 0C       		.byte	0xc
 5891 36f1 2901     		.word	0x129
 5892 36f3 18010000 		.long	0x118
 5893 36f7 01370000 		.long	0x3701
 5894 36fb 10       		.uleb128 0x10
 5895 36fc 89010000 		.long	0x189
 5896 3700 00       		.byte	0
 5897 3701 46       		.uleb128 0x46
 5898 3702 66676574 		.ascii "fgetwc\0"
 5898      776300
 5899 3709 0C       		.byte	0xc
GAS LISTING C:\Users\NJLLMR~1\AppData\Local\Temp\cc3wbcxt.s 			page 140


 5900 370a 70       		.byte	0x70
 5901 370b 18010000 		.long	0x118
 5902 370f 19370000 		.long	0x3719
 5903 3713 10       		.uleb128 0x10
 5904 3714 19370000 		.long	0x3719
 5905 3718 00       		.byte	0
 5906 3719 08       		.uleb128 0x8
 5907 371a 04       		.byte	0x4
 5908 371b 47020000 		.long	0x247
 5909 371f 46       		.uleb128 0x46
 5910 3720 66676574 		.ascii "fgetws\0"
 5910      777300
 5911 3727 0C       		.byte	0xc
 5912 3728 7B       		.byte	0x7b
 5913 3729 41370000 		.long	0x3741
 5914 372d 41370000 		.long	0x3741
 5915 3731 10       		.uleb128 0x10
 5916 3732 41370000 		.long	0x3741
 5917 3736 10       		.uleb128 0x10
 5918 3737 89010000 		.long	0x189
 5919 373b 10       		.uleb128 0x10
 5920 373c 19370000 		.long	0x3719
 5921 3740 00       		.byte	0
 5922 3741 08       		.uleb128 0x8
 5923 3742 04       		.byte	0x4
 5924 3743 6D010000 		.long	0x16d
 5925 3747 46       		.uleb128 0x46
 5926 3748 66707574 		.ascii "fputwc\0"
 5926      776300
 5927 374f 0C       		.byte	0xc
 5928 3750 71       		.byte	0x71
 5929 3751 18010000 		.long	0x118
 5930 3755 64370000 		.long	0x3764
 5931 3759 10       		.uleb128 0x10
 5932 375a 6D010000 		.long	0x16d
 5933 375e 10       		.uleb128 0x10
 5934 375f 19370000 		.long	0x3719
 5935 3763 00       		.byte	0
 5936 3764 46       		.uleb128 0x46
 5937 3765 66707574 		.ascii "fputws\0"
 5937      777300
 5938 376c 0C       		.byte	0xc
 5939 376d 7C       		.byte	0x7c
 5940 376e 89010000 		.long	0x189
 5941 3772 81370000 		.long	0x3781
 5942 3776 10       		.uleb128 0x10
 5943 3777 81370000 		.long	0x3781
 5944 377b 10       		.uleb128 0x10
 5945 377c 19370000 		.long	0x3719
 5946 3780 00       		.byte	0
 5947 3781 08       		.uleb128 0x8
 5948 3782 04       		.byte	0x4
 5949 3783 87370000 		.long	0x3787
 5950 3787 11       		.uleb128 0x11
 5951 3788 6D010000 		.long	0x16d
 5952 378c 45       		.uleb128 0x45
 5953 378d 66776964 		.ascii "fwide\0"
GAS LISTING C:\Users\NJLLMR~1\AppData\Local\Temp\cc3wbcxt.s 			page 141


 5953      6500
 5954 3793 0C       		.byte	0xc
 5955 3794 3701     		.word	0x137
 5956 3796 89010000 		.long	0x189
 5957 379a A9370000 		.long	0x37a9
 5958 379e 10       		.uleb128 0x10
 5959 379f 19370000 		.long	0x3719
 5960 37a3 10       		.uleb128 0x10
 5961 37a4 89010000 		.long	0x189
 5962 37a8 00       		.byte	0
 5963 37a9 46       		.uleb128 0x46
 5964 37aa 66777072 		.ascii "fwprintf\0"
 5964      696E7466 
 5964      00
 5965 37b3 0C       		.byte	0xc
 5966 37b4 67       		.byte	0x67
 5967 37b5 89010000 		.long	0x189
 5968 37b9 C9370000 		.long	0x37c9
 5969 37bd 10       		.uleb128 0x10
 5970 37be 19370000 		.long	0x3719
 5971 37c2 10       		.uleb128 0x10
 5972 37c3 81370000 		.long	0x3781
 5973 37c7 47       		.uleb128 0x47
 5974 37c8 00       		.byte	0
 5975 37c9 46       		.uleb128 0x46
 5976 37ca 66777363 		.ascii "fwscanf\0"
 5976      616E6600 
 5977 37d2 0C       		.byte	0xc
 5978 37d3 6D       		.byte	0x6d
 5979 37d4 89010000 		.long	0x189
 5980 37d8 E8370000 		.long	0x37e8
 5981 37dc 10       		.uleb128 0x10
 5982 37dd 19370000 		.long	0x3719
 5983 37e1 10       		.uleb128 0x10
 5984 37e2 81370000 		.long	0x3781
 5985 37e6 47       		.uleb128 0x47
 5986 37e7 00       		.byte	0
 5987 37e8 46       		.uleb128 0x46
 5988 37e9 67657477 		.ascii "getwc\0"
 5988      6300
 5989 37ef 0C       		.byte	0xc
 5990 37f0 7D       		.byte	0x7d
 5991 37f1 18010000 		.long	0x118
 5992 37f5 FF370000 		.long	0x37ff
 5993 37f9 10       		.uleb128 0x10
 5994 37fa 19370000 		.long	0x3719
 5995 37fe 00       		.byte	0
 5996 37ff 48       		.uleb128 0x48
 5997 3800 67657477 		.ascii "getwchar\0"
 5997      63686172 
 5997      00
 5998 3809 0C       		.byte	0xc
 5999 380a 7E       		.byte	0x7e
 6000 380b 18010000 		.long	0x118
 6001 380f 45       		.uleb128 0x45
 6002 3810 6D62726C 		.ascii "mbrlen\0"
 6002      656E00
GAS LISTING C:\Users\NJLLMR~1\AppData\Local\Temp\cc3wbcxt.s 			page 142


 6003 3817 0C       		.byte	0xc
 6004 3818 2A01     		.word	0x12a
 6005 381a FA000000 		.long	0xfa
 6006 381e 32380000 		.long	0x3832
 6007 3822 10       		.uleb128 0x10
 6008 3823 32380000 		.long	0x3832
 6009 3827 10       		.uleb128 0x10
 6010 3828 FA000000 		.long	0xfa
 6011 382c 10       		.uleb128 0x10
 6012 382d 3D380000 		.long	0x383d
 6013 3831 00       		.byte	0
 6014 3832 08       		.uleb128 0x8
 6015 3833 04       		.byte	0x4
 6016 3834 38380000 		.long	0x3838
 6017 3838 11       		.uleb128 0x11
 6018 3839 55010000 		.long	0x155
 6019 383d 08       		.uleb128 0x8
 6020 383e 04       		.byte	0x4
 6021 383f ED020000 		.long	0x2ed
 6022 3843 45       		.uleb128 0x45
 6023 3844 6D627274 		.ascii "mbrtowc\0"
 6023      6F776300 
 6024 384c 0C       		.byte	0xc
 6025 384d 2C01     		.word	0x12c
 6026 384f FA000000 		.long	0xfa
 6027 3853 6C380000 		.long	0x386c
 6028 3857 10       		.uleb128 0x10
 6029 3858 41370000 		.long	0x3741
 6030 385c 10       		.uleb128 0x10
 6031 385d 32380000 		.long	0x3832
 6032 3861 10       		.uleb128 0x10
 6033 3862 FA000000 		.long	0xfa
 6034 3866 10       		.uleb128 0x10
 6035 3867 3D380000 		.long	0x383d
 6036 386b 00       		.byte	0
 6037 386c 45       		.uleb128 0x45
 6038 386d 6D627369 		.ascii "mbsinit\0"
 6038      6E697400 
 6039 3875 0C       		.byte	0xc
 6040 3876 3801     		.word	0x138
 6041 3878 89010000 		.long	0x189
 6042 387c 86380000 		.long	0x3886
 6043 3880 10       		.uleb128 0x10
 6044 3881 86380000 		.long	0x3886
 6045 3885 00       		.byte	0
 6046 3886 08       		.uleb128 0x8
 6047 3887 04       		.byte	0x4
 6048 3888 8C380000 		.long	0x388c
 6049 388c 11       		.uleb128 0x11
 6050 388d ED020000 		.long	0x2ed
 6051 3891 45       		.uleb128 0x45
 6052 3892 6D627372 		.ascii "mbsrtowcs\0"
 6052      746F7763 
 6052      7300
 6053 389c 0C       		.byte	0xc
 6054 389d 2E01     		.word	0x12e
 6055 389f FA000000 		.long	0xfa
GAS LISTING C:\Users\NJLLMR~1\AppData\Local\Temp\cc3wbcxt.s 			page 143


 6056 38a3 BC380000 		.long	0x38bc
 6057 38a7 10       		.uleb128 0x10
 6058 38a8 41370000 		.long	0x3741
 6059 38ac 10       		.uleb128 0x10
 6060 38ad BC380000 		.long	0x38bc
 6061 38b1 10       		.uleb128 0x10
 6062 38b2 FA000000 		.long	0xfa
 6063 38b6 10       		.uleb128 0x10
 6064 38b7 3D380000 		.long	0x383d
 6065 38bb 00       		.byte	0
 6066 38bc 08       		.uleb128 0x8
 6067 38bd 04       		.byte	0x4
 6068 38be 32380000 		.long	0x3832
 6069 38c2 46       		.uleb128 0x46
 6070 38c3 70757477 		.ascii "putwc\0"
 6070      6300
 6071 38c9 0C       		.byte	0xc
 6072 38ca 7F       		.byte	0x7f
 6073 38cb 18010000 		.long	0x118
 6074 38cf DE380000 		.long	0x38de
 6075 38d3 10       		.uleb128 0x10
 6076 38d4 18010000 		.long	0x118
 6077 38d8 10       		.uleb128 0x10
 6078 38d9 19370000 		.long	0x3719
 6079 38dd 00       		.byte	0
 6080 38de 46       		.uleb128 0x46
 6081 38df 70757477 		.ascii "putwchar\0"
 6081      63686172 
 6081      00
 6082 38e8 0C       		.byte	0xc
 6083 38e9 80       		.byte	0x80
 6084 38ea 18010000 		.long	0x118
 6085 38ee F8380000 		.long	0x38f8
 6086 38f2 10       		.uleb128 0x10
 6087 38f3 18010000 		.long	0x118
 6088 38f7 00       		.byte	0
 6089 38f8 46       		.uleb128 0x46
 6090 38f9 73777363 		.ascii "swscanf\0"
 6090      616E6600 
 6091 3901 0C       		.byte	0xc
 6092 3902 6F       		.byte	0x6f
 6093 3903 89010000 		.long	0x189
 6094 3907 17390000 		.long	0x3917
 6095 390b 10       		.uleb128 0x10
 6096 390c 81370000 		.long	0x3781
 6097 3910 10       		.uleb128 0x10
 6098 3911 81370000 		.long	0x3781
 6099 3915 47       		.uleb128 0x47
 6100 3916 00       		.byte	0
 6101 3917 46       		.uleb128 0x46
 6102 3918 756E6765 		.ascii "ungetwc\0"
 6102      74776300 
 6103 3920 0C       		.byte	0xc
 6104 3921 72       		.byte	0x72
 6105 3922 18010000 		.long	0x118
 6106 3926 35390000 		.long	0x3935
 6107 392a 10       		.uleb128 0x10
GAS LISTING C:\Users\NJLLMR~1\AppData\Local\Temp\cc3wbcxt.s 			page 144


 6108 392b 6D010000 		.long	0x16d
 6109 392f 10       		.uleb128 0x10
 6110 3930 19370000 		.long	0x3719
 6111 3934 00       		.byte	0
 6112 3935 46       		.uleb128 0x46
 6113 3936 76667770 		.ascii "vfwprintf\0"
 6113      72696E74 
 6113      6600
 6114 3940 0C       		.byte	0xc
 6115 3941 6A       		.byte	0x6a
 6116 3942 89010000 		.long	0x189
 6117 3946 5A390000 		.long	0x395a
 6118 394a 10       		.uleb128 0x10
 6119 394b 19370000 		.long	0x3719
 6120 394f 10       		.uleb128 0x10
 6121 3950 81370000 		.long	0x3781
 6122 3954 10       		.uleb128 0x10
 6123 3955 3D010000 		.long	0x13d
 6124 3959 00       		.byte	0
 6125 395a 46       		.uleb128 0x46
 6126 395b 76667773 		.ascii "vfwscanf\0"
 6126      63616E66 
 6126      00
 6127 3964 0C       		.byte	0xc
 6128 3965 9A       		.byte	0x9a
 6129 3966 89010000 		.long	0x189
 6130 396a 7E390000 		.long	0x397e
 6131 396e 10       		.uleb128 0x10
 6132 396f 19370000 		.long	0x3719
 6133 3973 10       		.uleb128 0x10
 6134 3974 81370000 		.long	0x3781
 6135 3978 10       		.uleb128 0x10
 6136 3979 3D010000 		.long	0x13d
 6137 397d 00       		.byte	0
 6138 397e 46       		.uleb128 0x46
 6139 397f 76737773 		.ascii "vswscanf\0"
 6139      63616E66 
 6139      00
 6140 3988 0C       		.byte	0xc
 6141 3989 9C       		.byte	0x9c
 6142 398a 89010000 		.long	0x189
 6143 398e A2390000 		.long	0x39a2
 6144 3992 10       		.uleb128 0x10
 6145 3993 81370000 		.long	0x3781
 6146 3997 10       		.uleb128 0x10
 6147 3998 81370000 		.long	0x3781
 6148 399c 10       		.uleb128 0x10
 6149 399d 3D010000 		.long	0x13d
 6150 39a1 00       		.byte	0
 6151 39a2 46       		.uleb128 0x46
 6152 39a3 76777072 		.ascii "vwprintf\0"
 6152      696E7466 
 6152      00
 6153 39ac 0C       		.byte	0xc
 6154 39ad 6B       		.byte	0x6b
 6155 39ae 89010000 		.long	0x189
 6156 39b2 C1390000 		.long	0x39c1
GAS LISTING C:\Users\NJLLMR~1\AppData\Local\Temp\cc3wbcxt.s 			page 145


 6157 39b6 10       		.uleb128 0x10
 6158 39b7 81370000 		.long	0x3781
 6159 39bb 10       		.uleb128 0x10
 6160 39bc 3D010000 		.long	0x13d
 6161 39c0 00       		.byte	0
 6162 39c1 46       		.uleb128 0x46
 6163 39c2 76777363 		.ascii "vwscanf\0"
 6163      616E6600 
 6164 39ca 0C       		.byte	0xc
 6165 39cb 99       		.byte	0x99
 6166 39cc 89010000 		.long	0x189
 6167 39d0 DF390000 		.long	0x39df
 6168 39d4 10       		.uleb128 0x10
 6169 39d5 81370000 		.long	0x3781
 6170 39d9 10       		.uleb128 0x10
 6171 39da 3D010000 		.long	0x13d
 6172 39de 00       		.byte	0
 6173 39df 45       		.uleb128 0x45
 6174 39e0 77637274 		.ascii "wcrtomb\0"
 6174      6F6D6200 
 6175 39e8 0C       		.byte	0xc
 6176 39e9 3001     		.word	0x130
 6177 39eb FA000000 		.long	0xfa
 6178 39ef 033A0000 		.long	0x3a03
 6179 39f3 10       		.uleb128 0x10
 6180 39f4 41020000 		.long	0x241
 6181 39f8 10       		.uleb128 0x10
 6182 39f9 6D010000 		.long	0x16d
 6183 39fd 10       		.uleb128 0x10
 6184 39fe 3D380000 		.long	0x383d
 6185 3a02 00       		.byte	0
 6186 3a03 46       		.uleb128 0x46
 6187 3a04 77637363 		.ascii "wcscat\0"
 6187      617400
 6188 3a0b 0C       		.byte	0xc
 6189 3a0c D9       		.byte	0xd9
 6190 3a0d 41370000 		.long	0x3741
 6191 3a11 203A0000 		.long	0x3a20
 6192 3a15 10       		.uleb128 0x10
 6193 3a16 41370000 		.long	0x3741
 6194 3a1a 10       		.uleb128 0x10
 6195 3a1b 81370000 		.long	0x3781
 6196 3a1f 00       		.byte	0
 6197 3a20 46       		.uleb128 0x46
 6198 3a21 77637363 		.ascii "wcscmp\0"
 6198      6D7000
 6199 3a28 0C       		.byte	0xc
 6200 3a29 DB       		.byte	0xdb
 6201 3a2a 89010000 		.long	0x189
 6202 3a2e 3D3A0000 		.long	0x3a3d
 6203 3a32 10       		.uleb128 0x10
 6204 3a33 81370000 		.long	0x3781
 6205 3a37 10       		.uleb128 0x10
 6206 3a38 81370000 		.long	0x3781
 6207 3a3c 00       		.byte	0
 6208 3a3d 46       		.uleb128 0x46
 6209 3a3e 77637363 		.ascii "wcscoll\0"
GAS LISTING C:\Users\NJLLMR~1\AppData\Local\Temp\cc3wbcxt.s 			page 146


 6209      6F6C6C00 
 6210 3a46 0C       		.byte	0xc
 6211 3a47 DC       		.byte	0xdc
 6212 3a48 89010000 		.long	0x189
 6213 3a4c 5B3A0000 		.long	0x3a5b
 6214 3a50 10       		.uleb128 0x10
 6215 3a51 81370000 		.long	0x3781
 6216 3a55 10       		.uleb128 0x10
 6217 3a56 81370000 		.long	0x3781
 6218 3a5a 00       		.byte	0
 6219 3a5b 46       		.uleb128 0x46
 6220 3a5c 77637363 		.ascii "wcscpy\0"
 6220      707900
 6221 3a63 0C       		.byte	0xc
 6222 3a64 DD       		.byte	0xdd
 6223 3a65 41370000 		.long	0x3741
 6224 3a69 783A0000 		.long	0x3a78
 6225 3a6d 10       		.uleb128 0x10
 6226 3a6e 41370000 		.long	0x3741
 6227 3a72 10       		.uleb128 0x10
 6228 3a73 81370000 		.long	0x3781
 6229 3a77 00       		.byte	0
 6230 3a78 46       		.uleb128 0x46
 6231 3a79 77637363 		.ascii "wcscspn\0"
 6231      73706E00 
 6232 3a81 0C       		.byte	0xc
 6233 3a82 DE       		.byte	0xde
 6234 3a83 FA000000 		.long	0xfa
 6235 3a87 963A0000 		.long	0x3a96
 6236 3a8b 10       		.uleb128 0x10
 6237 3a8c 81370000 		.long	0x3781
 6238 3a90 10       		.uleb128 0x10
 6239 3a91 81370000 		.long	0x3781
 6240 3a95 00       		.byte	0
 6241 3a96 46       		.uleb128 0x46
 6242 3a97 77637366 		.ascii "wcsftime\0"
 6242      74696D65 
 6242      00
 6243 3aa0 0C       		.byte	0xc
 6244 3aa1 CF       		.byte	0xcf
 6245 3aa2 FA000000 		.long	0xfa
 6246 3aa6 BF3A0000 		.long	0x3abf
 6247 3aaa 10       		.uleb128 0x10
 6248 3aab 41370000 		.long	0x3741
 6249 3aaf 10       		.uleb128 0x10
 6250 3ab0 FA000000 		.long	0xfa
 6251 3ab4 10       		.uleb128 0x10
 6252 3ab5 81370000 		.long	0x3781
 6253 3ab9 10       		.uleb128 0x10
 6254 3aba BF3A0000 		.long	0x3abf
 6255 3abe 00       		.byte	0
 6256 3abf 08       		.uleb128 0x8
 6257 3ac0 04       		.byte	0x4
 6258 3ac1 C53A0000 		.long	0x3ac5
 6259 3ac5 11       		.uleb128 0x11
 6260 3ac6 53020000 		.long	0x253
 6261 3aca 46       		.uleb128 0x46
GAS LISTING C:\Users\NJLLMR~1\AppData\Local\Temp\cc3wbcxt.s 			page 147


 6262 3acb 7763736C 		.ascii "wcslen\0"
 6262      656E00
 6263 3ad2 0C       		.byte	0xc
 6264 3ad3 E0       		.byte	0xe0
 6265 3ad4 FA000000 		.long	0xfa
 6266 3ad8 E23A0000 		.long	0x3ae2
 6267 3adc 10       		.uleb128 0x10
 6268 3add 81370000 		.long	0x3781
 6269 3ae1 00       		.byte	0
 6270 3ae2 46       		.uleb128 0x46
 6271 3ae3 7763736E 		.ascii "wcsncat\0"
 6271      63617400 
 6272 3aeb 0C       		.byte	0xc
 6273 3aec E1       		.byte	0xe1
 6274 3aed 41370000 		.long	0x3741
 6275 3af1 053B0000 		.long	0x3b05
 6276 3af5 10       		.uleb128 0x10
 6277 3af6 41370000 		.long	0x3741
 6278 3afa 10       		.uleb128 0x10
 6279 3afb 81370000 		.long	0x3781
 6280 3aff 10       		.uleb128 0x10
 6281 3b00 FA000000 		.long	0xfa
 6282 3b04 00       		.byte	0
 6283 3b05 46       		.uleb128 0x46
 6284 3b06 7763736E 		.ascii "wcsncmp\0"
 6284      636D7000 
 6285 3b0e 0C       		.byte	0xc
 6286 3b0f E2       		.byte	0xe2
 6287 3b10 89010000 		.long	0x189
 6288 3b14 283B0000 		.long	0x3b28
 6289 3b18 10       		.uleb128 0x10
 6290 3b19 81370000 		.long	0x3781
 6291 3b1d 10       		.uleb128 0x10
 6292 3b1e 81370000 		.long	0x3781
 6293 3b22 10       		.uleb128 0x10
 6294 3b23 FA000000 		.long	0xfa
 6295 3b27 00       		.byte	0
 6296 3b28 46       		.uleb128 0x46
 6297 3b29 7763736E 		.ascii "wcsncpy\0"
 6297      63707900 
 6298 3b31 0C       		.byte	0xc
 6299 3b32 E3       		.byte	0xe3
 6300 3b33 41370000 		.long	0x3741
 6301 3b37 4B3B0000 		.long	0x3b4b
 6302 3b3b 10       		.uleb128 0x10
 6303 3b3c 41370000 		.long	0x3741
 6304 3b40 10       		.uleb128 0x10
 6305 3b41 81370000 		.long	0x3781
 6306 3b45 10       		.uleb128 0x10
 6307 3b46 FA000000 		.long	0xfa
 6308 3b4a 00       		.byte	0
 6309 3b4b 45       		.uleb128 0x45
 6310 3b4c 77637372 		.ascii "wcsrtombs\0"
 6310      746F6D62 
 6310      7300
 6311 3b56 0C       		.byte	0xc
 6312 3b57 3201     		.word	0x132
GAS LISTING C:\Users\NJLLMR~1\AppData\Local\Temp\cc3wbcxt.s 			page 148


 6313 3b59 FA000000 		.long	0xfa
 6314 3b5d 763B0000 		.long	0x3b76
 6315 3b61 10       		.uleb128 0x10
 6316 3b62 41020000 		.long	0x241
 6317 3b66 10       		.uleb128 0x10
 6318 3b67 763B0000 		.long	0x3b76
 6319 3b6b 10       		.uleb128 0x10
 6320 3b6c FA000000 		.long	0xfa
 6321 3b70 10       		.uleb128 0x10
 6322 3b71 3D380000 		.long	0x383d
 6323 3b75 00       		.byte	0
 6324 3b76 08       		.uleb128 0x8
 6325 3b77 04       		.byte	0x4
 6326 3b78 81370000 		.long	0x3781
 6327 3b7c 46       		.uleb128 0x46
 6328 3b7d 77637373 		.ascii "wcsspn\0"
 6328      706E00
 6329 3b84 0C       		.byte	0xc
 6330 3b85 E6       		.byte	0xe6
 6331 3b86 FA000000 		.long	0xfa
 6332 3b8a 993B0000 		.long	0x3b99
 6333 3b8e 10       		.uleb128 0x10
 6334 3b8f 81370000 		.long	0x3781
 6335 3b93 10       		.uleb128 0x10
 6336 3b94 81370000 		.long	0x3781
 6337 3b98 00       		.byte	0
 6338 3b99 46       		.uleb128 0x46
 6339 3b9a 77637374 		.ascii "wcstod\0"
 6339      6F6400
 6340 3ba1 0C       		.byte	0xc
 6341 3ba2 A6       		.byte	0xa6
 6342 3ba3 B63B0000 		.long	0x3bb6
 6343 3ba7 B63B0000 		.long	0x3bb6
 6344 3bab 10       		.uleb128 0x10
 6345 3bac 81370000 		.long	0x3781
 6346 3bb0 10       		.uleb128 0x10
 6347 3bb1 C03B0000 		.long	0x3bc0
 6348 3bb5 00       		.byte	0
 6349 3bb6 03       		.uleb128 0x3
 6350 3bb7 08       		.byte	0x8
 6351 3bb8 04       		.byte	0x4
 6352 3bb9 646F7562 		.ascii "double\0"
 6352      6C6500
 6353 3bc0 08       		.uleb128 0x8
 6354 3bc1 04       		.byte	0x4
 6355 3bc2 41370000 		.long	0x3741
 6356 3bc6 46       		.uleb128 0x46
 6357 3bc7 77637374 		.ascii "wcstof\0"
 6357      6F6600
 6358 3bce 0C       		.byte	0xc
 6359 3bcf A8       		.byte	0xa8
 6360 3bd0 E33B0000 		.long	0x3be3
 6361 3bd4 E33B0000 		.long	0x3be3
 6362 3bd8 10       		.uleb128 0x10
 6363 3bd9 81370000 		.long	0x3781
 6364 3bdd 10       		.uleb128 0x10
 6365 3bde C03B0000 		.long	0x3bc0
GAS LISTING C:\Users\NJLLMR~1\AppData\Local\Temp\cc3wbcxt.s 			page 149


 6366 3be2 00       		.byte	0
 6367 3be3 03       		.uleb128 0x3
 6368 3be4 04       		.byte	0x4
 6369 3be5 04       		.byte	0x4
 6370 3be6 666C6F61 		.ascii "float\0"
 6370      7400
 6371 3bec 46       		.uleb128 0x46
 6372 3bed 77637374 		.ascii "wcstok\0"
 6372      6F6B00
 6373 3bf4 0C       		.byte	0xc
 6374 3bf5 E8       		.byte	0xe8
 6375 3bf6 41370000 		.long	0x3741
 6376 3bfa 093C0000 		.long	0x3c09
 6377 3bfe 10       		.uleb128 0x10
 6378 3bff 41370000 		.long	0x3741
 6379 3c03 10       		.uleb128 0x10
 6380 3c04 81370000 		.long	0x3781
 6381 3c08 00       		.byte	0
 6382 3c09 46       		.uleb128 0x46
 6383 3c0a 77637374 		.ascii "wcstol\0"
 6383      6F6C00
 6384 3c11 0C       		.byte	0xc
 6385 3c12 A4       		.byte	0xa4
 6386 3c13 90010000 		.long	0x190
 6387 3c17 2B3C0000 		.long	0x3c2b
 6388 3c1b 10       		.uleb128 0x10
 6389 3c1c 81370000 		.long	0x3781
 6390 3c20 10       		.uleb128 0x10
 6391 3c21 C03B0000 		.long	0x3bc0
 6392 3c25 10       		.uleb128 0x10
 6393 3c26 89010000 		.long	0x189
 6394 3c2a 00       		.byte	0
 6395 3c2b 46       		.uleb128 0x46
 6396 3c2c 77637374 		.ascii "wcstoul\0"
 6396      6F756C00 
 6397 3c34 0C       		.byte	0xc
 6398 3c35 A5       		.byte	0xa5
 6399 3c36 FF020000 		.long	0x2ff
 6400 3c3a 4E3C0000 		.long	0x3c4e
 6401 3c3e 10       		.uleb128 0x10
 6402 3c3f 81370000 		.long	0x3781
 6403 3c43 10       		.uleb128 0x10
 6404 3c44 C03B0000 		.long	0x3bc0
 6405 3c48 10       		.uleb128 0x10
 6406 3c49 89010000 		.long	0x189
 6407 3c4d 00       		.byte	0
 6408 3c4e 46       		.uleb128 0x46
 6409 3c4f 77637378 		.ascii "wcsxfrm\0"
 6409      66726D00 
 6410 3c57 0C       		.byte	0xc
 6411 3c58 E9       		.byte	0xe9
 6412 3c59 FA000000 		.long	0xfa
 6413 3c5d 713C0000 		.long	0x3c71
 6414 3c61 10       		.uleb128 0x10
 6415 3c62 41370000 		.long	0x3741
 6416 3c66 10       		.uleb128 0x10
 6417 3c67 81370000 		.long	0x3781
GAS LISTING C:\Users\NJLLMR~1\AppData\Local\Temp\cc3wbcxt.s 			page 150


 6418 3c6b 10       		.uleb128 0x10
 6419 3c6c FA000000 		.long	0xfa
 6420 3c70 00       		.byte	0
 6421 3c71 45       		.uleb128 0x45
 6422 3c72 7763746F 		.ascii "wctob\0"
 6422      6200
 6423 3c78 0C       		.byte	0xc
 6424 3c79 3401     		.word	0x134
 6425 3c7b 89010000 		.long	0x189
 6426 3c7f 893C0000 		.long	0x3c89
 6427 3c83 10       		.uleb128 0x10
 6428 3c84 18010000 		.long	0x118
 6429 3c88 00       		.byte	0
 6430 3c89 45       		.uleb128 0x45
 6431 3c8a 776D656D 		.ascii "wmemcmp\0"
 6431      636D7000 
 6432 3c92 0C       		.byte	0xc
 6433 3c93 4201     		.word	0x142
 6434 3c95 89010000 		.long	0x189
 6435 3c99 AD3C0000 		.long	0x3cad
 6436 3c9d 10       		.uleb128 0x10
 6437 3c9e 81370000 		.long	0x3781
 6438 3ca2 10       		.uleb128 0x10
 6439 3ca3 81370000 		.long	0x3781
 6440 3ca7 10       		.uleb128 0x10
 6441 3ca8 FA000000 		.long	0xfa
 6442 3cac 00       		.byte	0
 6443 3cad 45       		.uleb128 0x45
 6444 3cae 776D656D 		.ascii "wmemcpy\0"
 6444      63707900 
 6445 3cb6 0C       		.byte	0xc
 6446 3cb7 4301     		.word	0x143
 6447 3cb9 41370000 		.long	0x3741
 6448 3cbd D13C0000 		.long	0x3cd1
 6449 3cc1 10       		.uleb128 0x10
 6450 3cc2 41370000 		.long	0x3741
 6451 3cc6 10       		.uleb128 0x10
 6452 3cc7 81370000 		.long	0x3781
 6453 3ccb 10       		.uleb128 0x10
 6454 3ccc FA000000 		.long	0xfa
 6455 3cd0 00       		.byte	0
 6456 3cd1 45       		.uleb128 0x45
 6457 3cd2 776D656D 		.ascii "wmemmove\0"
 6457      6D6F7665 
 6457      00
 6458 3cdb 0C       		.byte	0xc
 6459 3cdc 4601     		.word	0x146
 6460 3cde 41370000 		.long	0x3741
 6461 3ce2 F63C0000 		.long	0x3cf6
 6462 3ce6 10       		.uleb128 0x10
 6463 3ce7 41370000 		.long	0x3741
 6464 3ceb 10       		.uleb128 0x10
 6465 3cec 81370000 		.long	0x3781
 6466 3cf0 10       		.uleb128 0x10
 6467 3cf1 FA000000 		.long	0xfa
 6468 3cf5 00       		.byte	0
 6469 3cf6 45       		.uleb128 0x45
GAS LISTING C:\Users\NJLLMR~1\AppData\Local\Temp\cc3wbcxt.s 			page 151


 6470 3cf7 776D656D 		.ascii "wmemset\0"
 6470      73657400 
 6471 3cff 0C       		.byte	0xc
 6472 3d00 4001     		.word	0x140
 6473 3d02 41370000 		.long	0x3741
 6474 3d06 1A3D0000 		.long	0x3d1a
 6475 3d0a 10       		.uleb128 0x10
 6476 3d0b 41370000 		.long	0x3741
 6477 3d0f 10       		.uleb128 0x10
 6478 3d10 6D010000 		.long	0x16d
 6479 3d14 10       		.uleb128 0x10
 6480 3d15 FA000000 		.long	0xfa
 6481 3d19 00       		.byte	0
 6482 3d1a 46       		.uleb128 0x46
 6483 3d1b 77707269 		.ascii "wprintf\0"
 6483      6E746600 
 6484 3d23 0C       		.byte	0xc
 6485 3d24 68       		.byte	0x68
 6486 3d25 89010000 		.long	0x189
 6487 3d29 343D0000 		.long	0x3d34
 6488 3d2d 10       		.uleb128 0x10
 6489 3d2e 81370000 		.long	0x3781
 6490 3d32 47       		.uleb128 0x47
 6491 3d33 00       		.byte	0
 6492 3d34 46       		.uleb128 0x46
 6493 3d35 77736361 		.ascii "wscanf\0"
 6493      6E6600
 6494 3d3c 0C       		.byte	0xc
 6495 3d3d 6E       		.byte	0x6e
 6496 3d3e 89010000 		.long	0x189
 6497 3d42 4D3D0000 		.long	0x3d4d
 6498 3d46 10       		.uleb128 0x10
 6499 3d47 81370000 		.long	0x3781
 6500 3d4b 47       		.uleb128 0x47
 6501 3d4c 00       		.byte	0
 6502 3d4d 46       		.uleb128 0x46
 6503 3d4e 77637363 		.ascii "wcschr\0"
 6503      687200
 6504 3d55 0C       		.byte	0xc
 6505 3d56 DA       		.byte	0xda
 6506 3d57 41370000 		.long	0x3741
 6507 3d5b 6A3D0000 		.long	0x3d6a
 6508 3d5f 10       		.uleb128 0x10
 6509 3d60 81370000 		.long	0x3781
 6510 3d64 10       		.uleb128 0x10
 6511 3d65 6D010000 		.long	0x16d
 6512 3d69 00       		.byte	0
 6513 3d6a 46       		.uleb128 0x46
 6514 3d6b 77637370 		.ascii "wcspbrk\0"
 6514      62726B00 
 6515 3d73 0C       		.byte	0xc
 6516 3d74 E4       		.byte	0xe4
 6517 3d75 41370000 		.long	0x3741
 6518 3d79 883D0000 		.long	0x3d88
 6519 3d7d 10       		.uleb128 0x10
 6520 3d7e 81370000 		.long	0x3781
 6521 3d82 10       		.uleb128 0x10
GAS LISTING C:\Users\NJLLMR~1\AppData\Local\Temp\cc3wbcxt.s 			page 152


 6522 3d83 81370000 		.long	0x3781
 6523 3d87 00       		.byte	0
 6524 3d88 46       		.uleb128 0x46
 6525 3d89 77637372 		.ascii "wcsrchr\0"
 6525      63687200 
 6526 3d91 0C       		.byte	0xc
 6527 3d92 E5       		.byte	0xe5
 6528 3d93 41370000 		.long	0x3741
 6529 3d97 A63D0000 		.long	0x3da6
 6530 3d9b 10       		.uleb128 0x10
 6531 3d9c 81370000 		.long	0x3781
 6532 3da0 10       		.uleb128 0x10
 6533 3da1 6D010000 		.long	0x16d
 6534 3da5 00       		.byte	0
 6535 3da6 46       		.uleb128 0x46
 6536 3da7 77637373 		.ascii "wcsstr\0"
 6536      747200
 6537 3dae 0C       		.byte	0xc
 6538 3daf E7       		.byte	0xe7
 6539 3db0 41370000 		.long	0x3741
 6540 3db4 C33D0000 		.long	0x3dc3
 6541 3db8 10       		.uleb128 0x10
 6542 3db9 81370000 		.long	0x3781
 6543 3dbd 10       		.uleb128 0x10
 6544 3dbe 81370000 		.long	0x3781
 6545 3dc2 00       		.byte	0
 6546 3dc3 45       		.uleb128 0x45
 6547 3dc4 776D656D 		.ascii "wmemchr\0"
 6547      63687200 
 6548 3dcc 0C       		.byte	0xc
 6549 3dcd 4101     		.word	0x141
 6550 3dcf 41370000 		.long	0x3741
 6551 3dd3 E73D0000 		.long	0x3de7
 6552 3dd7 10       		.uleb128 0x10
 6553 3dd8 81370000 		.long	0x3781
 6554 3ddc 10       		.uleb128 0x10
 6555 3ddd 6D010000 		.long	0x16d
 6556 3de1 10       		.uleb128 0x10
 6557 3de2 FA000000 		.long	0xfa
 6558 3de6 00       		.byte	0
 6559 3de7 09       		.uleb128 0x9
 6560 3de8 5F5F676E 		.ascii "__gnu_cxx\0"
 6560      755F6378 
 6560      7800
 6561 3df2 0D       		.byte	0xd
 6562 3df3 F2       		.byte	0xf2
 6563 3df4 73430000 		.long	0x4373
 6564 3df8 0A       		.uleb128 0xa
 6565 3df9 0D       		.byte	0xd
 6566 3dfa F8       		.byte	0xf8
 6567 3dfb 73430000 		.long	0x4373
 6568 3dff 0B       		.uleb128 0xb
 6569 3e00 0D       		.byte	0xd
 6570 3e01 0101     		.word	0x101
 6571 3e03 A0430000 		.long	0x43a0
 6572 3e07 0B       		.uleb128 0xb
 6573 3e08 0D       		.byte	0xd
GAS LISTING C:\Users\NJLLMR~1\AppData\Local\Temp\cc3wbcxt.s 			page 153


 6574 3e09 0201     		.word	0x102
 6575 3e0b C4430000 		.long	0x43c4
 6576 3e0f 0E       		.uleb128 0xe
 6577 3e10 5F5F6F70 		.ascii "__ops\0"
 6577      7300
 6578 3e16 1B       		.byte	0x1b
 6579 3e17 24       		.byte	0x24
 6580 3e18 0A       		.uleb128 0xa
 6581 3e19 1C       		.byte	0x1c
 6582 3e1a 2C       		.byte	0x2c
 6583 3e1b ED080000 		.long	0x8ed
 6584 3e1f 0A       		.uleb128 0xa
 6585 3e20 1C       		.byte	0x1c
 6586 3e21 2D       		.byte	0x2d
 6587 3e22 10090000 		.long	0x910
 6588 3e26 17       		.uleb128 0x17
 6589 3e27 6E65775F 		.ascii "new_allocator<char>\0"
 6589      616C6C6F 
 6589      6361746F 
 6589      723C6368 
 6589      61723E00 
 6590 3e3b 01       		.byte	0x1
 6591 3e3c 1C       		.byte	0x1c
 6592 3e3d 3A       		.byte	0x3a
 6593 3e3e 20410000 		.long	0x4120
 6594 3e42 19       		.uleb128 0x19
 6595 3e43 6A010000 		.secrel32	LASF2
 6596 3e47 1C       		.byte	0x1c
 6597 3e48 3D       		.byte	0x3d
 6598 3e49 ED080000 		.long	0x8ed
 6599 3e4d 01       		.byte	0x1
 6600 3e4e 22       		.uleb128 0x22
 6601 3e4f 706F696E 		.ascii "pointer\0"
 6601      74657200 
 6602 3e57 1C       		.byte	0x1c
 6603 3e58 3F       		.byte	0x3f
 6604 3e59 41020000 		.long	0x241
 6605 3e5d 01       		.byte	0x1
 6606 3e5e 22       		.uleb128 0x22
 6607 3e5f 636F6E73 		.ascii "const_pointer\0"
 6607      745F706F 
 6607      696E7465 
 6607      7200
 6608 3e6d 1C       		.byte	0x1c
 6609 3e6e 40       		.byte	0x40
 6610 3e6f 32380000 		.long	0x3832
 6611 3e73 01       		.byte	0x1
 6612 3e74 19       		.uleb128 0x19
 6613 3e75 18000000 		.secrel32	LASF3
 6614 3e79 1C       		.byte	0x1c
 6615 3e7a 41       		.byte	0x41
 6616 3e7b 1E460000 		.long	0x461e
 6617 3e7f 01       		.byte	0x1
 6618 3e80 19       		.uleb128 0x19
 6619 3e81 F0000000 		.secrel32	LASF4
 6620 3e85 1C       		.byte	0x1c
 6621 3e86 42       		.byte	0x42
GAS LISTING C:\Users\NJLLMR~1\AppData\Local\Temp\cc3wbcxt.s 			page 154


 6622 3e87 24460000 		.long	0x4624
 6623 3e8b 01       		.byte	0x1
 6624 3e8c 1A       		.uleb128 0x1a
 6625 3e8d 5C000000 		.secrel32	LASF23
 6626 3e91 1C       		.byte	0x1c
 6627 3e92 4F       		.byte	0x4f
 6628 3e93 01       		.byte	0x1
 6629 3e94 9C3E0000 		.long	0x3e9c
 6630 3e98 A23E0000 		.long	0x3ea2
 6631 3e9c 1B       		.uleb128 0x1b
 6632 3e9d 2A460000 		.long	0x462a
 6633 3ea1 00       		.byte	0
 6634 3ea2 1A       		.uleb128 0x1a
 6635 3ea3 5C000000 		.secrel32	LASF23
 6636 3ea7 1C       		.byte	0x1c
 6637 3ea8 51       		.byte	0x51
 6638 3ea9 01       		.byte	0x1
 6639 3eaa B23E0000 		.long	0x3eb2
 6640 3eae BD3E0000 		.long	0x3ebd
 6641 3eb2 1B       		.uleb128 0x1b
 6642 3eb3 2A460000 		.long	0x462a
 6643 3eb7 10       		.uleb128 0x10
 6644 3eb8 30460000 		.long	0x4630
 6645 3ebc 00       		.byte	0
 6646 3ebd 49       		.uleb128 0x49
 6647 3ebe 7E6E6577 		.ascii "~new_allocator\0"
 6647      5F616C6C 
 6647      6F636174 
 6647      6F7200
 6648 3ecd 1C       		.byte	0x1c
 6649 3ece 56       		.byte	0x56
 6650 3ecf 01       		.byte	0x1
 6651 3ed0 D83E0000 		.long	0x3ed8
 6652 3ed4 E33E0000 		.long	0x3ee3
 6653 3ed8 1B       		.uleb128 0x1b
 6654 3ed9 2A460000 		.long	0x462a
 6655 3edd 1B       		.uleb128 0x1b
 6656 3ede 89010000 		.long	0x189
 6657 3ee2 00       		.byte	0
 6658 3ee3 4A       		.uleb128 0x4a
 6659 3ee4 61646472 		.ascii "address\0"
 6659      65737300 
 6660 3eec 1C       		.byte	0x1c
 6661 3eed 59       		.byte	0x59
 6662 3eee 5F5A4E4B 		.ascii "_ZNK9__gnu_cxx13new_allocatorIcE7addressERc\0"
 6662      395F5F67 
 6662      6E755F63 
 6662      78783133 
 6662      6E65775F 
 6663 3f1a 4E3E0000 		.long	0x3e4e
 6664 3f1e 01       		.byte	0x1
 6665 3f1f 273F0000 		.long	0x3f27
 6666 3f23 323F0000 		.long	0x3f32
 6667 3f27 1B       		.uleb128 0x1b
 6668 3f28 36460000 		.long	0x4636
 6669 3f2c 10       		.uleb128 0x10
 6670 3f2d 743E0000 		.long	0x3e74
GAS LISTING C:\Users\NJLLMR~1\AppData\Local\Temp\cc3wbcxt.s 			page 155


 6671 3f31 00       		.byte	0
 6672 3f32 4A       		.uleb128 0x4a
 6673 3f33 61646472 		.ascii "address\0"
 6673      65737300 
 6674 3f3b 1C       		.byte	0x1c
 6675 3f3c 5D       		.byte	0x5d
 6676 3f3d 5F5A4E4B 		.ascii "_ZNK9__gnu_cxx13new_allocatorIcE7addressERKc\0"
 6676      395F5F67 
 6676      6E755F63 
 6676      78783133 
 6676      6E65775F 
 6677 3f6a 5E3E0000 		.long	0x3e5e
 6678 3f6e 01       		.byte	0x1
 6679 3f6f 773F0000 		.long	0x3f77
 6680 3f73 823F0000 		.long	0x3f82
 6681 3f77 1B       		.uleb128 0x1b
 6682 3f78 36460000 		.long	0x4636
 6683 3f7c 10       		.uleb128 0x10
 6684 3f7d 803E0000 		.long	0x3e80
 6685 3f81 00       		.byte	0
 6686 3f82 4A       		.uleb128 0x4a
 6687 3f83 616C6C6F 		.ascii "allocate\0"
 6687      63617465 
 6687      00
 6688 3f8c 1C       		.byte	0x1c
 6689 3f8d 63       		.byte	0x63
 6690 3f8e 5F5A4E39 		.ascii "_ZN9__gnu_cxx13new_allocatorIcE8allocateEjPKv\0"
 6690      5F5F676E 
 6690      755F6378 
 6690      7831336E 
 6690      65775F61 
 6691 3fbc 4E3E0000 		.long	0x3e4e
 6692 3fc0 01       		.byte	0x1
 6693 3fc1 C93F0000 		.long	0x3fc9
 6694 3fc5 D93F0000 		.long	0x3fd9
 6695 3fc9 1B       		.uleb128 0x1b
 6696 3fca 2A460000 		.long	0x462a
 6697 3fce 10       		.uleb128 0x10
 6698 3fcf 423E0000 		.long	0x3e42
 6699 3fd3 10       		.uleb128 0x10
 6700 3fd4 17460000 		.long	0x4617
 6701 3fd8 00       		.byte	0
 6702 3fd9 4B       		.uleb128 0x4b
 6703 3fda 6465616C 		.ascii "deallocate\0"
 6703      6C6F6361 
 6703      746500
 6704 3fe5 1C       		.byte	0x1c
 6705 3fe6 6D       		.byte	0x6d
 6706 3fe7 5F5A4E39 		.ascii "_ZN9__gnu_cxx13new_allocatorIcE10deallocateEPcj\0"
 6706      5F5F676E 
 6706      755F6378 
 6706      7831336E 
 6706      65775F61 
 6707 4017 01       		.byte	0x1
 6708 4018 20400000 		.long	0x4020
 6709 401c 30400000 		.long	0x4030
 6710 4020 1B       		.uleb128 0x1b
GAS LISTING C:\Users\NJLLMR~1\AppData\Local\Temp\cc3wbcxt.s 			page 156


 6711 4021 2A460000 		.long	0x462a
 6712 4025 10       		.uleb128 0x10
 6713 4026 4E3E0000 		.long	0x3e4e
 6714 402a 10       		.uleb128 0x10
 6715 402b 423E0000 		.long	0x3e42
 6716 402f 00       		.byte	0
 6717 4030 33       		.uleb128 0x33
 6718 4031 0F010000 		.secrel32	LASF11
 6719 4035 1C       		.byte	0x1c
 6720 4036 71       		.byte	0x71
 6721 4037 5F5A4E4B 		.ascii "_ZNK9__gnu_cxx13new_allocatorIcE8max_sizeEv\0"
 6721      395F5F67 
 6721      6E755F63 
 6721      78783133 
 6721      6E65775F 
 6722 4063 423E0000 		.long	0x3e42
 6723 4067 01       		.byte	0x1
 6724 4068 70400000 		.long	0x4070
 6725 406c 76400000 		.long	0x4076
 6726 4070 1B       		.uleb128 0x1b
 6727 4071 36460000 		.long	0x4636
 6728 4075 00       		.byte	0
 6729 4076 4B       		.uleb128 0x4b
 6730 4077 636F6E73 		.ascii "construct\0"
 6730      74727563 
 6730      7400
 6731 4081 1C       		.byte	0x1c
 6732 4082 81       		.byte	0x81
 6733 4083 5F5A4E39 		.ascii "_ZN9__gnu_cxx13new_allocatorIcE9constructEPcRKc\0"
 6733      5F5F676E 
 6733      755F6378 
 6733      7831336E 
 6733      65775F61 
 6734 40b3 01       		.byte	0x1
 6735 40b4 BC400000 		.long	0x40bc
 6736 40b8 CC400000 		.long	0x40cc
 6737 40bc 1B       		.uleb128 0x1b
 6738 40bd 2A460000 		.long	0x462a
 6739 40c1 10       		.uleb128 0x10
 6740 40c2 4E3E0000 		.long	0x3e4e
 6741 40c6 10       		.uleb128 0x10
 6742 40c7 24460000 		.long	0x4624
 6743 40cb 00       		.byte	0
 6744 40cc 4B       		.uleb128 0x4b
 6745 40cd 64657374 		.ascii "destroy\0"
 6745      726F7900 
 6746 40d5 1C       		.byte	0x1c
 6747 40d6 85       		.byte	0x85
 6748 40d7 5F5A4E39 		.ascii "_ZN9__gnu_cxx13new_allocatorIcE7destroyEPc\0"
 6748      5F5F676E 
 6748      755F6378 
 6748      7831336E 
 6748      65775F61 
 6749 4102 01       		.byte	0x1
 6750 4103 0B410000 		.long	0x410b
 6751 4107 16410000 		.long	0x4116
 6752 410b 1B       		.uleb128 0x1b
GAS LISTING C:\Users\NJLLMR~1\AppData\Local\Temp\cc3wbcxt.s 			page 157


 6753 410c 2A460000 		.long	0x462a
 6754 4110 10       		.uleb128 0x10
 6755 4111 4E3E0000 		.long	0x3e4e
 6756 4115 00       		.byte	0
 6757 4116 35       		.uleb128 0x35
 6758 4117 5F547000 		.ascii "_Tp\0"
 6759 411b 55010000 		.long	0x155
 6760 411f 00       		.byte	0
 6761 4120 11       		.uleb128 0x11
 6762 4121 263E0000 		.long	0x3e26
 6763 4125 06       		.uleb128 0x6
 6764 4126 5F5F6E75 		.ascii "__numeric_traits_integer<int>\0"
 6764      6D657269 
 6764      635F7472 
 6764      61697473 
 6764      5F696E74 
 6765 4144 01       		.byte	0x1
 6766 4145 1D       		.byte	0x1d
 6767 4146 37       		.byte	0x37
 6768 4147 81410000 		.long	0x4181
 6769 414b 4C       		.uleb128 0x4c
 6770 414c 89000000 		.secrel32	LASF24
 6771 4150 1D       		.byte	0x1d
 6772 4151 3A       		.byte	0x3a
 6773 4152 48460000 		.long	0x4648
 6774 4156 4C       		.uleb128 0x4c
 6775 4157 32000000 		.secrel32	LASF25
 6776 415b 1D       		.byte	0x1d
 6777 415c 3B       		.byte	0x3b
 6778 415d 48460000 		.long	0x4648
 6779 4161 4C       		.uleb128 0x4c
 6780 4162 38000000 		.secrel32	LASF26
 6781 4166 1D       		.byte	0x1d
 6782 4167 3F       		.byte	0x3f
 6783 4168 4D460000 		.long	0x464d
 6784 416c 4C       		.uleb128 0x4c
 6785 416d 3C010000 		.secrel32	LASF27
 6786 4171 1D       		.byte	0x1d
 6787 4172 40       		.byte	0x40
 6788 4173 48460000 		.long	0x4648
 6789 4177 4D       		.uleb128 0x4d
 6790 4178 45010000 		.secrel32	LASF28
 6791 417c 89010000 		.long	0x189
 6792 4180 00       		.byte	0
 6793 4181 37       		.uleb128 0x37
 6794 4182 5F5F6E6F 		.ascii "__normal_iterator<char*, std::basic_string<char, std::char_traits<char>, std::allocator<ch
 6794      726D616C 
 6794      5F697465 
 6794      7261746F 
 6794      723C6368 
 6795 41e4 37       		.uleb128 0x37
 6796 41e5 5F5F6E6F 		.ascii "__normal_iterator<char const*, std::basic_string<char, std::char_traits<char>, std::alloca
 6796      726D616C 
 6796      5F697465 
 6796      7261746F 
 6796      723C6368 
 6797 424d 06       		.uleb128 0x6
GAS LISTING C:\Users\NJLLMR~1\AppData\Local\Temp\cc3wbcxt.s 			page 158


 6798 424e 5F5F6E75 		.ascii "__numeric_traits_integer<long unsigned int>\0"
 6798      6D657269 
 6798      635F7472 
 6798      61697473 
 6798      5F696E74 
 6799 427a 01       		.byte	0x1
 6800 427b 1D       		.byte	0x1d
 6801 427c 37       		.byte	0x37
 6802 427d B7420000 		.long	0x42b7
 6803 4281 4C       		.uleb128 0x4c
 6804 4282 89000000 		.secrel32	LASF24
 6805 4286 1D       		.byte	0x1d
 6806 4287 3A       		.byte	0x3a
 6807 4288 8D460000 		.long	0x468d
 6808 428c 4C       		.uleb128 0x4c
 6809 428d 32000000 		.secrel32	LASF25
 6810 4291 1D       		.byte	0x1d
 6811 4292 3B       		.byte	0x3b
 6812 4293 8D460000 		.long	0x468d
 6813 4297 4C       		.uleb128 0x4c
 6814 4298 38000000 		.secrel32	LASF26
 6815 429c 1D       		.byte	0x1d
 6816 429d 3F       		.byte	0x3f
 6817 429e 4D460000 		.long	0x464d
 6818 42a2 4C       		.uleb128 0x4c
 6819 42a3 3C010000 		.secrel32	LASF27
 6820 42a7 1D       		.byte	0x1d
 6821 42a8 40       		.byte	0x40
 6822 42a9 48460000 		.long	0x4648
 6823 42ad 4D       		.uleb128 0x4d
 6824 42ae 45010000 		.secrel32	LASF28
 6825 42b2 FF020000 		.long	0x2ff
 6826 42b6 00       		.byte	0
 6827 42b7 06       		.uleb128 0x6
 6828 42b8 5F5F6E75 		.ascii "__numeric_traits_integer<char>\0"
 6828      6D657269 
 6828      635F7472 
 6828      61697473 
 6828      5F696E74 
 6829 42d7 01       		.byte	0x1
 6830 42d8 1D       		.byte	0x1d
 6831 42d9 37       		.byte	0x37
 6832 42da 14430000 		.long	0x4314
 6833 42de 4C       		.uleb128 0x4c
 6834 42df 89000000 		.secrel32	LASF24
 6835 42e3 1D       		.byte	0x1d
 6836 42e4 3A       		.byte	0x3a
 6837 42e5 38380000 		.long	0x3838
 6838 42e9 4C       		.uleb128 0x4c
 6839 42ea 32000000 		.secrel32	LASF25
 6840 42ee 1D       		.byte	0x1d
 6841 42ef 3B       		.byte	0x3b
 6842 42f0 38380000 		.long	0x3838
 6843 42f4 4C       		.uleb128 0x4c
 6844 42f5 38000000 		.secrel32	LASF26
 6845 42f9 1D       		.byte	0x1d
 6846 42fa 3F       		.byte	0x3f
GAS LISTING C:\Users\NJLLMR~1\AppData\Local\Temp\cc3wbcxt.s 			page 159


 6847 42fb 4D460000 		.long	0x464d
 6848 42ff 4C       		.uleb128 0x4c
 6849 4300 3C010000 		.secrel32	LASF27
 6850 4304 1D       		.byte	0x1d
 6851 4305 40       		.byte	0x40
 6852 4306 48460000 		.long	0x4648
 6853 430a 4D       		.uleb128 0x4d
 6854 430b 45010000 		.secrel32	LASF28
 6855 430f 55010000 		.long	0x155
 6856 4313 00       		.byte	0
 6857 4314 4E       		.uleb128 0x4e
 6858 4315 5F5F6E75 		.ascii "__numeric_traits_integer<short int>\0"
 6858      6D657269 
 6858      635F7472 
 6858      61697473 
 6858      5F696E74 
 6859 4339 01       		.byte	0x1
 6860 433a 1D       		.byte	0x1d
 6861 433b 37       		.byte	0x37
 6862 433c 4C       		.uleb128 0x4c
 6863 433d 89000000 		.secrel32	LASF24
 6864 4341 1D       		.byte	0x1d
 6865 4342 3A       		.byte	0x3a
 6866 4343 08470000 		.long	0x4708
 6867 4347 4C       		.uleb128 0x4c
 6868 4348 32000000 		.secrel32	LASF25
 6869 434c 1D       		.byte	0x1d
 6870 434d 3B       		.byte	0x3b
 6871 434e 08470000 		.long	0x4708
 6872 4352 4C       		.uleb128 0x4c
 6873 4353 38000000 		.secrel32	LASF26
 6874 4357 1D       		.byte	0x1d
 6875 4358 3F       		.byte	0x3f
 6876 4359 4D460000 		.long	0x464d
 6877 435d 4C       		.uleb128 0x4c
 6878 435e 3C010000 		.secrel32	LASF27
 6879 4362 1D       		.byte	0x1d
 6880 4363 40       		.byte	0x40
 6881 4364 48460000 		.long	0x4648
 6882 4368 4D       		.uleb128 0x4d
 6883 4369 45010000 		.secrel32	LASF28
 6884 436d AD010000 		.long	0x1ad
 6885 4371 00       		.byte	0
 6886 4372 00       		.byte	0
 6887 4373 46       		.uleb128 0x46
 6888 4374 77637374 		.ascii "wcstold\0"
 6888      6F6C6400 
 6889 437c 0C       		.byte	0xc
 6890 437d A9       		.byte	0xa9
 6891 437e 91430000 		.long	0x4391
 6892 4382 91430000 		.long	0x4391
 6893 4386 10       		.uleb128 0x10
 6894 4387 81370000 		.long	0x3781
 6895 438b 10       		.uleb128 0x10
 6896 438c C03B0000 		.long	0x3bc0
 6897 4390 00       		.byte	0
 6898 4391 03       		.uleb128 0x3
GAS LISTING C:\Users\NJLLMR~1\AppData\Local\Temp\cc3wbcxt.s 			page 160


 6899 4392 0C       		.byte	0xc
 6900 4393 04       		.byte	0x4
 6901 4394 6C6F6E67 		.ascii "long double\0"
 6901      20646F75 
 6901      626C6500 
 6902 43a0 45       		.uleb128 0x45
 6903 43a1 77637374 		.ascii "wcstoll\0"
 6903      6F6C6C00 
 6904 43a9 0C       		.byte	0xc
 6905 43aa 4701     		.word	0x147
 6906 43ac 9C010000 		.long	0x19c
 6907 43b0 C4430000 		.long	0x43c4
 6908 43b4 10       		.uleb128 0x10
 6909 43b5 81370000 		.long	0x3781
 6910 43b9 10       		.uleb128 0x10
 6911 43ba C03B0000 		.long	0x3bc0
 6912 43be 10       		.uleb128 0x10
 6913 43bf 89010000 		.long	0x189
 6914 43c3 00       		.byte	0
 6915 43c4 45       		.uleb128 0x45
 6916 43c5 77637374 		.ascii "wcstoull\0"
 6916      6F756C6C 
 6916      00
 6917 43ce 0C       		.byte	0xc
 6918 43cf 4901     		.word	0x149
 6919 43d1 40030000 		.long	0x340
 6920 43d5 E9430000 		.long	0x43e9
 6921 43d9 10       		.uleb128 0x10
 6922 43da 81370000 		.long	0x3781
 6923 43de 10       		.uleb128 0x10
 6924 43df C03B0000 		.long	0x3bc0
 6925 43e3 10       		.uleb128 0x10
 6926 43e4 89010000 		.long	0x189
 6927 43e8 00       		.byte	0
 6928 43e9 09       		.uleb128 0x9
 6929 43ea 5F5F676E 		.ascii "__gnu_debug\0"
 6929      755F6465 
 6929      62756700 
 6930 43f6 1A       		.byte	0x1a
 6931 43f7 37       		.byte	0x37
 6932 43f8 04440000 		.long	0x4404
 6933 43fc 4F       		.uleb128 0x4f
 6934 43fd 1A       		.byte	0x1a
 6935 43fe 38       		.byte	0x38
 6936 43ff 2B050000 		.long	0x52b
 6937 4403 00       		.byte	0
 6938 4404 50       		.uleb128 0x50
 6939 4405 04       		.byte	0x4
 6940 4406 50050000 		.long	0x550
 6941 440a 50       		.uleb128 0x50
 6942 440b 04       		.byte	0x4
 6943 440c AA050000 		.long	0x5aa
 6944 4410 03       		.uleb128 0x3
 6945 4411 01       		.byte	0x1
 6946 4412 02       		.byte	0x2
 6947 4413 626F6F6C 		.ascii "bool\0"
 6947      00
GAS LISTING C:\Users\NJLLMR~1\AppData\Local\Temp\cc3wbcxt.s 			page 161


 6948 4418 08       		.uleb128 0x8
 6949 4419 04       		.byte	0x4
 6950 441a AA050000 		.long	0x5aa
 6951 441e 08       		.uleb128 0x8
 6952 441f 04       		.byte	0x4
 6953 4420 50050000 		.long	0x550
 6954 4424 50       		.uleb128 0x50
 6955 4425 04       		.byte	0x4
 6956 4426 F5070000 		.long	0x7f5
 6957 442a 06       		.uleb128 0x6
 6958 442b 6C636F6E 		.ascii "lconv\0"
 6958      7600
 6959 4431 30       		.byte	0x30
 6960 4432 1E       		.byte	0x1e
 6961 4433 2D       		.byte	0x2d
 6962 4434 C9450000 		.long	0x45c9
 6963 4438 07       		.uleb128 0x7
 6964 4439 64656369 		.ascii "decimal_point\0"
 6964      6D616C5F 
 6964      706F696E 
 6964      7400
 6965 4447 1E       		.byte	0x1e
 6966 4448 2F       		.byte	0x2f
 6967 4449 41020000 		.long	0x241
 6968 444d 00       		.byte	0
 6969 444e 07       		.uleb128 0x7
 6970 444f 74686F75 		.ascii "thousands_sep\0"
 6970      73616E64 
 6970      735F7365 
 6970      7000
 6971 445d 1E       		.byte	0x1e
 6972 445e 30       		.byte	0x30
 6973 445f 41020000 		.long	0x241
 6974 4463 04       		.byte	0x4
 6975 4464 07       		.uleb128 0x7
 6976 4465 67726F75 		.ascii "grouping\0"
 6976      70696E67 
 6976      00
 6977 446e 1E       		.byte	0x1e
 6978 446f 31       		.byte	0x31
 6979 4470 41020000 		.long	0x241
 6980 4474 08       		.byte	0x8
 6981 4475 07       		.uleb128 0x7
 6982 4476 696E745F 		.ascii "int_curr_symbol\0"
 6982      63757272 
 6982      5F73796D 
 6982      626F6C00 
 6983 4486 1E       		.byte	0x1e
 6984 4487 32       		.byte	0x32
 6985 4488 41020000 		.long	0x241
 6986 448c 0C       		.byte	0xc
 6987 448d 07       		.uleb128 0x7
 6988 448e 63757272 		.ascii "currency_symbol\0"
 6988      656E6379 
 6988      5F73796D 
 6988      626F6C00 
 6989 449e 1E       		.byte	0x1e
GAS LISTING C:\Users\NJLLMR~1\AppData\Local\Temp\cc3wbcxt.s 			page 162


 6990 449f 33       		.byte	0x33
 6991 44a0 41020000 		.long	0x241
 6992 44a4 10       		.byte	0x10
 6993 44a5 07       		.uleb128 0x7
 6994 44a6 6D6F6E5F 		.ascii "mon_decimal_point\0"
 6994      64656369 
 6994      6D616C5F 
 6994      706F696E 
 6994      7400
 6995 44b8 1E       		.byte	0x1e
 6996 44b9 34       		.byte	0x34
 6997 44ba 41020000 		.long	0x241
 6998 44be 14       		.byte	0x14
 6999 44bf 07       		.uleb128 0x7
 7000 44c0 6D6F6E5F 		.ascii "mon_thousands_sep\0"
 7000      74686F75 
 7000      73616E64 
 7000      735F7365 
 7000      7000
 7001 44d2 1E       		.byte	0x1e
 7002 44d3 35       		.byte	0x35
 7003 44d4 41020000 		.long	0x241
 7004 44d8 18       		.byte	0x18
 7005 44d9 07       		.uleb128 0x7
 7006 44da 6D6F6E5F 		.ascii "mon_grouping\0"
 7006      67726F75 
 7006      70696E67 
 7006      00
 7007 44e7 1E       		.byte	0x1e
 7008 44e8 36       		.byte	0x36
 7009 44e9 41020000 		.long	0x241
 7010 44ed 1C       		.byte	0x1c
 7011 44ee 07       		.uleb128 0x7
 7012 44ef 706F7369 		.ascii "positive_sign\0"
 7012      74697665 
 7012      5F736967 
 7012      6E00
 7013 44fd 1E       		.byte	0x1e
 7014 44fe 37       		.byte	0x37
 7015 44ff 41020000 		.long	0x241
 7016 4503 20       		.byte	0x20
 7017 4504 07       		.uleb128 0x7
 7018 4505 6E656761 		.ascii "negative_sign\0"
 7018      74697665 
 7018      5F736967 
 7018      6E00
 7019 4513 1E       		.byte	0x1e
 7020 4514 38       		.byte	0x38
 7021 4515 41020000 		.long	0x241
 7022 4519 24       		.byte	0x24
 7023 451a 07       		.uleb128 0x7
 7024 451b 696E745F 		.ascii "int_frac_digits\0"
 7024      66726163 
 7024      5F646967 
 7024      69747300 
 7025 452b 1E       		.byte	0x1e
 7026 452c 39       		.byte	0x39
GAS LISTING C:\Users\NJLLMR~1\AppData\Local\Temp\cc3wbcxt.s 			page 163


 7027 452d 55010000 		.long	0x155
 7028 4531 28       		.byte	0x28
 7029 4532 07       		.uleb128 0x7
 7030 4533 66726163 		.ascii "frac_digits\0"
 7030      5F646967 
 7030      69747300 
 7031 453f 1E       		.byte	0x1e
 7032 4540 3A       		.byte	0x3a
 7033 4541 55010000 		.long	0x155
 7034 4545 29       		.byte	0x29
 7035 4546 07       		.uleb128 0x7
 7036 4547 705F6373 		.ascii "p_cs_precedes\0"
 7036      5F707265 
 7036      63656465 
 7036      7300
 7037 4555 1E       		.byte	0x1e
 7038 4556 3B       		.byte	0x3b
 7039 4557 55010000 		.long	0x155
 7040 455b 2A       		.byte	0x2a
 7041 455c 07       		.uleb128 0x7
 7042 455d 705F7365 		.ascii "p_sep_by_space\0"
 7042      705F6279 
 7042      5F737061 
 7042      636500
 7043 456c 1E       		.byte	0x1e
 7044 456d 3C       		.byte	0x3c
 7045 456e 55010000 		.long	0x155
 7046 4572 2B       		.byte	0x2b
 7047 4573 07       		.uleb128 0x7
 7048 4574 6E5F6373 		.ascii "n_cs_precedes\0"
 7048      5F707265 
 7048      63656465 
 7048      7300
 7049 4582 1E       		.byte	0x1e
 7050 4583 3D       		.byte	0x3d
 7051 4584 55010000 		.long	0x155
 7052 4588 2C       		.byte	0x2c
 7053 4589 07       		.uleb128 0x7
 7054 458a 6E5F7365 		.ascii "n_sep_by_space\0"
 7054      705F6279 
 7054      5F737061 
 7054      636500
 7055 4599 1E       		.byte	0x1e
 7056 459a 3E       		.byte	0x3e
 7057 459b 55010000 		.long	0x155
 7058 459f 2D       		.byte	0x2d
 7059 45a0 07       		.uleb128 0x7
 7060 45a1 705F7369 		.ascii "p_sign_posn\0"
 7060      676E5F70 
 7060      6F736E00 
 7061 45ad 1E       		.byte	0x1e
 7062 45ae 3F       		.byte	0x3f
 7063 45af 55010000 		.long	0x155
 7064 45b3 2E       		.byte	0x2e
 7065 45b4 07       		.uleb128 0x7
 7066 45b5 6E5F7369 		.ascii "n_sign_posn\0"
 7066      676E5F70 
GAS LISTING C:\Users\NJLLMR~1\AppData\Local\Temp\cc3wbcxt.s 			page 164


 7066      6F736E00 
 7067 45c1 1E       		.byte	0x1e
 7068 45c2 40       		.byte	0x40
 7069 45c3 55010000 		.long	0x155
 7070 45c7 2F       		.byte	0x2f
 7071 45c8 00       		.byte	0
 7072 45c9 46       		.uleb128 0x46
 7073 45ca 7365746C 		.ascii "setlocale\0"
 7073      6F63616C 
 7073      6500
 7074 45d4 1E       		.byte	0x1e
 7075 45d5 47       		.byte	0x47
 7076 45d6 41020000 		.long	0x241
 7077 45da E9450000 		.long	0x45e9
 7078 45de 10       		.uleb128 0x10
 7079 45df 89010000 		.long	0x189
 7080 45e3 10       		.uleb128 0x10
 7081 45e4 32380000 		.long	0x3832
 7082 45e8 00       		.byte	0
 7083 45e9 48       		.uleb128 0x48
 7084 45ea 6C6F6361 		.ascii "localeconv\0"
 7084      6C65636F 
 7084      6E7600
 7085 45f5 1E       		.byte	0x1e
 7086 45f6 48       		.byte	0x48
 7087 45f7 FB450000 		.long	0x45fb
 7088 45fb 08       		.uleb128 0x8
 7089 45fc 04       		.byte	0x4
 7090 45fd 2A440000 		.long	0x442a
 7091 4601 51       		.uleb128 0x51
 7092 4602 04       		.byte	0x4
 7093 4603 02       		.uleb128 0x2
 7094 4604 5F41746F 		.ascii "_Atomic_word\0"
 7094      6D69635F 
 7094      776F7264 
 7094      00
 7095 4611 1F       		.byte	0x1f
 7096 4612 20       		.byte	0x20
 7097 4613 89010000 		.long	0x189
 7098 4617 08       		.uleb128 0x8
 7099 4618 04       		.byte	0x4
 7100 4619 1D460000 		.long	0x461d
 7101 461d 52       		.uleb128 0x52
 7102 461e 50       		.uleb128 0x50
 7103 461f 04       		.byte	0x4
 7104 4620 55010000 		.long	0x155
 7105 4624 50       		.uleb128 0x50
 7106 4625 04       		.byte	0x4
 7107 4626 38380000 		.long	0x3838
 7108 462a 08       		.uleb128 0x8
 7109 462b 04       		.byte	0x4
 7110 462c 263E0000 		.long	0x3e26
 7111 4630 50       		.uleb128 0x50
 7112 4631 04       		.byte	0x4
 7113 4632 20410000 		.long	0x4120
 7114 4636 08       		.uleb128 0x8
 7115 4637 04       		.byte	0x4
GAS LISTING C:\Users\NJLLMR~1\AppData\Local\Temp\cc3wbcxt.s 			page 165


 7116 4638 20410000 		.long	0x4120
 7117 463c 08       		.uleb128 0x8
 7118 463d 04       		.byte	0x4
 7119 463e 21090000 		.long	0x921
 7120 4642 50       		.uleb128 0x50
 7121 4643 04       		.byte	0x4
 7122 4644 B4090000 		.long	0x9b4
 7123 4648 11       		.uleb128 0x11
 7124 4649 89010000 		.long	0x189
 7125 464d 11       		.uleb128 0x11
 7126 464e 10440000 		.long	0x4410
 7127 4652 08       		.uleb128 0x8
 7128 4653 04       		.byte	0x4
 7129 4654 030A0000 		.long	0xa03
 7130 4658 08       		.uleb128 0x8
 7131 4659 04       		.byte	0x4
 7132 465a 2B2E0000 		.long	0x2e2b
 7133 465e 08       		.uleb128 0x8
 7134 465f 04       		.byte	0x4
 7135 4660 B9090000 		.long	0x9b9
 7136 4664 08       		.uleb128 0x8
 7137 4665 04       		.byte	0x4
 7138 4666 510B0000 		.long	0xb51
 7139 466a 50       		.uleb128 0x50
 7140 466b 04       		.byte	0x4
 7141 466c 510B0000 		.long	0xb51
 7142 4670 50       		.uleb128 0x50
 7143 4671 04       		.byte	0x4
 7144 4672 2B2E0000 		.long	0x2e2b
 7145 4676 50       		.uleb128 0x50
 7146 4677 04       		.byte	0x4
 7147 4678 B9090000 		.long	0x9b9
 7148 467c 53       		.uleb128 0x53
 7149 467d 08010000 		.long	0x108
 7150 4681 87460000 		.long	0x4687
 7151 4685 54       		.uleb128 0x54
 7152 4686 00       		.byte	0
 7153 4687 08       		.uleb128 0x8
 7154 4688 04       		.byte	0x4
 7155 4689 F82C0000 		.long	0x2cf8
 7156 468d 11       		.uleb128 0x11
 7157 468e FF020000 		.long	0x2ff
 7158 4692 08       		.uleb128 0x8
 7159 4693 04       		.byte	0x4
 7160 4694 80300000 		.long	0x3080
 7161 4698 46       		.uleb128 0x46
 7162 4699 69737763 		.ascii "iswctype\0"
 7162      74797065 
 7162      00
 7163 46a2 20       		.byte	0x20
 7164 46a3 C4       		.byte	0xc4
 7165 46a4 89010000 		.long	0x189
 7166 46a8 B7460000 		.long	0x46b7
 7167 46ac 10       		.uleb128 0x10
 7168 46ad 18010000 		.long	0x118
 7169 46b1 10       		.uleb128 0x10
 7170 46b2 5D010000 		.long	0x15d
GAS LISTING C:\Users\NJLLMR~1\AppData\Local\Temp\cc3wbcxt.s 			page 166


 7171 46b6 00       		.byte	0
 7172 46b7 46       		.uleb128 0x46
 7173 46b8 746F7763 		.ascii "towctrans\0"
 7173      7472616E 
 7173      7300
 7174 46c2 0B       		.byte	0xb
 7175 46c3 9D       		.byte	0x9d
 7176 46c4 18010000 		.long	0x118
 7177 46c8 D7460000 		.long	0x46d7
 7178 46cc 10       		.uleb128 0x10
 7179 46cd 18010000 		.long	0x118
 7180 46d1 10       		.uleb128 0x10
 7181 46d2 78010000 		.long	0x178
 7182 46d6 00       		.byte	0
 7183 46d7 46       		.uleb128 0x46
 7184 46d8 77637472 		.ascii "wctrans\0"
 7184      616E7300 
 7185 46e0 0B       		.byte	0xb
 7186 46e1 9E       		.byte	0x9e
 7187 46e2 78010000 		.long	0x178
 7188 46e6 F0460000 		.long	0x46f0
 7189 46ea 10       		.uleb128 0x10
 7190 46eb 32380000 		.long	0x3832
 7191 46ef 00       		.byte	0
 7192 46f0 46       		.uleb128 0x46
 7193 46f1 77637479 		.ascii "wctype\0"
 7193      706500
 7194 46f8 0B       		.byte	0xb
 7195 46f9 9F       		.byte	0x9f
 7196 46fa 5D010000 		.long	0x15d
 7197 46fe 08470000 		.long	0x4708
 7198 4702 10       		.uleb128 0x10
 7199 4703 32380000 		.long	0x3832
 7200 4707 00       		.byte	0
 7201 4708 11       		.uleb128 0x11
 7202 4709 AD010000 		.long	0x1ad
 7203 470d 04       		.uleb128 0x4
 7204 470e 66706F73 		.ascii "fpos_t\0"
 7204      5F7400
 7205 4715 21       		.byte	0x21
 7206 4716 C701     		.word	0x1c7
 7207 4718 9C010000 		.long	0x19c
 7208 471c 55       		.uleb128 0x55
 7209 471d 636C6561 		.ascii "clearerr\0"
 7209      72657272 
 7209      00
 7210 4726 21       		.byte	0x21
 7211 4727 E001     		.word	0x1e0
 7212 4729 33470000 		.long	0x4733
 7213 472d 10       		.uleb128 0x10
 7214 472e 19370000 		.long	0x3719
 7215 4732 00       		.byte	0
 7216 4733 46       		.uleb128 0x46
 7217 4734 66636C6F 		.ascii "fclose\0"
 7217      736500
 7218 473b 21       		.byte	0x21
 7219 473c AC       		.byte	0xac
GAS LISTING C:\Users\NJLLMR~1\AppData\Local\Temp\cc3wbcxt.s 			page 167


 7220 473d 89010000 		.long	0x189
 7221 4741 4B470000 		.long	0x474b
 7222 4745 10       		.uleb128 0x10
 7223 4746 19370000 		.long	0x3719
 7224 474a 00       		.byte	0
 7225 474b 45       		.uleb128 0x45
 7226 474c 66656F66 		.ascii "feof\0"
 7226      00
 7227 4751 21       		.byte	0x21
 7228 4752 D701     		.word	0x1d7
 7229 4754 89010000 		.long	0x189
 7230 4758 62470000 		.long	0x4762
 7231 475c 10       		.uleb128 0x10
 7232 475d 19370000 		.long	0x3719
 7233 4761 00       		.byte	0
 7234 4762 45       		.uleb128 0x45
 7235 4763 66657272 		.ascii "ferror\0"
 7235      6F7200
 7236 476a 21       		.byte	0x21
 7237 476b D901     		.word	0x1d9
 7238 476d 89010000 		.long	0x189
 7239 4771 7B470000 		.long	0x477b
 7240 4775 10       		.uleb128 0x10
 7241 4776 19370000 		.long	0x3719
 7242 477a 00       		.byte	0
 7243 477b 46       		.uleb128 0x46
 7244 477c 66666C75 		.ascii "fflush\0"
 7244      736800
 7245 4783 21       		.byte	0x21
 7246 4784 AB       		.byte	0xab
 7247 4785 89010000 		.long	0x189
 7248 4789 93470000 		.long	0x4793
 7249 478d 10       		.uleb128 0x10
 7250 478e 19370000 		.long	0x3719
 7251 4792 00       		.byte	0
 7252 4793 45       		.uleb128 0x45
 7253 4794 66676574 		.ascii "fgetc\0"
 7253      6300
 7254 479a 21       		.byte	0x21
 7255 479b 6101     		.word	0x161
 7256 479d 89010000 		.long	0x189
 7257 47a1 AB470000 		.long	0x47ab
 7258 47a5 10       		.uleb128 0x10
 7259 47a6 19370000 		.long	0x3719
 7260 47aa 00       		.byte	0
 7261 47ab 45       		.uleb128 0x45
 7262 47ac 66676574 		.ascii "fgetpos\0"
 7262      706F7300 
 7263 47b4 21       		.byte	0x21
 7264 47b5 CC01     		.word	0x1cc
 7265 47b7 89010000 		.long	0x189
 7266 47bb CA470000 		.long	0x47ca
 7267 47bf 10       		.uleb128 0x10
 7268 47c0 19370000 		.long	0x3719
 7269 47c4 10       		.uleb128 0x10
 7270 47c5 CA470000 		.long	0x47ca
 7271 47c9 00       		.byte	0
GAS LISTING C:\Users\NJLLMR~1\AppData\Local\Temp\cc3wbcxt.s 			page 168


 7272 47ca 08       		.uleb128 0x8
 7273 47cb 04       		.byte	0x4
 7274 47cc 0D470000 		.long	0x470d
 7275 47d0 45       		.uleb128 0x45
 7276 47d1 66676574 		.ascii "fgets\0"
 7276      7300
 7277 47d7 21       		.byte	0x21
 7278 47d8 6201     		.word	0x162
 7279 47da 41020000 		.long	0x241
 7280 47de F2470000 		.long	0x47f2
 7281 47e2 10       		.uleb128 0x10
 7282 47e3 41020000 		.long	0x241
 7283 47e7 10       		.uleb128 0x10
 7284 47e8 89010000 		.long	0x189
 7285 47ec 10       		.uleb128 0x10
 7286 47ed 19370000 		.long	0x3719
 7287 47f1 00       		.byte	0
 7288 47f2 46       		.uleb128 0x46
 7289 47f3 666F7065 		.ascii "fopen\0"
 7289      6E00
 7290 47f9 21       		.byte	0x21
 7291 47fa A9       		.byte	0xa9
 7292 47fb 19370000 		.long	0x3719
 7293 47ff 0E480000 		.long	0x480e
 7294 4803 10       		.uleb128 0x10
 7295 4804 32380000 		.long	0x3832
 7296 4808 10       		.uleb128 0x10
 7297 4809 32380000 		.long	0x3832
 7298 480d 00       		.byte	0
 7299 480e 45       		.uleb128 0x45
 7300 480f 66726561 		.ascii "fread\0"
 7300      6400
 7301 4815 21       		.byte	0x21
 7302 4816 9C01     		.word	0x19c
 7303 4818 FA000000 		.long	0xfa
 7304 481c 35480000 		.long	0x4835
 7305 4820 10       		.uleb128 0x10
 7306 4821 01460000 		.long	0x4601
 7307 4825 10       		.uleb128 0x10
 7308 4826 FA000000 		.long	0xfa
 7309 482a 10       		.uleb128 0x10
 7310 482b FA000000 		.long	0xfa
 7311 482f 10       		.uleb128 0x10
 7312 4830 19370000 		.long	0x3719
 7313 4834 00       		.byte	0
 7314 4835 46       		.uleb128 0x46
 7315 4836 6672656F 		.ascii "freopen\0"
 7315      70656E00 
 7316 483e 21       		.byte	0x21
 7317 483f AA       		.byte	0xaa
 7318 4840 19370000 		.long	0x3719
 7319 4844 58480000 		.long	0x4858
 7320 4848 10       		.uleb128 0x10
 7321 4849 32380000 		.long	0x3832
 7322 484d 10       		.uleb128 0x10
 7323 484e 32380000 		.long	0x3832
 7324 4852 10       		.uleb128 0x10
GAS LISTING C:\Users\NJLLMR~1\AppData\Local\Temp\cc3wbcxt.s 			page 169


 7325 4853 19370000 		.long	0x3719
 7326 4857 00       		.byte	0
 7327 4858 45       		.uleb128 0x45
 7328 4859 66736565 		.ascii "fseek\0"
 7328      6B00
 7329 485f 21       		.byte	0x21
 7330 4860 A301     		.word	0x1a3
 7331 4862 89010000 		.long	0x189
 7332 4866 7A480000 		.long	0x487a
 7333 486a 10       		.uleb128 0x10
 7334 486b 19370000 		.long	0x3719
 7335 486f 10       		.uleb128 0x10
 7336 4870 90010000 		.long	0x190
 7337 4874 10       		.uleb128 0x10
 7338 4875 89010000 		.long	0x189
 7339 4879 00       		.byte	0
 7340 487a 45       		.uleb128 0x45
 7341 487b 66736574 		.ascii "fsetpos\0"
 7341      706F7300 
 7342 4883 21       		.byte	0x21
 7343 4884 CD01     		.word	0x1cd
 7344 4886 89010000 		.long	0x189
 7345 488a 99480000 		.long	0x4899
 7346 488e 10       		.uleb128 0x10
 7347 488f 19370000 		.long	0x3719
 7348 4893 10       		.uleb128 0x10
 7349 4894 99480000 		.long	0x4899
 7350 4898 00       		.byte	0
 7351 4899 08       		.uleb128 0x8
 7352 489a 04       		.byte	0x4
 7353 489b 9F480000 		.long	0x489f
 7354 489f 11       		.uleb128 0x11
 7355 48a0 0D470000 		.long	0x470d
 7356 48a4 45       		.uleb128 0x45
 7357 48a5 6674656C 		.ascii "ftell\0"
 7357      6C00
 7358 48ab 21       		.byte	0x21
 7359 48ac A401     		.word	0x1a4
 7360 48ae 90010000 		.long	0x190
 7361 48b2 BC480000 		.long	0x48bc
 7362 48b6 10       		.uleb128 0x10
 7363 48b7 19370000 		.long	0x3719
 7364 48bb 00       		.byte	0
 7365 48bc 45       		.uleb128 0x45
 7366 48bd 67657463 		.ascii "getc\0"
 7366      00
 7367 48c2 21       		.byte	0x21
 7368 48c3 7401     		.word	0x174
 7369 48c5 89010000 		.long	0x189
 7370 48c9 D3480000 		.long	0x48d3
 7371 48cd 10       		.uleb128 0x10
 7372 48ce 19370000 		.long	0x3719
 7373 48d2 00       		.byte	0
 7374 48d3 56       		.uleb128 0x56
 7375 48d4 67657463 		.ascii "getchar\0"
 7375      68617200 
 7376 48dc 21       		.byte	0x21
GAS LISTING C:\Users\NJLLMR~1\AppData\Local\Temp\cc3wbcxt.s 			page 170


 7377 48dd 8201     		.word	0x182
 7378 48df 89010000 		.long	0x189
 7379 48e3 45       		.uleb128 0x45
 7380 48e4 67657473 		.ascii "gets\0"
 7380      00
 7381 48e9 21       		.byte	0x21
 7382 48ea 6501     		.word	0x165
 7383 48ec 41020000 		.long	0x241
 7384 48f0 FA480000 		.long	0x48fa
 7385 48f4 10       		.uleb128 0x10
 7386 48f5 41020000 		.long	0x241
 7387 48f9 00       		.byte	0
 7388 48fa 55       		.uleb128 0x55
 7389 48fb 70657272 		.ascii "perror\0"
 7389      6F7200
 7390 4902 21       		.byte	0x21
 7391 4903 E101     		.word	0x1e1
 7392 4905 0F490000 		.long	0x490f
 7393 4909 10       		.uleb128 0x10
 7394 490a 32380000 		.long	0x3832
 7395 490e 00       		.byte	0
 7396 490f 45       		.uleb128 0x45
 7397 4910 70757463 		.ascii "putc\0"
 7397      00
 7398 4915 21       		.byte	0x21
 7399 4916 7B01     		.word	0x17b
 7400 4918 89010000 		.long	0x189
 7401 491c 2B490000 		.long	0x492b
 7402 4920 10       		.uleb128 0x10
 7403 4921 89010000 		.long	0x189
 7404 4925 10       		.uleb128 0x10
 7405 4926 19370000 		.long	0x3719
 7406 492a 00       		.byte	0
 7407 492b 45       		.uleb128 0x45
 7408 492c 70757463 		.ascii "putchar\0"
 7408      68617200 
 7409 4934 21       		.byte	0x21
 7410 4935 8901     		.word	0x189
 7411 4937 89010000 		.long	0x189
 7412 493b 45490000 		.long	0x4945
 7413 493f 10       		.uleb128 0x10
 7414 4940 89010000 		.long	0x189
 7415 4944 00       		.byte	0
 7416 4945 46       		.uleb128 0x46
 7417 4946 72656D6F 		.ascii "remove\0"
 7417      766500
 7418 494d 21       		.byte	0x21
 7419 494e AE       		.byte	0xae
 7420 494f 89010000 		.long	0x189
 7421 4953 5D490000 		.long	0x495d
 7422 4957 10       		.uleb128 0x10
 7423 4958 32380000 		.long	0x3832
 7424 495c 00       		.byte	0
 7425 495d 46       		.uleb128 0x46
 7426 495e 72656E61 		.ascii "rename\0"
 7426      6D6500
 7427 4965 21       		.byte	0x21
GAS LISTING C:\Users\NJLLMR~1\AppData\Local\Temp\cc3wbcxt.s 			page 171


 7428 4966 AF       		.byte	0xaf
 7429 4967 89010000 		.long	0x189
 7430 496b 7A490000 		.long	0x497a
 7431 496f 10       		.uleb128 0x10
 7432 4970 32380000 		.long	0x3832
 7433 4974 10       		.uleb128 0x10
 7434 4975 32380000 		.long	0x3832
 7435 4979 00       		.byte	0
 7436 497a 55       		.uleb128 0x55
 7437 497b 72657769 		.ascii "rewind\0"
 7437      6E6400
 7438 4982 21       		.byte	0x21
 7439 4983 A501     		.word	0x1a5
 7440 4985 8F490000 		.long	0x498f
 7441 4989 10       		.uleb128 0x10
 7442 498a 19370000 		.long	0x3719
 7443 498e 00       		.byte	0
 7444 498f 57       		.uleb128 0x57
 7445 4990 73657462 		.ascii "setbuf\0"
 7445      756600
 7446 4997 21       		.byte	0x21
 7447 4998 C1       		.byte	0xc1
 7448 4999 A8490000 		.long	0x49a8
 7449 499d 10       		.uleb128 0x10
 7450 499e 19370000 		.long	0x3719
 7451 49a2 10       		.uleb128 0x10
 7452 49a3 41020000 		.long	0x241
 7453 49a7 00       		.byte	0
 7454 49a8 46       		.uleb128 0x46
 7455 49a9 73657476 		.ascii "setvbuf\0"
 7455      62756600 
 7456 49b1 21       		.byte	0x21
 7457 49b2 BF       		.byte	0xbf
 7458 49b3 89010000 		.long	0x189
 7459 49b7 D0490000 		.long	0x49d0
 7460 49bb 10       		.uleb128 0x10
 7461 49bc 19370000 		.long	0x3719
 7462 49c0 10       		.uleb128 0x10
 7463 49c1 41020000 		.long	0x241
 7464 49c5 10       		.uleb128 0x10
 7465 49c6 89010000 		.long	0x189
 7466 49ca 10       		.uleb128 0x10
 7467 49cb FA000000 		.long	0xfa
 7468 49cf 00       		.byte	0
 7469 49d0 48       		.uleb128 0x48
 7470 49d1 746D7066 		.ascii "tmpfile\0"
 7470      696C6500 
 7471 49d9 21       		.byte	0x21
 7472 49da B0       		.byte	0xb0
 7473 49db 19370000 		.long	0x3719
 7474 49df 46       		.uleb128 0x46
 7475 49e0 746D706E 		.ascii "tmpnam\0"
 7475      616D00
 7476 49e7 21       		.byte	0x21
 7477 49e8 B1       		.byte	0xb1
 7478 49e9 41020000 		.long	0x241
 7479 49ed F7490000 		.long	0x49f7
GAS LISTING C:\Users\NJLLMR~1\AppData\Local\Temp\cc3wbcxt.s 			page 172


 7480 49f1 10       		.uleb128 0x10
 7481 49f2 41020000 		.long	0x241
 7482 49f6 00       		.byte	0
 7483 49f7 45       		.uleb128 0x45
 7484 49f8 756E6765 		.ascii "ungetc\0"
 7484      746300
 7485 49ff 21       		.byte	0x21
 7486 4a00 6701     		.word	0x167
 7487 4a02 89010000 		.long	0x189
 7488 4a06 154A0000 		.long	0x4a15
 7489 4a0a 10       		.uleb128 0x10
 7490 4a0b 89010000 		.long	0x189
 7491 4a0f 10       		.uleb128 0x10
 7492 4a10 19370000 		.long	0x3719
 7493 4a14 00       		.byte	0
 7494 4a15 4F       		.uleb128 0x4f
 7495 4a16 22       		.byte	0x22
 7496 4a17 0A       		.byte	0xa
 7497 4a18 5A030000 		.long	0x35a
 7498 4a1c 4F       		.uleb128 0x4f
 7499 4a1d 23       		.byte	0x23
 7500 4a1e 09       		.byte	0x9
 7501 4a1f 5A030000 		.long	0x35a
 7502 4a23 4F       		.uleb128 0x4f
 7503 4a24 24       		.byte	0x24
 7504 4a25 0B       		.byte	0xb
 7505 4a26 5A030000 		.long	0x35a
 7506 4a2a 58       		.uleb128 0x58
 7507 4a2b E1000000 		.secrel32	LASF29
 7508 4a2f 04       		.byte	0x4
 7509 4a30 07       		.byte	0x7
 7510 4a31 06       		.byte	0x6
 7511 4a32 BB4A0000 		.long	0x4abb
 7512 4a36 59       		.uleb128 0x59
 7513 4a37 B6000000 		.secrel32	LASF30
 7514 4a3b 07       		.byte	0x7
 7515 4a3c 0F       		.byte	0xf
 7516 4a3d 302E0000 		.long	0x2e30
 7517 4a41 00       		.byte	0
 7518 4a42 1A       		.uleb128 0x1a
 7519 4a43 E1000000 		.secrel32	LASF29
 7520 4a47 07       		.byte	0x7
 7521 4a48 09       		.byte	0x9
 7522 4a49 01       		.byte	0x1
 7523 4a4a 524A0000 		.long	0x4a52
 7524 4a4e 5D4A0000 		.long	0x4a5d
 7525 4a52 1B       		.uleb128 0x1b
 7526 4a53 BB4A0000 		.long	0x4abb
 7527 4a57 10       		.uleb128 0x10
 7528 4a58 302E0000 		.long	0x2e30
 7529 4a5c 00       		.byte	0
 7530 4a5d 33       		.uleb128 0x33
 7531 4a5e 9E000000 		.secrel32	LASF31
 7532 4a62 07       		.byte	0x7
 7533 4a63 0A       		.byte	0xa
 7534 4a64 5F5A4E31 		.ascii "_ZN14InvalidNameExc10getMessageEv\0"
 7534      34496E76 
GAS LISTING C:\Users\NJLLMR~1\AppData\Local\Temp\cc3wbcxt.s 			page 173


 7534      616C6964 
 7534      4E616D65 
 7534      45786331 
 7535 4a86 302E0000 		.long	0x2e30
 7536 4a8a 01       		.byte	0x1
 7537 4a8b 934A0000 		.long	0x4a93
 7538 4a8f 994A0000 		.long	0x4a99
 7539 4a93 1B       		.uleb128 0x1b
 7540 4a94 BB4A0000 		.long	0x4abb
 7541 4a98 00       		.byte	0
 7542 4a99 5A       		.uleb128 0x5a
 7543 4a9a 7E496E76 		.ascii "~InvalidNameExc\0"
 7543      616C6964 
 7543      4E616D65 
 7543      45786300 
 7544 4aaa 01       		.byte	0x1
 7545 4aab AF4A0000 		.long	0x4aaf
 7546 4aaf 1B       		.uleb128 0x1b
 7547 4ab0 BB4A0000 		.long	0x4abb
 7548 4ab4 1B       		.uleb128 0x1b
 7549 4ab5 89010000 		.long	0x189
 7550 4ab9 00       		.byte	0
 7551 4aba 00       		.byte	0
 7552 4abb 08       		.uleb128 0x8
 7553 4abc 04       		.byte	0x4
 7554 4abd 2A4A0000 		.long	0x4a2a
 7555 4ac1 58       		.uleb128 0x58
 7556 4ac2 00000000 		.secrel32	LASF32
 7557 4ac6 04       		.byte	0x4
 7558 4ac7 06       		.byte	0x6
 7559 4ac8 07       		.byte	0x7
 7560 4ac9 544B0000 		.long	0x4b54
 7561 4acd 59       		.uleb128 0x59
 7562 4ace B6000000 		.secrel32	LASF30
 7563 4ad2 06       		.byte	0x6
 7564 4ad3 10       		.byte	0x10
 7565 4ad4 302E0000 		.long	0x2e30
 7566 4ad8 00       		.byte	0
 7567 4ad9 1A       		.uleb128 0x1a
 7568 4ada 00000000 		.secrel32	LASF32
 7569 4ade 06       		.byte	0x6
 7570 4adf 0A       		.byte	0xa
 7571 4ae0 01       		.byte	0x1
 7572 4ae1 E94A0000 		.long	0x4ae9
 7573 4ae5 F44A0000 		.long	0x4af4
 7574 4ae9 1B       		.uleb128 0x1b
 7575 4aea 544B0000 		.long	0x4b54
 7576 4aee 10       		.uleb128 0x10
 7577 4aef 302E0000 		.long	0x2e30
 7578 4af3 00       		.byte	0
 7579 4af4 33       		.uleb128 0x33
 7580 4af5 9E000000 		.secrel32	LASF31
 7581 4af9 06       		.byte	0x6
 7582 4afa 0B       		.byte	0xb
 7583 4afb 5F5A4E31 		.ascii "_ZN15InvalidMonthExc10getMessageEv\0"
 7583      35496E76 
 7583      616C6964 
GAS LISTING C:\Users\NJLLMR~1\AppData\Local\Temp\cc3wbcxt.s 			page 174


 7583      4D6F6E74 
 7583      68457863 
 7584 4b1e 302E0000 		.long	0x2e30
 7585 4b22 01       		.byte	0x1
 7586 4b23 2B4B0000 		.long	0x4b2b
 7587 4b27 314B0000 		.long	0x4b31
 7588 4b2b 1B       		.uleb128 0x1b
 7589 4b2c 544B0000 		.long	0x4b54
 7590 4b30 00       		.byte	0
 7591 4b31 5A       		.uleb128 0x5a
 7592 4b32 7E496E76 		.ascii "~InvalidMonthExc\0"
 7592      616C6964 
 7592      4D6F6E74 
 7592      68457863 
 7592      00
 7593 4b43 01       		.byte	0x1
 7594 4b44 484B0000 		.long	0x4b48
 7595 4b48 1B       		.uleb128 0x1b
 7596 4b49 544B0000 		.long	0x4b54
 7597 4b4d 1B       		.uleb128 0x1b
 7598 4b4e 89010000 		.long	0x189
 7599 4b52 00       		.byte	0
 7600 4b53 00       		.byte	0
 7601 4b54 08       		.uleb128 0x8
 7602 4b55 04       		.byte	0x4
 7603 4b56 C14A0000 		.long	0x4ac1
 7604 4b5a 58       		.uleb128 0x58
 7605 4b5b 59010000 		.secrel32	LASF33
 7606 4b5f 04       		.byte	0x4
 7607 4b60 04       		.byte	0x4
 7608 4b61 06       		.byte	0x6
 7609 4b62 EF4B0000 		.long	0x4bef
 7610 4b66 59       		.uleb128 0x59
 7611 4b67 B6000000 		.secrel32	LASF30
 7612 4b6b 04       		.byte	0x4
 7613 4b6c 0E       		.byte	0xe
 7614 4b6d 302E0000 		.long	0x2e30
 7615 4b71 00       		.byte	0
 7616 4b72 1A       		.uleb128 0x1a
 7617 4b73 59010000 		.secrel32	LASF33
 7618 4b77 04       		.byte	0x4
 7619 4b78 09       		.byte	0x9
 7620 4b79 01       		.byte	0x1
 7621 4b7a 824B0000 		.long	0x4b82
 7622 4b7e 8D4B0000 		.long	0x4b8d
 7623 4b82 1B       		.uleb128 0x1b
 7624 4b83 EF4B0000 		.long	0x4bef
 7625 4b87 10       		.uleb128 0x10
 7626 4b88 302E0000 		.long	0x2e30
 7627 4b8c 00       		.byte	0
 7628 4b8d 33       		.uleb128 0x33
 7629 4b8e 9E000000 		.secrel32	LASF31
 7630 4b92 04       		.byte	0x4
 7631 4b93 0A       		.byte	0xa
 7632 4b94 5F5A4E31 		.ascii "_ZN16InvalidSalaryExc10getMessageEv\0"
 7632      36496E76 
 7632      616C6964 
GAS LISTING C:\Users\NJLLMR~1\AppData\Local\Temp\cc3wbcxt.s 			page 175


 7632      53616C61 
 7632      72794578 
 7633 4bb8 302E0000 		.long	0x2e30
 7634 4bbc 01       		.byte	0x1
 7635 4bbd C54B0000 		.long	0x4bc5
 7636 4bc1 CB4B0000 		.long	0x4bcb
 7637 4bc5 1B       		.uleb128 0x1b
 7638 4bc6 EF4B0000 		.long	0x4bef
 7639 4bca 00       		.byte	0
 7640 4bcb 5A       		.uleb128 0x5a
 7641 4bcc 7E496E76 		.ascii "~InvalidSalaryExc\0"
 7641      616C6964 
 7641      53616C61 
 7641      72794578 
 7641      6300
 7642 4bde 01       		.byte	0x1
 7643 4bdf E34B0000 		.long	0x4be3
 7644 4be3 1B       		.uleb128 0x1b
 7645 4be4 EF4B0000 		.long	0x4bef
 7646 4be8 1B       		.uleb128 0x1b
 7647 4be9 89010000 		.long	0x189
 7648 4bed 00       		.byte	0
 7649 4bee 00       		.byte	0
 7650 4bef 08       		.uleb128 0x8
 7651 4bf0 04       		.byte	0x4
 7652 4bf1 5A4B0000 		.long	0x4b5a
 7653 4bf5 58       		.uleb128 0x58
 7654 4bf6 BF000000 		.secrel32	LASF34
 7655 4bfa 04       		.byte	0x4
 7656 4bfb 05       		.byte	0x5
 7657 4bfc 06       		.byte	0x6
 7658 4bfd 844C0000 		.long	0x4c84
 7659 4c01 59       		.uleb128 0x59
 7660 4c02 B6000000 		.secrel32	LASF30
 7661 4c06 05       		.byte	0x5
 7662 4c07 0F       		.byte	0xf
 7663 4c08 302E0000 		.long	0x2e30
 7664 4c0c 00       		.byte	0
 7665 4c0d 1A       		.uleb128 0x1a
 7666 4c0e BF000000 		.secrel32	LASF34
 7667 4c12 05       		.byte	0x5
 7668 4c13 09       		.byte	0x9
 7669 4c14 01       		.byte	0x1
 7670 4c15 1D4C0000 		.long	0x4c1d
 7671 4c19 284C0000 		.long	0x4c28
 7672 4c1d 1B       		.uleb128 0x1b
 7673 4c1e 844C0000 		.long	0x4c84
 7674 4c22 10       		.uleb128 0x10
 7675 4c23 302E0000 		.long	0x2e30
 7676 4c27 00       		.byte	0
 7677 4c28 33       		.uleb128 0x33
 7678 4c29 9E000000 		.secrel32	LASF31
 7679 4c2d 05       		.byte	0x5
 7680 4c2e 0A       		.byte	0xa
 7681 4c2f 5F5A4E31 		.ascii "_ZN13InvalidSsnExc10getMessageEv\0"
 7681      33496E76 
 7681      616C6964 
GAS LISTING C:\Users\NJLLMR~1\AppData\Local\Temp\cc3wbcxt.s 			page 176


 7681      53736E45 
 7681      78633130 
 7682 4c50 302E0000 		.long	0x2e30
 7683 4c54 01       		.byte	0x1
 7684 4c55 5D4C0000 		.long	0x4c5d
 7685 4c59 634C0000 		.long	0x4c63
 7686 4c5d 1B       		.uleb128 0x1b
 7687 4c5e 844C0000 		.long	0x4c84
 7688 4c62 00       		.byte	0
 7689 4c63 5A       		.uleb128 0x5a
 7690 4c64 7E496E76 		.ascii "~InvalidSsnExc\0"
 7690      616C6964 
 7690      53736E45 
 7690      786300
 7691 4c73 01       		.byte	0x1
 7692 4c74 784C0000 		.long	0x4c78
 7693 4c78 1B       		.uleb128 0x1b
 7694 4c79 844C0000 		.long	0x4c84
 7695 4c7d 1B       		.uleb128 0x1b
 7696 4c7e 89010000 		.long	0x189
 7697 4c82 00       		.byte	0
 7698 4c83 00       		.byte	0
 7699 4c84 08       		.uleb128 0x8
 7700 4c85 04       		.byte	0x4
 7701 4c86 F54B0000 		.long	0x4bf5
 7702 4c8a 58       		.uleb128 0x58
 7703 4c8b 00010000 		.secrel32	LASF35
 7704 4c8f 04       		.byte	0x4
 7705 4c90 08       		.byte	0x8
 7706 4c91 06       		.byte	0x6
 7707 4c92 1B4D0000 		.long	0x4d1b
 7708 4c96 59       		.uleb128 0x59
 7709 4c97 B6000000 		.secrel32	LASF30
 7710 4c9b 08       		.byte	0x8
 7711 4c9c 0D       		.byte	0xd
 7712 4c9d 302E0000 		.long	0x2e30
 7713 4ca1 00       		.byte	0
 7714 4ca2 1A       		.uleb128 0x1a
 7715 4ca3 00010000 		.secrel32	LASF35
 7716 4ca7 08       		.byte	0x8
 7717 4ca8 09       		.byte	0x9
 7718 4ca9 01       		.byte	0x1
 7719 4caa B24C0000 		.long	0x4cb2
 7720 4cae BD4C0000 		.long	0x4cbd
 7721 4cb2 1B       		.uleb128 0x1b
 7722 4cb3 1B4D0000 		.long	0x4d1b
 7723 4cb7 10       		.uleb128 0x10
 7724 4cb8 302E0000 		.long	0x2e30
 7725 4cbc 00       		.byte	0
 7726 4cbd 33       		.uleb128 0x33
 7727 4cbe 9E000000 		.secrel32	LASF31
 7728 4cc2 08       		.byte	0x8
 7729 4cc3 0A       		.byte	0xa
 7730 4cc4 5F5A4E31 		.ascii "_ZN14InvalidYearExc10getMessageEv\0"
 7730      34496E76 
 7730      616C6964 
 7730      59656172 
GAS LISTING C:\Users\NJLLMR~1\AppData\Local\Temp\cc3wbcxt.s 			page 177


 7730      45786331 
 7731 4ce6 302E0000 		.long	0x2e30
 7732 4cea 01       		.byte	0x1
 7733 4ceb F34C0000 		.long	0x4cf3
 7734 4cef F94C0000 		.long	0x4cf9
 7735 4cf3 1B       		.uleb128 0x1b
 7736 4cf4 1B4D0000 		.long	0x4d1b
 7737 4cf8 00       		.byte	0
 7738 4cf9 5A       		.uleb128 0x5a
 7739 4cfa 7E496E76 		.ascii "~InvalidYearExc\0"
 7739      616C6964 
 7739      59656172 
 7739      45786300 
 7740 4d0a 01       		.byte	0x1
 7741 4d0b 0F4D0000 		.long	0x4d0f
 7742 4d0f 1B       		.uleb128 0x1b
 7743 4d10 1B4D0000 		.long	0x4d1b
 7744 4d14 1B       		.uleb128 0x1b
 7745 4d15 89010000 		.long	0x189
 7746 4d19 00       		.byte	0
 7747 4d1a 00       		.byte	0
 7748 4d1b 08       		.uleb128 0x8
 7749 4d1c 04       		.byte	0x4
 7750 4d1d 8A4C0000 		.long	0x4c8a
 7751 4d21 58       		.uleb128 0x58
 7752 4d22 22000000 		.secrel32	LASF36
 7753 4d26 04       		.byte	0x4
 7754 4d27 02       		.byte	0x2
 7755 4d28 06       		.byte	0x6
 7756 4d29 B44D0000 		.long	0x4db4
 7757 4d2d 59       		.uleb128 0x59
 7758 4d2e B6000000 		.secrel32	LASF30
 7759 4d32 02       		.byte	0x2
 7760 4d33 0F       		.byte	0xf
 7761 4d34 302E0000 		.long	0x2e30
 7762 4d38 00       		.byte	0
 7763 4d39 1A       		.uleb128 0x1a
 7764 4d3a 22000000 		.secrel32	LASF36
 7765 4d3e 02       		.byte	0x2
 7766 4d3f 09       		.byte	0x9
 7767 4d40 01       		.byte	0x1
 7768 4d41 494D0000 		.long	0x4d49
 7769 4d45 544D0000 		.long	0x4d54
 7770 4d49 1B       		.uleb128 0x1b
 7771 4d4a B44D0000 		.long	0x4db4
 7772 4d4e 10       		.uleb128 0x10
 7773 4d4f 302E0000 		.long	0x2e30
 7774 4d53 00       		.byte	0
 7775 4d54 33       		.uleb128 0x33
 7776 4d55 9E000000 		.secrel32	LASF31
 7777 4d59 02       		.byte	0x2
 7778 4d5a 0A       		.byte	0xa
 7779 4d5b 5F5A4E31 		.ascii "_ZN15InvalidInputExc10getMessageEv\0"
 7779      35496E76 
 7779      616C6964 
 7779      496E7075 
 7779      74457863 
GAS LISTING C:\Users\NJLLMR~1\AppData\Local\Temp\cc3wbcxt.s 			page 178


 7780 4d7e 302E0000 		.long	0x2e30
 7781 4d82 01       		.byte	0x1
 7782 4d83 8B4D0000 		.long	0x4d8b
 7783 4d87 914D0000 		.long	0x4d91
 7784 4d8b 1B       		.uleb128 0x1b
 7785 4d8c B44D0000 		.long	0x4db4
 7786 4d90 00       		.byte	0
 7787 4d91 5A       		.uleb128 0x5a
 7788 4d92 7E496E76 		.ascii "~InvalidInputExc\0"
 7788      616C6964 
 7788      496E7075 
 7788      74457863 
 7788      00
 7789 4da3 01       		.byte	0x1
 7790 4da4 A84D0000 		.long	0x4da8
 7791 4da8 1B       		.uleb128 0x1b
 7792 4da9 B44D0000 		.long	0x4db4
 7793 4dad 1B       		.uleb128 0x1b
 7794 4dae 89010000 		.long	0x189
 7795 4db2 00       		.byte	0
 7796 4db3 00       		.byte	0
 7797 4db4 08       		.uleb128 0x8
 7798 4db5 04       		.byte	0x4
 7799 4db6 214D0000 		.long	0x4d21
 7800 4dba 17       		.uleb128 0x17
 7801 4dbb 56616C69 		.ascii "Validate\0"
 7801      64617465 
 7801      00
 7802 4dc4 01       		.byte	0x1
 7803 4dc5 25       		.byte	0x25
 7804 4dc6 11       		.byte	0x11
 7805 4dc7 724F0000 		.long	0x4f72
 7806 4dcb 4A       		.uleb128 0x4a
 7807 4dcc 76616C69 		.ascii "validateInput\0"
 7807      64617465 
 7807      496E7075 
 7807      7400
 7808 4dda 25       		.byte	0x25
 7809 4ddb 15       		.byte	0x15
 7810 4ddc 5F5A4E38 		.ascii "_ZN8Validate13validateInputESs\0"
 7810      56616C69 
 7810      64617465 
 7810      31337661 
 7810      6C696461 
 7811 4dfb 10440000 		.long	0x4410
 7812 4dff 01       		.byte	0x1
 7813 4e00 084E0000 		.long	0x4e08
 7814 4e04 134E0000 		.long	0x4e13
 7815 4e08 1B       		.uleb128 0x1b
 7816 4e09 724F0000 		.long	0x4f72
 7817 4e0d 10       		.uleb128 0x10
 7818 4e0e 302E0000 		.long	0x2e30
 7819 4e12 00       		.byte	0
 7820 4e13 4A       		.uleb128 0x4a
 7821 4e14 76616C69 		.ascii "validateSalary\0"
 7821      64617465 
 7821      53616C61 
GAS LISTING C:\Users\NJLLMR~1\AppData\Local\Temp\cc3wbcxt.s 			page 179


 7821      727900
 7822 4e23 25       		.byte	0x25
 7823 4e24 17       		.byte	0x17
 7824 4e25 5F5A4E38 		.ascii "_ZN8Validate14validateSalaryESs\0"
 7824      56616C69 
 7824      64617465 
 7824      31347661 
 7824      6C696461 
 7825 4e45 10440000 		.long	0x4410
 7826 4e49 01       		.byte	0x1
 7827 4e4a 524E0000 		.long	0x4e52
 7828 4e4e 5D4E0000 		.long	0x4e5d
 7829 4e52 1B       		.uleb128 0x1b
 7830 4e53 724F0000 		.long	0x4f72
 7831 4e57 10       		.uleb128 0x10
 7832 4e58 302E0000 		.long	0x2e30
 7833 4e5c 00       		.byte	0
 7834 4e5d 4A       		.uleb128 0x4a
 7835 4e5e 76616C69 		.ascii "validateSSN\0"
 7835      64617465 
 7835      53534E00 
 7836 4e6a 25       		.byte	0x25
 7837 4e6b 19       		.byte	0x19
 7838 4e6c 5F5A4E38 		.ascii "_ZN8Validate11validateSSNESs\0"
 7838      56616C69 
 7838      64617465 
 7838      31317661 
 7838      6C696461 
 7839 4e89 10440000 		.long	0x4410
 7840 4e8d 01       		.byte	0x1
 7841 4e8e 964E0000 		.long	0x4e96
 7842 4e92 A14E0000 		.long	0x4ea1
 7843 4e96 1B       		.uleb128 0x1b
 7844 4e97 724F0000 		.long	0x4f72
 7845 4e9b 10       		.uleb128 0x10
 7846 4e9c 302E0000 		.long	0x2e30
 7847 4ea0 00       		.byte	0
 7848 4ea1 4A       		.uleb128 0x4a
 7849 4ea2 76616C69 		.ascii "validateMonth\0"
 7849      64617465 
 7849      4D6F6E74 
 7849      6800
 7850 4eb0 25       		.byte	0x25
 7851 4eb1 1B       		.byte	0x1b
 7852 4eb2 5F5A4E38 		.ascii "_ZN8Validate13validateMonthESs\0"
 7852      56616C69 
 7852      64617465 
 7852      31337661 
 7852      6C696461 
 7853 4ed1 10440000 		.long	0x4410
 7854 4ed5 01       		.byte	0x1
 7855 4ed6 DE4E0000 		.long	0x4ede
 7856 4eda E94E0000 		.long	0x4ee9
 7857 4ede 1B       		.uleb128 0x1b
 7858 4edf 724F0000 		.long	0x4f72
 7859 4ee3 10       		.uleb128 0x10
 7860 4ee4 302E0000 		.long	0x2e30
GAS LISTING C:\Users\NJLLMR~1\AppData\Local\Temp\cc3wbcxt.s 			page 180


 7861 4ee8 00       		.byte	0
 7862 4ee9 4A       		.uleb128 0x4a
 7863 4eea 76616C69 		.ascii "validateName\0"
 7863      64617465 
 7863      4E616D65 
 7863      00
 7864 4ef7 25       		.byte	0x25
 7865 4ef8 1D       		.byte	0x1d
 7866 4ef9 5F5A4E38 		.ascii "_ZN8Validate12validateNameESs\0"
 7866      56616C69 
 7866      64617465 
 7866      31327661 
 7866      6C696461 
 7867 4f17 10440000 		.long	0x4410
 7868 4f1b 01       		.byte	0x1
 7869 4f1c 244F0000 		.long	0x4f24
 7870 4f20 2F4F0000 		.long	0x4f2f
 7871 4f24 1B       		.uleb128 0x1b
 7872 4f25 724F0000 		.long	0x4f72
 7873 4f29 10       		.uleb128 0x10
 7874 4f2a 302E0000 		.long	0x2e30
 7875 4f2e 00       		.byte	0
 7876 4f2f 5B       		.uleb128 0x5b
 7877 4f30 76616C69 		.ascii "validateYear\0"
 7877      64617465 
 7877      59656172 
 7877      00
 7878 4f3d 25       		.byte	0x25
 7879 4f3e 1F       		.byte	0x1f
 7880 4f3f 5F5A4E38 		.ascii "_ZN8Validate12validateYearESs\0"
 7880      56616C69 
 7880      64617465 
 7880      31327661 
 7880      6C696461 
 7881 4f5d 10440000 		.long	0x4410
 7882 4f61 01       		.byte	0x1
 7883 4f62 664F0000 		.long	0x4f66
 7884 4f66 1B       		.uleb128 0x1b
 7885 4f67 724F0000 		.long	0x4f72
 7886 4f6b 10       		.uleb128 0x10
 7887 4f6c 302E0000 		.long	0x2e30
 7888 4f70 00       		.byte	0
 7889 4f71 00       		.byte	0
 7890 4f72 08       		.uleb128 0x8
 7891 4f73 04       		.byte	0x4
 7892 4f74 BA4D0000 		.long	0x4dba
 7893 4f78 08       		.uleb128 0x8
 7894 4f79 04       		.byte	0x4
 7895 4f7a FF020000 		.long	0x2ff
 7896 4f7e 5C       		.uleb128 0x5c
 7897 4f7f 17360000 		.long	0x3617
 7898 4f83 00000000 		.long	LFB637
 7899 4f87 0D000000 		.long	LFE637-LFB637
 7900 4f8b 01       		.uleb128 0x1
 7901 4f8c 9C       		.byte	0x9c
 7902 4f8d AE4F0000 		.long	0x4fae
 7903 4f91 5D       		.uleb128 0x5d
GAS LISTING C:\Users\NJLLMR~1\AppData\Local\Temp\cc3wbcxt.s 			page 181


 7904 4f92 5F5F6100 		.ascii "__a\0"
 7905 4f96 01       		.byte	0x1
 7906 4f97 77       		.byte	0x77
 7907 4f98 652F0000 		.long	0x2f65
 7908 4f9c 02       		.uleb128 0x2
 7909 4f9d 91       		.byte	0x91
 7910 4f9e 00       		.sleb128 0
 7911 4f9f 5D       		.uleb128 0x5d
 7912 4fa0 5F5F6200 		.ascii "__b\0"
 7913 4fa4 01       		.byte	0x1
 7914 4fa5 77       		.byte	0x77
 7915 4fa6 652F0000 		.long	0x2f65
 7916 4faa 02       		.uleb128 0x2
 7917 4fab 91       		.byte	0x91
 7918 4fac 04       		.sleb128 4
 7919 4fad 00       		.byte	0
 7920 4fae 5E       		.uleb128 0x5e
 7921 4faf 914D0000 		.long	0x4d91
 7922 4fb3 02       		.byte	0x2
 7923 4fb4 06       		.byte	0x6
 7924 4fb5 02       		.byte	0x2
 7925 4fb6 BE4F0000 		.long	0x4fbe
 7926 4fba D14F0000 		.long	0x4fd1
 7927 4fbe 5F       		.uleb128 0x5f
 7928 4fbf 99000000 		.secrel32	LASF37
 7929 4fc3 D14F0000 		.long	0x4fd1
 7930 4fc7 5F       		.uleb128 0x5f
 7931 4fc8 7B010000 		.secrel32	LASF38
 7932 4fcc 48460000 		.long	0x4648
 7933 4fd0 00       		.byte	0
 7934 4fd1 11       		.uleb128 0x11
 7935 4fd2 B44D0000 		.long	0x4db4
 7936 4fd6 60       		.uleb128 0x60
 7937 4fd7 AE4F0000 		.long	0x4fae
 7938 4fdb 5F5A4E31 		.ascii "_ZN15InvalidInputExcD1Ev\0"
 7938      35496E76 
 7938      616C6964 
 7938      496E7075 
 7938      74457863 
 7939 4ff4 00000000 		.long	LFB1407
 7940 4ff8 15000000 		.long	LFE1407-LFB1407
 7941 4ffc 01       		.uleb128 0x1
 7942 4ffd 9C       		.byte	0x9c
 7943 4ffe 06500000 		.long	0x5006
 7944 5002 0F500000 		.long	0x500f
 7945 5006 61       		.uleb128 0x61
 7946 5007 BE4F0000 		.long	0x4fbe
 7947 500b 02       		.uleb128 0x2
 7948 500c 91       		.byte	0x91
 7949 500d 6C       		.sleb128 -20
 7950 500e 00       		.byte	0
 7951 500f 62       		.uleb128 0x62
 7952 5010 CB4D0000 		.long	0x4dcb
 7953 5014 03       		.byte	0x3
 7954 5015 04       		.byte	0x4
 7955 5016 00000000 		.long	LFB1404
 7956 501a E2030000 		.long	LFE1404-LFB1404
GAS LISTING C:\Users\NJLLMR~1\AppData\Local\Temp\cc3wbcxt.s 			page 182


 7957 501e 01       		.uleb128 0x1
 7958 501f 9C       		.byte	0x9c
 7959 5020 28500000 		.long	0x5028
 7960 5024 86500000 		.long	0x5086
 7961 5028 63       		.uleb128 0x63
 7962 5029 99000000 		.secrel32	LASF37
 7963 502d 86500000 		.long	0x5086
 7964 5031 03       		.uleb128 0x3
 7965 5032 91       		.byte	0x91
 7966 5033 FC7D     		.sleb128 -260
 7967 5035 5D       		.uleb128 0x5d
 7968 5036 696E7075 		.ascii "input\0"
 7968      7400
 7969 503c 03       		.byte	0x3
 7970 503d 04       		.byte	0x4
 7971 503e 302E0000 		.long	0x2e30
 7972 5042 03       		.uleb128 0x3
 7973 5043 91       		.byte	0x91
 7974 5044 00       		.sleb128 0
 7975 5045 06       		.byte	0x6
 7976 5046 64       		.uleb128 0x64
 7977 5047 4A000000 		.long	LBB3
 7978 504b 87030000 		.long	LBE3-LBB3
 7979 504f 65       		.uleb128 0x65
 7980 5050 746D7049 		.ascii "tmpInput\0"
 7980      6E707574 
 7980      00
 7981 5059 03       		.byte	0x3
 7982 505a 0A       		.byte	0xa
 7983 505b 89010000 		.long	0x189
 7984 505f 02       		.uleb128 0x2
 7985 5060 91       		.byte	0x91
 7986 5061 48       		.sleb128 -56
 7987 5062 65       		.uleb128 0x65
 7988 5063 73696E31 		.ascii "sin1\0"
 7988      00
 7989 5068 03       		.byte	0x3
 7990 5069 0B       		.byte	0xb
 7991 506a 51360000 		.long	0x3651
 7992 506e 03       		.uleb128 0x3
 7993 506f 91       		.byte	0x91
 7994 5070 8C7E     		.sleb128 -244
 7995 5072 66       		.uleb128 0x66
 7996 5073 00000000 		.secrel32	Ldebug_ranges0+0
 7997 5077 65       		.uleb128 0x65
 7998 5078 6900     		.ascii "i\0"
 7999 507a 03       		.byte	0x3
 8000 507b 05       		.byte	0x5
 8001 507c 08010000 		.long	0x108
 8002 5080 02       		.uleb128 0x2
 8003 5081 91       		.byte	0x91
 8004 5082 5C       		.sleb128 -36
 8005 5083 00       		.byte	0
 8006 5084 00       		.byte	0
 8007 5085 00       		.byte	0
 8008 5086 11       		.uleb128 0x11
 8009 5087 724F0000 		.long	0x4f72
GAS LISTING C:\Users\NJLLMR~1\AppData\Local\Temp\cc3wbcxt.s 			page 183


 8010 508b 5E       		.uleb128 0x5e
 8011 508c CB4B0000 		.long	0x4bcb
 8012 5090 04       		.byte	0x4
 8013 5091 06       		.byte	0x6
 8014 5092 02       		.byte	0x2
 8015 5093 9B500000 		.long	0x509b
 8016 5097 AE500000 		.long	0x50ae
 8017 509b 5F       		.uleb128 0x5f
 8018 509c 99000000 		.secrel32	LASF37
 8019 50a0 AE500000 		.long	0x50ae
 8020 50a4 5F       		.uleb128 0x5f
 8021 50a5 7B010000 		.secrel32	LASF38
 8022 50a9 48460000 		.long	0x4648
 8023 50ad 00       		.byte	0
 8024 50ae 11       		.uleb128 0x11
 8025 50af EF4B0000 		.long	0x4bef
 8026 50b3 60       		.uleb128 0x60
 8027 50b4 8B500000 		.long	0x508b
 8028 50b8 5F5A4E31 		.ascii "_ZN16InvalidSalaryExcD1Ev\0"
 8028      36496E76 
 8028      616C6964 
 8028      53616C61 
 8028      72794578 
 8029 50d2 00000000 		.long	LFB1414
 8030 50d6 15000000 		.long	LFE1414-LFB1414
 8031 50da 01       		.uleb128 0x1
 8032 50db 9C       		.byte	0x9c
 8033 50dc E4500000 		.long	0x50e4
 8034 50e0 ED500000 		.long	0x50ed
 8035 50e4 61       		.uleb128 0x61
 8036 50e5 9B500000 		.long	0x509b
 8037 50e9 02       		.uleb128 0x2
 8038 50ea 91       		.byte	0x91
 8039 50eb 6C       		.sleb128 -20
 8040 50ec 00       		.byte	0
 8041 50ed 67       		.uleb128 0x67
 8042 50ee 134E0000 		.long	0x4e13
 8043 50f2 03       		.byte	0x3
 8044 50f3 E2030000 		.long	LFB1411
 8045 50f7 AC010000 		.long	LFE1411-LFB1411
 8046 50fb 01       		.uleb128 0x1
 8047 50fc 9C       		.byte	0x9c
 8048 50fd 05510000 		.long	0x5105
 8049 5101 36510000 		.long	0x5136
 8050 5105 63       		.uleb128 0x63
 8051 5106 99000000 		.secrel32	LASF37
 8052 510a 86500000 		.long	0x5086
 8053 510e 02       		.uleb128 0x2
 8054 510f 91       		.byte	0x91
 8055 5110 4C       		.sleb128 -52
 8056 5111 5D       		.uleb128 0x5d
 8057 5112 73616C61 		.ascii "salary\0"
 8057      727900
 8058 5119 03       		.byte	0x3
 8059 511a 17       		.byte	0x17
 8060 511b 302E0000 		.long	0x2e30
 8061 511f 03       		.uleb128 0x3
GAS LISTING C:\Users\NJLLMR~1\AppData\Local\Temp\cc3wbcxt.s 			page 184


 8062 5120 91       		.byte	0x91
 8063 5121 00       		.sleb128 0
 8064 5122 06       		.byte	0x6
 8065 5123 66       		.uleb128 0x66
 8066 5124 18000000 		.secrel32	Ldebug_ranges0+0x18
 8067 5128 65       		.uleb128 0x65
 8068 5129 6900     		.ascii "i\0"
 8069 512b 03       		.byte	0x3
 8070 512c 19       		.byte	0x19
 8071 512d 08010000 		.long	0x108
 8072 5131 02       		.uleb128 0x2
 8073 5132 91       		.byte	0x91
 8074 5133 5C       		.sleb128 -36
 8075 5134 00       		.byte	0
 8076 5135 00       		.byte	0
 8077 5136 5E       		.uleb128 0x5e
 8078 5137 634C0000 		.long	0x4c63
 8079 513b 05       		.byte	0x5
 8080 513c 06       		.byte	0x6
 8081 513d 02       		.byte	0x2
 8082 513e 46510000 		.long	0x5146
 8083 5142 59510000 		.long	0x5159
 8084 5146 5F       		.uleb128 0x5f
 8085 5147 99000000 		.secrel32	LASF37
 8086 514b 59510000 		.long	0x5159
 8087 514f 5F       		.uleb128 0x5f
 8088 5150 7B010000 		.secrel32	LASF38
 8089 5154 48460000 		.long	0x4648
 8090 5158 00       		.byte	0
 8091 5159 11       		.uleb128 0x11
 8092 515a 844C0000 		.long	0x4c84
 8093 515e 60       		.uleb128 0x60
 8094 515f 36510000 		.long	0x5136
 8095 5163 5F5A4E31 		.ascii "_ZN13InvalidSsnExcD1Ev\0"
 8095      33496E76 
 8095      616C6964 
 8095      53736E45 
 8095      78634431 
 8096 517a 00000000 		.long	LFB1421
 8097 517e 15000000 		.long	LFE1421-LFB1421
 8098 5182 01       		.uleb128 0x1
 8099 5183 9C       		.byte	0x9c
 8100 5184 8C510000 		.long	0x518c
 8101 5188 95510000 		.long	0x5195
 8102 518c 61       		.uleb128 0x61
 8103 518d 46510000 		.long	0x5146
 8104 5191 02       		.uleb128 0x2
 8105 5192 91       		.byte	0x91
 8106 5193 6C       		.sleb128 -20
 8107 5194 00       		.byte	0
 8108 5195 62       		.uleb128 0x62
 8109 5196 5D4E0000 		.long	0x4e5d
 8110 519a 03       		.byte	0x3
 8111 519b 22       		.byte	0x22
 8112 519c 8E050000 		.long	LFB1418
 8113 51a0 B6020000 		.long	LFE1418-LFB1418
 8114 51a4 01       		.uleb128 0x1
GAS LISTING C:\Users\NJLLMR~1\AppData\Local\Temp\cc3wbcxt.s 			page 185


 8115 51a5 9C       		.byte	0x9c
 8116 51a6 AE510000 		.long	0x51ae
 8117 51aa DD510000 		.long	0x51dd
 8118 51ae 63       		.uleb128 0x63
 8119 51af 99000000 		.secrel32	LASF37
 8120 51b3 86500000 		.long	0x5086
 8121 51b7 03       		.uleb128 0x3
 8122 51b8 91       		.byte	0x91
 8123 51b9 BC7F     		.sleb128 -68
 8124 51bb 5D       		.uleb128 0x5d
 8125 51bc 73736E00 		.ascii "ssn\0"
 8126 51c0 03       		.byte	0x3
 8127 51c1 22       		.byte	0x22
 8128 51c2 302E0000 		.long	0x2e30
 8129 51c6 03       		.uleb128 0x3
 8130 51c7 91       		.byte	0x91
 8131 51c8 00       		.sleb128 0
 8132 51c9 06       		.byte	0x6
 8133 51ca 66       		.uleb128 0x66
 8134 51cb 30000000 		.secrel32	Ldebug_ranges0+0x30
 8135 51cf 65       		.uleb128 0x65
 8136 51d0 6900     		.ascii "i\0"
 8137 51d2 03       		.byte	0x3
 8138 51d3 26       		.byte	0x26
 8139 51d4 08010000 		.long	0x108
 8140 51d8 02       		.uleb128 0x2
 8141 51d9 91       		.byte	0x91
 8142 51da 5C       		.sleb128 -36
 8143 51db 00       		.byte	0
 8144 51dc 00       		.byte	0
 8145 51dd 5E       		.uleb128 0x5e
 8146 51de 314B0000 		.long	0x4b31
 8147 51e2 06       		.byte	0x6
 8148 51e3 07       		.byte	0x7
 8149 51e4 02       		.byte	0x2
 8150 51e5 ED510000 		.long	0x51ed
 8151 51e9 00520000 		.long	0x5200
 8152 51ed 5F       		.uleb128 0x5f
 8153 51ee 99000000 		.secrel32	LASF37
 8154 51f2 00520000 		.long	0x5200
 8155 51f6 5F       		.uleb128 0x5f
 8156 51f7 7B010000 		.secrel32	LASF38
 8157 51fb 48460000 		.long	0x4648
 8158 51ff 00       		.byte	0
 8159 5200 11       		.uleb128 0x11
 8160 5201 544B0000 		.long	0x4b54
 8161 5205 60       		.uleb128 0x60
 8162 5206 DD510000 		.long	0x51dd
 8163 520a 5F5A4E31 		.ascii "_ZN15InvalidMonthExcD1Ev\0"
 8163      35496E76 
 8163      616C6964 
 8163      4D6F6E74 
 8163      68457863 
 8164 5223 00000000 		.long	LFB1428
 8165 5227 15000000 		.long	LFE1428-LFB1428
 8166 522b 01       		.uleb128 0x1
 8167 522c 9C       		.byte	0x9c
GAS LISTING C:\Users\NJLLMR~1\AppData\Local\Temp\cc3wbcxt.s 			page 186


 8168 522d 35520000 		.long	0x5235
 8169 5231 3E520000 		.long	0x523e
 8170 5235 61       		.uleb128 0x61
 8171 5236 ED510000 		.long	0x51ed
 8172 523a 02       		.uleb128 0x2
 8173 523b 91       		.byte	0x91
 8174 523c 6C       		.sleb128 -20
 8175 523d 00       		.byte	0
 8176 523e 62       		.uleb128 0x62
 8177 523f A14E0000 		.long	0x4ea1
 8178 5243 03       		.byte	0x3
 8179 5244 35       		.byte	0x35
 8180 5245 44080000 		.long	LFB1425
 8181 5249 E2030000 		.long	LFE1425-LFB1425
 8182 524d 01       		.uleb128 0x1
 8183 524e 9C       		.byte	0x9c
 8184 524f 57520000 		.long	0x5257
 8185 5253 B5520000 		.long	0x52b5
 8186 5257 63       		.uleb128 0x63
 8187 5258 99000000 		.secrel32	LASF37
 8188 525c 86500000 		.long	0x5086
 8189 5260 03       		.uleb128 0x3
 8190 5261 91       		.byte	0x91
 8191 5262 FC7D     		.sleb128 -260
 8192 5264 5D       		.uleb128 0x5d
 8193 5265 6D6F6E74 		.ascii "month\0"
 8193      6800
 8194 526b 03       		.byte	0x3
 8195 526c 35       		.byte	0x35
 8196 526d 302E0000 		.long	0x2e30
 8197 5271 03       		.uleb128 0x3
 8198 5272 91       		.byte	0x91
 8199 5273 00       		.sleb128 0
 8200 5274 06       		.byte	0x6
 8201 5275 64       		.uleb128 0x64
 8202 5276 8E080000 		.long	LBB19
 8203 527a 87030000 		.long	LBE19-LBB19
 8204 527e 65       		.uleb128 0x65
 8205 527f 746D704D 		.ascii "tmpMonth\0"
 8205      6F6E7468 
 8205      00
 8206 5288 03       		.byte	0x3
 8207 5289 3C       		.byte	0x3c
 8208 528a 89010000 		.long	0x189
 8209 528e 02       		.uleb128 0x2
 8210 528f 91       		.byte	0x91
 8211 5290 48       		.sleb128 -56
 8212 5291 65       		.uleb128 0x65
 8213 5292 73696E31 		.ascii "sin1\0"
 8213      00
 8214 5297 03       		.byte	0x3
 8215 5298 3D       		.byte	0x3d
 8216 5299 51360000 		.long	0x3651
 8217 529d 03       		.uleb128 0x3
 8218 529e 91       		.byte	0x91
 8219 529f 8C7E     		.sleb128 -244
 8220 52a1 66       		.uleb128 0x66
GAS LISTING C:\Users\NJLLMR~1\AppData\Local\Temp\cc3wbcxt.s 			page 187


 8221 52a2 48000000 		.secrel32	Ldebug_ranges0+0x48
 8222 52a6 65       		.uleb128 0x65
 8223 52a7 6900     		.ascii "i\0"
 8224 52a9 03       		.byte	0x3
 8225 52aa 37       		.byte	0x37
 8226 52ab 08010000 		.long	0x108
 8227 52af 02       		.uleb128 0x2
 8228 52b0 91       		.byte	0x91
 8229 52b1 5C       		.sleb128 -36
 8230 52b2 00       		.byte	0
 8231 52b3 00       		.byte	0
 8232 52b4 00       		.byte	0
 8233 52b5 5E       		.uleb128 0x5e
 8234 52b6 994A0000 		.long	0x4a99
 8235 52ba 07       		.byte	0x7
 8236 52bb 06       		.byte	0x6
 8237 52bc 02       		.byte	0x2
 8238 52bd C5520000 		.long	0x52c5
 8239 52c1 D8520000 		.long	0x52d8
 8240 52c5 5F       		.uleb128 0x5f
 8241 52c6 99000000 		.secrel32	LASF37
 8242 52ca D8520000 		.long	0x52d8
 8243 52ce 5F       		.uleb128 0x5f
 8244 52cf 7B010000 		.secrel32	LASF38
 8245 52d3 48460000 		.long	0x4648
 8246 52d7 00       		.byte	0
 8247 52d8 11       		.uleb128 0x11
 8248 52d9 BB4A0000 		.long	0x4abb
 8249 52dd 60       		.uleb128 0x60
 8250 52de B5520000 		.long	0x52b5
 8251 52e2 5F5A4E31 		.ascii "_ZN14InvalidNameExcD1Ev\0"
 8251      34496E76 
 8251      616C6964 
 8251      4E616D65 
 8251      45786344 
 8252 52fa 00000000 		.long	LFB1435
 8253 52fe 15000000 		.long	LFE1435-LFB1435
 8254 5302 01       		.uleb128 0x1
 8255 5303 9C       		.byte	0x9c
 8256 5304 0C530000 		.long	0x530c
 8257 5308 15530000 		.long	0x5315
 8258 530c 61       		.uleb128 0x61
 8259 530d C5520000 		.long	0x52c5
 8260 5311 02       		.uleb128 0x2
 8261 5312 91       		.byte	0x91
 8262 5313 6C       		.sleb128 -20
 8263 5314 00       		.byte	0
 8264 5315 62       		.uleb128 0x62
 8265 5316 E94E0000 		.long	0x4ee9
 8266 531a 03       		.byte	0x3
 8267 531b 48       		.byte	0x48
 8268 531c 260C0000 		.long	LFB1432
 8269 5320 E2020000 		.long	LFE1432-LFB1432
 8270 5324 01       		.uleb128 0x1
 8271 5325 9C       		.byte	0x9c
 8272 5326 2E530000 		.long	0x532e
 8273 532a 5E530000 		.long	0x535e
GAS LISTING C:\Users\NJLLMR~1\AppData\Local\Temp\cc3wbcxt.s 			page 188


 8274 532e 63       		.uleb128 0x63
 8275 532f 99000000 		.secrel32	LASF37
 8276 5333 86500000 		.long	0x5086
 8277 5337 03       		.uleb128 0x3
 8278 5338 91       		.byte	0x91
 8279 5339 BC7F     		.sleb128 -68
 8280 533b 5D       		.uleb128 0x5d
 8281 533c 6E616D65 		.ascii "name\0"
 8281      00
 8282 5341 03       		.byte	0x3
 8283 5342 48       		.byte	0x48
 8284 5343 302E0000 		.long	0x2e30
 8285 5347 03       		.uleb128 0x3
 8286 5348 91       		.byte	0x91
 8287 5349 00       		.sleb128 0
 8288 534a 06       		.byte	0x6
 8289 534b 66       		.uleb128 0x66
 8290 534c 60000000 		.secrel32	Ldebug_ranges0+0x60
 8291 5350 65       		.uleb128 0x65
 8292 5351 6900     		.ascii "i\0"
 8293 5353 03       		.byte	0x3
 8294 5354 4A       		.byte	0x4a
 8295 5355 08010000 		.long	0x108
 8296 5359 02       		.uleb128 0x2
 8297 535a 91       		.byte	0x91
 8298 535b 5C       		.sleb128 -36
 8299 535c 00       		.byte	0
 8300 535d 00       		.byte	0
 8301 535e 5E       		.uleb128 0x5e
 8302 535f F94C0000 		.long	0x4cf9
 8303 5363 08       		.byte	0x8
 8304 5364 06       		.byte	0x6
 8305 5365 02       		.byte	0x2
 8306 5366 6E530000 		.long	0x536e
 8307 536a 81530000 		.long	0x5381
 8308 536e 5F       		.uleb128 0x5f
 8309 536f 99000000 		.secrel32	LASF37
 8310 5373 81530000 		.long	0x5381
 8311 5377 5F       		.uleb128 0x5f
 8312 5378 7B010000 		.secrel32	LASF38
 8313 537c 48460000 		.long	0x4648
 8314 5380 00       		.byte	0
 8315 5381 11       		.uleb128 0x11
 8316 5382 1B4D0000 		.long	0x4d1b
 8317 5386 60       		.uleb128 0x60
 8318 5387 5E530000 		.long	0x535e
 8319 538b 5F5A4E31 		.ascii "_ZN14InvalidYearExcD1Ev\0"
 8319      34496E76 
 8319      616C6964 
 8319      59656172 
 8319      45786344 
 8320 53a3 00000000 		.long	LFB1442
 8321 53a7 15000000 		.long	LFE1442-LFB1442
 8322 53ab 01       		.uleb128 0x1
 8323 53ac 9C       		.byte	0x9c
 8324 53ad B5530000 		.long	0x53b5
 8325 53b1 BE530000 		.long	0x53be
GAS LISTING C:\Users\NJLLMR~1\AppData\Local\Temp\cc3wbcxt.s 			page 189


 8326 53b5 61       		.uleb128 0x61
 8327 53b6 6E530000 		.long	0x536e
 8328 53ba 02       		.uleb128 0x2
 8329 53bb 91       		.byte	0x91
 8330 53bc 6C       		.sleb128 -20
 8331 53bd 00       		.byte	0
 8332 53be 62       		.uleb128 0x62
 8333 53bf 2F4F0000 		.long	0x4f2f
 8334 53c3 03       		.byte	0x3
 8335 53c4 58       		.byte	0x58
 8336 53c5 080F0000 		.long	LFB1439
 8337 53c9 05050000 		.long	LFE1439-LFB1439
 8338 53cd 01       		.uleb128 0x1
 8339 53ce 9C       		.byte	0x9c
 8340 53cf D7530000 		.long	0x53d7
 8341 53d3 34540000 		.long	0x5434
 8342 53d7 63       		.uleb128 0x63
 8343 53d8 99000000 		.secrel32	LASF37
 8344 53dc 86500000 		.long	0x5086
 8345 53e0 03       		.uleb128 0x3
 8346 53e1 91       		.byte	0x91
 8347 53e2 EC7D     		.sleb128 -276
 8348 53e4 5D       		.uleb128 0x5d
 8349 53e5 79656172 		.ascii "year\0"
 8349      00
 8350 53ea 03       		.byte	0x3
 8351 53eb 58       		.byte	0x58
 8352 53ec 302E0000 		.long	0x2e30
 8353 53f0 03       		.uleb128 0x3
 8354 53f1 91       		.byte	0x91
 8355 53f2 00       		.sleb128 0
 8356 53f3 06       		.byte	0x6
 8357 53f4 64       		.uleb128 0x64
 8358 53f5 520F0000 		.long	LBB27
 8359 53f9 AA040000 		.long	LBE27-LBB27
 8360 53fd 65       		.uleb128 0x65
 8361 53fe 746D7059 		.ascii "tmpYear\0"
 8361      65617200 
 8362 5406 03       		.byte	0x3
 8363 5407 5F       		.byte	0x5f
 8364 5408 89010000 		.long	0x189
 8365 540c 03       		.uleb128 0x3
 8366 540d 91       		.byte	0x91
 8367 540e B87F     		.sleb128 -72
 8368 5410 65       		.uleb128 0x65
 8369 5411 73696E31 		.ascii "sin1\0"
 8369      00
 8370 5416 03       		.byte	0x3
 8371 5417 63       		.byte	0x63
 8372 5418 51360000 		.long	0x3651
 8373 541c 03       		.uleb128 0x3
 8374 541d 91       		.byte	0x91
 8375 541e FC7D     		.sleb128 -260
 8376 5420 66       		.uleb128 0x66
 8377 5421 78000000 		.secrel32	Ldebug_ranges0+0x78
 8378 5425 65       		.uleb128 0x65
 8379 5426 6900     		.ascii "i\0"
GAS LISTING C:\Users\NJLLMR~1\AppData\Local\Temp\cc3wbcxt.s 			page 190


 8380 5428 03       		.byte	0x3
 8381 5429 5A       		.byte	0x5a
 8382 542a 08010000 		.long	0x108
 8383 542e 02       		.uleb128 0x2
 8384 542f 91       		.byte	0x91
 8385 5430 5C       		.sleb128 -36
 8386 5431 00       		.byte	0
 8387 5432 00       		.byte	0
 8388 5433 00       		.byte	0
 8389 5434 68       		.uleb128 0x68
 8390 5435 5F5F7463 		.ascii "__tcf_0\0"
 8390      665F3000 
 8391 543d 0D140000 		.long	LFB1535
 8392 5441 12000000 		.long	LFE1535-LFB1535
 8393 5445 01       		.uleb128 0x1
 8394 5446 9C       		.byte	0x9c
 8395 5447 69       		.uleb128 0x69
 8396 5448 5F5F7374 		.ascii "__static_initialization_and_destruction_0\0"
 8396      61746963 
 8396      5F696E69 
 8396      7469616C 
 8396      697A6174 
 8397 5472 1F140000 		.long	LFB1534
 8398 5476 2D000000 		.long	LFE1534-LFB1534
 8399 547a 01       		.uleb128 0x1
 8400 547b 9C       		.byte	0x9c
 8401 547c AF540000 		.long	0x54af
 8402 5480 5D       		.uleb128 0x5d
 8403 5481 5F5F696E 		.ascii "__initialize_p\0"
 8403      69746961 
 8403      6C697A65 
 8403      5F7000
 8404 5490 03       		.byte	0x3
 8405 5491 6E       		.byte	0x6e
 8406 5492 89010000 		.long	0x189
 8407 5496 02       		.uleb128 0x2
 8408 5497 91       		.byte	0x91
 8409 5498 00       		.sleb128 0
 8410 5499 5D       		.uleb128 0x5d
 8411 549a 5F5F7072 		.ascii "__priority\0"
 8411      696F7269 
 8411      747900
 8412 54a5 03       		.byte	0x3
 8413 54a6 6E       		.byte	0x6e
 8414 54a7 89010000 		.long	0x189
 8415 54ab 02       		.uleb128 0x2
 8416 54ac 91       		.byte	0x91
 8417 54ad 04       		.sleb128 4
 8418 54ae 00       		.byte	0
 8419 54af 68       		.uleb128 0x68
 8420 54b0 5F474C4F 		.ascii "_GLOBAL__sub_I__ZN8Validate13validateInputESs\0"
 8420      42414C5F 
 8420      5F737562 
 8420      5F495F5F 
 8420      5A4E3856 
 8421 54de 4C140000 		.long	LFB1536
 8422 54e2 1C000000 		.long	LFE1536-LFB1536
GAS LISTING C:\Users\NJLLMR~1\AppData\Local\Temp\cc3wbcxt.s 			page 191


 8423 54e6 01       		.uleb128 0x1
 8424 54e7 9C       		.byte	0x9c
 8425 54e8 53       		.uleb128 0x53
 8426 54e9 BA010000 		.long	0x1ba
 8427 54ed F3540000 		.long	0x54f3
 8428 54f1 54       		.uleb128 0x54
 8429 54f2 00       		.byte	0
 8430 54f3 6A       		.uleb128 0x6a
 8431 54f4 5F696F62 		.ascii "_iob\0"
 8431      00
 8432 54f9 21       		.byte	0x21
 8433 54fa 9A       		.byte	0x9a
 8434 54fb E8540000 		.long	0x54e8
 8435 54ff 6B       		.uleb128 0x6b
 8436 5500 D8360000 		.long	0x36d8
 8437 5504 05       		.uleb128 0x5
 8438 5505 03       		.byte	0x3
 8439 5506 00000000 		.long	__ZStL8__ioinit
 8440 550a 6C       		.uleb128 0x6c
 8441 550b 4B410000 		.long	0x414b
 8442 550f 5F5A4E39 		.ascii "_ZN9__gnu_cxx24__numeric_traits_integerIiE5__minE\0"
 8442      5F5F676E 
 8442      755F6378 
 8442      7832345F 
 8442      5F6E756D 
 8443 5541 80808080 		.sleb128 -2147483648
 8443      78
 8444 5546 6D       		.uleb128 0x6d
 8445 5547 56410000 		.long	0x4156
 8446 554b 5F5A4E39 		.ascii "_ZN9__gnu_cxx24__numeric_traits_integerIiE5__maxE\0"
 8446      5F5F676E 
 8446      755F6378 
 8446      7832345F 
 8446      5F6E756D 
 8447 557d FFFFFF7F 		.long	0x7fffffff
 8448 5581 6E       		.uleb128 0x6e
 8449 5582 A2420000 		.long	0x42a2
 8450 5586 5F5A4E39 		.ascii "_ZN9__gnu_cxx24__numeric_traits_integerImE8__digitsE\0"
 8450      5F5F676E 
 8450      755F6378 
 8450      7832345F 
 8450      5F6E756D 
 8451 55bb 20       		.byte	0x20
 8452 55bc 6E       		.uleb128 0x6e
 8453 55bd E9420000 		.long	0x42e9
 8454 55c1 5F5A4E39 		.ascii "_ZN9__gnu_cxx24__numeric_traits_integerIcE5__maxE\0"
 8454      5F5F676E 
 8454      755F6378 
 8454      7832345F 
 8454      5F6E756D 
 8455 55f3 7F       		.byte	0x7f
 8456 55f4 6C       		.uleb128 0x6c
 8457 55f5 3C430000 		.long	0x433c
 8458 55f9 5F5A4E39 		.ascii "_ZN9__gnu_cxx24__numeric_traits_integerIsE5__minE\0"
 8458      5F5F676E 
 8458      755F6378 
 8458      7832345F 
GAS LISTING C:\Users\NJLLMR~1\AppData\Local\Temp\cc3wbcxt.s 			page 192


 8458      5F6E756D 
 8459 562b 80807E   		.sleb128 -32768
 8460 562e 6F       		.uleb128 0x6f
 8461 562f 47430000 		.long	0x4347
 8462 5633 5F5A4E39 		.ascii "_ZN9__gnu_cxx24__numeric_traits_integerIsE5__maxE\0"
 8462      5F5F676E 
 8462      755F6378 
 8462      7832345F 
 8462      5F6E756D 
 8463 5665 FF7F     		.word	0x7fff
 8464 5667 00       		.byte	0
 8465              		.section	.debug_abbrev,"dr"
 8466              	Ldebug_abbrev0:
 8467 0000 01       		.uleb128 0x1
 8468 0001 11       		.uleb128 0x11
 8469 0002 01       		.byte	0x1
 8470 0003 25       		.uleb128 0x25
 8471 0004 08       		.uleb128 0x8
 8472 0005 13       		.uleb128 0x13
 8473 0006 0B       		.uleb128 0xb
 8474 0007 03       		.uleb128 0x3
 8475 0008 08       		.uleb128 0x8
 8476 0009 1B       		.uleb128 0x1b
 8477 000a 08       		.uleb128 0x8
 8478 000b 55       		.uleb128 0x55
 8479 000c 17       		.uleb128 0x17
 8480 000d 11       		.uleb128 0x11
 8481 000e 01       		.uleb128 0x1
 8482 000f 10       		.uleb128 0x10
 8483 0010 17       		.uleb128 0x17
 8484 0011 00       		.byte	0
 8485 0012 00       		.byte	0
 8486 0013 02       		.uleb128 0x2
 8487 0014 16       		.uleb128 0x16
 8488 0015 00       		.byte	0
 8489 0016 03       		.uleb128 0x3
 8490 0017 08       		.uleb128 0x8
 8491 0018 3A       		.uleb128 0x3a
 8492 0019 0B       		.uleb128 0xb
 8493 001a 3B       		.uleb128 0x3b
 8494 001b 0B       		.uleb128 0xb
 8495 001c 49       		.uleb128 0x49
 8496 001d 13       		.uleb128 0x13
 8497 001e 00       		.byte	0
 8498 001f 00       		.byte	0
 8499 0020 03       		.uleb128 0x3
 8500 0021 24       		.uleb128 0x24
 8501 0022 00       		.byte	0
 8502 0023 0B       		.uleb128 0xb
 8503 0024 0B       		.uleb128 0xb
 8504 0025 3E       		.uleb128 0x3e
 8505 0026 0B       		.uleb128 0xb
 8506 0027 03       		.uleb128 0x3
 8507 0028 08       		.uleb128 0x8
 8508 0029 00       		.byte	0
 8509 002a 00       		.byte	0
 8510 002b 04       		.uleb128 0x4
GAS LISTING C:\Users\NJLLMR~1\AppData\Local\Temp\cc3wbcxt.s 			page 193


 8511 002c 16       		.uleb128 0x16
 8512 002d 00       		.byte	0
 8513 002e 03       		.uleb128 0x3
 8514 002f 08       		.uleb128 0x8
 8515 0030 3A       		.uleb128 0x3a
 8516 0031 0B       		.uleb128 0xb
 8517 0032 3B       		.uleb128 0x3b
 8518 0033 05       		.uleb128 0x5
 8519 0034 49       		.uleb128 0x49
 8520 0035 13       		.uleb128 0x13
 8521 0036 00       		.byte	0
 8522 0037 00       		.byte	0
 8523 0038 05       		.uleb128 0x5
 8524 0039 0F       		.uleb128 0xf
 8525 003a 00       		.byte	0
 8526 003b 0B       		.uleb128 0xb
 8527 003c 0B       		.uleb128 0xb
 8528 003d 03       		.uleb128 0x3
 8529 003e 08       		.uleb128 0x8
 8530 003f 49       		.uleb128 0x49
 8531 0040 13       		.uleb128 0x13
 8532 0041 00       		.byte	0
 8533 0042 00       		.byte	0
 8534 0043 06       		.uleb128 0x6
 8535 0044 13       		.uleb128 0x13
 8536 0045 01       		.byte	0x1
 8537 0046 03       		.uleb128 0x3
 8538 0047 08       		.uleb128 0x8
 8539 0048 0B       		.uleb128 0xb
 8540 0049 0B       		.uleb128 0xb
 8541 004a 3A       		.uleb128 0x3a
 8542 004b 0B       		.uleb128 0xb
 8543 004c 3B       		.uleb128 0x3b
 8544 004d 0B       		.uleb128 0xb
 8545 004e 01       		.uleb128 0x1
 8546 004f 13       		.uleb128 0x13
 8547 0050 00       		.byte	0
 8548 0051 00       		.byte	0
 8549 0052 07       		.uleb128 0x7
 8550 0053 0D       		.uleb128 0xd
 8551 0054 00       		.byte	0
 8552 0055 03       		.uleb128 0x3
 8553 0056 08       		.uleb128 0x8
 8554 0057 3A       		.uleb128 0x3a
 8555 0058 0B       		.uleb128 0xb
 8556 0059 3B       		.uleb128 0x3b
 8557 005a 0B       		.uleb128 0xb
 8558 005b 49       		.uleb128 0x49
 8559 005c 13       		.uleb128 0x13
 8560 005d 38       		.uleb128 0x38
 8561 005e 0B       		.uleb128 0xb
 8562 005f 00       		.byte	0
 8563 0060 00       		.byte	0
 8564 0061 08       		.uleb128 0x8
 8565 0062 0F       		.uleb128 0xf
 8566 0063 00       		.byte	0
 8567 0064 0B       		.uleb128 0xb
GAS LISTING C:\Users\NJLLMR~1\AppData\Local\Temp\cc3wbcxt.s 			page 194


 8568 0065 0B       		.uleb128 0xb
 8569 0066 49       		.uleb128 0x49
 8570 0067 13       		.uleb128 0x13
 8571 0068 00       		.byte	0
 8572 0069 00       		.byte	0
 8573 006a 09       		.uleb128 0x9
 8574 006b 39       		.uleb128 0x39
 8575 006c 01       		.byte	0x1
 8576 006d 03       		.uleb128 0x3
 8577 006e 08       		.uleb128 0x8
 8578 006f 3A       		.uleb128 0x3a
 8579 0070 0B       		.uleb128 0xb
 8580 0071 3B       		.uleb128 0x3b
 8581 0072 0B       		.uleb128 0xb
 8582 0073 01       		.uleb128 0x1
 8583 0074 13       		.uleb128 0x13
 8584 0075 00       		.byte	0
 8585 0076 00       		.byte	0
 8586 0077 0A       		.uleb128 0xa
 8587 0078 08       		.uleb128 0x8
 8588 0079 00       		.byte	0
 8589 007a 3A       		.uleb128 0x3a
 8590 007b 0B       		.uleb128 0xb
 8591 007c 3B       		.uleb128 0x3b
 8592 007d 0B       		.uleb128 0xb
 8593 007e 18       		.uleb128 0x18
 8594 007f 13       		.uleb128 0x13
 8595 0080 00       		.byte	0
 8596 0081 00       		.byte	0
 8597 0082 0B       		.uleb128 0xb
 8598 0083 08       		.uleb128 0x8
 8599 0084 00       		.byte	0
 8600 0085 3A       		.uleb128 0x3a
 8601 0086 0B       		.uleb128 0xb
 8602 0087 3B       		.uleb128 0x3b
 8603 0088 05       		.uleb128 0x5
 8604 0089 18       		.uleb128 0x18
 8605 008a 13       		.uleb128 0x13
 8606 008b 00       		.byte	0
 8607 008c 00       		.byte	0
 8608 008d 0C       		.uleb128 0xc
 8609 008e 04       		.uleb128 0x4
 8610 008f 01       		.byte	0x1
 8611 0090 0B       		.uleb128 0xb
 8612 0091 0B       		.uleb128 0xb
 8613 0092 3A       		.uleb128 0x3a
 8614 0093 0B       		.uleb128 0xb
 8615 0094 3B       		.uleb128 0x3b
 8616 0095 0B       		.uleb128 0xb
 8617 0096 00       		.byte	0
 8618 0097 00       		.byte	0
 8619 0098 0D       		.uleb128 0xd
 8620 0099 28       		.uleb128 0x28
 8621 009a 00       		.byte	0
 8622 009b 03       		.uleb128 0x3
 8623 009c 0E       		.uleb128 0xe
 8624 009d 1C       		.uleb128 0x1c
GAS LISTING C:\Users\NJLLMR~1\AppData\Local\Temp\cc3wbcxt.s 			page 195


 8625 009e 0D       		.uleb128 0xd
 8626 009f 00       		.byte	0
 8627 00a0 00       		.byte	0
 8628 00a1 0E       		.uleb128 0xe
 8629 00a2 39       		.uleb128 0x39
 8630 00a3 00       		.byte	0
 8631 00a4 03       		.uleb128 0x3
 8632 00a5 08       		.uleb128 0x8
 8633 00a6 3A       		.uleb128 0x3a
 8634 00a7 0B       		.uleb128 0xb
 8635 00a8 3B       		.uleb128 0x3b
 8636 00a9 0B       		.uleb128 0xb
 8637 00aa 00       		.byte	0
 8638 00ab 00       		.byte	0
 8639 00ac 0F       		.uleb128 0xf
 8640 00ad 2E       		.uleb128 0x2e
 8641 00ae 01       		.byte	0x1
 8642 00af 3F       		.uleb128 0x3f
 8643 00b0 19       		.uleb128 0x19
 8644 00b1 03       		.uleb128 0x3
 8645 00b2 0E       		.uleb128 0xe
 8646 00b3 3A       		.uleb128 0x3a
 8647 00b4 0B       		.uleb128 0xb
 8648 00b5 3B       		.uleb128 0x3b
 8649 00b6 0B       		.uleb128 0xb
 8650 00b7 6E       		.uleb128 0x6e
 8651 00b8 08       		.uleb128 0x8
 8652 00b9 3C       		.uleb128 0x3c
 8653 00ba 19       		.uleb128 0x19
 8654 00bb 01       		.uleb128 0x1
 8655 00bc 13       		.uleb128 0x13
 8656 00bd 00       		.byte	0
 8657 00be 00       		.byte	0
 8658 00bf 10       		.uleb128 0x10
 8659 00c0 05       		.uleb128 0x5
 8660 00c1 00       		.byte	0
 8661 00c2 49       		.uleb128 0x49
 8662 00c3 13       		.uleb128 0x13
 8663 00c4 00       		.byte	0
 8664 00c5 00       		.byte	0
 8665 00c6 11       		.uleb128 0x11
 8666 00c7 26       		.uleb128 0x26
 8667 00c8 00       		.byte	0
 8668 00c9 49       		.uleb128 0x49
 8669 00ca 13       		.uleb128 0x13
 8670 00cb 00       		.byte	0
 8671 00cc 00       		.byte	0
 8672 00cd 12       		.uleb128 0x12
 8673 00ce 2E       		.uleb128 0x2e
 8674 00cf 01       		.byte	0x1
 8675 00d0 3F       		.uleb128 0x3f
 8676 00d1 19       		.uleb128 0x19
 8677 00d2 03       		.uleb128 0x3
 8678 00d3 08       		.uleb128 0x8
 8679 00d4 3A       		.uleb128 0x3a
 8680 00d5 0B       		.uleb128 0xb
 8681 00d6 3B       		.uleb128 0x3b
GAS LISTING C:\Users\NJLLMR~1\AppData\Local\Temp\cc3wbcxt.s 			page 196


 8682 00d7 0B       		.uleb128 0xb
 8683 00d8 6E       		.uleb128 0x6e
 8684 00d9 08       		.uleb128 0x8
 8685 00da 49       		.uleb128 0x49
 8686 00db 13       		.uleb128 0x13
 8687 00dc 3C       		.uleb128 0x3c
 8688 00dd 19       		.uleb128 0x19
 8689 00de 01       		.uleb128 0x1
 8690 00df 13       		.uleb128 0x13
 8691 00e0 00       		.byte	0
 8692 00e1 00       		.byte	0
 8693 00e2 13       		.uleb128 0x13
 8694 00e3 2E       		.uleb128 0x2e
 8695 00e4 01       		.byte	0x1
 8696 00e5 3F       		.uleb128 0x3f
 8697 00e6 19       		.uleb128 0x19
 8698 00e7 03       		.uleb128 0x3
 8699 00e8 0E       		.uleb128 0xe
 8700 00e9 3A       		.uleb128 0x3a
 8701 00ea 0B       		.uleb128 0xb
 8702 00eb 3B       		.uleb128 0x3b
 8703 00ec 05       		.uleb128 0x5
 8704 00ed 6E       		.uleb128 0x6e
 8705 00ee 08       		.uleb128 0x8
 8706 00ef 49       		.uleb128 0x49
 8707 00f0 13       		.uleb128 0x13
 8708 00f1 3C       		.uleb128 0x3c
 8709 00f2 19       		.uleb128 0x19
 8710 00f3 01       		.uleb128 0x1
 8711 00f4 13       		.uleb128 0x13
 8712 00f5 00       		.byte	0
 8713 00f6 00       		.byte	0
 8714 00f7 14       		.uleb128 0x14
 8715 00f8 2E       		.uleb128 0x2e
 8716 00f9 01       		.byte	0x1
 8717 00fa 3F       		.uleb128 0x3f
 8718 00fb 19       		.uleb128 0x19
 8719 00fc 03       		.uleb128 0x3
 8720 00fd 08       		.uleb128 0x8
 8721 00fe 3A       		.uleb128 0x3a
 8722 00ff 0B       		.uleb128 0xb
 8723 0100 3B       		.uleb128 0x3b
 8724 0101 05       		.uleb128 0x5
 8725 0102 6E       		.uleb128 0x6e
 8726 0103 08       		.uleb128 0x8
 8727 0104 49       		.uleb128 0x49
 8728 0105 13       		.uleb128 0x13
 8729 0106 3C       		.uleb128 0x3c
 8730 0107 19       		.uleb128 0x19
 8731 0108 01       		.uleb128 0x1
 8732 0109 13       		.uleb128 0x13
 8733 010a 00       		.byte	0
 8734 010b 00       		.byte	0
 8735 010c 15       		.uleb128 0x15
 8736 010d 2E       		.uleb128 0x2e
 8737 010e 00       		.byte	0
 8738 010f 3F       		.uleb128 0x3f
GAS LISTING C:\Users\NJLLMR~1\AppData\Local\Temp\cc3wbcxt.s 			page 197


 8739 0110 19       		.uleb128 0x19
 8740 0111 03       		.uleb128 0x3
 8741 0112 08       		.uleb128 0x8
 8742 0113 3A       		.uleb128 0x3a
 8743 0114 0B       		.uleb128 0xb
 8744 0115 3B       		.uleb128 0x3b
 8745 0116 05       		.uleb128 0x5
 8746 0117 6E       		.uleb128 0x6e
 8747 0118 08       		.uleb128 0x8
 8748 0119 49       		.uleb128 0x49
 8749 011a 13       		.uleb128 0x13
 8750 011b 3C       		.uleb128 0x3c
 8751 011c 19       		.uleb128 0x19
 8752 011d 00       		.byte	0
 8753 011e 00       		.byte	0
 8754 011f 16       		.uleb128 0x16
 8755 0120 2E       		.uleb128 0x2e
 8756 0121 01       		.byte	0x1
 8757 0122 3F       		.uleb128 0x3f
 8758 0123 19       		.uleb128 0x19
 8759 0124 03       		.uleb128 0x3
 8760 0125 08       		.uleb128 0x8
 8761 0126 3A       		.uleb128 0x3a
 8762 0127 0B       		.uleb128 0xb
 8763 0128 3B       		.uleb128 0x3b
 8764 0129 05       		.uleb128 0x5
 8765 012a 6E       		.uleb128 0x6e
 8766 012b 08       		.uleb128 0x8
 8767 012c 49       		.uleb128 0x49
 8768 012d 13       		.uleb128 0x13
 8769 012e 3C       		.uleb128 0x3c
 8770 012f 19       		.uleb128 0x19
 8771 0130 00       		.byte	0
 8772 0131 00       		.byte	0
 8773 0132 17       		.uleb128 0x17
 8774 0133 02       		.uleb128 0x2
 8775 0134 01       		.byte	0x1
 8776 0135 03       		.uleb128 0x3
 8777 0136 08       		.uleb128 0x8
 8778 0137 0B       		.uleb128 0xb
 8779 0138 0B       		.uleb128 0xb
 8780 0139 3A       		.uleb128 0x3a
 8781 013a 0B       		.uleb128 0xb
 8782 013b 3B       		.uleb128 0x3b
 8783 013c 0B       		.uleb128 0xb
 8784 013d 01       		.uleb128 0x1
 8785 013e 13       		.uleb128 0x13
 8786 013f 00       		.byte	0
 8787 0140 00       		.byte	0
 8788 0141 18       		.uleb128 0x18
 8789 0142 1C       		.uleb128 0x1c
 8790 0143 00       		.byte	0
 8791 0144 49       		.uleb128 0x49
 8792 0145 13       		.uleb128 0x13
 8793 0146 38       		.uleb128 0x38
 8794 0147 0B       		.uleb128 0xb
 8795 0148 32       		.uleb128 0x32
GAS LISTING C:\Users\NJLLMR~1\AppData\Local\Temp\cc3wbcxt.s 			page 198


 8796 0149 0B       		.uleb128 0xb
 8797 014a 00       		.byte	0
 8798 014b 00       		.byte	0
 8799 014c 19       		.uleb128 0x19
 8800 014d 16       		.uleb128 0x16
 8801 014e 00       		.byte	0
 8802 014f 03       		.uleb128 0x3
 8803 0150 0E       		.uleb128 0xe
 8804 0151 3A       		.uleb128 0x3a
 8805 0152 0B       		.uleb128 0xb
 8806 0153 3B       		.uleb128 0x3b
 8807 0154 0B       		.uleb128 0xb
 8808 0155 49       		.uleb128 0x49
 8809 0156 13       		.uleb128 0x13
 8810 0157 32       		.uleb128 0x32
 8811 0158 0B       		.uleb128 0xb
 8812 0159 00       		.byte	0
 8813 015a 00       		.byte	0
 8814 015b 1A       		.uleb128 0x1a
 8815 015c 2E       		.uleb128 0x2e
 8816 015d 01       		.byte	0x1
 8817 015e 3F       		.uleb128 0x3f
 8818 015f 19       		.uleb128 0x19
 8819 0160 03       		.uleb128 0x3
 8820 0161 0E       		.uleb128 0xe
 8821 0162 3A       		.uleb128 0x3a
 8822 0163 0B       		.uleb128 0xb
 8823 0164 3B       		.uleb128 0x3b
 8824 0165 0B       		.uleb128 0xb
 8825 0166 32       		.uleb128 0x32
 8826 0167 0B       		.uleb128 0xb
 8827 0168 3C       		.uleb128 0x3c
 8828 0169 19       		.uleb128 0x19
 8829 016a 64       		.uleb128 0x64
 8830 016b 13       		.uleb128 0x13
 8831 016c 01       		.uleb128 0x1
 8832 016d 13       		.uleb128 0x13
 8833 016e 00       		.byte	0
 8834 016f 00       		.byte	0
 8835 0170 1B       		.uleb128 0x1b
 8836 0171 05       		.uleb128 0x5
 8837 0172 00       		.byte	0
 8838 0173 49       		.uleb128 0x49
 8839 0174 13       		.uleb128 0x13
 8840 0175 34       		.uleb128 0x34
 8841 0176 19       		.uleb128 0x19
 8842 0177 00       		.byte	0
 8843 0178 00       		.byte	0
 8844 0179 1C       		.uleb128 0x1c
 8845 017a 2E       		.uleb128 0x2e
 8846 017b 01       		.byte	0x1
 8847 017c 3F       		.uleb128 0x3f
 8848 017d 19       		.uleb128 0x19
 8849 017e 03       		.uleb128 0x3
 8850 017f 08       		.uleb128 0x8
 8851 0180 3A       		.uleb128 0x3a
 8852 0181 0B       		.uleb128 0xb
GAS LISTING C:\Users\NJLLMR~1\AppData\Local\Temp\cc3wbcxt.s 			page 199


 8853 0182 3B       		.uleb128 0x3b
 8854 0183 0B       		.uleb128 0xb
 8855 0184 32       		.uleb128 0x32
 8856 0185 0B       		.uleb128 0xb
 8857 0186 3C       		.uleb128 0x3c
 8858 0187 19       		.uleb128 0x19
 8859 0188 64       		.uleb128 0x64
 8860 0189 13       		.uleb128 0x13
 8861 018a 00       		.byte	0
 8862 018b 00       		.byte	0
 8863 018c 1D       		.uleb128 0x1d
 8864 018d 13       		.uleb128 0x13
 8865 018e 01       		.byte	0x1
 8866 018f 03       		.uleb128 0x3
 8867 0190 0E       		.uleb128 0xe
 8868 0191 0B       		.uleb128 0xb
 8869 0192 0B       		.uleb128 0xb
 8870 0193 3A       		.uleb128 0x3a
 8871 0194 0B       		.uleb128 0xb
 8872 0195 3B       		.uleb128 0x3b
 8873 0196 05       		.uleb128 0x5
 8874 0197 01       		.uleb128 0x1
 8875 0198 13       		.uleb128 0x13
 8876 0199 00       		.byte	0
 8877 019a 00       		.byte	0
 8878 019b 1E       		.uleb128 0x1e
 8879 019c 1C       		.uleb128 0x1c
 8880 019d 00       		.byte	0
 8881 019e 49       		.uleb128 0x49
 8882 019f 13       		.uleb128 0x13
 8883 01a0 38       		.uleb128 0x38
 8884 01a1 0B       		.uleb128 0xb
 8885 01a2 00       		.byte	0
 8886 01a3 00       		.byte	0
 8887 01a4 1F       		.uleb128 0x1f
 8888 01a5 0D       		.uleb128 0xd
 8889 01a6 00       		.byte	0
 8890 01a7 03       		.uleb128 0x3
 8891 01a8 08       		.uleb128 0x8
 8892 01a9 3A       		.uleb128 0x3a
 8893 01aa 0B       		.uleb128 0xb
 8894 01ab 3B       		.uleb128 0x3b
 8895 01ac 05       		.uleb128 0x5
 8896 01ad 49       		.uleb128 0x49
 8897 01ae 13       		.uleb128 0x13
 8898 01af 38       		.uleb128 0x38
 8899 01b0 0B       		.uleb128 0xb
 8900 01b1 00       		.byte	0
 8901 01b2 00       		.byte	0
 8902 01b3 20       		.uleb128 0x20
 8903 01b4 2E       		.uleb128 0x2e
 8904 01b5 01       		.byte	0x1
 8905 01b6 3F       		.uleb128 0x3f
 8906 01b7 19       		.uleb128 0x19
 8907 01b8 03       		.uleb128 0x3
 8908 01b9 0E       		.uleb128 0xe
 8909 01ba 3A       		.uleb128 0x3a
GAS LISTING C:\Users\NJLLMR~1\AppData\Local\Temp\cc3wbcxt.s 			page 200


 8910 01bb 0B       		.uleb128 0xb
 8911 01bc 3B       		.uleb128 0x3b
 8912 01bd 05       		.uleb128 0x5
 8913 01be 3C       		.uleb128 0x3c
 8914 01bf 19       		.uleb128 0x19
 8915 01c0 64       		.uleb128 0x64
 8916 01c1 13       		.uleb128 0x13
 8917 01c2 00       		.byte	0
 8918 01c3 00       		.byte	0
 8919 01c4 21       		.uleb128 0x21
 8920 01c5 0D       		.uleb128 0xd
 8921 01c6 00       		.byte	0
 8922 01c7 03       		.uleb128 0x3
 8923 01c8 08       		.uleb128 0x8
 8924 01c9 3A       		.uleb128 0x3a
 8925 01ca 0B       		.uleb128 0xb
 8926 01cb 3B       		.uleb128 0x3b
 8927 01cc 05       		.uleb128 0x5
 8928 01cd 49       		.uleb128 0x49
 8929 01ce 13       		.uleb128 0x13
 8930 01cf 3F       		.uleb128 0x3f
 8931 01d0 19       		.uleb128 0x19
 8932 01d1 32       		.uleb128 0x32
 8933 01d2 0B       		.uleb128 0xb
 8934 01d3 3C       		.uleb128 0x3c
 8935 01d4 19       		.uleb128 0x19
 8936 01d5 00       		.byte	0
 8937 01d6 00       		.byte	0
 8938 01d7 22       		.uleb128 0x22
 8939 01d8 16       		.uleb128 0x16
 8940 01d9 00       		.byte	0
 8941 01da 03       		.uleb128 0x3
 8942 01db 08       		.uleb128 0x8
 8943 01dc 3A       		.uleb128 0x3a
 8944 01dd 0B       		.uleb128 0xb
 8945 01de 3B       		.uleb128 0x3b
 8946 01df 0B       		.uleb128 0xb
 8947 01e0 49       		.uleb128 0x49
 8948 01e1 13       		.uleb128 0x13
 8949 01e2 32       		.uleb128 0x32
 8950 01e3 0B       		.uleb128 0xb
 8951 01e4 00       		.byte	0
 8952 01e5 00       		.byte	0
 8953 01e6 23       		.uleb128 0x23
 8954 01e7 0D       		.uleb128 0xd
 8955 01e8 00       		.byte	0
 8956 01e9 03       		.uleb128 0x3
 8957 01ea 08       		.uleb128 0x8
 8958 01eb 3A       		.uleb128 0x3a
 8959 01ec 0B       		.uleb128 0xb
 8960 01ed 3B       		.uleb128 0x3b
 8961 01ee 0B       		.uleb128 0xb
 8962 01ef 49       		.uleb128 0x49
 8963 01f0 13       		.uleb128 0x13
 8964 01f1 3F       		.uleb128 0x3f
 8965 01f2 19       		.uleb128 0x19
 8966 01f3 3C       		.uleb128 0x3c
GAS LISTING C:\Users\NJLLMR~1\AppData\Local\Temp\cc3wbcxt.s 			page 201


 8967 01f4 19       		.uleb128 0x19
 8968 01f5 00       		.byte	0
 8969 01f6 00       		.byte	0
 8970 01f7 24       		.uleb128 0x24
 8971 01f8 2E       		.uleb128 0x2e
 8972 01f9 00       		.byte	0
 8973 01fa 3F       		.uleb128 0x3f
 8974 01fb 19       		.uleb128 0x19
 8975 01fc 03       		.uleb128 0x3
 8976 01fd 0E       		.uleb128 0xe
 8977 01fe 3A       		.uleb128 0x3a
 8978 01ff 0B       		.uleb128 0xb
 8979 0200 3B       		.uleb128 0x3b
 8980 0201 0B       		.uleb128 0xb
 8981 0202 6E       		.uleb128 0x6e
 8982 0203 08       		.uleb128 0x8
 8983 0204 49       		.uleb128 0x49
 8984 0205 13       		.uleb128 0x13
 8985 0206 3C       		.uleb128 0x3c
 8986 0207 19       		.uleb128 0x19
 8987 0208 00       		.byte	0
 8988 0209 00       		.byte	0
 8989 020a 25       		.uleb128 0x25
 8990 020b 2E       		.uleb128 0x2e
 8991 020c 01       		.byte	0x1
 8992 020d 3F       		.uleb128 0x3f
 8993 020e 19       		.uleb128 0x19
 8994 020f 03       		.uleb128 0x3
 8995 0210 08       		.uleb128 0x8
 8996 0211 3A       		.uleb128 0x3a
 8997 0212 0B       		.uleb128 0xb
 8998 0213 3B       		.uleb128 0x3b
 8999 0214 0B       		.uleb128 0xb
 9000 0215 6E       		.uleb128 0x6e
 9001 0216 08       		.uleb128 0x8
 9002 0217 49       		.uleb128 0x49
 9003 0218 13       		.uleb128 0x13
 9004 0219 3C       		.uleb128 0x3c
 9005 021a 19       		.uleb128 0x19
 9006 021b 64       		.uleb128 0x64
 9007 021c 13       		.uleb128 0x13
 9008 021d 01       		.uleb128 0x1
 9009 021e 13       		.uleb128 0x13
 9010 021f 00       		.byte	0
 9011 0220 00       		.byte	0
 9012 0221 26       		.uleb128 0x26
 9013 0222 2E       		.uleb128 0x2e
 9014 0223 01       		.byte	0x1
 9015 0224 3F       		.uleb128 0x3f
 9016 0225 19       		.uleb128 0x19
 9017 0226 03       		.uleb128 0x3
 9018 0227 08       		.uleb128 0x8
 9019 0228 3A       		.uleb128 0x3a
 9020 0229 0B       		.uleb128 0xb
 9021 022a 3B       		.uleb128 0x3b
 9022 022b 0B       		.uleb128 0xb
 9023 022c 6E       		.uleb128 0x6e
GAS LISTING C:\Users\NJLLMR~1\AppData\Local\Temp\cc3wbcxt.s 			page 202


 9024 022d 08       		.uleb128 0x8
 9025 022e 3C       		.uleb128 0x3c
 9026 022f 19       		.uleb128 0x19
 9027 0230 64       		.uleb128 0x64
 9028 0231 13       		.uleb128 0x13
 9029 0232 01       		.uleb128 0x1
 9030 0233 13       		.uleb128 0x13
 9031 0234 00       		.byte	0
 9032 0235 00       		.byte	0
 9033 0236 27       		.uleb128 0x27
 9034 0237 2E       		.uleb128 0x2e
 9035 0238 01       		.byte	0x1
 9036 0239 3F       		.uleb128 0x3f
 9037 023a 19       		.uleb128 0x19
 9038 023b 03       		.uleb128 0x3
 9039 023c 08       		.uleb128 0x8
 9040 023d 3A       		.uleb128 0x3a
 9041 023e 0B       		.uleb128 0xb
 9042 023f 3B       		.uleb128 0x3b
 9043 0240 05       		.uleb128 0x5
 9044 0241 6E       		.uleb128 0x6e
 9045 0242 08       		.uleb128 0x8
 9046 0243 3C       		.uleb128 0x3c
 9047 0244 19       		.uleb128 0x19
 9048 0245 64       		.uleb128 0x64
 9049 0246 13       		.uleb128 0x13
 9050 0247 01       		.uleb128 0x1
 9051 0248 13       		.uleb128 0x13
 9052 0249 00       		.byte	0
 9053 024a 00       		.byte	0
 9054 024b 28       		.uleb128 0x28
 9055 024c 2E       		.uleb128 0x2e
 9056 024d 01       		.byte	0x1
 9057 024e 3F       		.uleb128 0x3f
 9058 024f 19       		.uleb128 0x19
 9059 0250 03       		.uleb128 0x3
 9060 0251 08       		.uleb128 0x8
 9061 0252 3A       		.uleb128 0x3a
 9062 0253 0B       		.uleb128 0xb
 9063 0254 3B       		.uleb128 0x3b
 9064 0255 05       		.uleb128 0x5
 9065 0256 6E       		.uleb128 0x6e
 9066 0257 08       		.uleb128 0x8
 9067 0258 49       		.uleb128 0x49
 9068 0259 13       		.uleb128 0x13
 9069 025a 3C       		.uleb128 0x3c
 9070 025b 19       		.uleb128 0x19
 9071 025c 64       		.uleb128 0x64
 9072 025d 13       		.uleb128 0x13
 9073 025e 01       		.uleb128 0x1
 9074 025f 13       		.uleb128 0x13
 9075 0260 00       		.byte	0
 9076 0261 00       		.byte	0
 9077 0262 29       		.uleb128 0x29
 9078 0263 2E       		.uleb128 0x2e
 9079 0264 01       		.byte	0x1
 9080 0265 3F       		.uleb128 0x3f
GAS LISTING C:\Users\NJLLMR~1\AppData\Local\Temp\cc3wbcxt.s 			page 203


 9081 0266 19       		.uleb128 0x19
 9082 0267 03       		.uleb128 0x3
 9083 0268 08       		.uleb128 0x8
 9084 0269 3A       		.uleb128 0x3a
 9085 026a 0B       		.uleb128 0xb
 9086 026b 3B       		.uleb128 0x3b
 9087 026c 05       		.uleb128 0x5
 9088 026d 6E       		.uleb128 0x6e
 9089 026e 08       		.uleb128 0x8
 9090 026f 49       		.uleb128 0x49
 9091 0270 13       		.uleb128 0x13
 9092 0271 3C       		.uleb128 0x3c
 9093 0272 19       		.uleb128 0x19
 9094 0273 64       		.uleb128 0x64
 9095 0274 13       		.uleb128 0x13
 9096 0275 00       		.byte	0
 9097 0276 00       		.byte	0
 9098 0277 2A       		.uleb128 0x2a
 9099 0278 2E       		.uleb128 0x2e
 9100 0279 01       		.byte	0x1
 9101 027a 3F       		.uleb128 0x3f
 9102 027b 19       		.uleb128 0x19
 9103 027c 03       		.uleb128 0x3
 9104 027d 08       		.uleb128 0x8
 9105 027e 3A       		.uleb128 0x3a
 9106 027f 0B       		.uleb128 0xb
 9107 0280 3B       		.uleb128 0x3b
 9108 0281 05       		.uleb128 0x5
 9109 0282 6E       		.uleb128 0x6e
 9110 0283 08       		.uleb128 0x8
 9111 0284 3C       		.uleb128 0x3c
 9112 0285 19       		.uleb128 0x19
 9113 0286 01       		.uleb128 0x1
 9114 0287 13       		.uleb128 0x13
 9115 0288 00       		.byte	0
 9116 0289 00       		.byte	0
 9117 028a 2B       		.uleb128 0x2b
 9118 028b 2E       		.uleb128 0x2e
 9119 028c 01       		.byte	0x1
 9120 028d 3F       		.uleb128 0x3f
 9121 028e 19       		.uleb128 0x19
 9122 028f 03       		.uleb128 0x3
 9123 0290 0E       		.uleb128 0xe
 9124 0291 3A       		.uleb128 0x3a
 9125 0292 0B       		.uleb128 0xb
 9126 0293 3B       		.uleb128 0x3b
 9127 0294 05       		.uleb128 0x5
 9128 0295 6E       		.uleb128 0x6e
 9129 0296 08       		.uleb128 0x8
 9130 0297 3C       		.uleb128 0x3c
 9131 0298 19       		.uleb128 0x19
 9132 0299 01       		.uleb128 0x1
 9133 029a 13       		.uleb128 0x13
 9134 029b 00       		.byte	0
 9135 029c 00       		.byte	0
 9136 029d 2C       		.uleb128 0x2c
 9137 029e 2E       		.uleb128 0x2e
GAS LISTING C:\Users\NJLLMR~1\AppData\Local\Temp\cc3wbcxt.s 			page 204


 9138 029f 00       		.byte	0
 9139 02a0 3F       		.uleb128 0x3f
 9140 02a1 19       		.uleb128 0x19
 9141 02a2 03       		.uleb128 0x3
 9142 02a3 0E       		.uleb128 0xe
 9143 02a4 3A       		.uleb128 0x3a
 9144 02a5 0B       		.uleb128 0xb
 9145 02a6 3B       		.uleb128 0x3b
 9146 02a7 05       		.uleb128 0x5
 9147 02a8 6E       		.uleb128 0x6e
 9148 02a9 08       		.uleb128 0x8
 9149 02aa 49       		.uleb128 0x49
 9150 02ab 13       		.uleb128 0x13
 9151 02ac 3C       		.uleb128 0x3c
 9152 02ad 19       		.uleb128 0x19
 9153 02ae 00       		.byte	0
 9154 02af 00       		.byte	0
 9155 02b0 2D       		.uleb128 0x2d
 9156 02b1 2E       		.uleb128 0x2e
 9157 02b2 01       		.byte	0x1
 9158 02b3 3F       		.uleb128 0x3f
 9159 02b4 19       		.uleb128 0x19
 9160 02b5 03       		.uleb128 0x3
 9161 02b6 0E       		.uleb128 0xe
 9162 02b7 3A       		.uleb128 0x3a
 9163 02b8 0B       		.uleb128 0xb
 9164 02b9 3B       		.uleb128 0x3b
 9165 02ba 05       		.uleb128 0x5
 9166 02bb 32       		.uleb128 0x32
 9167 02bc 0B       		.uleb128 0xb
 9168 02bd 3C       		.uleb128 0x3c
 9169 02be 19       		.uleb128 0x19
 9170 02bf 64       		.uleb128 0x64
 9171 02c0 13       		.uleb128 0x13
 9172 02c1 01       		.uleb128 0x1
 9173 02c2 13       		.uleb128 0x13
 9174 02c3 00       		.byte	0
 9175 02c4 00       		.byte	0
 9176 02c5 2E       		.uleb128 0x2e
 9177 02c6 2E       		.uleb128 0x2e
 9178 02c7 01       		.byte	0x1
 9179 02c8 3F       		.uleb128 0x3f
 9180 02c9 19       		.uleb128 0x19
 9181 02ca 03       		.uleb128 0x3
 9182 02cb 0E       		.uleb128 0xe
 9183 02cc 3A       		.uleb128 0x3a
 9184 02cd 0B       		.uleb128 0xb
 9185 02ce 3B       		.uleb128 0x3b
 9186 02cf 0B       		.uleb128 0xb
 9187 02d0 32       		.uleb128 0x32
 9188 02d1 0B       		.uleb128 0xb
 9189 02d2 3C       		.uleb128 0x3c
 9190 02d3 19       		.uleb128 0x19
 9191 02d4 63       		.uleb128 0x63
 9192 02d5 19       		.uleb128 0x19
 9193 02d6 64       		.uleb128 0x64
 9194 02d7 13       		.uleb128 0x13
GAS LISTING C:\Users\NJLLMR~1\AppData\Local\Temp\cc3wbcxt.s 			page 205


 9195 02d8 01       		.uleb128 0x1
 9196 02d9 13       		.uleb128 0x13
 9197 02da 00       		.byte	0
 9198 02db 00       		.byte	0
 9199 02dc 2F       		.uleb128 0x2f
 9200 02dd 2E       		.uleb128 0x2e
 9201 02de 01       		.byte	0x1
 9202 02df 3F       		.uleb128 0x3f
 9203 02e0 19       		.uleb128 0x19
 9204 02e1 03       		.uleb128 0x3
 9205 02e2 08       		.uleb128 0x8
 9206 02e3 3A       		.uleb128 0x3a
 9207 02e4 0B       		.uleb128 0xb
 9208 02e5 3B       		.uleb128 0x3b
 9209 02e6 05       		.uleb128 0x5
 9210 02e7 32       		.uleb128 0x32
 9211 02e8 0B       		.uleb128 0xb
 9212 02e9 3C       		.uleb128 0x3c
 9213 02ea 19       		.uleb128 0x19
 9214 02eb 64       		.uleb128 0x64
 9215 02ec 13       		.uleb128 0x13
 9216 02ed 01       		.uleb128 0x1
 9217 02ee 13       		.uleb128 0x13
 9218 02ef 00       		.byte	0
 9219 02f0 00       		.byte	0
 9220 02f1 30       		.uleb128 0x30
 9221 02f2 2E       		.uleb128 0x2e
 9222 02f3 01       		.byte	0x1
 9223 02f4 3F       		.uleb128 0x3f
 9224 02f5 19       		.uleb128 0x19
 9225 02f6 03       		.uleb128 0x3
 9226 02f7 0E       		.uleb128 0xe
 9227 02f8 3A       		.uleb128 0x3a
 9228 02f9 0B       		.uleb128 0xb
 9229 02fa 3B       		.uleb128 0x3b
 9230 02fb 05       		.uleb128 0x5
 9231 02fc 6E       		.uleb128 0x6e
 9232 02fd 08       		.uleb128 0x8
 9233 02fe 49       		.uleb128 0x49
 9234 02ff 13       		.uleb128 0x13
 9235 0300 32       		.uleb128 0x32
 9236 0301 0B       		.uleb128 0xb
 9237 0302 3C       		.uleb128 0x3c
 9238 0303 19       		.uleb128 0x19
 9239 0304 64       		.uleb128 0x64
 9240 0305 13       		.uleb128 0x13
 9241 0306 01       		.uleb128 0x1
 9242 0307 13       		.uleb128 0x13
 9243 0308 00       		.byte	0
 9244 0309 00       		.byte	0
 9245 030a 31       		.uleb128 0x31
 9246 030b 2E       		.uleb128 0x2e
 9247 030c 01       		.byte	0x1
 9248 030d 3F       		.uleb128 0x3f
 9249 030e 19       		.uleb128 0x19
 9250 030f 03       		.uleb128 0x3
 9251 0310 08       		.uleb128 0x8
GAS LISTING C:\Users\NJLLMR~1\AppData\Local\Temp\cc3wbcxt.s 			page 206


 9252 0311 3A       		.uleb128 0x3a
 9253 0312 0B       		.uleb128 0xb
 9254 0313 3B       		.uleb128 0x3b
 9255 0314 05       		.uleb128 0x5
 9256 0315 6E       		.uleb128 0x6e
 9257 0316 08       		.uleb128 0x8
 9258 0317 49       		.uleb128 0x49
 9259 0318 13       		.uleb128 0x13
 9260 0319 32       		.uleb128 0x32
 9261 031a 0B       		.uleb128 0xb
 9262 031b 3C       		.uleb128 0x3c
 9263 031c 19       		.uleb128 0x19
 9264 031d 64       		.uleb128 0x64
 9265 031e 13       		.uleb128 0x13
 9266 031f 01       		.uleb128 0x1
 9267 0320 13       		.uleb128 0x13
 9268 0321 00       		.byte	0
 9269 0322 00       		.byte	0
 9270 0323 32       		.uleb128 0x32
 9271 0324 2E       		.uleb128 0x2e
 9272 0325 01       		.byte	0x1
 9273 0326 3F       		.uleb128 0x3f
 9274 0327 19       		.uleb128 0x19
 9275 0328 03       		.uleb128 0x3
 9276 0329 08       		.uleb128 0x8
 9277 032a 3A       		.uleb128 0x3a
 9278 032b 0B       		.uleb128 0xb
 9279 032c 3B       		.uleb128 0x3b
 9280 032d 05       		.uleb128 0x5
 9281 032e 6E       		.uleb128 0x6e
 9282 032f 08       		.uleb128 0x8
 9283 0330 32       		.uleb128 0x32
 9284 0331 0B       		.uleb128 0xb
 9285 0332 3C       		.uleb128 0x3c
 9286 0333 19       		.uleb128 0x19
 9287 0334 64       		.uleb128 0x64
 9288 0335 13       		.uleb128 0x13
 9289 0336 01       		.uleb128 0x1
 9290 0337 13       		.uleb128 0x13
 9291 0338 00       		.byte	0
 9292 0339 00       		.byte	0
 9293 033a 33       		.uleb128 0x33
 9294 033b 2E       		.uleb128 0x2e
 9295 033c 01       		.byte	0x1
 9296 033d 3F       		.uleb128 0x3f
 9297 033e 19       		.uleb128 0x19
 9298 033f 03       		.uleb128 0x3
 9299 0340 0E       		.uleb128 0xe
 9300 0341 3A       		.uleb128 0x3a
 9301 0342 0B       		.uleb128 0xb
 9302 0343 3B       		.uleb128 0x3b
 9303 0344 0B       		.uleb128 0xb
 9304 0345 6E       		.uleb128 0x6e
 9305 0346 08       		.uleb128 0x8
 9306 0347 49       		.uleb128 0x49
 9307 0348 13       		.uleb128 0x13
 9308 0349 32       		.uleb128 0x32
GAS LISTING C:\Users\NJLLMR~1\AppData\Local\Temp\cc3wbcxt.s 			page 207


 9309 034a 0B       		.uleb128 0xb
 9310 034b 3C       		.uleb128 0x3c
 9311 034c 19       		.uleb128 0x19
 9312 034d 64       		.uleb128 0x64
 9313 034e 13       		.uleb128 0x13
 9314 034f 01       		.uleb128 0x1
 9315 0350 13       		.uleb128 0x13
 9316 0351 00       		.byte	0
 9317 0352 00       		.byte	0
 9318 0353 34       		.uleb128 0x34
 9319 0354 2E       		.uleb128 0x2e
 9320 0355 01       		.byte	0x1
 9321 0356 3F       		.uleb128 0x3f
 9322 0357 19       		.uleb128 0x19
 9323 0358 03       		.uleb128 0x3
 9324 0359 0E       		.uleb128 0xe
 9325 035a 3A       		.uleb128 0x3a
 9326 035b 0B       		.uleb128 0xb
 9327 035c 3B       		.uleb128 0x3b
 9328 035d 05       		.uleb128 0x5
 9329 035e 6E       		.uleb128 0x6e
 9330 035f 08       		.uleb128 0x8
 9331 0360 32       		.uleb128 0x32
 9332 0361 0B       		.uleb128 0xb
 9333 0362 3C       		.uleb128 0x3c
 9334 0363 19       		.uleb128 0x19
 9335 0364 64       		.uleb128 0x64
 9336 0365 13       		.uleb128 0x13
 9337 0366 01       		.uleb128 0x1
 9338 0367 13       		.uleb128 0x13
 9339 0368 00       		.byte	0
 9340 0369 00       		.byte	0
 9341 036a 35       		.uleb128 0x35
 9342 036b 2F       		.uleb128 0x2f
 9343 036c 00       		.byte	0
 9344 036d 03       		.uleb128 0x3
 9345 036e 08       		.uleb128 0x8
 9346 036f 49       		.uleb128 0x49
 9347 0370 13       		.uleb128 0x13
 9348 0371 00       		.byte	0
 9349 0372 00       		.byte	0
 9350 0373 36       		.uleb128 0x36
 9351 0374 2F       		.uleb128 0x2f
 9352 0375 00       		.byte	0
 9353 0376 03       		.uleb128 0x3
 9354 0377 08       		.uleb128 0x8
 9355 0378 49       		.uleb128 0x49
 9356 0379 13       		.uleb128 0x13
 9357 037a 1E       		.uleb128 0x1e
 9358 037b 19       		.uleb128 0x19
 9359 037c 00       		.byte	0
 9360 037d 00       		.byte	0
 9361 037e 37       		.uleb128 0x37
 9362 037f 02       		.uleb128 0x2
 9363 0380 00       		.byte	0
 9364 0381 03       		.uleb128 0x3
 9365 0382 08       		.uleb128 0x8
GAS LISTING C:\Users\NJLLMR~1\AppData\Local\Temp\cc3wbcxt.s 			page 208


 9366 0383 3C       		.uleb128 0x3c
 9367 0384 19       		.uleb128 0x19
 9368 0385 00       		.byte	0
 9369 0386 00       		.byte	0
 9370 0387 38       		.uleb128 0x38
 9371 0388 04       		.uleb128 0x4
 9372 0389 01       		.byte	0x1
 9373 038a 03       		.uleb128 0x3
 9374 038b 08       		.uleb128 0x8
 9375 038c 0B       		.uleb128 0xb
 9376 038d 0B       		.uleb128 0xb
 9377 038e 3A       		.uleb128 0x3a
 9378 038f 0B       		.uleb128 0xb
 9379 0390 3B       		.uleb128 0x3b
 9380 0391 0B       		.uleb128 0xb
 9381 0392 01       		.uleb128 0x1
 9382 0393 13       		.uleb128 0x13
 9383 0394 00       		.byte	0
 9384 0395 00       		.byte	0
 9385 0396 39       		.uleb128 0x39
 9386 0397 28       		.uleb128 0x28
 9387 0398 00       		.byte	0
 9388 0399 03       		.uleb128 0x3
 9389 039a 08       		.uleb128 0x8
 9390 039b 1C       		.uleb128 0x1c
 9391 039c 0D       		.uleb128 0xd
 9392 039d 00       		.byte	0
 9393 039e 00       		.byte	0
 9394 039f 3A       		.uleb128 0x3a
 9395 03a0 02       		.uleb128 0x2
 9396 03a1 01       		.byte	0x1
 9397 03a2 03       		.uleb128 0x3
 9398 03a3 08       		.uleb128 0x8
 9399 03a4 3C       		.uleb128 0x3c
 9400 03a5 19       		.uleb128 0x19
 9401 03a6 01       		.uleb128 0x1
 9402 03a7 13       		.uleb128 0x13
 9403 03a8 00       		.byte	0
 9404 03a9 00       		.byte	0
 9405 03aa 3B       		.uleb128 0x3b
 9406 03ab 02       		.uleb128 0x2
 9407 03ac 01       		.byte	0x1
 9408 03ad 03       		.uleb128 0x3
 9409 03ae 08       		.uleb128 0x8
 9410 03af 0B       		.uleb128 0xb
 9411 03b0 0B       		.uleb128 0xb
 9412 03b1 3A       		.uleb128 0x3a
 9413 03b2 0B       		.uleb128 0xb
 9414 03b3 3B       		.uleb128 0x3b
 9415 03b4 05       		.uleb128 0x5
 9416 03b5 32       		.uleb128 0x32
 9417 03b6 0B       		.uleb128 0xb
 9418 03b7 01       		.uleb128 0x1
 9419 03b8 13       		.uleb128 0x13
 9420 03b9 00       		.byte	0
 9421 03ba 00       		.byte	0
 9422 03bb 3C       		.uleb128 0x3c
GAS LISTING C:\Users\NJLLMR~1\AppData\Local\Temp\cc3wbcxt.s 			page 209


 9423 03bc 0D       		.uleb128 0xd
 9424 03bd 00       		.byte	0
 9425 03be 03       		.uleb128 0x3
 9426 03bf 08       		.uleb128 0x8
 9427 03c0 3A       		.uleb128 0x3a
 9428 03c1 0B       		.uleb128 0xb
 9429 03c2 3B       		.uleb128 0x3b
 9430 03c3 05       		.uleb128 0x5
 9431 03c4 49       		.uleb128 0x49
 9432 03c5 13       		.uleb128 0x13
 9433 03c6 3F       		.uleb128 0x3f
 9434 03c7 19       		.uleb128 0x19
 9435 03c8 3C       		.uleb128 0x3c
 9436 03c9 19       		.uleb128 0x19
 9437 03ca 00       		.byte	0
 9438 03cb 00       		.byte	0
 9439 03cc 3D       		.uleb128 0x3d
 9440 03cd 2E       		.uleb128 0x2e
 9441 03ce 01       		.byte	0x1
 9442 03cf 3F       		.uleb128 0x3f
 9443 03d0 19       		.uleb128 0x19
 9444 03d1 03       		.uleb128 0x3
 9445 03d2 08       		.uleb128 0x8
 9446 03d3 3A       		.uleb128 0x3a
 9447 03d4 0B       		.uleb128 0xb
 9448 03d5 3B       		.uleb128 0x3b
 9449 03d6 05       		.uleb128 0x5
 9450 03d7 32       		.uleb128 0x32
 9451 03d8 0B       		.uleb128 0xb
 9452 03d9 3C       		.uleb128 0x3c
 9453 03da 19       		.uleb128 0x19
 9454 03db 64       		.uleb128 0x64
 9455 03dc 13       		.uleb128 0x13
 9456 03dd 00       		.byte	0
 9457 03de 00       		.byte	0
 9458 03df 3E       		.uleb128 0x3e
 9459 03e0 16       		.uleb128 0x16
 9460 03e1 00       		.byte	0
 9461 03e2 03       		.uleb128 0x3
 9462 03e3 08       		.uleb128 0x8
 9463 03e4 3A       		.uleb128 0x3a
 9464 03e5 0B       		.uleb128 0xb
 9465 03e6 3B       		.uleb128 0x3b
 9466 03e7 05       		.uleb128 0x5
 9467 03e8 49       		.uleb128 0x49
 9468 03e9 13       		.uleb128 0x13
 9469 03ea 32       		.uleb128 0x32
 9470 03eb 0B       		.uleb128 0xb
 9471 03ec 00       		.byte	0
 9472 03ed 00       		.byte	0
 9473 03ee 3F       		.uleb128 0x3f
 9474 03ef 0D       		.uleb128 0xd
 9475 03f0 00       		.byte	0
 9476 03f1 03       		.uleb128 0x3
 9477 03f2 08       		.uleb128 0x8
 9478 03f3 3A       		.uleb128 0x3a
 9479 03f4 0B       		.uleb128 0xb
GAS LISTING C:\Users\NJLLMR~1\AppData\Local\Temp\cc3wbcxt.s 			page 210


 9480 03f5 3B       		.uleb128 0x3b
 9481 03f6 05       		.uleb128 0x5
 9482 03f7 49       		.uleb128 0x49
 9483 03f8 13       		.uleb128 0x13
 9484 03f9 3F       		.uleb128 0x3f
 9485 03fa 19       		.uleb128 0x19
 9486 03fb 32       		.uleb128 0x32
 9487 03fc 0B       		.uleb128 0xb
 9488 03fd 3C       		.uleb128 0x3c
 9489 03fe 19       		.uleb128 0x19
 9490 03ff 1C       		.uleb128 0x1c
 9491 0400 0B       		.uleb128 0xb
 9492 0401 00       		.byte	0
 9493 0402 00       		.byte	0
 9494 0403 40       		.uleb128 0x40
 9495 0404 0D       		.uleb128 0xd
 9496 0405 00       		.byte	0
 9497 0406 03       		.uleb128 0x3
 9498 0407 08       		.uleb128 0x8
 9499 0408 3A       		.uleb128 0x3a
 9500 0409 0B       		.uleb128 0xb
 9501 040a 3B       		.uleb128 0x3b
 9502 040b 05       		.uleb128 0x5
 9503 040c 49       		.uleb128 0x49
 9504 040d 13       		.uleb128 0x13
 9505 040e 3F       		.uleb128 0x3f
 9506 040f 19       		.uleb128 0x19
 9507 0410 32       		.uleb128 0x32
 9508 0411 0B       		.uleb128 0xb
 9509 0412 3C       		.uleb128 0x3c
 9510 0413 19       		.uleb128 0x19
 9511 0414 1C       		.uleb128 0x1c
 9512 0415 05       		.uleb128 0x5
 9513 0416 00       		.byte	0
 9514 0417 00       		.byte	0
 9515 0418 41       		.uleb128 0x41
 9516 0419 13       		.uleb128 0x13
 9517 041a 01       		.byte	0x1
 9518 041b 03       		.uleb128 0x3
 9519 041c 08       		.uleb128 0x8
 9520 041d 0B       		.uleb128 0xb
 9521 041e 0B       		.uleb128 0xb
 9522 041f 3A       		.uleb128 0x3a
 9523 0420 0B       		.uleb128 0xb
 9524 0421 3B       		.uleb128 0x3b
 9525 0422 05       		.uleb128 0x5
 9526 0423 01       		.uleb128 0x1
 9527 0424 13       		.uleb128 0x13
 9528 0425 00       		.byte	0
 9529 0426 00       		.byte	0
 9530 0427 42       		.uleb128 0x42
 9531 0428 04       		.uleb128 0x4
 9532 0429 01       		.byte	0x1
 9533 042a 0B       		.uleb128 0xb
 9534 042b 0B       		.uleb128 0xb
 9535 042c 3A       		.uleb128 0x3a
 9536 042d 0B       		.uleb128 0xb
GAS LISTING C:\Users\NJLLMR~1\AppData\Local\Temp\cc3wbcxt.s 			page 211


 9537 042e 3B       		.uleb128 0x3b
 9538 042f 05       		.uleb128 0x5
 9539 0430 01       		.uleb128 0x1
 9540 0431 13       		.uleb128 0x13
 9541 0432 00       		.byte	0
 9542 0433 00       		.byte	0
 9543 0434 43       		.uleb128 0x43
 9544 0435 04       		.uleb128 0x4
 9545 0436 01       		.byte	0x1
 9546 0437 0B       		.uleb128 0xb
 9547 0438 0B       		.uleb128 0xb
 9548 0439 3A       		.uleb128 0x3a
 9549 043a 0B       		.uleb128 0xb
 9550 043b 3B       		.uleb128 0x3b
 9551 043c 0B       		.uleb128 0xb
 9552 043d 01       		.uleb128 0x1
 9553 043e 13       		.uleb128 0x13
 9554 043f 00       		.byte	0
 9555 0440 00       		.byte	0
 9556 0441 44       		.uleb128 0x44
 9557 0442 34       		.uleb128 0x34
 9558 0443 00       		.byte	0
 9559 0444 03       		.uleb128 0x3
 9560 0445 08       		.uleb128 0x8
 9561 0446 3A       		.uleb128 0x3a
 9562 0447 0B       		.uleb128 0xb
 9563 0448 3B       		.uleb128 0x3b
 9564 0449 0B       		.uleb128 0xb
 9565 044a 49       		.uleb128 0x49
 9566 044b 13       		.uleb128 0x13
 9567 044c 3C       		.uleb128 0x3c
 9568 044d 19       		.uleb128 0x19
 9569 044e 00       		.byte	0
 9570 044f 00       		.byte	0
 9571 0450 45       		.uleb128 0x45
 9572 0451 2E       		.uleb128 0x2e
 9573 0452 01       		.byte	0x1
 9574 0453 3F       		.uleb128 0x3f
 9575 0454 19       		.uleb128 0x19
 9576 0455 03       		.uleb128 0x3
 9577 0456 08       		.uleb128 0x8
 9578 0457 3A       		.uleb128 0x3a
 9579 0458 0B       		.uleb128 0xb
 9580 0459 3B       		.uleb128 0x3b
 9581 045a 05       		.uleb128 0x5
 9582 045b 49       		.uleb128 0x49
 9583 045c 13       		.uleb128 0x13
 9584 045d 3C       		.uleb128 0x3c
 9585 045e 19       		.uleb128 0x19
 9586 045f 01       		.uleb128 0x1
 9587 0460 13       		.uleb128 0x13
 9588 0461 00       		.byte	0
 9589 0462 00       		.byte	0
 9590 0463 46       		.uleb128 0x46
 9591 0464 2E       		.uleb128 0x2e
 9592 0465 01       		.byte	0x1
 9593 0466 3F       		.uleb128 0x3f
GAS LISTING C:\Users\NJLLMR~1\AppData\Local\Temp\cc3wbcxt.s 			page 212


 9594 0467 19       		.uleb128 0x19
 9595 0468 03       		.uleb128 0x3
 9596 0469 08       		.uleb128 0x8
 9597 046a 3A       		.uleb128 0x3a
 9598 046b 0B       		.uleb128 0xb
 9599 046c 3B       		.uleb128 0x3b
 9600 046d 0B       		.uleb128 0xb
 9601 046e 49       		.uleb128 0x49
 9602 046f 13       		.uleb128 0x13
 9603 0470 3C       		.uleb128 0x3c
 9604 0471 19       		.uleb128 0x19
 9605 0472 01       		.uleb128 0x1
 9606 0473 13       		.uleb128 0x13
 9607 0474 00       		.byte	0
 9608 0475 00       		.byte	0
 9609 0476 47       		.uleb128 0x47
 9610 0477 18       		.uleb128 0x18
 9611 0478 00       		.byte	0
 9612 0479 00       		.byte	0
 9613 047a 00       		.byte	0
 9614 047b 48       		.uleb128 0x48
 9615 047c 2E       		.uleb128 0x2e
 9616 047d 00       		.byte	0
 9617 047e 3F       		.uleb128 0x3f
 9618 047f 19       		.uleb128 0x19
 9619 0480 03       		.uleb128 0x3
 9620 0481 08       		.uleb128 0x8
 9621 0482 3A       		.uleb128 0x3a
 9622 0483 0B       		.uleb128 0xb
 9623 0484 3B       		.uleb128 0x3b
 9624 0485 0B       		.uleb128 0xb
 9625 0486 49       		.uleb128 0x49
 9626 0487 13       		.uleb128 0x13
 9627 0488 3C       		.uleb128 0x3c
 9628 0489 19       		.uleb128 0x19
 9629 048a 00       		.byte	0
 9630 048b 00       		.byte	0
 9631 048c 49       		.uleb128 0x49
 9632 048d 2E       		.uleb128 0x2e
 9633 048e 01       		.byte	0x1
 9634 048f 3F       		.uleb128 0x3f
 9635 0490 19       		.uleb128 0x19
 9636 0491 03       		.uleb128 0x3
 9637 0492 08       		.uleb128 0x8
 9638 0493 3A       		.uleb128 0x3a
 9639 0494 0B       		.uleb128 0xb
 9640 0495 3B       		.uleb128 0x3b
 9641 0496 0B       		.uleb128 0xb
 9642 0497 32       		.uleb128 0x32
 9643 0498 0B       		.uleb128 0xb
 9644 0499 3C       		.uleb128 0x3c
 9645 049a 19       		.uleb128 0x19
 9646 049b 64       		.uleb128 0x64
 9647 049c 13       		.uleb128 0x13
 9648 049d 01       		.uleb128 0x1
 9649 049e 13       		.uleb128 0x13
 9650 049f 00       		.byte	0
GAS LISTING C:\Users\NJLLMR~1\AppData\Local\Temp\cc3wbcxt.s 			page 213


 9651 04a0 00       		.byte	0
 9652 04a1 4A       		.uleb128 0x4a
 9653 04a2 2E       		.uleb128 0x2e
 9654 04a3 01       		.byte	0x1
 9655 04a4 3F       		.uleb128 0x3f
 9656 04a5 19       		.uleb128 0x19
 9657 04a6 03       		.uleb128 0x3
 9658 04a7 08       		.uleb128 0x8
 9659 04a8 3A       		.uleb128 0x3a
 9660 04a9 0B       		.uleb128 0xb
 9661 04aa 3B       		.uleb128 0x3b
 9662 04ab 0B       		.uleb128 0xb
 9663 04ac 6E       		.uleb128 0x6e
 9664 04ad 08       		.uleb128 0x8
 9665 04ae 49       		.uleb128 0x49
 9666 04af 13       		.uleb128 0x13
 9667 04b0 32       		.uleb128 0x32
 9668 04b1 0B       		.uleb128 0xb
 9669 04b2 3C       		.uleb128 0x3c
 9670 04b3 19       		.uleb128 0x19
 9671 04b4 64       		.uleb128 0x64
 9672 04b5 13       		.uleb128 0x13
 9673 04b6 01       		.uleb128 0x1
 9674 04b7 13       		.uleb128 0x13
 9675 04b8 00       		.byte	0
 9676 04b9 00       		.byte	0
 9677 04ba 4B       		.uleb128 0x4b
 9678 04bb 2E       		.uleb128 0x2e
 9679 04bc 01       		.byte	0x1
 9680 04bd 3F       		.uleb128 0x3f
 9681 04be 19       		.uleb128 0x19
 9682 04bf 03       		.uleb128 0x3
 9683 04c0 08       		.uleb128 0x8
 9684 04c1 3A       		.uleb128 0x3a
 9685 04c2 0B       		.uleb128 0xb
 9686 04c3 3B       		.uleb128 0x3b
 9687 04c4 0B       		.uleb128 0xb
 9688 04c5 6E       		.uleb128 0x6e
 9689 04c6 08       		.uleb128 0x8
 9690 04c7 32       		.uleb128 0x32
 9691 04c8 0B       		.uleb128 0xb
 9692 04c9 3C       		.uleb128 0x3c
 9693 04ca 19       		.uleb128 0x19
 9694 04cb 64       		.uleb128 0x64
 9695 04cc 13       		.uleb128 0x13
 9696 04cd 01       		.uleb128 0x1
 9697 04ce 13       		.uleb128 0x13
 9698 04cf 00       		.byte	0
 9699 04d0 00       		.byte	0
 9700 04d1 4C       		.uleb128 0x4c
 9701 04d2 0D       		.uleb128 0xd
 9702 04d3 00       		.byte	0
 9703 04d4 03       		.uleb128 0x3
 9704 04d5 0E       		.uleb128 0xe
 9705 04d6 3A       		.uleb128 0x3a
 9706 04d7 0B       		.uleb128 0xb
 9707 04d8 3B       		.uleb128 0x3b
GAS LISTING C:\Users\NJLLMR~1\AppData\Local\Temp\cc3wbcxt.s 			page 214


 9708 04d9 0B       		.uleb128 0xb
 9709 04da 49       		.uleb128 0x49
 9710 04db 13       		.uleb128 0x13
 9711 04dc 3F       		.uleb128 0x3f
 9712 04dd 19       		.uleb128 0x19
 9713 04de 3C       		.uleb128 0x3c
 9714 04df 19       		.uleb128 0x19
 9715 04e0 00       		.byte	0
 9716 04e1 00       		.byte	0
 9717 04e2 4D       		.uleb128 0x4d
 9718 04e3 2F       		.uleb128 0x2f
 9719 04e4 00       		.byte	0
 9720 04e5 03       		.uleb128 0x3
 9721 04e6 0E       		.uleb128 0xe
 9722 04e7 49       		.uleb128 0x49
 9723 04e8 13       		.uleb128 0x13
 9724 04e9 00       		.byte	0
 9725 04ea 00       		.byte	0
 9726 04eb 4E       		.uleb128 0x4e
 9727 04ec 13       		.uleb128 0x13
 9728 04ed 01       		.byte	0x1
 9729 04ee 03       		.uleb128 0x3
 9730 04ef 08       		.uleb128 0x8
 9731 04f0 0B       		.uleb128 0xb
 9732 04f1 0B       		.uleb128 0xb
 9733 04f2 3A       		.uleb128 0x3a
 9734 04f3 0B       		.uleb128 0xb
 9735 04f4 3B       		.uleb128 0x3b
 9736 04f5 0B       		.uleb128 0xb
 9737 04f6 00       		.byte	0
 9738 04f7 00       		.byte	0
 9739 04f8 4F       		.uleb128 0x4f
 9740 04f9 3A       		.uleb128 0x3a
 9741 04fa 00       		.byte	0
 9742 04fb 3A       		.uleb128 0x3a
 9743 04fc 0B       		.uleb128 0xb
 9744 04fd 3B       		.uleb128 0x3b
 9745 04fe 0B       		.uleb128 0xb
 9746 04ff 18       		.uleb128 0x18
 9747 0500 13       		.uleb128 0x13
 9748 0501 00       		.byte	0
 9749 0502 00       		.byte	0
 9750 0503 50       		.uleb128 0x50
 9751 0504 10       		.uleb128 0x10
 9752 0505 00       		.byte	0
 9753 0506 0B       		.uleb128 0xb
 9754 0507 0B       		.uleb128 0xb
 9755 0508 49       		.uleb128 0x49
 9756 0509 13       		.uleb128 0x13
 9757 050a 00       		.byte	0
 9758 050b 00       		.byte	0
 9759 050c 51       		.uleb128 0x51
 9760 050d 0F       		.uleb128 0xf
 9761 050e 00       		.byte	0
 9762 050f 0B       		.uleb128 0xb
 9763 0510 0B       		.uleb128 0xb
 9764 0511 00       		.byte	0
GAS LISTING C:\Users\NJLLMR~1\AppData\Local\Temp\cc3wbcxt.s 			page 215


 9765 0512 00       		.byte	0
 9766 0513 52       		.uleb128 0x52
 9767 0514 26       		.uleb128 0x26
 9768 0515 00       		.byte	0
 9769 0516 00       		.byte	0
 9770 0517 00       		.byte	0
 9771 0518 53       		.uleb128 0x53
 9772 0519 01       		.uleb128 0x1
 9773 051a 01       		.byte	0x1
 9774 051b 49       		.uleb128 0x49
 9775 051c 13       		.uleb128 0x13
 9776 051d 01       		.uleb128 0x1
 9777 051e 13       		.uleb128 0x13
 9778 051f 00       		.byte	0
 9779 0520 00       		.byte	0
 9780 0521 54       		.uleb128 0x54
 9781 0522 21       		.uleb128 0x21
 9782 0523 00       		.byte	0
 9783 0524 00       		.byte	0
 9784 0525 00       		.byte	0
 9785 0526 55       		.uleb128 0x55
 9786 0527 2E       		.uleb128 0x2e
 9787 0528 01       		.byte	0x1
 9788 0529 3F       		.uleb128 0x3f
 9789 052a 19       		.uleb128 0x19
 9790 052b 03       		.uleb128 0x3
 9791 052c 08       		.uleb128 0x8
 9792 052d 3A       		.uleb128 0x3a
 9793 052e 0B       		.uleb128 0xb
 9794 052f 3B       		.uleb128 0x3b
 9795 0530 05       		.uleb128 0x5
 9796 0531 3C       		.uleb128 0x3c
 9797 0532 19       		.uleb128 0x19
 9798 0533 01       		.uleb128 0x1
 9799 0534 13       		.uleb128 0x13
 9800 0535 00       		.byte	0
 9801 0536 00       		.byte	0
 9802 0537 56       		.uleb128 0x56
 9803 0538 2E       		.uleb128 0x2e
 9804 0539 00       		.byte	0
 9805 053a 3F       		.uleb128 0x3f
 9806 053b 19       		.uleb128 0x19
 9807 053c 03       		.uleb128 0x3
 9808 053d 08       		.uleb128 0x8
 9809 053e 3A       		.uleb128 0x3a
 9810 053f 0B       		.uleb128 0xb
 9811 0540 3B       		.uleb128 0x3b
 9812 0541 05       		.uleb128 0x5
 9813 0542 49       		.uleb128 0x49
 9814 0543 13       		.uleb128 0x13
 9815 0544 3C       		.uleb128 0x3c
 9816 0545 19       		.uleb128 0x19
 9817 0546 00       		.byte	0
 9818 0547 00       		.byte	0
 9819 0548 57       		.uleb128 0x57
 9820 0549 2E       		.uleb128 0x2e
 9821 054a 01       		.byte	0x1
GAS LISTING C:\Users\NJLLMR~1\AppData\Local\Temp\cc3wbcxt.s 			page 216


 9822 054b 3F       		.uleb128 0x3f
 9823 054c 19       		.uleb128 0x19
 9824 054d 03       		.uleb128 0x3
 9825 054e 08       		.uleb128 0x8
 9826 054f 3A       		.uleb128 0x3a
 9827 0550 0B       		.uleb128 0xb
 9828 0551 3B       		.uleb128 0x3b
 9829 0552 0B       		.uleb128 0xb
 9830 0553 3C       		.uleb128 0x3c
 9831 0554 19       		.uleb128 0x19
 9832 0555 01       		.uleb128 0x1
 9833 0556 13       		.uleb128 0x13
 9834 0557 00       		.byte	0
 9835 0558 00       		.byte	0
 9836 0559 58       		.uleb128 0x58
 9837 055a 02       		.uleb128 0x2
 9838 055b 01       		.byte	0x1
 9839 055c 03       		.uleb128 0x3
 9840 055d 0E       		.uleb128 0xe
 9841 055e 0B       		.uleb128 0xb
 9842 055f 0B       		.uleb128 0xb
 9843 0560 3A       		.uleb128 0x3a
 9844 0561 0B       		.uleb128 0xb
 9845 0562 3B       		.uleb128 0x3b
 9846 0563 0B       		.uleb128 0xb
 9847 0564 01       		.uleb128 0x1
 9848 0565 13       		.uleb128 0x13
 9849 0566 00       		.byte	0
 9850 0567 00       		.byte	0
 9851 0568 59       		.uleb128 0x59
 9852 0569 0D       		.uleb128 0xd
 9853 056a 00       		.byte	0
 9854 056b 03       		.uleb128 0x3
 9855 056c 0E       		.uleb128 0xe
 9856 056d 3A       		.uleb128 0x3a
 9857 056e 0B       		.uleb128 0xb
 9858 056f 3B       		.uleb128 0x3b
 9859 0570 0B       		.uleb128 0xb
 9860 0571 49       		.uleb128 0x49
 9861 0572 13       		.uleb128 0x13
 9862 0573 38       		.uleb128 0x38
 9863 0574 0B       		.uleb128 0xb
 9864 0575 00       		.byte	0
 9865 0576 00       		.byte	0
 9866 0577 5A       		.uleb128 0x5a
 9867 0578 2E       		.uleb128 0x2e
 9868 0579 01       		.byte	0x1
 9869 057a 3F       		.uleb128 0x3f
 9870 057b 19       		.uleb128 0x19
 9871 057c 03       		.uleb128 0x3
 9872 057d 08       		.uleb128 0x8
 9873 057e 34       		.uleb128 0x34
 9874 057f 19       		.uleb128 0x19
 9875 0580 32       		.uleb128 0x32
 9876 0581 0B       		.uleb128 0xb
 9877 0582 3C       		.uleb128 0x3c
 9878 0583 19       		.uleb128 0x19
GAS LISTING C:\Users\NJLLMR~1\AppData\Local\Temp\cc3wbcxt.s 			page 217


 9879 0584 64       		.uleb128 0x64
 9880 0585 13       		.uleb128 0x13
 9881 0586 00       		.byte	0
 9882 0587 00       		.byte	0
 9883 0588 5B       		.uleb128 0x5b
 9884 0589 2E       		.uleb128 0x2e
 9885 058a 01       		.byte	0x1
 9886 058b 3F       		.uleb128 0x3f
 9887 058c 19       		.uleb128 0x19
 9888 058d 03       		.uleb128 0x3
 9889 058e 08       		.uleb128 0x8
 9890 058f 3A       		.uleb128 0x3a
 9891 0590 0B       		.uleb128 0xb
 9892 0591 3B       		.uleb128 0x3b
 9893 0592 0B       		.uleb128 0xb
 9894 0593 6E       		.uleb128 0x6e
 9895 0594 08       		.uleb128 0x8
 9896 0595 49       		.uleb128 0x49
 9897 0596 13       		.uleb128 0x13
 9898 0597 32       		.uleb128 0x32
 9899 0598 0B       		.uleb128 0xb
 9900 0599 3C       		.uleb128 0x3c
 9901 059a 19       		.uleb128 0x19
 9902 059b 64       		.uleb128 0x64
 9903 059c 13       		.uleb128 0x13
 9904 059d 00       		.byte	0
 9905 059e 00       		.byte	0
 9906 059f 5C       		.uleb128 0x5c
 9907 05a0 2E       		.uleb128 0x2e
 9908 05a1 01       		.byte	0x1
 9909 05a2 47       		.uleb128 0x47
 9910 05a3 13       		.uleb128 0x13
 9911 05a4 11       		.uleb128 0x11
 9912 05a5 01       		.uleb128 0x1
 9913 05a6 12       		.uleb128 0x12
 9914 05a7 06       		.uleb128 0x6
 9915 05a8 40       		.uleb128 0x40
 9916 05a9 18       		.uleb128 0x18
 9917 05aa 9742     		.uleb128 0x2117
 9918 05ac 19       		.uleb128 0x19
 9919 05ad 01       		.uleb128 0x1
 9920 05ae 13       		.uleb128 0x13
 9921 05af 00       		.byte	0
 9922 05b0 00       		.byte	0
 9923 05b1 5D       		.uleb128 0x5d
 9924 05b2 05       		.uleb128 0x5
 9925 05b3 00       		.byte	0
 9926 05b4 03       		.uleb128 0x3
 9927 05b5 08       		.uleb128 0x8
 9928 05b6 3A       		.uleb128 0x3a
 9929 05b7 0B       		.uleb128 0xb
 9930 05b8 3B       		.uleb128 0x3b
 9931 05b9 0B       		.uleb128 0xb
 9932 05ba 49       		.uleb128 0x49
 9933 05bb 13       		.uleb128 0x13
 9934 05bc 02       		.uleb128 0x2
 9935 05bd 18       		.uleb128 0x18
GAS LISTING C:\Users\NJLLMR~1\AppData\Local\Temp\cc3wbcxt.s 			page 218


 9936 05be 00       		.byte	0
 9937 05bf 00       		.byte	0
 9938 05c0 5E       		.uleb128 0x5e
 9939 05c1 2E       		.uleb128 0x2e
 9940 05c2 01       		.byte	0x1
 9941 05c3 47       		.uleb128 0x47
 9942 05c4 13       		.uleb128 0x13
 9943 05c5 3A       		.uleb128 0x3a
 9944 05c6 0B       		.uleb128 0xb
 9945 05c7 3B       		.uleb128 0x3b
 9946 05c8 0B       		.uleb128 0xb
 9947 05c9 20       		.uleb128 0x20
 9948 05ca 0B       		.uleb128 0xb
 9949 05cb 64       		.uleb128 0x64
 9950 05cc 13       		.uleb128 0x13
 9951 05cd 01       		.uleb128 0x1
 9952 05ce 13       		.uleb128 0x13
 9953 05cf 00       		.byte	0
 9954 05d0 00       		.byte	0
 9955 05d1 5F       		.uleb128 0x5f
 9956 05d2 05       		.uleb128 0x5
 9957 05d3 00       		.byte	0
 9958 05d4 03       		.uleb128 0x3
 9959 05d5 0E       		.uleb128 0xe
 9960 05d6 49       		.uleb128 0x49
 9961 05d7 13       		.uleb128 0x13
 9962 05d8 34       		.uleb128 0x34
 9963 05d9 19       		.uleb128 0x19
 9964 05da 00       		.byte	0
 9965 05db 00       		.byte	0
 9966 05dc 60       		.uleb128 0x60
 9967 05dd 2E       		.uleb128 0x2e
 9968 05de 01       		.byte	0x1
 9969 05df 31       		.uleb128 0x31
 9970 05e0 13       		.uleb128 0x13
 9971 05e1 6E       		.uleb128 0x6e
 9972 05e2 08       		.uleb128 0x8
 9973 05e3 11       		.uleb128 0x11
 9974 05e4 01       		.uleb128 0x1
 9975 05e5 12       		.uleb128 0x12
 9976 05e6 06       		.uleb128 0x6
 9977 05e7 40       		.uleb128 0x40
 9978 05e8 18       		.uleb128 0x18
 9979 05e9 64       		.uleb128 0x64
 9980 05ea 13       		.uleb128 0x13
 9981 05eb 9642     		.uleb128 0x2116
 9982 05ed 19       		.uleb128 0x19
 9983 05ee 01       		.uleb128 0x1
 9984 05ef 13       		.uleb128 0x13
 9985 05f0 00       		.byte	0
 9986 05f1 00       		.byte	0
 9987 05f2 61       		.uleb128 0x61
 9988 05f3 05       		.uleb128 0x5
 9989 05f4 00       		.byte	0
 9990 05f5 31       		.uleb128 0x31
 9991 05f6 13       		.uleb128 0x13
 9992 05f7 02       		.uleb128 0x2
GAS LISTING C:\Users\NJLLMR~1\AppData\Local\Temp\cc3wbcxt.s 			page 219


 9993 05f8 18       		.uleb128 0x18
 9994 05f9 00       		.byte	0
 9995 05fa 00       		.byte	0
 9996 05fb 62       		.uleb128 0x62
 9997 05fc 2E       		.uleb128 0x2e
 9998 05fd 01       		.byte	0x1
 9999 05fe 47       		.uleb128 0x47
 10000 05ff 13       		.uleb128 0x13
 10001 0600 3A       		.uleb128 0x3a
 10002 0601 0B       		.uleb128 0xb
 10003 0602 3B       		.uleb128 0x3b
 10004 0603 0B       		.uleb128 0xb
 10005 0604 11       		.uleb128 0x11
 10006 0605 01       		.uleb128 0x1
 10007 0606 12       		.uleb128 0x12
 10008 0607 06       		.uleb128 0x6
 10009 0608 40       		.uleb128 0x40
 10010 0609 18       		.uleb128 0x18
 10011 060a 64       		.uleb128 0x64
 10012 060b 13       		.uleb128 0x13
 10013 060c 9642     		.uleb128 0x2116
 10014 060e 19       		.uleb128 0x19
 10015 060f 01       		.uleb128 0x1
 10016 0610 13       		.uleb128 0x13
 10017 0611 00       		.byte	0
 10018 0612 00       		.byte	0
 10019 0613 63       		.uleb128 0x63
 10020 0614 05       		.uleb128 0x5
 10021 0615 00       		.byte	0
 10022 0616 03       		.uleb128 0x3
 10023 0617 0E       		.uleb128 0xe
 10024 0618 49       		.uleb128 0x49
 10025 0619 13       		.uleb128 0x13
 10026 061a 34       		.uleb128 0x34
 10027 061b 19       		.uleb128 0x19
 10028 061c 02       		.uleb128 0x2
 10029 061d 18       		.uleb128 0x18
 10030 061e 00       		.byte	0
 10031 061f 00       		.byte	0
 10032 0620 64       		.uleb128 0x64
 10033 0621 0B       		.uleb128 0xb
 10034 0622 01       		.byte	0x1
 10035 0623 11       		.uleb128 0x11
 10036 0624 01       		.uleb128 0x1
 10037 0625 12       		.uleb128 0x12
 10038 0626 06       		.uleb128 0x6
 10039 0627 00       		.byte	0
 10040 0628 00       		.byte	0
 10041 0629 65       		.uleb128 0x65
 10042 062a 34       		.uleb128 0x34
 10043 062b 00       		.byte	0
 10044 062c 03       		.uleb128 0x3
 10045 062d 08       		.uleb128 0x8
 10046 062e 3A       		.uleb128 0x3a
 10047 062f 0B       		.uleb128 0xb
 10048 0630 3B       		.uleb128 0x3b
 10049 0631 0B       		.uleb128 0xb
GAS LISTING C:\Users\NJLLMR~1\AppData\Local\Temp\cc3wbcxt.s 			page 220


 10050 0632 49       		.uleb128 0x49
 10051 0633 13       		.uleb128 0x13
 10052 0634 02       		.uleb128 0x2
 10053 0635 18       		.uleb128 0x18
 10054 0636 00       		.byte	0
 10055 0637 00       		.byte	0
 10056 0638 66       		.uleb128 0x66
 10057 0639 0B       		.uleb128 0xb
 10058 063a 01       		.byte	0x1
 10059 063b 55       		.uleb128 0x55
 10060 063c 17       		.uleb128 0x17
 10061 063d 00       		.byte	0
 10062 063e 00       		.byte	0
 10063 063f 67       		.uleb128 0x67
 10064 0640 2E       		.uleb128 0x2e
 10065 0641 01       		.byte	0x1
 10066 0642 47       		.uleb128 0x47
 10067 0643 13       		.uleb128 0x13
 10068 0644 3A       		.uleb128 0x3a
 10069 0645 0B       		.uleb128 0xb
 10070 0646 11       		.uleb128 0x11
 10071 0647 01       		.uleb128 0x1
 10072 0648 12       		.uleb128 0x12
 10073 0649 06       		.uleb128 0x6
 10074 064a 40       		.uleb128 0x40
 10075 064b 18       		.uleb128 0x18
 10076 064c 64       		.uleb128 0x64
 10077 064d 13       		.uleb128 0x13
 10078 064e 9642     		.uleb128 0x2116
 10079 0650 19       		.uleb128 0x19
 10080 0651 01       		.uleb128 0x1
 10081 0652 13       		.uleb128 0x13
 10082 0653 00       		.byte	0
 10083 0654 00       		.byte	0
 10084 0655 68       		.uleb128 0x68
 10085 0656 2E       		.uleb128 0x2e
 10086 0657 00       		.byte	0
 10087 0658 03       		.uleb128 0x3
 10088 0659 08       		.uleb128 0x8
 10089 065a 34       		.uleb128 0x34
 10090 065b 19       		.uleb128 0x19
 10091 065c 11       		.uleb128 0x11
 10092 065d 01       		.uleb128 0x1
 10093 065e 12       		.uleb128 0x12
 10094 065f 06       		.uleb128 0x6
 10095 0660 40       		.uleb128 0x40
 10096 0661 18       		.uleb128 0x18
 10097 0662 9642     		.uleb128 0x2116
 10098 0664 19       		.uleb128 0x19
 10099 0665 00       		.byte	0
 10100 0666 00       		.byte	0
 10101 0667 69       		.uleb128 0x69
 10102 0668 2E       		.uleb128 0x2e
 10103 0669 01       		.byte	0x1
 10104 066a 03       		.uleb128 0x3
 10105 066b 08       		.uleb128 0x8
 10106 066c 34       		.uleb128 0x34
GAS LISTING C:\Users\NJLLMR~1\AppData\Local\Temp\cc3wbcxt.s 			page 221


 10107 066d 19       		.uleb128 0x19
 10108 066e 11       		.uleb128 0x11
 10109 066f 01       		.uleb128 0x1
 10110 0670 12       		.uleb128 0x12
 10111 0671 06       		.uleb128 0x6
 10112 0672 40       		.uleb128 0x40
 10113 0673 18       		.uleb128 0x18
 10114 0674 9642     		.uleb128 0x2116
 10115 0676 19       		.uleb128 0x19
 10116 0677 01       		.uleb128 0x1
 10117 0678 13       		.uleb128 0x13
 10118 0679 00       		.byte	0
 10119 067a 00       		.byte	0
 10120 067b 6A       		.uleb128 0x6a
 10121 067c 34       		.uleb128 0x34
 10122 067d 00       		.byte	0
 10123 067e 03       		.uleb128 0x3
 10124 067f 08       		.uleb128 0x8
 10125 0680 3A       		.uleb128 0x3a
 10126 0681 0B       		.uleb128 0xb
 10127 0682 3B       		.uleb128 0x3b
 10128 0683 0B       		.uleb128 0xb
 10129 0684 49       		.uleb128 0x49
 10130 0685 13       		.uleb128 0x13
 10131 0686 3F       		.uleb128 0x3f
 10132 0687 19       		.uleb128 0x19
 10133 0688 3C       		.uleb128 0x3c
 10134 0689 19       		.uleb128 0x19
 10135 068a 00       		.byte	0
 10136 068b 00       		.byte	0
 10137 068c 6B       		.uleb128 0x6b
 10138 068d 34       		.uleb128 0x34
 10139 068e 00       		.byte	0
 10140 068f 47       		.uleb128 0x47
 10141 0690 13       		.uleb128 0x13
 10142 0691 02       		.uleb128 0x2
 10143 0692 18       		.uleb128 0x18
 10144 0693 00       		.byte	0
 10145 0694 00       		.byte	0
 10146 0695 6C       		.uleb128 0x6c
 10147 0696 34       		.uleb128 0x34
 10148 0697 00       		.byte	0
 10149 0698 47       		.uleb128 0x47
 10150 0699 13       		.uleb128 0x13
 10151 069a 6E       		.uleb128 0x6e
 10152 069b 08       		.uleb128 0x8
 10153 069c 1C       		.uleb128 0x1c
 10154 069d 0D       		.uleb128 0xd
 10155 069e 00       		.byte	0
 10156 069f 00       		.byte	0
 10157 06a0 6D       		.uleb128 0x6d
 10158 06a1 34       		.uleb128 0x34
 10159 06a2 00       		.byte	0
 10160 06a3 47       		.uleb128 0x47
 10161 06a4 13       		.uleb128 0x13
 10162 06a5 6E       		.uleb128 0x6e
 10163 06a6 08       		.uleb128 0x8
GAS LISTING C:\Users\NJLLMR~1\AppData\Local\Temp\cc3wbcxt.s 			page 222


 10164 06a7 1C       		.uleb128 0x1c
 10165 06a8 06       		.uleb128 0x6
 10166 06a9 00       		.byte	0
 10167 06aa 00       		.byte	0
 10168 06ab 6E       		.uleb128 0x6e
 10169 06ac 34       		.uleb128 0x34
 10170 06ad 00       		.byte	0
 10171 06ae 47       		.uleb128 0x47
 10172 06af 13       		.uleb128 0x13
 10173 06b0 6E       		.uleb128 0x6e
 10174 06b1 08       		.uleb128 0x8
 10175 06b2 1C       		.uleb128 0x1c
 10176 06b3 0B       		.uleb128 0xb
 10177 06b4 00       		.byte	0
 10178 06b5 00       		.byte	0
 10179 06b6 6F       		.uleb128 0x6f
 10180 06b7 34       		.uleb128 0x34
 10181 06b8 00       		.byte	0
 10182 06b9 47       		.uleb128 0x47
 10183 06ba 13       		.uleb128 0x13
 10184 06bb 6E       		.uleb128 0x6e
 10185 06bc 08       		.uleb128 0x8
 10186 06bd 1C       		.uleb128 0x1c
 10187 06be 05       		.uleb128 0x5
 10188 06bf 00       		.byte	0
 10189 06c0 00       		.byte	0
 10190 06c1 00       		.byte	0
 10191              		.section	.debug_aranges,"dr"
 10192 0000 54000000 		.long	0x54
 10193 0004 0200     		.word	0x2
 10194 0006 00000000 		.secrel32	Ldebug_info0
 10195 000a 04       		.byte	0x4
 10196 000b 00       		.byte	0
 10197 000c 0000     		.word	0
 10198 000e 0000     		.word	0
 10199 0010 00000000 		.long	Ltext0
 10200 0014 68140000 		.long	Letext0-Ltext0
 10201 0018 00000000 		.long	LFB637
 10202 001c 0D000000 		.long	LFE637-LFB637
 10203 0020 00000000 		.long	LFB1407
 10204 0024 15000000 		.long	LFE1407-LFB1407
 10205 0028 00000000 		.long	LFB1414
 10206 002c 15000000 		.long	LFE1414-LFB1414
 10207 0030 00000000 		.long	LFB1421
 10208 0034 15000000 		.long	LFE1421-LFB1421
 10209 0038 00000000 		.long	LFB1428
 10210 003c 15000000 		.long	LFE1428-LFB1428
 10211 0040 00000000 		.long	LFB1435
 10212 0044 15000000 		.long	LFE1435-LFB1435
 10213 0048 00000000 		.long	LFB1442
 10214 004c 15000000 		.long	LFE1442-LFB1442
 10215 0050 00000000 		.long	0
 10216 0054 00000000 		.long	0
 10217              		.section	.debug_ranges,"dr"
 10218              	Ldebug_ranges0:
 10219 0000 4A000000 		.long	LBB4
 10220 0004 51010000 		.long	LBE4
GAS LISTING C:\Users\NJLLMR~1\AppData\Local\Temp\cc3wbcxt.s 			page 223


 10221 0008 92020000 		.long	LBB5
 10222 000c 34030000 		.long	LBE5
 10223 0010 00000000 		.long	0
 10224 0014 00000000 		.long	0
 10225 0018 1A040000 		.long	LBB8
 10226 001c 06050000 		.long	LBE8
 10227 0020 13050000 		.long	LBB9
 10228 0024 80050000 		.long	LBE9
 10229 0028 00000000 		.long	0
 10230 002c 00000000 		.long	0
 10231 0030 E3050000 		.long	LBB14
 10232 0034 CF060000 		.long	LBE14
 10233 0038 6F070000 		.long	LBB15
 10234 003c E2070000 		.long	LBE15
 10235 0040 00000000 		.long	0
 10236 0044 00000000 		.long	0
 10237 0048 8E080000 		.long	LBB20
 10238 004c 95090000 		.long	LBE20
 10239 0050 D60A0000 		.long	LBB21
 10240 0054 780B0000 		.long	LBE21
 10241 0058 00000000 		.long	0
 10242 005c 00000000 		.long	0
 10243 0060 5E0C0000 		.long	LBB24
 10244 0064 710D0000 		.long	LBE24
 10245 0068 330E0000 		.long	LBB25
 10246 006c A60E0000 		.long	LBE25
 10247 0070 00000000 		.long	0
 10248 0074 00000000 		.long	0
 10249 0078 520F0000 		.long	LBB28
 10250 007c 59100000 		.long	LBE28
 10251 0080 64120000 		.long	LBB29
 10252 0084 F5120000 		.long	LBE29
 10253 0088 00000000 		.long	0
 10254 008c 00000000 		.long	0
 10255 0090 00000000 		.long	Ltext0
 10256 0094 68140000 		.long	Letext0
 10257 0098 00000000 		.long	LFB637
 10258 009c 0D000000 		.long	LFE637
 10259 00a0 00000000 		.long	LFB1407
 10260 00a4 15000000 		.long	LFE1407
 10261 00a8 00000000 		.long	LFB1414
 10262 00ac 15000000 		.long	LFE1414
 10263 00b0 00000000 		.long	LFB1421
 10264 00b4 15000000 		.long	LFE1421
 10265 00b8 00000000 		.long	LFB1428
 10266 00bc 15000000 		.long	LFE1428
 10267 00c0 00000000 		.long	LFB1435
 10268 00c4 15000000 		.long	LFE1435
 10269 00c8 00000000 		.long	LFB1442
 10270 00cc 15000000 		.long	LFE1442
 10271 00d0 00000000 		.long	0
 10272 00d4 00000000 		.long	0
 10273              		.section	.debug_line,"dr"
 10274              	Ldebug_line0:
 10275 0000 A0070000 		.section	.debug_str,"dr"
 10275      0200E304 
 10275      00000101 
GAS LISTING C:\Users\NJLLMR~1\AppData\Local\Temp\cc3wbcxt.s 			page 224


 10275      FB0E0D00 
 10275      01010101 
 10276              	LASF32:
 10277 0000 496E7661 		.ascii "InvalidMonthExc\0"
 10277      6C69644D 
 10277      6F6E7468 
 10277      45786300 
 10278              	LASF16:
 10279 0010 7265706C 		.ascii "replace\0"
 10279      61636500 
 10280              	LASF3:
 10281 0018 72656665 		.ascii "reference\0"
 10281      72656E63 
 10281      6500
 10282              	LASF36:
 10283 0022 496E7661 		.ascii "InvalidInputExc\0"
 10283      6C696449 
 10283      6E707574 
 10283      45786300 
 10284              	LASF25:
 10285 0032 5F5F6D61 		.ascii "__max\0"
 10285      7800
 10286              	LASF26:
 10287 0038 5F5F6973 		.ascii "__is_signed\0"
 10287      5F736967 
 10287      6E656400 
 10288              	LASF9:
 10289 0044 62617369 		.ascii "basic_string\0"
 10289      635F7374 
 10289      72696E67 
 10289      00
 10290              	LASF12:
 10291 0051 6F706572 		.ascii "operator[]\0"
 10291      61746F72 
 10291      5B5D00
 10292              	LASF23:
 10293 005c 6E65775F 		.ascii "new_allocator\0"
 10293      616C6C6F 
 10293      6361746F 
 10293      7200
 10294              	LASF18:
 10295 006a 66696E64 		.ascii "find_first_of\0"
 10295      5F666972 
 10295      73745F6F 
 10295      6600
 10296              	LASF21:
 10297 0078 66696E64 		.ascii "find_last_not_of\0"
 10297      5F6C6173 
 10297      745F6E6F 
 10297      745F6F66 
 10297      00
 10298              	LASF24:
 10299 0089 5F5F6D69 		.ascii "__min\0"
 10299      6E00
 10300              	LASF10:
 10301 008f 6F706572 		.ascii "operator=\0"
 10301      61746F72 
GAS LISTING C:\Users\NJLLMR~1\AppData\Local\Temp\cc3wbcxt.s 			page 225


 10301      3D00
 10302              	LASF37:
 10303 0099 74686973 		.ascii "this\0"
 10303      00
 10304              	LASF31:
 10305 009e 6765744D 		.ascii "getMessage\0"
 10305      65737361 
 10305      676500
 10306              	LASF6:
 10307 00a9 5F416C6C 		.ascii "_Alloc_hider\0"
 10307      6F635F68 
 10307      69646572 
 10307      00
 10308              	LASF30:
 10309 00b6 5F6D6573 		.ascii "_message\0"
 10309      73616765 
 10309      00
 10310              	LASF34:
 10311 00bf 496E7661 		.ascii "InvalidSsnExc\0"
 10311      6C696453 
 10311      736E4578 
 10311      6300
 10312              	LASF8:
 10313 00cd 5F535F63 		.ascii "_S_copy_chars\0"
 10313      6F70795F 
 10313      63686172 
 10313      7300
 10314              	LASF17:
 10315 00db 7266696E 		.ascii "rfind\0"
 10315      6400
 10316              	LASF29:
 10317 00e1 496E7661 		.ascii "InvalidNameExc\0"
 10317      6C69644E 
 10317      616D6545 
 10317      786300
 10318              	LASF4:
 10319 00f0 636F6E73 		.ascii "const_reference\0"
 10319      745F7265 
 10319      66657265 
 10319      6E636500 
 10320              	LASF35:
 10321 0100 496E7661 		.ascii "InvalidYearExc\0"
 10321      6C696459 
 10321      65617245 
 10321      786300
 10322              	LASF11:
 10323 010f 6D61785F 		.ascii "max_size\0"
 10323      73697A65 
 10323      00
 10324              	LASF20:
 10325 0118 66696E64 		.ascii "find_first_not_of\0"
 10325      5F666972 
 10325      73745F6E 
 10325      6F745F6F 
 10325      6600
 10326              	LASF13:
 10327 012a 6F706572 		.ascii "operator+=\0"
GAS LISTING C:\Users\NJLLMR~1\AppData\Local\Temp\cc3wbcxt.s 			page 226


 10327      61746F72 
 10327      2B3D00
 10328              	LASF15:
 10329 0135 696E7365 		.ascii "insert\0"
 10329      727400
 10330              	LASF27:
 10331 013c 5F5F6469 		.ascii "__digits\0"
 10331      67697473 
 10331      00
 10332              	LASF28:
 10333 0145 5F56616C 		.ascii "_Value\0"
 10333      756500
 10334              	LASF19:
 10335 014c 66696E64 		.ascii "find_last_of\0"
 10335      5F6C6173 
 10335      745F6F66 
 10335      00
 10336              	LASF33:
 10337 0159 496E7661 		.ascii "InvalidSalaryExc\0"
 10337      6C696453 
 10337      616C6172 
 10337      79457863 
 10337      00
 10338              	LASF2:
 10339 016a 73697A65 		.ascii "size_type\0"
 10339      5F747970 
 10339      6500
 10340              	LASF14:
 10341 0174 61707065 		.ascii "append\0"
 10341      6E6400
 10342              	LASF38:
 10343 017b 5F5F696E 		.ascii "__in_chrg\0"
 10343      5F636872 
 10343      6700
 10344              	LASF7:
 10345 0185 5F535F65 		.ascii "_S_empty_rep\0"
 10345      6D707479 
 10345      5F726570 
 10345      00
 10346              	LASF22:
 10347 0192 5F5F7661 		.ascii "__value\0"
 10347      6C756500 
 10348              	LASF0:
 10349 019a 636F6D70 		.ascii "compare\0"
 10349      61726500 
 10350              	LASF1:
 10351 01a2 61737369 		.ascii "assign\0"
 10351      676E00
 10352              	LASF5:
 10353 01a9 616C6C6F 		.ascii "allocator\0"
 10353      6361746F 
 10353      7200
 10354              		.ident	"GCC: (tdm-1) 4.9.2"
GAS LISTING C:\Users\NJLLMR~1\AppData\Local\Temp\cc3wbcxt.s 			page 227


DEFINED SYMBOLS
                            *ABS*:00000000 Validate.cpp
C:\Users\NJLLMR~1\AppData\Local\Temp\cc3wbcxt.s:9      .text$_ZStorSt13_Ios_OpenmodeS_:00000000 __ZStorSt13_Ios_OpenmodeS_
                             .bss:00000000 __ZStL8__ioinit
C:\Users\NJLLMR~1\AppData\Local\Temp\cc3wbcxt.s:35     .text$_ZN15InvalidInputExcD1Ev:00000000 __ZN15InvalidInputExcD1Ev
C:\Users\NJLLMR~1\AppData\Local\Temp\cc3wbcxt.s:71     .text:00000000 __ZN8Validate13validateInputESs
C:\Users\NJLLMR~1\AppData\Local\Temp\cc3wbcxt.s:2014   .rdata$_ZTI15InvalidInputExc:00000000 __ZTI15InvalidInputExc
C:\Users\NJLLMR~1\AppData\Local\Temp\cc3wbcxt.s:376    .text$_ZN16InvalidSalaryExcD1Ev:00000000 __ZN16InvalidSalaryExcD1Ev
C:\Users\NJLLMR~1\AppData\Local\Temp\cc3wbcxt.s:404    .text:000003e2 __ZN8Validate14validateSalaryESs
C:\Users\NJLLMR~1\AppData\Local\Temp\cc3wbcxt.s:2002   .rdata$_ZTI16InvalidSalaryExc:00000000 __ZTI16InvalidSalaryExc
C:\Users\NJLLMR~1\AppData\Local\Temp\cc3wbcxt.s:583    .text$_ZN13InvalidSsnExcD1Ev:00000000 __ZN13InvalidSsnExcD1Ev
C:\Users\NJLLMR~1\AppData\Local\Temp\cc3wbcxt.s:618    .text:0000058e __ZN8Validate11validateSSNESs
C:\Users\NJLLMR~1\AppData\Local\Temp\cc3wbcxt.s:1990   .rdata$_ZTI13InvalidSsnExc:00000000 __ZTI13InvalidSsnExc
C:\Users\NJLLMR~1\AppData\Local\Temp\cc3wbcxt.s:885    .text$_ZN15InvalidMonthExcD1Ev:00000000 __ZN15InvalidMonthExcD1Ev
C:\Users\NJLLMR~1\AppData\Local\Temp\cc3wbcxt.s:916    .text:00000844 __ZN8Validate13validateMonthESs
C:\Users\NJLLMR~1\AppData\Local\Temp\cc3wbcxt.s:1978   .rdata$_ZTI15InvalidMonthExc:00000000 __ZTI15InvalidMonthExc
C:\Users\NJLLMR~1\AppData\Local\Temp\cc3wbcxt.s:1220   .text$_ZN14InvalidNameExcD1Ev:00000000 __ZN14InvalidNameExcD1Ev
C:\Users\NJLLMR~1\AppData\Local\Temp\cc3wbcxt.s:1255   .text:00000c26 __ZN8Validate12validateNameESs
C:\Users\NJLLMR~1\AppData\Local\Temp\cc3wbcxt.s:1966   .rdata$_ZTI14InvalidNameExc:00000000 __ZTI14InvalidNameExc
C:\Users\NJLLMR~1\AppData\Local\Temp\cc3wbcxt.s:1534   .text$_ZN14InvalidYearExcD1Ev:00000000 __ZN14InvalidYearExcD1Ev
C:\Users\NJLLMR~1\AppData\Local\Temp\cc3wbcxt.s:1569   .text:00000f08 __ZN8Validate12validateYearESs
C:\Users\NJLLMR~1\AppData\Local\Temp\cc3wbcxt.s:1954   .rdata$_ZTI14InvalidYearExc:00000000 __ZTI14InvalidYearExc
C:\Users\NJLLMR~1\AppData\Local\Temp\cc3wbcxt.s:1948   .rdata$_ZTS14InvalidYearExc:00000000 __ZTS14InvalidYearExc
C:\Users\NJLLMR~1\AppData\Local\Temp\cc3wbcxt.s:1960   .rdata$_ZTS14InvalidNameExc:00000000 __ZTS14InvalidNameExc
C:\Users\NJLLMR~1\AppData\Local\Temp\cc3wbcxt.s:1972   .rdata$_ZTS15InvalidMonthExc:00000000 __ZTS15InvalidMonthExc
C:\Users\NJLLMR~1\AppData\Local\Temp\cc3wbcxt.s:1984   .rdata$_ZTS13InvalidSsnExc:00000000 __ZTS13InvalidSsnExc
C:\Users\NJLLMR~1\AppData\Local\Temp\cc3wbcxt.s:1996   .rdata$_ZTS16InvalidSalaryExc:00000000 __ZTS16InvalidSalaryExc
C:\Users\NJLLMR~1\AppData\Local\Temp\cc3wbcxt.s:2008   .rdata$_ZTS15InvalidInputExc:00000000 __ZTS15InvalidInputExc
C:\Users\NJLLMR~1\AppData\Local\Temp\cc3wbcxt.s:2019   .text:0000140d ___tcf_0
C:\Users\NJLLMR~1\AppData\Local\Temp\cc3wbcxt.s:2040   .text:0000141f __Z41__static_initialization_and_destruction_0ii
C:\Users\NJLLMR~1\AppData\Local\Temp\cc3wbcxt.s:2070   .text:0000144c __GLOBAL__sub_I__ZN8Validate13validateInputESs

UNDEFINED SYMBOLS
___gxx_personality_sj0
__Unwind_SjLj_Register
__Unwind_SjLj_Unregister
__ZTVN10__cxxabiv117__class_type_infoE
__ZNSsD1Ev
__ZNSsixEj
___cxa_allocate_exception
__ZNSaIcEC1Ev
__ZNSsC1EPKcRKSaIcE
__ZN15InvalidInputExcC1ESs
__ZNSaIcED1Ev
___cxa_throw
__ZNKSs6lengthEv
__ZNSt18basic_stringstreamIcSt11char_traitsIcESaIcEEC1ERKSsSt13_Ios_Openmode
__ZNSirsERi
__ZNSt18basic_stringstreamIcSt11char_traitsIcESaIcEED1Ev
___cxa_free_exception
__Unwind_SjLj_Resume
__ZN16InvalidSalaryExcC1ESs
__ZN13InvalidSsnExcC1ESs
__ZN15InvalidMonthExcC1ESs
_isalpha
__ZN14InvalidNameExcC1ESs
__ZN14InvalidYearExcC1ESs
GAS LISTING C:\Users\NJLLMR~1\AppData\Local\Temp\cc3wbcxt.s 			page 228


__ZNSt8ios_base4InitD1Ev
__ZNSt8ios_base4InitC1Ev
_atexit
