GAS LISTING C:\Users\NJLLMR~1\AppData\Local\Temp\cce8JzPW.s 			page 1


   1              		.file	"Pizza.cpp"
   2              		.text
   3              	Ltext0:
   4              		.cfi_sections	.debug_frame
   5              	.lcomm __ZStL8__ioinit,1,1
   6              		.section .rdata,"dr"
   7              	LC0:
   8 0000 00       		.ascii "\0"
  12              		.text
  13              		.align 2
  14              		.globl	__ZN5PizzaC2Ev
  16              	__ZN5PizzaC2Ev:
  17              	LFB1282:
  18              		.file 1 "C:/Users/Nj\341ll M\375rdal/3viknanamskeid/LitidVerk1/Pizza2/Stortverk/src/models/Pizza.c
   1:C:/Users/Njáll Mýrdal/3viknanamskeid/LitidVerk1/Pizza2/Stortverk/src/models\Pizza.cpp **** #include "Pizza.h"
   2:C:/Users/Njáll Mýrdal/3viknanamskeid/LitidVerk1/Pizza2/Stortverk/src/models\Pizza.cpp **** 
   3:C:/Users/Njáll Mýrdal/3viknanamskeid/LitidVerk1/Pizza2/Stortverk/src/models\Pizza.cpp **** Pizza::Pizza() {
  19              		.loc 1 3 0
  20              		.cfi_startproc
  21              		.cfi_personality 0,___gxx_personality_sj0
  22              		.cfi_lsda 0,LLSDA1282
  23 0000 55       		pushl	%ebp
  24              		.cfi_def_cfa_offset 8
  25              		.cfi_offset 5, -8
  26 0001 89E5     		movl	%esp, %ebp
  27              		.cfi_def_cfa_register 5
  28 0003 57       		pushl	%edi
  29 0004 56       		pushl	%esi
  30 0005 53       		pushl	%ebx
  31 0006 83EC5C   		subl	$92, %esp
  32              		.cfi_offset 7, -12
  33              		.cfi_offset 6, -16
  34              		.cfi_offset 3, -20
  35 0009 894DE4   		movl	%ecx, -28(%ebp)
  36 000c C745C800 		movl	$___gxx_personality_sj0, -56(%ebp)
  36      000000
  37 0013 C745CC00 		movl	$LLSDA1282, -52(%ebp)
  37      000000
  38 001a 8D45D0   		leal	-48(%ebp), %eax
  39 001d 8D5DE8   		leal	-24(%ebp), %ebx
  40 0020 8918     		movl	%ebx, (%eax)
  41 0022 BAE20100 		movl	$L8, %edx
  41      00
  42 0027 895004   		movl	%edx, 4(%eax)
  43 002a 896008   		movl	%esp, 8(%eax)
  44 002d 8D45B0   		leal	-80(%ebp), %eax
  45 0030 890424   		movl	%eax, (%esp)
  46 0033 E8000000 		call	__Unwind_SjLj_Register
  46      00
  47              	LBB2:
  48              		.loc 1 3 0
  49 0038 8B45E4   		movl	-28(%ebp), %eax
  50 003b C745B4FF 		movl	$-1, -76(%ebp)
  50      FFFFFF
  51 0042 89C1     		movl	%eax, %ecx
  52 0044 E8000000 		call	__ZNSsC1Ev
  52      00
GAS LISTING C:\Users\NJLLMR~1\AppData\Local\Temp\cce8JzPW.s 			page 2


  53 0049 8B45E4   		movl	-28(%ebp), %eax
  54 004c 83C008   		addl	$8, %eax
  55 004f C745B401 		movl	$1, -76(%ebp)
  55      000000
  56 0056 89C1     		movl	%eax, %ecx
  57 0058 E8000000 		call	__ZNSt6vectorI8ToppingsSaIS0_EEC1Ev
  57      00
  58              		.loc 1 3 0 is_stmt 0 discriminator 2
  59 005d 8B45E4   		movl	-28(%ebp), %eax
  60 0060 83C014   		addl	$20, %eax
  61 0063 C745B402 		movl	$2, -76(%ebp)
  61      000000
  62 006a 89C1     		movl	%eax, %ecx
  63 006c E8000000 		call	__ZNSsC1Ev
  63      00
  64              		.loc 1 3 0 discriminator 4
  65 0071 8B45E4   		movl	-28(%ebp), %eax
  66 0074 83C018   		addl	$24, %eax
  67 0077 C745B403 		movl	$3, -76(%ebp)
  67      000000
  68 007e 89C1     		movl	%eax, %ecx
  69 0080 E8000000 		call	__ZNSsC1Ev
  69      00
  70              		.loc 1 3 0 discriminator 6
  71 0085 8B45E4   		movl	-28(%ebp), %eax
  72 0088 83C01C   		addl	$28, %eax
  73 008b C745B404 		movl	$4, -76(%ebp)
  73      000000
  74 0092 89C1     		movl	%eax, %ecx
  75 0094 E8000000 		call	__ZNSsC1Ev
  75      00
  76              		.loc 1 3 0 discriminator 8
  77 0099 8B45E4   		movl	-28(%ebp), %eax
  78 009c 83C020   		addl	$32, %eax
  79 009f C745B405 		movl	$5, -76(%ebp)
  79      000000
  80 00a6 89C1     		movl	%eax, %ecx
  81 00a8 E8000000 		call	__ZNSsC1Ev
  81      00
   4:C:/Users/Njáll Mýrdal/3viknanamskeid/LitidVerk1/Pizza2/Stortverk/src/models\Pizza.cpp ****     _person = "";
  82              		.loc 1 4 0 is_stmt 1
  83 00ad 8B45E4   		movl	-28(%ebp), %eax
  84 00b0 C7042400 		movl	$LC0, (%esp)
  84      000000
  85 00b7 C745B406 		movl	$6, -76(%ebp)
  85      000000
  86 00be 89C1     		movl	%eax, %ecx
  87 00c0 E8000000 		call	__ZNSsaSEPKc
  87      00
  88 00c5 83EC04   		subl	$4, %esp
   5:C:/Users/Njáll Mýrdal/3viknanamskeid/LitidVerk1/Pizza2/Stortverk/src/models\Pizza.cpp ****     _price = 0;
  89              		.loc 1 5 0
  90 00c8 8B45E4   		movl	-28(%ebp), %eax
  91 00cb C7400400 		movl	$0, 4(%eax)
  91      000000
   6:C:/Users/Njáll Mýrdal/3viknanamskeid/LitidVerk1/Pizza2/Stortverk/src/models\Pizza.cpp ****     _topping.clear();
  92              		.loc 1 6 0
GAS LISTING C:\Users\NJLLMR~1\AppData\Local\Temp\cce8JzPW.s 			page 3


  93 00d2 8B45E4   		movl	-28(%ebp), %eax
  94 00d5 83C008   		addl	$8, %eax
  95 00d8 89C1     		movl	%eax, %ecx
  96 00da E8000000 		call	__ZNSt6vectorI8ToppingsSaIS0_EE5clearEv
  96      00
   7:C:/Users/Njáll Mýrdal/3viknanamskeid/LitidVerk1/Pizza2/Stortverk/src/models\Pizza.cpp ****     _size = "";
  97              		.loc 1 7 0
  98 00df 8B45E4   		movl	-28(%ebp), %eax
  99 00e2 83C014   		addl	$20, %eax
 100 00e5 C7042400 		movl	$LC0, (%esp)
 100      000000
 101 00ec 89C1     		movl	%eax, %ecx
 102 00ee E8000000 		call	__ZNSsaSEPKc
 102      00
 103 00f3 83EC04   		subl	$4, %esp
   8:C:/Users/Njáll Mýrdal/3viknanamskeid/LitidVerk1/Pizza2/Stortverk/src/models\Pizza.cpp ****     _sauce = "";
 104              		.loc 1 8 0
 105 00f6 8B45E4   		movl	-28(%ebp), %eax
 106 00f9 83C018   		addl	$24, %eax
 107 00fc C7042400 		movl	$LC0, (%esp)
 107      000000
 108 0103 89C1     		movl	%eax, %ecx
 109 0105 E8000000 		call	__ZNSsaSEPKc
 109      00
 110 010a 83EC04   		subl	$4, %esp
   9:C:/Users/Njáll Mýrdal/3viknanamskeid/LitidVerk1/Pizza2/Stortverk/src/models\Pizza.cpp ****     _cheese = "";
 111              		.loc 1 9 0
 112 010d 8B45E4   		movl	-28(%ebp), %eax
 113 0110 83C01C   		addl	$28, %eax
 114 0113 C7042400 		movl	$LC0, (%esp)
 114      000000
 115 011a 89C1     		movl	%eax, %ecx
 116 011c E8000000 		call	__ZNSsaSEPKc
 116      00
 117 0121 83EC04   		subl	$4, %esp
  10:C:/Users/Njáll Mýrdal/3viknanamskeid/LitidVerk1/Pizza2/Stortverk/src/models\Pizza.cpp ****     _crust = "";
 118              		.loc 1 10 0
 119 0124 8B45E4   		movl	-28(%ebp), %eax
 120 0127 83C020   		addl	$32, %eax
 121 012a C7042400 		movl	$LC0, (%esp)
 121      000000
 122 0131 89C1     		movl	%eax, %ecx
 123 0133 E8000000 		call	__ZNSsaSEPKc
 123      00
 124 0138 83EC04   		subl	$4, %esp
  11:C:/Users/Njáll Mýrdal/3viknanamskeid/LitidVerk1/Pizza2/Stortverk/src/models\Pizza.cpp ****     _status = 'n';
 125              		.loc 1 11 0
 126 013b 8B45E4   		movl	-28(%ebp), %eax
 127 013e C640246E 		movb	$110, 36(%eax)
 128 0142 E9DF0000 		jmp	L17
 128      00
 129              	L14:
 130 0147 8945AC   		movl	%eax, -84(%ebp)
   3:C:/Users/Njáll Mýrdal/3viknanamskeid/LitidVerk1/Pizza2/Stortverk/src/models\Pizza.cpp ****     _price = 0;
 131              		.loc 1 3 0
 132 014a 8B45E4   		movl	-28(%ebp), %eax
 133 014d 83C020   		addl	$32, %eax
GAS LISTING C:\Users\NJLLMR~1\AppData\Local\Temp\cce8JzPW.s 			page 4


 134 0150 C745B400 		movl	$0, -76(%ebp)
 134      000000
 135 0157 89C1     		movl	%eax, %ecx
 136 0159 E8000000 		call	__ZNSsD1Ev
 136      00
 137 015e 8B45AC   		movl	-84(%ebp), %eax
 138 0161 8945AC   		movl	%eax, -84(%ebp)
 139 0164 EB03     		jmp	L3
 140              	L13:
 141 0166 8945AC   		movl	%eax, -84(%ebp)
 142              	L3:
   3:C:/Users/Njáll Mýrdal/3viknanamskeid/LitidVerk1/Pizza2/Stortverk/src/models\Pizza.cpp ****     _price = 0;
 143              		.loc 1 3 0 is_stmt 0 discriminator 9
 144 0169 8B45E4   		movl	-28(%ebp), %eax
 145 016c 83C01C   		addl	$28, %eax
 146 016f C745B400 		movl	$0, -76(%ebp)
 146      000000
 147 0176 89C1     		movl	%eax, %ecx
 148 0178 E8000000 		call	__ZNSsD1Ev
 148      00
 149 017d 8B45AC   		movl	-84(%ebp), %eax
 150 0180 8945AC   		movl	%eax, -84(%ebp)
 151 0183 EB03     		jmp	L4
 152              	L12:
 153 0185 8945AC   		movl	%eax, -84(%ebp)
 154              	L4:
   3:C:/Users/Njáll Mýrdal/3viknanamskeid/LitidVerk1/Pizza2/Stortverk/src/models\Pizza.cpp ****     _price = 0;
 155              		.loc 1 3 0 discriminator 7
 156 0188 8B45E4   		movl	-28(%ebp), %eax
 157 018b 83C018   		addl	$24, %eax
 158 018e C745B400 		movl	$0, -76(%ebp)
 158      000000
 159 0195 89C1     		movl	%eax, %ecx
 160 0197 E8000000 		call	__ZNSsD1Ev
 160      00
 161 019c 8B45AC   		movl	-84(%ebp), %eax
 162 019f 8945AC   		movl	%eax, -84(%ebp)
 163 01a2 EB03     		jmp	L5
 164              	L11:
 165 01a4 8945AC   		movl	%eax, -84(%ebp)
 166              	L5:
   3:C:/Users/Njáll Mýrdal/3viknanamskeid/LitidVerk1/Pizza2/Stortverk/src/models\Pizza.cpp ****     _price = 0;
 167              		.loc 1 3 0 discriminator 5
 168 01a7 8B45E4   		movl	-28(%ebp), %eax
 169 01aa 83C014   		addl	$20, %eax
 170 01ad C745B400 		movl	$0, -76(%ebp)
 170      000000
 171 01b4 89C1     		movl	%eax, %ecx
 172 01b6 E8000000 		call	__ZNSsD1Ev
 172      00
 173 01bb 8B45AC   		movl	-84(%ebp), %eax
 174 01be 8945AC   		movl	%eax, -84(%ebp)
 175 01c1 EB03     		jmp	L6
 176              	L10:
 177 01c3 8945AC   		movl	%eax, -84(%ebp)
 178              	L6:
   3:C:/Users/Njáll Mýrdal/3viknanamskeid/LitidVerk1/Pizza2/Stortverk/src/models\Pizza.cpp ****     _price = 0;
GAS LISTING C:\Users\NJLLMR~1\AppData\Local\Temp\cce8JzPW.s 			page 5


 179              		.loc 1 3 0 discriminator 3
 180 01c6 8B45E4   		movl	-28(%ebp), %eax
 181 01c9 83C008   		addl	$8, %eax
 182 01cc C745B400 		movl	$0, -76(%ebp)
 182      000000
 183 01d3 89C1     		movl	%eax, %ecx
 184 01d5 E8000000 		call	__ZNSt6vectorI8ToppingsSaIS0_EED1Ev
 184      00
 185 01da 8B45AC   		movl	-84(%ebp), %eax
 186 01dd 8945AC   		movl	%eax, -84(%ebp)
 187 01e0 EB21     		jmp	L7
 188              	L8:
 189 01e2 8D6D18   		leal	24(%ebp), %ebp
 190 01e5 8B45B8   		movl	-72(%ebp), %eax
 191 01e8 837DB405 		cmpl	$5, -76(%ebp)
 192 01ec 7710     		ja	L15
 193 01ee 8B55B4   		movl	-76(%ebp), %edx
 194 01f1 C1E202   		sall	$2, %edx
 195 01f4 81C20400 		addl	$L16, %edx
 195      0000
 196 01fa 8B12     		movl	(%edx), %edx
 197 01fc FFE2     		jmp	*%edx
 198              		.section .rdata,"dr"
 199 0001 000000   		.align 4
 200              	L16:
 201 0004 00020000 		.long	L9
 202 0008 C3010000 		.long	L10
 203 000c A4010000 		.long	L11
 204 0010 85010000 		.long	L12
 205 0014 66010000 		.long	L13
 206 0018 47010000 		.long	L14
 207              		.text
 208              	L15:
 209 01fe 0F0B     		ud2
 210              	L9:
 211 0200 8945AC   		movl	%eax, -84(%ebp)
 212              	L7:
   3:C:/Users/Njáll Mýrdal/3viknanamskeid/LitidVerk1/Pizza2/Stortverk/src/models\Pizza.cpp ****     _price = 0;
 213              		.loc 1 3 0 discriminator 1
 214 0203 8B45E4   		movl	-28(%ebp), %eax
 215 0206 C745B400 		movl	$0, -76(%ebp)
 215      000000
 216 020d 89C1     		movl	%eax, %ecx
 217 020f E8000000 		call	__ZNSsD1Ev
 217      00
 218 0214 8B45AC   		movl	-84(%ebp), %eax
 219 0217 890424   		movl	%eax, (%esp)
 220 021a C745B4FF 		movl	$-1, -76(%ebp)
 220      FFFFFF
 221 0221 E8000000 		call	__Unwind_SjLj_Resume
 221      00
 222              	L17:
 223 0226 8D45B0   		leal	-80(%ebp), %eax
 224 0229 890424   		movl	%eax, (%esp)
 225 022c E8000000 		call	__Unwind_SjLj_Unregister
 225      00
 226              	LBE2:
GAS LISTING C:\Users\NJLLMR~1\AppData\Local\Temp\cce8JzPW.s 			page 6


  12:C:/Users/Njáll Mýrdal/3viknanamskeid/LitidVerk1/Pizza2/Stortverk/src/models\Pizza.cpp **** }
 227              		.loc 1 12 0 is_stmt 1
 228 0231 8D65F4   		leal	-12(%ebp), %esp
 229 0234 5B       		popl	%ebx
 230              		.cfi_restore 3
 231 0235 5E       		popl	%esi
 232              		.cfi_restore 6
 233 0236 5F       		popl	%edi
 234              		.cfi_restore 7
 235 0237 5D       		popl	%ebp
 236              		.cfi_restore 5
 237              		.cfi_def_cfa 4, 4
 238 0238 C3       		ret
 239              		.cfi_endproc
 240              	LFE1282:
 241              		.section	.gcc_except_table,"w"
 242              	LLSDA1282:
 243 0000 FF       		.byte	0xff
 244 0001 FF       		.byte	0xff
 245 0002 01       		.byte	0x1
 246 0003 0C       		.uleb128 LLSDACSE1282-LLSDACSB1282
 247              	LLSDACSB1282:
 248 0004 00       		.uleb128 0
 249 0005 00       		.uleb128 0
 250 0006 01       		.uleb128 0x1
 251 0007 00       		.uleb128 0
 252 0008 02       		.uleb128 0x2
 253 0009 00       		.uleb128 0
 254 000a 03       		.uleb128 0x3
 255 000b 00       		.uleb128 0
 256 000c 04       		.uleb128 0x4
 257 000d 00       		.uleb128 0
 258 000e 05       		.uleb128 0x5
 259 000f 00       		.uleb128 0
 260              	LLSDACSE1282:
 261              		.text
 262              		.globl	__ZN5PizzaC1Ev
 264              		.set	__ZN5PizzaC1Ev,__ZN5PizzaC2Ev
 265 0239 90       		.align 2
 266              		.globl	__ZN5PizzaD2Ev
 268              	__ZN5PizzaD2Ev:
 269              	LFB1285:
  13:C:/Users/Njáll Mýrdal/3viknanamskeid/LitidVerk1/Pizza2/Stortverk/src/models\Pizza.cpp **** 
  14:C:/Users/Njáll Mýrdal/3viknanamskeid/LitidVerk1/Pizza2/Stortverk/src/models\Pizza.cpp **** Pizza::~Pizza() {
 270              		.loc 1 14 0
 271              		.cfi_startproc
 272              		.cfi_personality 0,___gxx_personality_sj0
 273              		.cfi_lsda 0,LLSDA1285
 274 023a 55       		pushl	%ebp
 275              		.cfi_def_cfa_offset 8
 276              		.cfi_offset 5, -8
 277 023b 89E5     		movl	%esp, %ebp
 278              		.cfi_def_cfa_register 5
 279 023d 57       		pushl	%edi
 280 023e 56       		pushl	%esi
 281 023f 53       		pushl	%ebx
 282 0240 83EC5C   		subl	$92, %esp
GAS LISTING C:\Users\NJLLMR~1\AppData\Local\Temp\cce8JzPW.s 			page 7


 283              		.cfi_offset 7, -12
 284              		.cfi_offset 6, -16
 285              		.cfi_offset 3, -20
 286 0243 894DE4   		movl	%ecx, -28(%ebp)
 287 0246 C745C800 		movl	$___gxx_personality_sj0, -56(%ebp)
 287      000000
 288 024d C745CC10 		movl	$LLSDA1285, -52(%ebp)
 288      000000
 289 0254 8D45D0   		leal	-48(%ebp), %eax
 290 0257 8D5DE8   		leal	-24(%ebp), %ebx
 291 025a 8918     		movl	%ebx, (%eax)
 292 025c BAEC0200 		movl	$L25, %edx
 292      00
 293 0261 895004   		movl	%edx, 4(%eax)
 294 0264 896008   		movl	%esp, 8(%eax)
 295 0267 8D45B0   		leal	-80(%ebp), %eax
 296 026a 890424   		movl	%eax, (%esp)
 297 026d E8000000 		call	__Unwind_SjLj_Register
 297      00
 298              	LBB3:
 299              		.loc 1 14 0
 300 0272 8B45E4   		movl	-28(%ebp), %eax
 301 0275 83C020   		addl	$32, %eax
 302 0278 C745B401 		movl	$1, -76(%ebp)
 302      000000
 303 027f 89C1     		movl	%eax, %ecx
 304 0281 E8000000 		call	__ZNSsD1Ev
 304      00
 305              		.loc 1 14 0 is_stmt 0 discriminator 2
 306 0286 8B45E4   		movl	-28(%ebp), %eax
 307 0289 83C01C   		addl	$28, %eax
 308 028c C745B402 		movl	$2, -76(%ebp)
 308      000000
 309 0293 89C1     		movl	%eax, %ecx
 310 0295 E8000000 		call	__ZNSsD1Ev
 310      00
 311              		.loc 1 14 0 discriminator 4
 312 029a 8B45E4   		movl	-28(%ebp), %eax
 313 029d 83C018   		addl	$24, %eax
 314 02a0 C745B403 		movl	$3, -76(%ebp)
 314      000000
 315 02a7 89C1     		movl	%eax, %ecx
 316 02a9 E8000000 		call	__ZNSsD1Ev
 316      00
 317              		.loc 1 14 0 discriminator 6
 318 02ae 8B45E4   		movl	-28(%ebp), %eax
 319 02b1 83C014   		addl	$20, %eax
 320 02b4 C745B404 		movl	$4, -76(%ebp)
 320      000000
 321 02bb 89C1     		movl	%eax, %ecx
 322 02bd E8000000 		call	__ZNSsD1Ev
 322      00
 323              		.loc 1 14 0 discriminator 8
 324 02c2 8B45E4   		movl	-28(%ebp), %eax
 325 02c5 83C008   		addl	$8, %eax
 326 02c8 C745B405 		movl	$5, -76(%ebp)
 326      000000
GAS LISTING C:\Users\NJLLMR~1\AppData\Local\Temp\cce8JzPW.s 			page 8


 327 02cf 89C1     		movl	%eax, %ecx
 328 02d1 E8000000 		call	__ZNSt6vectorI8ToppingsSaIS0_EED1Ev
 328      00
 329              		.loc 1 14 0 discriminator 10
 330 02d6 8B45E4   		movl	-28(%ebp), %eax
 331 02d9 C745B4FF 		movl	$-1, -76(%ebp)
 331      FFFFFF
 332 02e0 89C1     		movl	%eax, %ecx
 333 02e2 E8000000 		call	__ZNSsD1Ev
 333      00
 334 02e7 E9D40000 		jmp	L31
 334      00
 335              	L25:
 336 02ec 8D6D18   		leal	24(%ebp), %ebp
 337 02ef 8B55B8   		movl	-72(%ebp), %edx
 338 02f2 8B45B4   		movl	-76(%ebp), %eax
 339 02f5 85C0     		testl	%eax, %eax
 340 02f7 7425     		je	L26
 341 02f9 83E801   		subl	$1, %eax
 342 02fc 85C0     		testl	%eax, %eax
 343 02fe 743D     		je	L27
 344 0300 83E801   		subl	$1, %eax
 345 0303 85C0     		testl	%eax, %eax
 346 0305 7455     		je	L28
 347 0307 83E801   		subl	$1, %eax
 348 030a 85C0     		testl	%eax, %eax
 349 030c 746D     		je	L29
 350 030e 83E801   		subl	$1, %eax
 351 0311 85C0     		testl	%eax, %eax
 352 0313 0F848100 		je	L30
 352      0000
 353 0319 83E801   		subl	$1, %eax
 354 031c 0F0B     		ud2
 355              	L26:
 356 031e 8955AC   		movl	%edx, -84(%ebp)
 357              		.loc 1 14 0
 358 0321 8B45E4   		movl	-28(%ebp), %eax
 359 0324 83C01C   		addl	$28, %eax
 360 0327 C745B400 		movl	$0, -76(%ebp)
 360      000000
 361 032e 89C1     		movl	%eax, %ecx
 362 0330 E8000000 		call	__ZNSsD1Ev
 362      00
 363 0335 8B45AC   		movl	-84(%ebp), %eax
 364 0338 8945AC   		movl	%eax, -84(%ebp)
 365 033b EB03     		jmp	L21
 366              	L27:
 367 033d 8955AC   		movl	%edx, -84(%ebp)
 368              	L21:
 369              		.loc 1 14 0 discriminator 3
 370 0340 8B45E4   		movl	-28(%ebp), %eax
 371 0343 83C018   		addl	$24, %eax
 372 0346 C745B400 		movl	$0, -76(%ebp)
 372      000000
 373 034d 89C1     		movl	%eax, %ecx
 374 034f E8000000 		call	__ZNSsD1Ev
 374      00
GAS LISTING C:\Users\NJLLMR~1\AppData\Local\Temp\cce8JzPW.s 			page 9


 375 0354 8B45AC   		movl	-84(%ebp), %eax
 376 0357 8945AC   		movl	%eax, -84(%ebp)
 377 035a EB03     		jmp	L22
 378              	L28:
 379 035c 8955AC   		movl	%edx, -84(%ebp)
 380              	L22:
 381              		.loc 1 14 0 discriminator 5
 382 035f 8B45E4   		movl	-28(%ebp), %eax
 383 0362 83C014   		addl	$20, %eax
 384 0365 C745B400 		movl	$0, -76(%ebp)
 384      000000
 385 036c 89C1     		movl	%eax, %ecx
 386 036e E8000000 		call	__ZNSsD1Ev
 386      00
 387 0373 8B45AC   		movl	-84(%ebp), %eax
 388 0376 8945AC   		movl	%eax, -84(%ebp)
 389 0379 EB03     		jmp	L23
 390              	L29:
 391 037b 8955AC   		movl	%edx, -84(%ebp)
 392              	L23:
 393              		.loc 1 14 0 discriminator 7
 394 037e 8B45E4   		movl	-28(%ebp), %eax
 395 0381 83C008   		addl	$8, %eax
 396 0384 C745B400 		movl	$0, -76(%ebp)
 396      000000
 397 038b 89C1     		movl	%eax, %ecx
 398 038d E8000000 		call	__ZNSt6vectorI8ToppingsSaIS0_EED1Ev
 398      00
 399 0392 8B45AC   		movl	-84(%ebp), %eax
 400 0395 8945AC   		movl	%eax, -84(%ebp)
 401 0398 EB03     		jmp	L24
 402              	L30:
 403 039a 8955AC   		movl	%edx, -84(%ebp)
 404              	L24:
 405              		.loc 1 14 0 discriminator 9
 406 039d 8B45E4   		movl	-28(%ebp), %eax
 407 03a0 C745B400 		movl	$0, -76(%ebp)
 407      000000
 408 03a7 89C1     		movl	%eax, %ecx
 409 03a9 E8000000 		call	__ZNSsD1Ev
 409      00
 410 03ae 8B45AC   		movl	-84(%ebp), %eax
 411 03b1 890424   		movl	%eax, (%esp)
 412 03b4 C745B4FF 		movl	$-1, -76(%ebp)
 412      FFFFFF
 413 03bb E8000000 		call	__Unwind_SjLj_Resume
 413      00
 414              	L31:
 415 03c0 8D45B0   		leal	-80(%ebp), %eax
 416 03c3 890424   		movl	%eax, (%esp)
 417 03c6 E8000000 		call	__Unwind_SjLj_Unregister
 417      00
 418              	LBE3:
  15:C:/Users/Njáll Mýrdal/3viknanamskeid/LitidVerk1/Pizza2/Stortverk/src/models\Pizza.cpp ****     //dtor
  16:C:/Users/Njáll Mýrdal/3viknanamskeid/LitidVerk1/Pizza2/Stortverk/src/models\Pizza.cpp **** }
 419              		.loc 1 16 0 is_stmt 1
 420 03cb 83C45C   		addl	$92, %esp
GAS LISTING C:\Users\NJLLMR~1\AppData\Local\Temp\cce8JzPW.s 			page 10


 421 03ce 5B       		popl	%ebx
 422              		.cfi_restore 3
 423 03cf 5E       		popl	%esi
 424              		.cfi_restore 6
 425 03d0 5F       		popl	%edi
 426              		.cfi_restore 7
 427 03d1 5D       		popl	%ebp
 428              		.cfi_restore 5
 429              		.cfi_def_cfa 4, 4
 430 03d2 C3       		ret
 431              		.cfi_endproc
 432              	LFE1285:
 433              		.section	.gcc_except_table,"w"
 434              	LLSDA1285:
 435 0010 FF       		.byte	0xff
 436 0011 FF       		.byte	0xff
 437 0012 01       		.byte	0x1
 438 0013 0A       		.uleb128 LLSDACSE1285-LLSDACSB1285
 439              	LLSDACSB1285:
 440 0014 00       		.uleb128 0
 441 0015 00       		.uleb128 0
 442 0016 01       		.uleb128 0x1
 443 0017 00       		.uleb128 0
 444 0018 02       		.uleb128 0x2
 445 0019 00       		.uleb128 0
 446 001a 03       		.uleb128 0x3
 447 001b 00       		.uleb128 0
 448 001c 04       		.uleb128 0x4
 449 001d 00       		.uleb128 0
 450              	LLSDACSE1285:
 451              		.text
 452              		.globl	__ZN5PizzaD1Ev
 454              		.set	__ZN5PizzaD1Ev,__ZN5PizzaD2Ev
 455 03d3 90       		.align 2
 456              		.globl	__ZN5Pizza10set_personESs
 458              	__ZN5Pizza10set_personESs:
 459              	LFB1287:
  17:C:/Users/Njáll Mýrdal/3viknanamskeid/LitidVerk1/Pizza2/Stortverk/src/models\Pizza.cpp **** 
  18:C:/Users/Njáll Mýrdal/3viknanamskeid/LitidVerk1/Pizza2/Stortverk/src/models\Pizza.cpp **** void Pizza::set_person(string person) {
 460              		.loc 1 18 0
 461              		.cfi_startproc
 462 03d4 55       		pushl	%ebp
 463              		.cfi_def_cfa_offset 8
 464              		.cfi_offset 5, -8
 465 03d5 89E5     		movl	%esp, %ebp
 466              		.cfi_def_cfa_register 5
 467 03d7 83EC28   		subl	$40, %esp
 468 03da 894DF4   		movl	%ecx, -12(%ebp)
  19:C:/Users/Njáll Mýrdal/3viknanamskeid/LitidVerk1/Pizza2/Stortverk/src/models\Pizza.cpp ****     _person = person;
 469              		.loc 1 19 0
 470 03dd 8B45F4   		movl	-12(%ebp), %eax
 471 03e0 8B5508   		movl	8(%ebp), %edx
 472 03e3 891424   		movl	%edx, (%esp)
 473 03e6 89C1     		movl	%eax, %ecx
 474 03e8 E8000000 		call	__ZNSsaSERKSs
 474      00
 475 03ed 83EC04   		subl	$4, %esp
GAS LISTING C:\Users\NJLLMR~1\AppData\Local\Temp\cce8JzPW.s 			page 11


  20:C:/Users/Njáll Mýrdal/3viknanamskeid/LitidVerk1/Pizza2/Stortverk/src/models\Pizza.cpp **** }
 476              		.loc 1 20 0
 477 03f0 C9       		leave
 478              		.cfi_restore 5
 479              		.cfi_def_cfa 4, 4
 480 03f1 C20400   		ret	$4
 481              		.cfi_endproc
 482              	LFE1287:
 483              		.align 2
 484              		.globl	__ZN5Pizza9set_priceEi
 486              	__ZN5Pizza9set_priceEi:
 487              	LFB1288:
  21:C:/Users/Njáll Mýrdal/3viknanamskeid/LitidVerk1/Pizza2/Stortverk/src/models\Pizza.cpp **** 
  22:C:/Users/Njáll Mýrdal/3viknanamskeid/LitidVerk1/Pizza2/Stortverk/src/models\Pizza.cpp **** void Pizza::set_price(int price) {
 488              		.loc 1 22 0
 489              		.cfi_startproc
 490 03f4 55       		pushl	%ebp
 491              		.cfi_def_cfa_offset 8
 492              		.cfi_offset 5, -8
 493 03f5 89E5     		movl	%esp, %ebp
 494              		.cfi_def_cfa_register 5
 495 03f7 83EC04   		subl	$4, %esp
 496 03fa 894DFC   		movl	%ecx, -4(%ebp)
  23:C:/Users/Njáll Mýrdal/3viknanamskeid/LitidVerk1/Pizza2/Stortverk/src/models\Pizza.cpp ****     _price = price;
 497              		.loc 1 23 0
 498 03fd 8B45FC   		movl	-4(%ebp), %eax
 499 0400 8B5508   		movl	8(%ebp), %edx
 500 0403 895004   		movl	%edx, 4(%eax)
  24:C:/Users/Njáll Mýrdal/3viknanamskeid/LitidVerk1/Pizza2/Stortverk/src/models\Pizza.cpp **** }
 501              		.loc 1 24 0
 502 0406 C9       		leave
 503              		.cfi_restore 5
 504              		.cfi_def_cfa 4, 4
 505 0407 C20400   		ret	$4
 506              		.cfi_endproc
 507              	LFE1288:
 508              		.align 2
 509              		.globl	__ZN5Pizza8set_sizeESs
 511              	__ZN5Pizza8set_sizeESs:
 512              	LFB1289:
  25:C:/Users/Njáll Mýrdal/3viknanamskeid/LitidVerk1/Pizza2/Stortverk/src/models\Pizza.cpp **** 
  26:C:/Users/Njáll Mýrdal/3viknanamskeid/LitidVerk1/Pizza2/Stortverk/src/models\Pizza.cpp **** void Pizza::set_size(string size_of) {
 513              		.loc 1 26 0
 514              		.cfi_startproc
 515 040a 55       		pushl	%ebp
 516              		.cfi_def_cfa_offset 8
 517              		.cfi_offset 5, -8
 518 040b 89E5     		movl	%esp, %ebp
 519              		.cfi_def_cfa_register 5
 520 040d 83EC28   		subl	$40, %esp
 521 0410 894DF4   		movl	%ecx, -12(%ebp)
  27:C:/Users/Njáll Mýrdal/3viknanamskeid/LitidVerk1/Pizza2/Stortverk/src/models\Pizza.cpp ****     _size = size_of;
 522              		.loc 1 27 0
 523 0413 8B45F4   		movl	-12(%ebp), %eax
 524 0416 8D5014   		leal	20(%eax), %edx
 525 0419 8B4508   		movl	8(%ebp), %eax
 526 041c 890424   		movl	%eax, (%esp)
GAS LISTING C:\Users\NJLLMR~1\AppData\Local\Temp\cce8JzPW.s 			page 12


 527 041f 89D1     		movl	%edx, %ecx
 528 0421 E8000000 		call	__ZNSsaSERKSs
 528      00
 529 0426 83EC04   		subl	$4, %esp
  28:C:/Users/Njáll Mýrdal/3viknanamskeid/LitidVerk1/Pizza2/Stortverk/src/models\Pizza.cpp **** }
 530              		.loc 1 28 0
 531 0429 C9       		leave
 532              		.cfi_restore 5
 533              		.cfi_def_cfa 4, 4
 534 042a C20400   		ret	$4
 535              		.cfi_endproc
 536              	LFE1289:
 537 042d 90       		.align 2
 538              		.globl	__ZN5Pizza9set_sauceESs
 540              	__ZN5Pizza9set_sauceESs:
 541              	LFB1290:
  29:C:/Users/Njáll Mýrdal/3viknanamskeid/LitidVerk1/Pizza2/Stortverk/src/models\Pizza.cpp **** 
  30:C:/Users/Njáll Mýrdal/3viknanamskeid/LitidVerk1/Pizza2/Stortverk/src/models\Pizza.cpp **** void Pizza::set_sauce(string sauce) {
 542              		.loc 1 30 0
 543              		.cfi_startproc
 544 042e 55       		pushl	%ebp
 545              		.cfi_def_cfa_offset 8
 546              		.cfi_offset 5, -8
 547 042f 89E5     		movl	%esp, %ebp
 548              		.cfi_def_cfa_register 5
 549 0431 83EC28   		subl	$40, %esp
 550 0434 894DF4   		movl	%ecx, -12(%ebp)
  31:C:/Users/Njáll Mýrdal/3viknanamskeid/LitidVerk1/Pizza2/Stortverk/src/models\Pizza.cpp ****     _sauce = sauce;
 551              		.loc 1 31 0
 552 0437 8B45F4   		movl	-12(%ebp), %eax
 553 043a 8D5018   		leal	24(%eax), %edx
 554 043d 8B4508   		movl	8(%ebp), %eax
 555 0440 890424   		movl	%eax, (%esp)
 556 0443 89D1     		movl	%edx, %ecx
 557 0445 E8000000 		call	__ZNSsaSERKSs
 557      00
 558 044a 83EC04   		subl	$4, %esp
  32:C:/Users/Njáll Mýrdal/3viknanamskeid/LitidVerk1/Pizza2/Stortverk/src/models\Pizza.cpp **** }
 559              		.loc 1 32 0
 560 044d C9       		leave
 561              		.cfi_restore 5
 562              		.cfi_def_cfa 4, 4
 563 044e C20400   		ret	$4
 564              		.cfi_endproc
 565              	LFE1290:
 566 0451 90       		.align 2
 567              		.globl	__ZN5Pizza10set_cheeseESs
 569              	__ZN5Pizza10set_cheeseESs:
 570              	LFB1291:
  33:C:/Users/Njáll Mýrdal/3viknanamskeid/LitidVerk1/Pizza2/Stortverk/src/models\Pizza.cpp **** 
  34:C:/Users/Njáll Mýrdal/3viknanamskeid/LitidVerk1/Pizza2/Stortverk/src/models\Pizza.cpp **** void Pizza::set_cheese(string cheese) {
 571              		.loc 1 34 0
 572              		.cfi_startproc
 573 0452 55       		pushl	%ebp
 574              		.cfi_def_cfa_offset 8
 575              		.cfi_offset 5, -8
 576 0453 89E5     		movl	%esp, %ebp
GAS LISTING C:\Users\NJLLMR~1\AppData\Local\Temp\cce8JzPW.s 			page 13


 577              		.cfi_def_cfa_register 5
 578 0455 83EC28   		subl	$40, %esp
 579 0458 894DF4   		movl	%ecx, -12(%ebp)
  35:C:/Users/Njáll Mýrdal/3viknanamskeid/LitidVerk1/Pizza2/Stortverk/src/models\Pizza.cpp ****     _cheese = cheese;
 580              		.loc 1 35 0
 581 045b 8B45F4   		movl	-12(%ebp), %eax
 582 045e 8D501C   		leal	28(%eax), %edx
 583 0461 8B4508   		movl	8(%ebp), %eax
 584 0464 890424   		movl	%eax, (%esp)
 585 0467 89D1     		movl	%edx, %ecx
 586 0469 E8000000 		call	__ZNSsaSERKSs
 586      00
 587 046e 83EC04   		subl	$4, %esp
  36:C:/Users/Njáll Mýrdal/3viknanamskeid/LitidVerk1/Pizza2/Stortverk/src/models\Pizza.cpp **** }
 588              		.loc 1 36 0
 589 0471 C9       		leave
 590              		.cfi_restore 5
 591              		.cfi_def_cfa 4, 4
 592 0472 C20400   		ret	$4
 593              		.cfi_endproc
 594              	LFE1291:
 595 0475 90       		.align 2
 596              		.globl	__ZN5Pizza9set_crustESs
 598              	__ZN5Pizza9set_crustESs:
 599              	LFB1292:
  37:C:/Users/Njáll Mýrdal/3viknanamskeid/LitidVerk1/Pizza2/Stortverk/src/models\Pizza.cpp **** 
  38:C:/Users/Njáll Mýrdal/3viknanamskeid/LitidVerk1/Pizza2/Stortverk/src/models\Pizza.cpp **** void Pizza::set_crust(string crust) {
 600              		.loc 1 38 0
 601              		.cfi_startproc
 602 0476 55       		pushl	%ebp
 603              		.cfi_def_cfa_offset 8
 604              		.cfi_offset 5, -8
 605 0477 89E5     		movl	%esp, %ebp
 606              		.cfi_def_cfa_register 5
 607 0479 83EC28   		subl	$40, %esp
 608 047c 894DF4   		movl	%ecx, -12(%ebp)
  39:C:/Users/Njáll Mýrdal/3viknanamskeid/LitidVerk1/Pizza2/Stortverk/src/models\Pizza.cpp ****     _crust = crust;
 609              		.loc 1 39 0
 610 047f 8B45F4   		movl	-12(%ebp), %eax
 611 0482 8D5020   		leal	32(%eax), %edx
 612 0485 8B4508   		movl	8(%ebp), %eax
 613 0488 890424   		movl	%eax, (%esp)
 614 048b 89D1     		movl	%edx, %ecx
 615 048d E8000000 		call	__ZNSsaSERKSs
 615      00
 616 0492 83EC04   		subl	$4, %esp
  40:C:/Users/Njáll Mýrdal/3viknanamskeid/LitidVerk1/Pizza2/Stortverk/src/models\Pizza.cpp **** }
 617              		.loc 1 40 0
 618 0495 C9       		leave
 619              		.cfi_restore 5
 620              		.cfi_def_cfa 4, 4
 621 0496 C20400   		ret	$4
 622              		.cfi_endproc
 623              	LFE1292:
 624 0499 90       		.align 2
 625              		.globl	__ZN5Pizza10set_statusEc
 627              	__ZN5Pizza10set_statusEc:
GAS LISTING C:\Users\NJLLMR~1\AppData\Local\Temp\cce8JzPW.s 			page 14


 628              	LFB1293:
  41:C:/Users/Njáll Mýrdal/3viknanamskeid/LitidVerk1/Pizza2/Stortverk/src/models\Pizza.cpp **** 
  42:C:/Users/Njáll Mýrdal/3viknanamskeid/LitidVerk1/Pizza2/Stortverk/src/models\Pizza.cpp **** void Pizza::set_status(char status) {
 629              		.loc 1 42 0
 630              		.cfi_startproc
 631 049a 55       		pushl	%ebp
 632              		.cfi_def_cfa_offset 8
 633              		.cfi_offset 5, -8
 634 049b 89E5     		movl	%esp, %ebp
 635              		.cfi_def_cfa_register 5
 636 049d 83EC08   		subl	$8, %esp
 637 04a0 894DFC   		movl	%ecx, -4(%ebp)
 638 04a3 8B4508   		movl	8(%ebp), %eax
 639 04a6 8845F8   		movb	%al, -8(%ebp)
  43:C:/Users/Njáll Mýrdal/3viknanamskeid/LitidVerk1/Pizza2/Stortverk/src/models\Pizza.cpp ****     _status = status;
 640              		.loc 1 43 0
 641 04a9 8B45FC   		movl	-4(%ebp), %eax
 642 04ac 0FB655F8 		movzbl	-8(%ebp), %edx
 643 04b0 885024   		movb	%dl, 36(%eax)
  44:C:/Users/Njáll Mýrdal/3viknanamskeid/LitidVerk1/Pizza2/Stortverk/src/models\Pizza.cpp **** }
 644              		.loc 1 44 0
 645 04b3 C9       		leave
 646              		.cfi_restore 5
 647              		.cfi_def_cfa 4, 4
 648 04b4 C20400   		ret	$4
 649              		.cfi_endproc
 650              	LFE1293:
 651              		.section	.text$_ZNSt6vectorI8ToppingsSaIS0_EEC1Ev,"x"
 652              		.linkonce discard
 653              		.align 2
 654              		.globl	__ZNSt6vectorI8ToppingsSaIS0_EEC1Ev
 656              	__ZNSt6vectorI8ToppingsSaIS0_EEC1Ev:
 657              	LFB1306:
 658              		.file 2 "C:/Program Files (x86)/CodeBlocks/MinGW/lib/gcc/mingw32/4.9.2/include/c++/bits/stl_vector
   1:C:/Program Files (x86)/CodeBlocks/MinGW/lib/gcc/mingw32/4.9.2/include/c++/bits\stl_vector.h **** // Vector implementation -*- C++ -*-
   2:C:/Program Files (x86)/CodeBlocks/MinGW/lib/gcc/mingw32/4.9.2/include/c++/bits\stl_vector.h **** 
   3:C:/Program Files (x86)/CodeBlocks/MinGW/lib/gcc/mingw32/4.9.2/include/c++/bits\stl_vector.h **** // Copyright (C) 2001-2014 Free Software Foundation, Inc.
   4:C:/Program Files (x86)/CodeBlocks/MinGW/lib/gcc/mingw32/4.9.2/include/c++/bits\stl_vector.h **** //
   5:C:/Program Files (x86)/CodeBlocks/MinGW/lib/gcc/mingw32/4.9.2/include/c++/bits\stl_vector.h **** // This file is part of the GNU ISO C++ Library.  This library is free
   6:C:/Program Files (x86)/CodeBlocks/MinGW/lib/gcc/mingw32/4.9.2/include/c++/bits\stl_vector.h **** // software; you can redistribute it and/or modify it under the
   7:C:/Program Files (x86)/CodeBlocks/MinGW/lib/gcc/mingw32/4.9.2/include/c++/bits\stl_vector.h **** // terms of the GNU General Public License as published by the
   8:C:/Program Files (x86)/CodeBlocks/MinGW/lib/gcc/mingw32/4.9.2/include/c++/bits\stl_vector.h **** // Free Software Foundation; either version 3, or (at your option)
   9:C:/Program Files (x86)/CodeBlocks/MinGW/lib/gcc/mingw32/4.9.2/include/c++/bits\stl_vector.h **** // any later version.
  10:C:/Program Files (x86)/CodeBlocks/MinGW/lib/gcc/mingw32/4.9.2/include/c++/bits\stl_vector.h **** 
  11:C:/Program Files (x86)/CodeBlocks/MinGW/lib/gcc/mingw32/4.9.2/include/c++/bits\stl_vector.h **** // This library is distributed in the hope that it will be useful,
  12:C:/Program Files (x86)/CodeBlocks/MinGW/lib/gcc/mingw32/4.9.2/include/c++/bits\stl_vector.h **** // but WITHOUT ANY WARRANTY; without even the implied warranty of
  13:C:/Program Files (x86)/CodeBlocks/MinGW/lib/gcc/mingw32/4.9.2/include/c++/bits\stl_vector.h **** // MERCHANTABILITY or FITNESS FOR A PARTICULAR PURPOSE.  See the
  14:C:/Program Files (x86)/CodeBlocks/MinGW/lib/gcc/mingw32/4.9.2/include/c++/bits\stl_vector.h **** // GNU General Public License for more details.
  15:C:/Program Files (x86)/CodeBlocks/MinGW/lib/gcc/mingw32/4.9.2/include/c++/bits\stl_vector.h **** 
  16:C:/Program Files (x86)/CodeBlocks/MinGW/lib/gcc/mingw32/4.9.2/include/c++/bits\stl_vector.h **** // Under Section 7 of GPL version 3, you are granted additional
  17:C:/Program Files (x86)/CodeBlocks/MinGW/lib/gcc/mingw32/4.9.2/include/c++/bits\stl_vector.h **** // permissions described in the GCC Runtime Library Exception, version
  18:C:/Program Files (x86)/CodeBlocks/MinGW/lib/gcc/mingw32/4.9.2/include/c++/bits\stl_vector.h **** // 3.1, as published by the Free Software Foundation.
  19:C:/Program Files (x86)/CodeBlocks/MinGW/lib/gcc/mingw32/4.9.2/include/c++/bits\stl_vector.h **** 
  20:C:/Program Files (x86)/CodeBlocks/MinGW/lib/gcc/mingw32/4.9.2/include/c++/bits\stl_vector.h **** // You should have received a copy of the GNU General Public License and
  21:C:/Program Files (x86)/CodeBlocks/MinGW/lib/gcc/mingw32/4.9.2/include/c++/bits\stl_vector.h **** // a copy of the GCC Runtime Library Exception along with this program;
  22:C:/Program Files (x86)/CodeBlocks/MinGW/lib/gcc/mingw32/4.9.2/include/c++/bits\stl_vector.h **** // see the files COPYING3 and COPYING.RUNTIME respectively.  If not, see
  23:C:/Program Files (x86)/CodeBlocks/MinGW/lib/gcc/mingw32/4.9.2/include/c++/bits\stl_vector.h **** // <http://www.gnu.org/licenses/>.
GAS LISTING C:\Users\NJLLMR~1\AppData\Local\Temp\cce8JzPW.s 			page 15


  24:C:/Program Files (x86)/CodeBlocks/MinGW/lib/gcc/mingw32/4.9.2/include/c++/bits\stl_vector.h **** 
  25:C:/Program Files (x86)/CodeBlocks/MinGW/lib/gcc/mingw32/4.9.2/include/c++/bits\stl_vector.h **** /*
  26:C:/Program Files (x86)/CodeBlocks/MinGW/lib/gcc/mingw32/4.9.2/include/c++/bits\stl_vector.h ****  *
  27:C:/Program Files (x86)/CodeBlocks/MinGW/lib/gcc/mingw32/4.9.2/include/c++/bits\stl_vector.h ****  * Copyright (c) 1994
  28:C:/Program Files (x86)/CodeBlocks/MinGW/lib/gcc/mingw32/4.9.2/include/c++/bits\stl_vector.h ****  * Hewlett-Packard Company
  29:C:/Program Files (x86)/CodeBlocks/MinGW/lib/gcc/mingw32/4.9.2/include/c++/bits\stl_vector.h ****  *
  30:C:/Program Files (x86)/CodeBlocks/MinGW/lib/gcc/mingw32/4.9.2/include/c++/bits\stl_vector.h ****  * Permission to use, copy, modify, distribute and sell this software
  31:C:/Program Files (x86)/CodeBlocks/MinGW/lib/gcc/mingw32/4.9.2/include/c++/bits\stl_vector.h ****  * and its documentation for any purpose is hereby granted without fee,
  32:C:/Program Files (x86)/CodeBlocks/MinGW/lib/gcc/mingw32/4.9.2/include/c++/bits\stl_vector.h ****  * provided that the above copyright notice appear in all copies and
  33:C:/Program Files (x86)/CodeBlocks/MinGW/lib/gcc/mingw32/4.9.2/include/c++/bits\stl_vector.h ****  * that both that copyright notice and this permission notice appear
  34:C:/Program Files (x86)/CodeBlocks/MinGW/lib/gcc/mingw32/4.9.2/include/c++/bits\stl_vector.h ****  * in supporting documentation.  Hewlett-Packard Company makes no
  35:C:/Program Files (x86)/CodeBlocks/MinGW/lib/gcc/mingw32/4.9.2/include/c++/bits\stl_vector.h ****  * representations about the suitability of this software for any
  36:C:/Program Files (x86)/CodeBlocks/MinGW/lib/gcc/mingw32/4.9.2/include/c++/bits\stl_vector.h ****  * purpose.  It is provided "as is" without express or implied warranty.
  37:C:/Program Files (x86)/CodeBlocks/MinGW/lib/gcc/mingw32/4.9.2/include/c++/bits\stl_vector.h ****  *
  38:C:/Program Files (x86)/CodeBlocks/MinGW/lib/gcc/mingw32/4.9.2/include/c++/bits\stl_vector.h ****  *
  39:C:/Program Files (x86)/CodeBlocks/MinGW/lib/gcc/mingw32/4.9.2/include/c++/bits\stl_vector.h ****  * Copyright (c) 1996
  40:C:/Program Files (x86)/CodeBlocks/MinGW/lib/gcc/mingw32/4.9.2/include/c++/bits\stl_vector.h ****  * Silicon Graphics Computer Systems, Inc.
  41:C:/Program Files (x86)/CodeBlocks/MinGW/lib/gcc/mingw32/4.9.2/include/c++/bits\stl_vector.h ****  *
  42:C:/Program Files (x86)/CodeBlocks/MinGW/lib/gcc/mingw32/4.9.2/include/c++/bits\stl_vector.h ****  * Permission to use, copy, modify, distribute and sell this software
  43:C:/Program Files (x86)/CodeBlocks/MinGW/lib/gcc/mingw32/4.9.2/include/c++/bits\stl_vector.h ****  * and its documentation for any purpose is hereby granted without fee,
  44:C:/Program Files (x86)/CodeBlocks/MinGW/lib/gcc/mingw32/4.9.2/include/c++/bits\stl_vector.h ****  * provided that the above copyright notice appear in all copies and
  45:C:/Program Files (x86)/CodeBlocks/MinGW/lib/gcc/mingw32/4.9.2/include/c++/bits\stl_vector.h ****  * that both that copyright notice and this permission notice appear
  46:C:/Program Files (x86)/CodeBlocks/MinGW/lib/gcc/mingw32/4.9.2/include/c++/bits\stl_vector.h ****  * in supporting documentation.  Silicon Graphics makes no
  47:C:/Program Files (x86)/CodeBlocks/MinGW/lib/gcc/mingw32/4.9.2/include/c++/bits\stl_vector.h ****  * representations about the suitability of this  software for any
  48:C:/Program Files (x86)/CodeBlocks/MinGW/lib/gcc/mingw32/4.9.2/include/c++/bits\stl_vector.h ****  * purpose.  It is provided "as is" without express or implied warranty.
  49:C:/Program Files (x86)/CodeBlocks/MinGW/lib/gcc/mingw32/4.9.2/include/c++/bits\stl_vector.h ****  */
  50:C:/Program Files (x86)/CodeBlocks/MinGW/lib/gcc/mingw32/4.9.2/include/c++/bits\stl_vector.h **** 
  51:C:/Program Files (x86)/CodeBlocks/MinGW/lib/gcc/mingw32/4.9.2/include/c++/bits\stl_vector.h **** /** @file bits/stl_vector.h
  52:C:/Program Files (x86)/CodeBlocks/MinGW/lib/gcc/mingw32/4.9.2/include/c++/bits\stl_vector.h ****  *  This is an internal header file, included by other library headers.
  53:C:/Program Files (x86)/CodeBlocks/MinGW/lib/gcc/mingw32/4.9.2/include/c++/bits\stl_vector.h ****  *  Do not attempt to use it directly. @headername{vector}
  54:C:/Program Files (x86)/CodeBlocks/MinGW/lib/gcc/mingw32/4.9.2/include/c++/bits\stl_vector.h ****  */
  55:C:/Program Files (x86)/CodeBlocks/MinGW/lib/gcc/mingw32/4.9.2/include/c++/bits\stl_vector.h **** 
  56:C:/Program Files (x86)/CodeBlocks/MinGW/lib/gcc/mingw32/4.9.2/include/c++/bits\stl_vector.h **** #ifndef _STL_VECTOR_H
  57:C:/Program Files (x86)/CodeBlocks/MinGW/lib/gcc/mingw32/4.9.2/include/c++/bits\stl_vector.h **** #define _STL_VECTOR_H 1
  58:C:/Program Files (x86)/CodeBlocks/MinGW/lib/gcc/mingw32/4.9.2/include/c++/bits\stl_vector.h **** 
  59:C:/Program Files (x86)/CodeBlocks/MinGW/lib/gcc/mingw32/4.9.2/include/c++/bits\stl_vector.h **** #include <bits/stl_iterator_base_funcs.h>
  60:C:/Program Files (x86)/CodeBlocks/MinGW/lib/gcc/mingw32/4.9.2/include/c++/bits\stl_vector.h **** #include <bits/functexcept.h>
  61:C:/Program Files (x86)/CodeBlocks/MinGW/lib/gcc/mingw32/4.9.2/include/c++/bits\stl_vector.h **** #include <bits/concept_check.h>
  62:C:/Program Files (x86)/CodeBlocks/MinGW/lib/gcc/mingw32/4.9.2/include/c++/bits\stl_vector.h **** #if __cplusplus >= 201103L
  63:C:/Program Files (x86)/CodeBlocks/MinGW/lib/gcc/mingw32/4.9.2/include/c++/bits\stl_vector.h **** #include <initializer_list>
  64:C:/Program Files (x86)/CodeBlocks/MinGW/lib/gcc/mingw32/4.9.2/include/c++/bits\stl_vector.h **** #endif
  65:C:/Program Files (x86)/CodeBlocks/MinGW/lib/gcc/mingw32/4.9.2/include/c++/bits\stl_vector.h **** 
  66:C:/Program Files (x86)/CodeBlocks/MinGW/lib/gcc/mingw32/4.9.2/include/c++/bits\stl_vector.h **** namespace std _GLIBCXX_VISIBILITY(default)
  67:C:/Program Files (x86)/CodeBlocks/MinGW/lib/gcc/mingw32/4.9.2/include/c++/bits\stl_vector.h **** {
  68:C:/Program Files (x86)/CodeBlocks/MinGW/lib/gcc/mingw32/4.9.2/include/c++/bits\stl_vector.h **** _GLIBCXX_BEGIN_NAMESPACE_CONTAINER
  69:C:/Program Files (x86)/CodeBlocks/MinGW/lib/gcc/mingw32/4.9.2/include/c++/bits\stl_vector.h **** 
  70:C:/Program Files (x86)/CodeBlocks/MinGW/lib/gcc/mingw32/4.9.2/include/c++/bits\stl_vector.h ****   /// See bits/stl_deque.h's _Deque_base for an explanation.
  71:C:/Program Files (x86)/CodeBlocks/MinGW/lib/gcc/mingw32/4.9.2/include/c++/bits\stl_vector.h ****   template<typename _Tp, typename _Alloc>
  72:C:/Program Files (x86)/CodeBlocks/MinGW/lib/gcc/mingw32/4.9.2/include/c++/bits\stl_vector.h ****     struct _Vector_base
  73:C:/Program Files (x86)/CodeBlocks/MinGW/lib/gcc/mingw32/4.9.2/include/c++/bits\stl_vector.h ****     {
  74:C:/Program Files (x86)/CodeBlocks/MinGW/lib/gcc/mingw32/4.9.2/include/c++/bits\stl_vector.h ****       typedef typename __gnu_cxx::__alloc_traits<_Alloc>::template
  75:C:/Program Files (x86)/CodeBlocks/MinGW/lib/gcc/mingw32/4.9.2/include/c++/bits\stl_vector.h ****         rebind<_Tp>::other _Tp_alloc_type;
  76:C:/Program Files (x86)/CodeBlocks/MinGW/lib/gcc/mingw32/4.9.2/include/c++/bits\stl_vector.h ****       typedef typename __gnu_cxx::__alloc_traits<_Tp_alloc_type>::pointer
  77:C:/Program Files (x86)/CodeBlocks/MinGW/lib/gcc/mingw32/4.9.2/include/c++/bits\stl_vector.h ****        	pointer;
  78:C:/Program Files (x86)/CodeBlocks/MinGW/lib/gcc/mingw32/4.9.2/include/c++/bits\stl_vector.h **** 
  79:C:/Program Files (x86)/CodeBlocks/MinGW/lib/gcc/mingw32/4.9.2/include/c++/bits\stl_vector.h ****       struct _Vector_impl 
  80:C:/Program Files (x86)/CodeBlocks/MinGW/lib/gcc/mingw32/4.9.2/include/c++/bits\stl_vector.h ****       : public _Tp_alloc_type
GAS LISTING C:\Users\NJLLMR~1\AppData\Local\Temp\cce8JzPW.s 			page 16


  81:C:/Program Files (x86)/CodeBlocks/MinGW/lib/gcc/mingw32/4.9.2/include/c++/bits\stl_vector.h ****       {
  82:C:/Program Files (x86)/CodeBlocks/MinGW/lib/gcc/mingw32/4.9.2/include/c++/bits\stl_vector.h **** 	pointer _M_start;
  83:C:/Program Files (x86)/CodeBlocks/MinGW/lib/gcc/mingw32/4.9.2/include/c++/bits\stl_vector.h **** 	pointer _M_finish;
  84:C:/Program Files (x86)/CodeBlocks/MinGW/lib/gcc/mingw32/4.9.2/include/c++/bits\stl_vector.h **** 	pointer _M_end_of_storage;
  85:C:/Program Files (x86)/CodeBlocks/MinGW/lib/gcc/mingw32/4.9.2/include/c++/bits\stl_vector.h **** 
  86:C:/Program Files (x86)/CodeBlocks/MinGW/lib/gcc/mingw32/4.9.2/include/c++/bits\stl_vector.h **** 	_Vector_impl()
  87:C:/Program Files (x86)/CodeBlocks/MinGW/lib/gcc/mingw32/4.9.2/include/c++/bits\stl_vector.h **** 	: _Tp_alloc_type(), _M_start(0), _M_finish(0), _M_end_of_storage(0)
  88:C:/Program Files (x86)/CodeBlocks/MinGW/lib/gcc/mingw32/4.9.2/include/c++/bits\stl_vector.h **** 	{ }
  89:C:/Program Files (x86)/CodeBlocks/MinGW/lib/gcc/mingw32/4.9.2/include/c++/bits\stl_vector.h **** 
  90:C:/Program Files (x86)/CodeBlocks/MinGW/lib/gcc/mingw32/4.9.2/include/c++/bits\stl_vector.h **** 	_Vector_impl(_Tp_alloc_type const& __a) _GLIBCXX_NOEXCEPT
  91:C:/Program Files (x86)/CodeBlocks/MinGW/lib/gcc/mingw32/4.9.2/include/c++/bits\stl_vector.h **** 	: _Tp_alloc_type(__a), _M_start(0), _M_finish(0), _M_end_of_storage(0)
  92:C:/Program Files (x86)/CodeBlocks/MinGW/lib/gcc/mingw32/4.9.2/include/c++/bits\stl_vector.h **** 	{ }
  93:C:/Program Files (x86)/CodeBlocks/MinGW/lib/gcc/mingw32/4.9.2/include/c++/bits\stl_vector.h **** 
  94:C:/Program Files (x86)/CodeBlocks/MinGW/lib/gcc/mingw32/4.9.2/include/c++/bits\stl_vector.h **** #if __cplusplus >= 201103L
  95:C:/Program Files (x86)/CodeBlocks/MinGW/lib/gcc/mingw32/4.9.2/include/c++/bits\stl_vector.h **** 	_Vector_impl(_Tp_alloc_type&& __a) noexcept
  96:C:/Program Files (x86)/CodeBlocks/MinGW/lib/gcc/mingw32/4.9.2/include/c++/bits\stl_vector.h **** 	: _Tp_alloc_type(std::move(__a)),
  97:C:/Program Files (x86)/CodeBlocks/MinGW/lib/gcc/mingw32/4.9.2/include/c++/bits\stl_vector.h **** 	  _M_start(0), _M_finish(0), _M_end_of_storage(0)
  98:C:/Program Files (x86)/CodeBlocks/MinGW/lib/gcc/mingw32/4.9.2/include/c++/bits\stl_vector.h **** 	{ }
  99:C:/Program Files (x86)/CodeBlocks/MinGW/lib/gcc/mingw32/4.9.2/include/c++/bits\stl_vector.h **** #endif
 100:C:/Program Files (x86)/CodeBlocks/MinGW/lib/gcc/mingw32/4.9.2/include/c++/bits\stl_vector.h **** 
 101:C:/Program Files (x86)/CodeBlocks/MinGW/lib/gcc/mingw32/4.9.2/include/c++/bits\stl_vector.h **** 	void _M_swap_data(_Vector_impl& __x) _GLIBCXX_NOEXCEPT
 102:C:/Program Files (x86)/CodeBlocks/MinGW/lib/gcc/mingw32/4.9.2/include/c++/bits\stl_vector.h **** 	{
 103:C:/Program Files (x86)/CodeBlocks/MinGW/lib/gcc/mingw32/4.9.2/include/c++/bits\stl_vector.h **** 	  std::swap(_M_start, __x._M_start);
 104:C:/Program Files (x86)/CodeBlocks/MinGW/lib/gcc/mingw32/4.9.2/include/c++/bits\stl_vector.h **** 	  std::swap(_M_finish, __x._M_finish);
 105:C:/Program Files (x86)/CodeBlocks/MinGW/lib/gcc/mingw32/4.9.2/include/c++/bits\stl_vector.h **** 	  std::swap(_M_end_of_storage, __x._M_end_of_storage);
 106:C:/Program Files (x86)/CodeBlocks/MinGW/lib/gcc/mingw32/4.9.2/include/c++/bits\stl_vector.h **** 	}
 107:C:/Program Files (x86)/CodeBlocks/MinGW/lib/gcc/mingw32/4.9.2/include/c++/bits\stl_vector.h ****       };
 108:C:/Program Files (x86)/CodeBlocks/MinGW/lib/gcc/mingw32/4.9.2/include/c++/bits\stl_vector.h ****       
 109:C:/Program Files (x86)/CodeBlocks/MinGW/lib/gcc/mingw32/4.9.2/include/c++/bits\stl_vector.h ****     public:
 110:C:/Program Files (x86)/CodeBlocks/MinGW/lib/gcc/mingw32/4.9.2/include/c++/bits\stl_vector.h ****       typedef _Alloc allocator_type;
 111:C:/Program Files (x86)/CodeBlocks/MinGW/lib/gcc/mingw32/4.9.2/include/c++/bits\stl_vector.h **** 
 112:C:/Program Files (x86)/CodeBlocks/MinGW/lib/gcc/mingw32/4.9.2/include/c++/bits\stl_vector.h ****       _Tp_alloc_type&
 113:C:/Program Files (x86)/CodeBlocks/MinGW/lib/gcc/mingw32/4.9.2/include/c++/bits\stl_vector.h ****       _M_get_Tp_allocator() _GLIBCXX_NOEXCEPT
 114:C:/Program Files (x86)/CodeBlocks/MinGW/lib/gcc/mingw32/4.9.2/include/c++/bits\stl_vector.h ****       { return *static_cast<_Tp_alloc_type*>(&this->_M_impl); }
 115:C:/Program Files (x86)/CodeBlocks/MinGW/lib/gcc/mingw32/4.9.2/include/c++/bits\stl_vector.h **** 
 116:C:/Program Files (x86)/CodeBlocks/MinGW/lib/gcc/mingw32/4.9.2/include/c++/bits\stl_vector.h ****       const _Tp_alloc_type&
 117:C:/Program Files (x86)/CodeBlocks/MinGW/lib/gcc/mingw32/4.9.2/include/c++/bits\stl_vector.h ****       _M_get_Tp_allocator() const _GLIBCXX_NOEXCEPT
 118:C:/Program Files (x86)/CodeBlocks/MinGW/lib/gcc/mingw32/4.9.2/include/c++/bits\stl_vector.h ****       { return *static_cast<const _Tp_alloc_type*>(&this->_M_impl); }
 119:C:/Program Files (x86)/CodeBlocks/MinGW/lib/gcc/mingw32/4.9.2/include/c++/bits\stl_vector.h **** 
 120:C:/Program Files (x86)/CodeBlocks/MinGW/lib/gcc/mingw32/4.9.2/include/c++/bits\stl_vector.h ****       allocator_type
 121:C:/Program Files (x86)/CodeBlocks/MinGW/lib/gcc/mingw32/4.9.2/include/c++/bits\stl_vector.h ****       get_allocator() const _GLIBCXX_NOEXCEPT
 122:C:/Program Files (x86)/CodeBlocks/MinGW/lib/gcc/mingw32/4.9.2/include/c++/bits\stl_vector.h ****       { return allocator_type(_M_get_Tp_allocator()); }
 123:C:/Program Files (x86)/CodeBlocks/MinGW/lib/gcc/mingw32/4.9.2/include/c++/bits\stl_vector.h **** 
 124:C:/Program Files (x86)/CodeBlocks/MinGW/lib/gcc/mingw32/4.9.2/include/c++/bits\stl_vector.h ****       _Vector_base()
 125:C:/Program Files (x86)/CodeBlocks/MinGW/lib/gcc/mingw32/4.9.2/include/c++/bits\stl_vector.h ****       : _M_impl() { }
 126:C:/Program Files (x86)/CodeBlocks/MinGW/lib/gcc/mingw32/4.9.2/include/c++/bits\stl_vector.h **** 
 127:C:/Program Files (x86)/CodeBlocks/MinGW/lib/gcc/mingw32/4.9.2/include/c++/bits\stl_vector.h ****       _Vector_base(const allocator_type& __a) _GLIBCXX_NOEXCEPT
 128:C:/Program Files (x86)/CodeBlocks/MinGW/lib/gcc/mingw32/4.9.2/include/c++/bits\stl_vector.h ****       : _M_impl(__a) { }
 129:C:/Program Files (x86)/CodeBlocks/MinGW/lib/gcc/mingw32/4.9.2/include/c++/bits\stl_vector.h **** 
 130:C:/Program Files (x86)/CodeBlocks/MinGW/lib/gcc/mingw32/4.9.2/include/c++/bits\stl_vector.h ****       _Vector_base(size_t __n)
 131:C:/Program Files (x86)/CodeBlocks/MinGW/lib/gcc/mingw32/4.9.2/include/c++/bits\stl_vector.h ****       : _M_impl()
 132:C:/Program Files (x86)/CodeBlocks/MinGW/lib/gcc/mingw32/4.9.2/include/c++/bits\stl_vector.h ****       { _M_create_storage(__n); }
 133:C:/Program Files (x86)/CodeBlocks/MinGW/lib/gcc/mingw32/4.9.2/include/c++/bits\stl_vector.h **** 
 134:C:/Program Files (x86)/CodeBlocks/MinGW/lib/gcc/mingw32/4.9.2/include/c++/bits\stl_vector.h ****       _Vector_base(size_t __n, const allocator_type& __a)
 135:C:/Program Files (x86)/CodeBlocks/MinGW/lib/gcc/mingw32/4.9.2/include/c++/bits\stl_vector.h ****       : _M_impl(__a)
 136:C:/Program Files (x86)/CodeBlocks/MinGW/lib/gcc/mingw32/4.9.2/include/c++/bits\stl_vector.h ****       { _M_create_storage(__n); }
 137:C:/Program Files (x86)/CodeBlocks/MinGW/lib/gcc/mingw32/4.9.2/include/c++/bits\stl_vector.h **** 
GAS LISTING C:\Users\NJLLMR~1\AppData\Local\Temp\cce8JzPW.s 			page 17


 138:C:/Program Files (x86)/CodeBlocks/MinGW/lib/gcc/mingw32/4.9.2/include/c++/bits\stl_vector.h **** #if __cplusplus >= 201103L
 139:C:/Program Files (x86)/CodeBlocks/MinGW/lib/gcc/mingw32/4.9.2/include/c++/bits\stl_vector.h ****       _Vector_base(_Tp_alloc_type&& __a) noexcept
 140:C:/Program Files (x86)/CodeBlocks/MinGW/lib/gcc/mingw32/4.9.2/include/c++/bits\stl_vector.h ****       : _M_impl(std::move(__a)) { }
 141:C:/Program Files (x86)/CodeBlocks/MinGW/lib/gcc/mingw32/4.9.2/include/c++/bits\stl_vector.h **** 
 142:C:/Program Files (x86)/CodeBlocks/MinGW/lib/gcc/mingw32/4.9.2/include/c++/bits\stl_vector.h ****       _Vector_base(_Vector_base&& __x) noexcept
 143:C:/Program Files (x86)/CodeBlocks/MinGW/lib/gcc/mingw32/4.9.2/include/c++/bits\stl_vector.h ****       : _M_impl(std::move(__x._M_get_Tp_allocator()))
 144:C:/Program Files (x86)/CodeBlocks/MinGW/lib/gcc/mingw32/4.9.2/include/c++/bits\stl_vector.h ****       { this->_M_impl._M_swap_data(__x._M_impl); }
 145:C:/Program Files (x86)/CodeBlocks/MinGW/lib/gcc/mingw32/4.9.2/include/c++/bits\stl_vector.h **** 
 146:C:/Program Files (x86)/CodeBlocks/MinGW/lib/gcc/mingw32/4.9.2/include/c++/bits\stl_vector.h ****       _Vector_base(_Vector_base&& __x, const allocator_type& __a)
 147:C:/Program Files (x86)/CodeBlocks/MinGW/lib/gcc/mingw32/4.9.2/include/c++/bits\stl_vector.h ****       : _M_impl(__a)
 148:C:/Program Files (x86)/CodeBlocks/MinGW/lib/gcc/mingw32/4.9.2/include/c++/bits\stl_vector.h ****       {
 149:C:/Program Files (x86)/CodeBlocks/MinGW/lib/gcc/mingw32/4.9.2/include/c++/bits\stl_vector.h **** 	if (__x.get_allocator() == __a)
 150:C:/Program Files (x86)/CodeBlocks/MinGW/lib/gcc/mingw32/4.9.2/include/c++/bits\stl_vector.h **** 	  this->_M_impl._M_swap_data(__x._M_impl);
 151:C:/Program Files (x86)/CodeBlocks/MinGW/lib/gcc/mingw32/4.9.2/include/c++/bits\stl_vector.h **** 	else
 152:C:/Program Files (x86)/CodeBlocks/MinGW/lib/gcc/mingw32/4.9.2/include/c++/bits\stl_vector.h **** 	  {
 153:C:/Program Files (x86)/CodeBlocks/MinGW/lib/gcc/mingw32/4.9.2/include/c++/bits\stl_vector.h **** 	    size_t __n = __x._M_impl._M_finish - __x._M_impl._M_start;
 154:C:/Program Files (x86)/CodeBlocks/MinGW/lib/gcc/mingw32/4.9.2/include/c++/bits\stl_vector.h **** 	    _M_create_storage(__n);
 155:C:/Program Files (x86)/CodeBlocks/MinGW/lib/gcc/mingw32/4.9.2/include/c++/bits\stl_vector.h **** 	  }
 156:C:/Program Files (x86)/CodeBlocks/MinGW/lib/gcc/mingw32/4.9.2/include/c++/bits\stl_vector.h ****       }
 157:C:/Program Files (x86)/CodeBlocks/MinGW/lib/gcc/mingw32/4.9.2/include/c++/bits\stl_vector.h **** #endif
 158:C:/Program Files (x86)/CodeBlocks/MinGW/lib/gcc/mingw32/4.9.2/include/c++/bits\stl_vector.h **** 
 159:C:/Program Files (x86)/CodeBlocks/MinGW/lib/gcc/mingw32/4.9.2/include/c++/bits\stl_vector.h ****       ~_Vector_base() _GLIBCXX_NOEXCEPT
 160:C:/Program Files (x86)/CodeBlocks/MinGW/lib/gcc/mingw32/4.9.2/include/c++/bits\stl_vector.h ****       { _M_deallocate(this->_M_impl._M_start, this->_M_impl._M_end_of_storage
 161:C:/Program Files (x86)/CodeBlocks/MinGW/lib/gcc/mingw32/4.9.2/include/c++/bits\stl_vector.h **** 		      - this->_M_impl._M_start); }
 162:C:/Program Files (x86)/CodeBlocks/MinGW/lib/gcc/mingw32/4.9.2/include/c++/bits\stl_vector.h **** 
 163:C:/Program Files (x86)/CodeBlocks/MinGW/lib/gcc/mingw32/4.9.2/include/c++/bits\stl_vector.h ****     public:
 164:C:/Program Files (x86)/CodeBlocks/MinGW/lib/gcc/mingw32/4.9.2/include/c++/bits\stl_vector.h ****       _Vector_impl _M_impl;
 165:C:/Program Files (x86)/CodeBlocks/MinGW/lib/gcc/mingw32/4.9.2/include/c++/bits\stl_vector.h **** 
 166:C:/Program Files (x86)/CodeBlocks/MinGW/lib/gcc/mingw32/4.9.2/include/c++/bits\stl_vector.h ****       pointer
 167:C:/Program Files (x86)/CodeBlocks/MinGW/lib/gcc/mingw32/4.9.2/include/c++/bits\stl_vector.h ****       _M_allocate(size_t __n)
 168:C:/Program Files (x86)/CodeBlocks/MinGW/lib/gcc/mingw32/4.9.2/include/c++/bits\stl_vector.h ****       {
 169:C:/Program Files (x86)/CodeBlocks/MinGW/lib/gcc/mingw32/4.9.2/include/c++/bits\stl_vector.h **** 	typedef __gnu_cxx::__alloc_traits<_Tp_alloc_type> _Tr;
 170:C:/Program Files (x86)/CodeBlocks/MinGW/lib/gcc/mingw32/4.9.2/include/c++/bits\stl_vector.h **** 	return __n != 0 ? _Tr::allocate(_M_impl, __n) : 0;
 171:C:/Program Files (x86)/CodeBlocks/MinGW/lib/gcc/mingw32/4.9.2/include/c++/bits\stl_vector.h ****       }
 172:C:/Program Files (x86)/CodeBlocks/MinGW/lib/gcc/mingw32/4.9.2/include/c++/bits\stl_vector.h **** 
 173:C:/Program Files (x86)/CodeBlocks/MinGW/lib/gcc/mingw32/4.9.2/include/c++/bits\stl_vector.h ****       void
 174:C:/Program Files (x86)/CodeBlocks/MinGW/lib/gcc/mingw32/4.9.2/include/c++/bits\stl_vector.h ****       _M_deallocate(pointer __p, size_t __n)
 175:C:/Program Files (x86)/CodeBlocks/MinGW/lib/gcc/mingw32/4.9.2/include/c++/bits\stl_vector.h ****       {
 176:C:/Program Files (x86)/CodeBlocks/MinGW/lib/gcc/mingw32/4.9.2/include/c++/bits\stl_vector.h **** 	typedef __gnu_cxx::__alloc_traits<_Tp_alloc_type> _Tr;
 177:C:/Program Files (x86)/CodeBlocks/MinGW/lib/gcc/mingw32/4.9.2/include/c++/bits\stl_vector.h **** 	if (__p)
 178:C:/Program Files (x86)/CodeBlocks/MinGW/lib/gcc/mingw32/4.9.2/include/c++/bits\stl_vector.h **** 	  _Tr::deallocate(_M_impl, __p, __n);
 179:C:/Program Files (x86)/CodeBlocks/MinGW/lib/gcc/mingw32/4.9.2/include/c++/bits\stl_vector.h ****       }
 180:C:/Program Files (x86)/CodeBlocks/MinGW/lib/gcc/mingw32/4.9.2/include/c++/bits\stl_vector.h **** 
 181:C:/Program Files (x86)/CodeBlocks/MinGW/lib/gcc/mingw32/4.9.2/include/c++/bits\stl_vector.h ****     private:
 182:C:/Program Files (x86)/CodeBlocks/MinGW/lib/gcc/mingw32/4.9.2/include/c++/bits\stl_vector.h ****       void
 183:C:/Program Files (x86)/CodeBlocks/MinGW/lib/gcc/mingw32/4.9.2/include/c++/bits\stl_vector.h ****       _M_create_storage(size_t __n)
 184:C:/Program Files (x86)/CodeBlocks/MinGW/lib/gcc/mingw32/4.9.2/include/c++/bits\stl_vector.h ****       {
 185:C:/Program Files (x86)/CodeBlocks/MinGW/lib/gcc/mingw32/4.9.2/include/c++/bits\stl_vector.h **** 	this->_M_impl._M_start = this->_M_allocate(__n);
 186:C:/Program Files (x86)/CodeBlocks/MinGW/lib/gcc/mingw32/4.9.2/include/c++/bits\stl_vector.h **** 	this->_M_impl._M_finish = this->_M_impl._M_start;
 187:C:/Program Files (x86)/CodeBlocks/MinGW/lib/gcc/mingw32/4.9.2/include/c++/bits\stl_vector.h **** 	this->_M_impl._M_end_of_storage = this->_M_impl._M_start + __n;
 188:C:/Program Files (x86)/CodeBlocks/MinGW/lib/gcc/mingw32/4.9.2/include/c++/bits\stl_vector.h ****       }
 189:C:/Program Files (x86)/CodeBlocks/MinGW/lib/gcc/mingw32/4.9.2/include/c++/bits\stl_vector.h ****     };
 190:C:/Program Files (x86)/CodeBlocks/MinGW/lib/gcc/mingw32/4.9.2/include/c++/bits\stl_vector.h **** 
 191:C:/Program Files (x86)/CodeBlocks/MinGW/lib/gcc/mingw32/4.9.2/include/c++/bits\stl_vector.h **** 
 192:C:/Program Files (x86)/CodeBlocks/MinGW/lib/gcc/mingw32/4.9.2/include/c++/bits\stl_vector.h ****   /**
 193:C:/Program Files (x86)/CodeBlocks/MinGW/lib/gcc/mingw32/4.9.2/include/c++/bits\stl_vector.h ****    *  @brief A standard container which offers fixed time access to
 194:C:/Program Files (x86)/CodeBlocks/MinGW/lib/gcc/mingw32/4.9.2/include/c++/bits\stl_vector.h ****    *  individual elements in any order.
GAS LISTING C:\Users\NJLLMR~1\AppData\Local\Temp\cce8JzPW.s 			page 18


 195:C:/Program Files (x86)/CodeBlocks/MinGW/lib/gcc/mingw32/4.9.2/include/c++/bits\stl_vector.h ****    *
 196:C:/Program Files (x86)/CodeBlocks/MinGW/lib/gcc/mingw32/4.9.2/include/c++/bits\stl_vector.h ****    *  @ingroup sequences
 197:C:/Program Files (x86)/CodeBlocks/MinGW/lib/gcc/mingw32/4.9.2/include/c++/bits\stl_vector.h ****    *
 198:C:/Program Files (x86)/CodeBlocks/MinGW/lib/gcc/mingw32/4.9.2/include/c++/bits\stl_vector.h ****    *  @tparam _Tp  Type of element.
 199:C:/Program Files (x86)/CodeBlocks/MinGW/lib/gcc/mingw32/4.9.2/include/c++/bits\stl_vector.h ****    *  @tparam _Alloc  Allocator type, defaults to allocator<_Tp>.
 200:C:/Program Files (x86)/CodeBlocks/MinGW/lib/gcc/mingw32/4.9.2/include/c++/bits\stl_vector.h ****    *
 201:C:/Program Files (x86)/CodeBlocks/MinGW/lib/gcc/mingw32/4.9.2/include/c++/bits\stl_vector.h ****    *  Meets the requirements of a <a href="tables.html#65">container</a>, a
 202:C:/Program Files (x86)/CodeBlocks/MinGW/lib/gcc/mingw32/4.9.2/include/c++/bits\stl_vector.h ****    *  <a href="tables.html#66">reversible container</a>, and a
 203:C:/Program Files (x86)/CodeBlocks/MinGW/lib/gcc/mingw32/4.9.2/include/c++/bits\stl_vector.h ****    *  <a href="tables.html#67">sequence</a>, including the
 204:C:/Program Files (x86)/CodeBlocks/MinGW/lib/gcc/mingw32/4.9.2/include/c++/bits\stl_vector.h ****    *  <a href="tables.html#68">optional sequence requirements</a> with the
 205:C:/Program Files (x86)/CodeBlocks/MinGW/lib/gcc/mingw32/4.9.2/include/c++/bits\stl_vector.h ****    *  %exception of @c push_front and @c pop_front.
 206:C:/Program Files (x86)/CodeBlocks/MinGW/lib/gcc/mingw32/4.9.2/include/c++/bits\stl_vector.h ****    *
 207:C:/Program Files (x86)/CodeBlocks/MinGW/lib/gcc/mingw32/4.9.2/include/c++/bits\stl_vector.h ****    *  In some terminology a %vector can be described as a dynamic
 208:C:/Program Files (x86)/CodeBlocks/MinGW/lib/gcc/mingw32/4.9.2/include/c++/bits\stl_vector.h ****    *  C-style array, it offers fast and efficient access to individual
 209:C:/Program Files (x86)/CodeBlocks/MinGW/lib/gcc/mingw32/4.9.2/include/c++/bits\stl_vector.h ****    *  elements in any order and saves the user from worrying about
 210:C:/Program Files (x86)/CodeBlocks/MinGW/lib/gcc/mingw32/4.9.2/include/c++/bits\stl_vector.h ****    *  memory and size allocation.  Subscripting ( @c [] ) access is
 211:C:/Program Files (x86)/CodeBlocks/MinGW/lib/gcc/mingw32/4.9.2/include/c++/bits\stl_vector.h ****    *  also provided as with C-style arrays.
 212:C:/Program Files (x86)/CodeBlocks/MinGW/lib/gcc/mingw32/4.9.2/include/c++/bits\stl_vector.h ****   */
 213:C:/Program Files (x86)/CodeBlocks/MinGW/lib/gcc/mingw32/4.9.2/include/c++/bits\stl_vector.h ****   template<typename _Tp, typename _Alloc = std::allocator<_Tp> >
 214:C:/Program Files (x86)/CodeBlocks/MinGW/lib/gcc/mingw32/4.9.2/include/c++/bits\stl_vector.h ****     class vector : protected _Vector_base<_Tp, _Alloc>
 215:C:/Program Files (x86)/CodeBlocks/MinGW/lib/gcc/mingw32/4.9.2/include/c++/bits\stl_vector.h ****     {
 216:C:/Program Files (x86)/CodeBlocks/MinGW/lib/gcc/mingw32/4.9.2/include/c++/bits\stl_vector.h ****       // Concept requirements.
 217:C:/Program Files (x86)/CodeBlocks/MinGW/lib/gcc/mingw32/4.9.2/include/c++/bits\stl_vector.h ****       typedef typename _Alloc::value_type                _Alloc_value_type;
 218:C:/Program Files (x86)/CodeBlocks/MinGW/lib/gcc/mingw32/4.9.2/include/c++/bits\stl_vector.h ****       __glibcxx_class_requires(_Tp, _SGIAssignableConcept)
 219:C:/Program Files (x86)/CodeBlocks/MinGW/lib/gcc/mingw32/4.9.2/include/c++/bits\stl_vector.h ****       __glibcxx_class_requires2(_Tp, _Alloc_value_type, _SameTypeConcept)
 220:C:/Program Files (x86)/CodeBlocks/MinGW/lib/gcc/mingw32/4.9.2/include/c++/bits\stl_vector.h ****       
 221:C:/Program Files (x86)/CodeBlocks/MinGW/lib/gcc/mingw32/4.9.2/include/c++/bits\stl_vector.h ****       typedef _Vector_base<_Tp, _Alloc>			 _Base;
 222:C:/Program Files (x86)/CodeBlocks/MinGW/lib/gcc/mingw32/4.9.2/include/c++/bits\stl_vector.h ****       typedef typename _Base::_Tp_alloc_type		 _Tp_alloc_type;
 223:C:/Program Files (x86)/CodeBlocks/MinGW/lib/gcc/mingw32/4.9.2/include/c++/bits\stl_vector.h ****       typedef __gnu_cxx::__alloc_traits<_Tp_alloc_type>  _Alloc_traits;
 224:C:/Program Files (x86)/CodeBlocks/MinGW/lib/gcc/mingw32/4.9.2/include/c++/bits\stl_vector.h **** 
 225:C:/Program Files (x86)/CodeBlocks/MinGW/lib/gcc/mingw32/4.9.2/include/c++/bits\stl_vector.h ****     public:
 226:C:/Program Files (x86)/CodeBlocks/MinGW/lib/gcc/mingw32/4.9.2/include/c++/bits\stl_vector.h ****       typedef _Tp					 value_type;
 227:C:/Program Files (x86)/CodeBlocks/MinGW/lib/gcc/mingw32/4.9.2/include/c++/bits\stl_vector.h ****       typedef typename _Base::pointer                    pointer;
 228:C:/Program Files (x86)/CodeBlocks/MinGW/lib/gcc/mingw32/4.9.2/include/c++/bits\stl_vector.h ****       typedef typename _Alloc_traits::const_pointer      const_pointer;
 229:C:/Program Files (x86)/CodeBlocks/MinGW/lib/gcc/mingw32/4.9.2/include/c++/bits\stl_vector.h ****       typedef typename _Alloc_traits::reference          reference;
 230:C:/Program Files (x86)/CodeBlocks/MinGW/lib/gcc/mingw32/4.9.2/include/c++/bits\stl_vector.h ****       typedef typename _Alloc_traits::const_reference    const_reference;
 231:C:/Program Files (x86)/CodeBlocks/MinGW/lib/gcc/mingw32/4.9.2/include/c++/bits\stl_vector.h ****       typedef __gnu_cxx::__normal_iterator<pointer, vector> iterator;
 232:C:/Program Files (x86)/CodeBlocks/MinGW/lib/gcc/mingw32/4.9.2/include/c++/bits\stl_vector.h ****       typedef __gnu_cxx::__normal_iterator<const_pointer, vector>
 233:C:/Program Files (x86)/CodeBlocks/MinGW/lib/gcc/mingw32/4.9.2/include/c++/bits\stl_vector.h ****       const_iterator;
 234:C:/Program Files (x86)/CodeBlocks/MinGW/lib/gcc/mingw32/4.9.2/include/c++/bits\stl_vector.h ****       typedef std::reverse_iterator<const_iterator>  const_reverse_iterator;
 235:C:/Program Files (x86)/CodeBlocks/MinGW/lib/gcc/mingw32/4.9.2/include/c++/bits\stl_vector.h ****       typedef std::reverse_iterator<iterator>		 reverse_iterator;
 236:C:/Program Files (x86)/CodeBlocks/MinGW/lib/gcc/mingw32/4.9.2/include/c++/bits\stl_vector.h ****       typedef size_t					 size_type;
 237:C:/Program Files (x86)/CodeBlocks/MinGW/lib/gcc/mingw32/4.9.2/include/c++/bits\stl_vector.h ****       typedef ptrdiff_t					 difference_type;
 238:C:/Program Files (x86)/CodeBlocks/MinGW/lib/gcc/mingw32/4.9.2/include/c++/bits\stl_vector.h ****       typedef _Alloc                        		 allocator_type;
 239:C:/Program Files (x86)/CodeBlocks/MinGW/lib/gcc/mingw32/4.9.2/include/c++/bits\stl_vector.h **** 
 240:C:/Program Files (x86)/CodeBlocks/MinGW/lib/gcc/mingw32/4.9.2/include/c++/bits\stl_vector.h ****     protected:
 241:C:/Program Files (x86)/CodeBlocks/MinGW/lib/gcc/mingw32/4.9.2/include/c++/bits\stl_vector.h ****       using _Base::_M_allocate;
 242:C:/Program Files (x86)/CodeBlocks/MinGW/lib/gcc/mingw32/4.9.2/include/c++/bits\stl_vector.h ****       using _Base::_M_deallocate;
 243:C:/Program Files (x86)/CodeBlocks/MinGW/lib/gcc/mingw32/4.9.2/include/c++/bits\stl_vector.h ****       using _Base::_M_impl;
 244:C:/Program Files (x86)/CodeBlocks/MinGW/lib/gcc/mingw32/4.9.2/include/c++/bits\stl_vector.h ****       using _Base::_M_get_Tp_allocator;
 245:C:/Program Files (x86)/CodeBlocks/MinGW/lib/gcc/mingw32/4.9.2/include/c++/bits\stl_vector.h **** 
 246:C:/Program Files (x86)/CodeBlocks/MinGW/lib/gcc/mingw32/4.9.2/include/c++/bits\stl_vector.h ****     public:
 247:C:/Program Files (x86)/CodeBlocks/MinGW/lib/gcc/mingw32/4.9.2/include/c++/bits\stl_vector.h ****       // [23.2.4.1] construct/copy/destroy
 248:C:/Program Files (x86)/CodeBlocks/MinGW/lib/gcc/mingw32/4.9.2/include/c++/bits\stl_vector.h ****       // (assign() and get_allocator() are also listed in this section)
 249:C:/Program Files (x86)/CodeBlocks/MinGW/lib/gcc/mingw32/4.9.2/include/c++/bits\stl_vector.h **** 
 250:C:/Program Files (x86)/CodeBlocks/MinGW/lib/gcc/mingw32/4.9.2/include/c++/bits\stl_vector.h ****       /**
 251:C:/Program Files (x86)/CodeBlocks/MinGW/lib/gcc/mingw32/4.9.2/include/c++/bits\stl_vector.h ****        *  @brief  Creates a %vector with no elements.
GAS LISTING C:\Users\NJLLMR~1\AppData\Local\Temp\cce8JzPW.s 			page 19


 252:C:/Program Files (x86)/CodeBlocks/MinGW/lib/gcc/mingw32/4.9.2/include/c++/bits\stl_vector.h ****        */
 253:C:/Program Files (x86)/CodeBlocks/MinGW/lib/gcc/mingw32/4.9.2/include/c++/bits\stl_vector.h ****       vector()
 659              		.loc 2 253 0
 660              		.cfi_startproc
 661 0000 55       		pushl	%ebp
 662              		.cfi_def_cfa_offset 8
 663              		.cfi_offset 5, -8
 664 0001 89E5     		movl	%esp, %ebp
 665              		.cfi_def_cfa_register 5
 666 0003 83EC18   		subl	$24, %esp
 667 0006 894DF4   		movl	%ecx, -12(%ebp)
 668              	LBB4:
 254:C:/Program Files (x86)/CodeBlocks/MinGW/lib/gcc/mingw32/4.9.2/include/c++/bits\stl_vector.h **** #if __cplusplus >= 201103L
 255:C:/Program Files (x86)/CodeBlocks/MinGW/lib/gcc/mingw32/4.9.2/include/c++/bits\stl_vector.h ****       noexcept(is_nothrow_default_constructible<_Alloc>::value)
 256:C:/Program Files (x86)/CodeBlocks/MinGW/lib/gcc/mingw32/4.9.2/include/c++/bits\stl_vector.h **** #endif
 257:C:/Program Files (x86)/CodeBlocks/MinGW/lib/gcc/mingw32/4.9.2/include/c++/bits\stl_vector.h ****       : _Base() { }
 669              		.loc 2 257 0
 670 0009 8B45F4   		movl	-12(%ebp), %eax
 671 000c 89C1     		movl	%eax, %ecx
 672 000e E8000000 		call	__ZNSt12_Vector_baseI8ToppingsSaIS0_EEC2Ev
 672      00
 673              	LBE4:
 674 0013 C9       		leave
 675              		.cfi_restore 5
 676              		.cfi_def_cfa 4, 4
 677 0014 C3       		ret
 678              		.cfi_endproc
 679              	LFE1306:
 680 0015 909090   		.section	.text$_ZNSt6vectorI8ToppingsSaIS0_EED1Ev,"x"
 681              		.linkonce discard
 682              		.align 2
 683              		.globl	__ZNSt6vectorI8ToppingsSaIS0_EED1Ev
 685              	__ZNSt6vectorI8ToppingsSaIS0_EED1Ev:
 686              	LFB1309:
 258:C:/Program Files (x86)/CodeBlocks/MinGW/lib/gcc/mingw32/4.9.2/include/c++/bits\stl_vector.h **** 
 259:C:/Program Files (x86)/CodeBlocks/MinGW/lib/gcc/mingw32/4.9.2/include/c++/bits\stl_vector.h ****       /**
 260:C:/Program Files (x86)/CodeBlocks/MinGW/lib/gcc/mingw32/4.9.2/include/c++/bits\stl_vector.h ****        *  @brief  Creates a %vector with no elements.
 261:C:/Program Files (x86)/CodeBlocks/MinGW/lib/gcc/mingw32/4.9.2/include/c++/bits\stl_vector.h ****        *  @param  __a  An allocator object.
 262:C:/Program Files (x86)/CodeBlocks/MinGW/lib/gcc/mingw32/4.9.2/include/c++/bits\stl_vector.h ****        */
 263:C:/Program Files (x86)/CodeBlocks/MinGW/lib/gcc/mingw32/4.9.2/include/c++/bits\stl_vector.h ****       explicit
 264:C:/Program Files (x86)/CodeBlocks/MinGW/lib/gcc/mingw32/4.9.2/include/c++/bits\stl_vector.h ****       vector(const allocator_type& __a) _GLIBCXX_NOEXCEPT
 265:C:/Program Files (x86)/CodeBlocks/MinGW/lib/gcc/mingw32/4.9.2/include/c++/bits\stl_vector.h ****       : _Base(__a) { }
 266:C:/Program Files (x86)/CodeBlocks/MinGW/lib/gcc/mingw32/4.9.2/include/c++/bits\stl_vector.h **** 
 267:C:/Program Files (x86)/CodeBlocks/MinGW/lib/gcc/mingw32/4.9.2/include/c++/bits\stl_vector.h **** #if __cplusplus >= 201103L
 268:C:/Program Files (x86)/CodeBlocks/MinGW/lib/gcc/mingw32/4.9.2/include/c++/bits\stl_vector.h ****       /**
 269:C:/Program Files (x86)/CodeBlocks/MinGW/lib/gcc/mingw32/4.9.2/include/c++/bits\stl_vector.h ****        *  @brief  Creates a %vector with default constructed elements.
 270:C:/Program Files (x86)/CodeBlocks/MinGW/lib/gcc/mingw32/4.9.2/include/c++/bits\stl_vector.h ****        *  @param  __n  The number of elements to initially create.
 271:C:/Program Files (x86)/CodeBlocks/MinGW/lib/gcc/mingw32/4.9.2/include/c++/bits\stl_vector.h ****        *  @param  __a  An allocator.
 272:C:/Program Files (x86)/CodeBlocks/MinGW/lib/gcc/mingw32/4.9.2/include/c++/bits\stl_vector.h ****        *
 273:C:/Program Files (x86)/CodeBlocks/MinGW/lib/gcc/mingw32/4.9.2/include/c++/bits\stl_vector.h ****        *  This constructor fills the %vector with @a __n default
 274:C:/Program Files (x86)/CodeBlocks/MinGW/lib/gcc/mingw32/4.9.2/include/c++/bits\stl_vector.h ****        *  constructed elements.
 275:C:/Program Files (x86)/CodeBlocks/MinGW/lib/gcc/mingw32/4.9.2/include/c++/bits\stl_vector.h ****        */
 276:C:/Program Files (x86)/CodeBlocks/MinGW/lib/gcc/mingw32/4.9.2/include/c++/bits\stl_vector.h ****       explicit
 277:C:/Program Files (x86)/CodeBlocks/MinGW/lib/gcc/mingw32/4.9.2/include/c++/bits\stl_vector.h ****       vector(size_type __n, const allocator_type& __a = allocator_type())
 278:C:/Program Files (x86)/CodeBlocks/MinGW/lib/gcc/mingw32/4.9.2/include/c++/bits\stl_vector.h ****       : _Base(__n, __a)
 279:C:/Program Files (x86)/CodeBlocks/MinGW/lib/gcc/mingw32/4.9.2/include/c++/bits\stl_vector.h ****       { _M_default_initialize(__n); }
 280:C:/Program Files (x86)/CodeBlocks/MinGW/lib/gcc/mingw32/4.9.2/include/c++/bits\stl_vector.h **** 
GAS LISTING C:\Users\NJLLMR~1\AppData\Local\Temp\cce8JzPW.s 			page 20


 281:C:/Program Files (x86)/CodeBlocks/MinGW/lib/gcc/mingw32/4.9.2/include/c++/bits\stl_vector.h ****       /**
 282:C:/Program Files (x86)/CodeBlocks/MinGW/lib/gcc/mingw32/4.9.2/include/c++/bits\stl_vector.h ****        *  @brief  Creates a %vector with copies of an exemplar element.
 283:C:/Program Files (x86)/CodeBlocks/MinGW/lib/gcc/mingw32/4.9.2/include/c++/bits\stl_vector.h ****        *  @param  __n  The number of elements to initially create.
 284:C:/Program Files (x86)/CodeBlocks/MinGW/lib/gcc/mingw32/4.9.2/include/c++/bits\stl_vector.h ****        *  @param  __value  An element to copy.
 285:C:/Program Files (x86)/CodeBlocks/MinGW/lib/gcc/mingw32/4.9.2/include/c++/bits\stl_vector.h ****        *  @param  __a  An allocator.
 286:C:/Program Files (x86)/CodeBlocks/MinGW/lib/gcc/mingw32/4.9.2/include/c++/bits\stl_vector.h ****        *
 287:C:/Program Files (x86)/CodeBlocks/MinGW/lib/gcc/mingw32/4.9.2/include/c++/bits\stl_vector.h ****        *  This constructor fills the %vector with @a __n copies of @a __value.
 288:C:/Program Files (x86)/CodeBlocks/MinGW/lib/gcc/mingw32/4.9.2/include/c++/bits\stl_vector.h ****        */
 289:C:/Program Files (x86)/CodeBlocks/MinGW/lib/gcc/mingw32/4.9.2/include/c++/bits\stl_vector.h ****       vector(size_type __n, const value_type& __value,
 290:C:/Program Files (x86)/CodeBlocks/MinGW/lib/gcc/mingw32/4.9.2/include/c++/bits\stl_vector.h **** 	     const allocator_type& __a = allocator_type())
 291:C:/Program Files (x86)/CodeBlocks/MinGW/lib/gcc/mingw32/4.9.2/include/c++/bits\stl_vector.h ****       : _Base(__n, __a)
 292:C:/Program Files (x86)/CodeBlocks/MinGW/lib/gcc/mingw32/4.9.2/include/c++/bits\stl_vector.h ****       { _M_fill_initialize(__n, __value); }
 293:C:/Program Files (x86)/CodeBlocks/MinGW/lib/gcc/mingw32/4.9.2/include/c++/bits\stl_vector.h **** #else
 294:C:/Program Files (x86)/CodeBlocks/MinGW/lib/gcc/mingw32/4.9.2/include/c++/bits\stl_vector.h ****       /**
 295:C:/Program Files (x86)/CodeBlocks/MinGW/lib/gcc/mingw32/4.9.2/include/c++/bits\stl_vector.h ****        *  @brief  Creates a %vector with copies of an exemplar element.
 296:C:/Program Files (x86)/CodeBlocks/MinGW/lib/gcc/mingw32/4.9.2/include/c++/bits\stl_vector.h ****        *  @param  __n  The number of elements to initially create.
 297:C:/Program Files (x86)/CodeBlocks/MinGW/lib/gcc/mingw32/4.9.2/include/c++/bits\stl_vector.h ****        *  @param  __value  An element to copy.
 298:C:/Program Files (x86)/CodeBlocks/MinGW/lib/gcc/mingw32/4.9.2/include/c++/bits\stl_vector.h ****        *  @param  __a  An allocator.
 299:C:/Program Files (x86)/CodeBlocks/MinGW/lib/gcc/mingw32/4.9.2/include/c++/bits\stl_vector.h ****        *
 300:C:/Program Files (x86)/CodeBlocks/MinGW/lib/gcc/mingw32/4.9.2/include/c++/bits\stl_vector.h ****        *  This constructor fills the %vector with @a __n copies of @a __value.
 301:C:/Program Files (x86)/CodeBlocks/MinGW/lib/gcc/mingw32/4.9.2/include/c++/bits\stl_vector.h ****        */
 302:C:/Program Files (x86)/CodeBlocks/MinGW/lib/gcc/mingw32/4.9.2/include/c++/bits\stl_vector.h ****       explicit
 303:C:/Program Files (x86)/CodeBlocks/MinGW/lib/gcc/mingw32/4.9.2/include/c++/bits\stl_vector.h ****       vector(size_type __n, const value_type& __value = value_type(),
 304:C:/Program Files (x86)/CodeBlocks/MinGW/lib/gcc/mingw32/4.9.2/include/c++/bits\stl_vector.h **** 	     const allocator_type& __a = allocator_type())
 305:C:/Program Files (x86)/CodeBlocks/MinGW/lib/gcc/mingw32/4.9.2/include/c++/bits\stl_vector.h ****       : _Base(__n, __a)
 306:C:/Program Files (x86)/CodeBlocks/MinGW/lib/gcc/mingw32/4.9.2/include/c++/bits\stl_vector.h ****       { _M_fill_initialize(__n, __value); }
 307:C:/Program Files (x86)/CodeBlocks/MinGW/lib/gcc/mingw32/4.9.2/include/c++/bits\stl_vector.h **** #endif
 308:C:/Program Files (x86)/CodeBlocks/MinGW/lib/gcc/mingw32/4.9.2/include/c++/bits\stl_vector.h **** 
 309:C:/Program Files (x86)/CodeBlocks/MinGW/lib/gcc/mingw32/4.9.2/include/c++/bits\stl_vector.h ****       /**
 310:C:/Program Files (x86)/CodeBlocks/MinGW/lib/gcc/mingw32/4.9.2/include/c++/bits\stl_vector.h ****        *  @brief  %Vector copy constructor.
 311:C:/Program Files (x86)/CodeBlocks/MinGW/lib/gcc/mingw32/4.9.2/include/c++/bits\stl_vector.h ****        *  @param  __x  A %vector of identical element and allocator types.
 312:C:/Program Files (x86)/CodeBlocks/MinGW/lib/gcc/mingw32/4.9.2/include/c++/bits\stl_vector.h ****        *
 313:C:/Program Files (x86)/CodeBlocks/MinGW/lib/gcc/mingw32/4.9.2/include/c++/bits\stl_vector.h ****        *  The newly-created %vector uses a copy of the allocation
 314:C:/Program Files (x86)/CodeBlocks/MinGW/lib/gcc/mingw32/4.9.2/include/c++/bits\stl_vector.h ****        *  object used by @a __x.  All the elements of @a __x are copied,
 315:C:/Program Files (x86)/CodeBlocks/MinGW/lib/gcc/mingw32/4.9.2/include/c++/bits\stl_vector.h ****        *  but any extra memory in
 316:C:/Program Files (x86)/CodeBlocks/MinGW/lib/gcc/mingw32/4.9.2/include/c++/bits\stl_vector.h ****        *  @a __x (for fast expansion) will not be copied.
 317:C:/Program Files (x86)/CodeBlocks/MinGW/lib/gcc/mingw32/4.9.2/include/c++/bits\stl_vector.h ****        */
 318:C:/Program Files (x86)/CodeBlocks/MinGW/lib/gcc/mingw32/4.9.2/include/c++/bits\stl_vector.h ****       vector(const vector& __x)
 319:C:/Program Files (x86)/CodeBlocks/MinGW/lib/gcc/mingw32/4.9.2/include/c++/bits\stl_vector.h ****       : _Base(__x.size(),
 320:C:/Program Files (x86)/CodeBlocks/MinGW/lib/gcc/mingw32/4.9.2/include/c++/bits\stl_vector.h ****         _Alloc_traits::_S_select_on_copy(__x._M_get_Tp_allocator()))
 321:C:/Program Files (x86)/CodeBlocks/MinGW/lib/gcc/mingw32/4.9.2/include/c++/bits\stl_vector.h ****       { this->_M_impl._M_finish =
 322:C:/Program Files (x86)/CodeBlocks/MinGW/lib/gcc/mingw32/4.9.2/include/c++/bits\stl_vector.h **** 	  std::__uninitialized_copy_a(__x.begin(), __x.end(),
 323:C:/Program Files (x86)/CodeBlocks/MinGW/lib/gcc/mingw32/4.9.2/include/c++/bits\stl_vector.h **** 				      this->_M_impl._M_start,
 324:C:/Program Files (x86)/CodeBlocks/MinGW/lib/gcc/mingw32/4.9.2/include/c++/bits\stl_vector.h **** 				      _M_get_Tp_allocator());
 325:C:/Program Files (x86)/CodeBlocks/MinGW/lib/gcc/mingw32/4.9.2/include/c++/bits\stl_vector.h ****       }
 326:C:/Program Files (x86)/CodeBlocks/MinGW/lib/gcc/mingw32/4.9.2/include/c++/bits\stl_vector.h **** 
 327:C:/Program Files (x86)/CodeBlocks/MinGW/lib/gcc/mingw32/4.9.2/include/c++/bits\stl_vector.h **** #if __cplusplus >= 201103L
 328:C:/Program Files (x86)/CodeBlocks/MinGW/lib/gcc/mingw32/4.9.2/include/c++/bits\stl_vector.h ****       /**
 329:C:/Program Files (x86)/CodeBlocks/MinGW/lib/gcc/mingw32/4.9.2/include/c++/bits\stl_vector.h ****        *  @brief  %Vector move constructor.
 330:C:/Program Files (x86)/CodeBlocks/MinGW/lib/gcc/mingw32/4.9.2/include/c++/bits\stl_vector.h ****        *  @param  __x  A %vector of identical element and allocator types.
 331:C:/Program Files (x86)/CodeBlocks/MinGW/lib/gcc/mingw32/4.9.2/include/c++/bits\stl_vector.h ****        *
 332:C:/Program Files (x86)/CodeBlocks/MinGW/lib/gcc/mingw32/4.9.2/include/c++/bits\stl_vector.h ****        *  The newly-created %vector contains the exact contents of @a __x.
 333:C:/Program Files (x86)/CodeBlocks/MinGW/lib/gcc/mingw32/4.9.2/include/c++/bits\stl_vector.h ****        *  The contents of @a __x are a valid, but unspecified %vector.
 334:C:/Program Files (x86)/CodeBlocks/MinGW/lib/gcc/mingw32/4.9.2/include/c++/bits\stl_vector.h ****        */
 335:C:/Program Files (x86)/CodeBlocks/MinGW/lib/gcc/mingw32/4.9.2/include/c++/bits\stl_vector.h ****       vector(vector&& __x) noexcept
 336:C:/Program Files (x86)/CodeBlocks/MinGW/lib/gcc/mingw32/4.9.2/include/c++/bits\stl_vector.h ****       : _Base(std::move(__x)) { }
 337:C:/Program Files (x86)/CodeBlocks/MinGW/lib/gcc/mingw32/4.9.2/include/c++/bits\stl_vector.h **** 
GAS LISTING C:\Users\NJLLMR~1\AppData\Local\Temp\cce8JzPW.s 			page 21


 338:C:/Program Files (x86)/CodeBlocks/MinGW/lib/gcc/mingw32/4.9.2/include/c++/bits\stl_vector.h ****       /// Copy constructor with alternative allocator
 339:C:/Program Files (x86)/CodeBlocks/MinGW/lib/gcc/mingw32/4.9.2/include/c++/bits\stl_vector.h ****       vector(const vector& __x, const allocator_type& __a)
 340:C:/Program Files (x86)/CodeBlocks/MinGW/lib/gcc/mingw32/4.9.2/include/c++/bits\stl_vector.h ****       : _Base(__x.size(), __a)
 341:C:/Program Files (x86)/CodeBlocks/MinGW/lib/gcc/mingw32/4.9.2/include/c++/bits\stl_vector.h ****       { this->_M_impl._M_finish =
 342:C:/Program Files (x86)/CodeBlocks/MinGW/lib/gcc/mingw32/4.9.2/include/c++/bits\stl_vector.h **** 	  std::__uninitialized_copy_a(__x.begin(), __x.end(),
 343:C:/Program Files (x86)/CodeBlocks/MinGW/lib/gcc/mingw32/4.9.2/include/c++/bits\stl_vector.h **** 				      this->_M_impl._M_start,
 344:C:/Program Files (x86)/CodeBlocks/MinGW/lib/gcc/mingw32/4.9.2/include/c++/bits\stl_vector.h **** 				      _M_get_Tp_allocator());
 345:C:/Program Files (x86)/CodeBlocks/MinGW/lib/gcc/mingw32/4.9.2/include/c++/bits\stl_vector.h ****       }
 346:C:/Program Files (x86)/CodeBlocks/MinGW/lib/gcc/mingw32/4.9.2/include/c++/bits\stl_vector.h **** 
 347:C:/Program Files (x86)/CodeBlocks/MinGW/lib/gcc/mingw32/4.9.2/include/c++/bits\stl_vector.h ****       /// Move constructor with alternative allocator
 348:C:/Program Files (x86)/CodeBlocks/MinGW/lib/gcc/mingw32/4.9.2/include/c++/bits\stl_vector.h ****       vector(vector&& __rv, const allocator_type& __m)
 349:C:/Program Files (x86)/CodeBlocks/MinGW/lib/gcc/mingw32/4.9.2/include/c++/bits\stl_vector.h ****       noexcept(_Alloc_traits::_S_always_equal())
 350:C:/Program Files (x86)/CodeBlocks/MinGW/lib/gcc/mingw32/4.9.2/include/c++/bits\stl_vector.h ****       : _Base(std::move(__rv), __m)
 351:C:/Program Files (x86)/CodeBlocks/MinGW/lib/gcc/mingw32/4.9.2/include/c++/bits\stl_vector.h ****       {
 352:C:/Program Files (x86)/CodeBlocks/MinGW/lib/gcc/mingw32/4.9.2/include/c++/bits\stl_vector.h **** 	if (__rv.get_allocator() != __m)
 353:C:/Program Files (x86)/CodeBlocks/MinGW/lib/gcc/mingw32/4.9.2/include/c++/bits\stl_vector.h **** 	  {
 354:C:/Program Files (x86)/CodeBlocks/MinGW/lib/gcc/mingw32/4.9.2/include/c++/bits\stl_vector.h **** 	    this->_M_impl._M_finish =
 355:C:/Program Files (x86)/CodeBlocks/MinGW/lib/gcc/mingw32/4.9.2/include/c++/bits\stl_vector.h **** 	      std::__uninitialized_move_a(__rv.begin(), __rv.end(),
 356:C:/Program Files (x86)/CodeBlocks/MinGW/lib/gcc/mingw32/4.9.2/include/c++/bits\stl_vector.h **** 					  this->_M_impl._M_start,
 357:C:/Program Files (x86)/CodeBlocks/MinGW/lib/gcc/mingw32/4.9.2/include/c++/bits\stl_vector.h **** 					  _M_get_Tp_allocator());
 358:C:/Program Files (x86)/CodeBlocks/MinGW/lib/gcc/mingw32/4.9.2/include/c++/bits\stl_vector.h **** 	    __rv.clear();
 359:C:/Program Files (x86)/CodeBlocks/MinGW/lib/gcc/mingw32/4.9.2/include/c++/bits\stl_vector.h **** 	  }
 360:C:/Program Files (x86)/CodeBlocks/MinGW/lib/gcc/mingw32/4.9.2/include/c++/bits\stl_vector.h ****       }
 361:C:/Program Files (x86)/CodeBlocks/MinGW/lib/gcc/mingw32/4.9.2/include/c++/bits\stl_vector.h **** 
 362:C:/Program Files (x86)/CodeBlocks/MinGW/lib/gcc/mingw32/4.9.2/include/c++/bits\stl_vector.h ****       /**
 363:C:/Program Files (x86)/CodeBlocks/MinGW/lib/gcc/mingw32/4.9.2/include/c++/bits\stl_vector.h ****        *  @brief  Builds a %vector from an initializer list.
 364:C:/Program Files (x86)/CodeBlocks/MinGW/lib/gcc/mingw32/4.9.2/include/c++/bits\stl_vector.h ****        *  @param  __l  An initializer_list.
 365:C:/Program Files (x86)/CodeBlocks/MinGW/lib/gcc/mingw32/4.9.2/include/c++/bits\stl_vector.h ****        *  @param  __a  An allocator.
 366:C:/Program Files (x86)/CodeBlocks/MinGW/lib/gcc/mingw32/4.9.2/include/c++/bits\stl_vector.h ****        *
 367:C:/Program Files (x86)/CodeBlocks/MinGW/lib/gcc/mingw32/4.9.2/include/c++/bits\stl_vector.h ****        *  Create a %vector consisting of copies of the elements in the
 368:C:/Program Files (x86)/CodeBlocks/MinGW/lib/gcc/mingw32/4.9.2/include/c++/bits\stl_vector.h ****        *  initializer_list @a __l.
 369:C:/Program Files (x86)/CodeBlocks/MinGW/lib/gcc/mingw32/4.9.2/include/c++/bits\stl_vector.h ****        *
 370:C:/Program Files (x86)/CodeBlocks/MinGW/lib/gcc/mingw32/4.9.2/include/c++/bits\stl_vector.h ****        *  This will call the element type's copy constructor N times
 371:C:/Program Files (x86)/CodeBlocks/MinGW/lib/gcc/mingw32/4.9.2/include/c++/bits\stl_vector.h ****        *  (where N is @a __l.size()) and do no memory reallocation.
 372:C:/Program Files (x86)/CodeBlocks/MinGW/lib/gcc/mingw32/4.9.2/include/c++/bits\stl_vector.h ****        */
 373:C:/Program Files (x86)/CodeBlocks/MinGW/lib/gcc/mingw32/4.9.2/include/c++/bits\stl_vector.h ****       vector(initializer_list<value_type> __l,
 374:C:/Program Files (x86)/CodeBlocks/MinGW/lib/gcc/mingw32/4.9.2/include/c++/bits\stl_vector.h **** 	     const allocator_type& __a = allocator_type())
 375:C:/Program Files (x86)/CodeBlocks/MinGW/lib/gcc/mingw32/4.9.2/include/c++/bits\stl_vector.h ****       : _Base(__a)
 376:C:/Program Files (x86)/CodeBlocks/MinGW/lib/gcc/mingw32/4.9.2/include/c++/bits\stl_vector.h ****       {
 377:C:/Program Files (x86)/CodeBlocks/MinGW/lib/gcc/mingw32/4.9.2/include/c++/bits\stl_vector.h **** 	_M_range_initialize(__l.begin(), __l.end(),
 378:C:/Program Files (x86)/CodeBlocks/MinGW/lib/gcc/mingw32/4.9.2/include/c++/bits\stl_vector.h **** 			    random_access_iterator_tag());
 379:C:/Program Files (x86)/CodeBlocks/MinGW/lib/gcc/mingw32/4.9.2/include/c++/bits\stl_vector.h ****       }
 380:C:/Program Files (x86)/CodeBlocks/MinGW/lib/gcc/mingw32/4.9.2/include/c++/bits\stl_vector.h **** #endif
 381:C:/Program Files (x86)/CodeBlocks/MinGW/lib/gcc/mingw32/4.9.2/include/c++/bits\stl_vector.h **** 
 382:C:/Program Files (x86)/CodeBlocks/MinGW/lib/gcc/mingw32/4.9.2/include/c++/bits\stl_vector.h ****       /**
 383:C:/Program Files (x86)/CodeBlocks/MinGW/lib/gcc/mingw32/4.9.2/include/c++/bits\stl_vector.h ****        *  @brief  Builds a %vector from a range.
 384:C:/Program Files (x86)/CodeBlocks/MinGW/lib/gcc/mingw32/4.9.2/include/c++/bits\stl_vector.h ****        *  @param  __first  An input iterator.
 385:C:/Program Files (x86)/CodeBlocks/MinGW/lib/gcc/mingw32/4.9.2/include/c++/bits\stl_vector.h ****        *  @param  __last  An input iterator.
 386:C:/Program Files (x86)/CodeBlocks/MinGW/lib/gcc/mingw32/4.9.2/include/c++/bits\stl_vector.h ****        *  @param  __a  An allocator.
 387:C:/Program Files (x86)/CodeBlocks/MinGW/lib/gcc/mingw32/4.9.2/include/c++/bits\stl_vector.h ****        *
 388:C:/Program Files (x86)/CodeBlocks/MinGW/lib/gcc/mingw32/4.9.2/include/c++/bits\stl_vector.h ****        *  Create a %vector consisting of copies of the elements from
 389:C:/Program Files (x86)/CodeBlocks/MinGW/lib/gcc/mingw32/4.9.2/include/c++/bits\stl_vector.h ****        *  [first,last).
 390:C:/Program Files (x86)/CodeBlocks/MinGW/lib/gcc/mingw32/4.9.2/include/c++/bits\stl_vector.h ****        *
 391:C:/Program Files (x86)/CodeBlocks/MinGW/lib/gcc/mingw32/4.9.2/include/c++/bits\stl_vector.h ****        *  If the iterators are forward, bidirectional, or
 392:C:/Program Files (x86)/CodeBlocks/MinGW/lib/gcc/mingw32/4.9.2/include/c++/bits\stl_vector.h ****        *  random-access, then this will call the elements' copy
 393:C:/Program Files (x86)/CodeBlocks/MinGW/lib/gcc/mingw32/4.9.2/include/c++/bits\stl_vector.h ****        *  constructor N times (where N is distance(first,last)) and do
 394:C:/Program Files (x86)/CodeBlocks/MinGW/lib/gcc/mingw32/4.9.2/include/c++/bits\stl_vector.h ****        *  no memory reallocation.  But if only input iterators are
GAS LISTING C:\Users\NJLLMR~1\AppData\Local\Temp\cce8JzPW.s 			page 22


 395:C:/Program Files (x86)/CodeBlocks/MinGW/lib/gcc/mingw32/4.9.2/include/c++/bits\stl_vector.h ****        *  used, then this will do at most 2N calls to the copy
 396:C:/Program Files (x86)/CodeBlocks/MinGW/lib/gcc/mingw32/4.9.2/include/c++/bits\stl_vector.h ****        *  constructor, and logN memory reallocations.
 397:C:/Program Files (x86)/CodeBlocks/MinGW/lib/gcc/mingw32/4.9.2/include/c++/bits\stl_vector.h ****        */
 398:C:/Program Files (x86)/CodeBlocks/MinGW/lib/gcc/mingw32/4.9.2/include/c++/bits\stl_vector.h **** #if __cplusplus >= 201103L
 399:C:/Program Files (x86)/CodeBlocks/MinGW/lib/gcc/mingw32/4.9.2/include/c++/bits\stl_vector.h ****       template<typename _InputIterator,
 400:C:/Program Files (x86)/CodeBlocks/MinGW/lib/gcc/mingw32/4.9.2/include/c++/bits\stl_vector.h **** 	       typename = std::_RequireInputIter<_InputIterator>>
 401:C:/Program Files (x86)/CodeBlocks/MinGW/lib/gcc/mingw32/4.9.2/include/c++/bits\stl_vector.h ****         vector(_InputIterator __first, _InputIterator __last,
 402:C:/Program Files (x86)/CodeBlocks/MinGW/lib/gcc/mingw32/4.9.2/include/c++/bits\stl_vector.h **** 	       const allocator_type& __a = allocator_type())
 403:C:/Program Files (x86)/CodeBlocks/MinGW/lib/gcc/mingw32/4.9.2/include/c++/bits\stl_vector.h **** 	: _Base(__a)
 404:C:/Program Files (x86)/CodeBlocks/MinGW/lib/gcc/mingw32/4.9.2/include/c++/bits\stl_vector.h ****         { _M_initialize_dispatch(__first, __last, __false_type()); }
 405:C:/Program Files (x86)/CodeBlocks/MinGW/lib/gcc/mingw32/4.9.2/include/c++/bits\stl_vector.h **** #else
 406:C:/Program Files (x86)/CodeBlocks/MinGW/lib/gcc/mingw32/4.9.2/include/c++/bits\stl_vector.h ****       template<typename _InputIterator>
 407:C:/Program Files (x86)/CodeBlocks/MinGW/lib/gcc/mingw32/4.9.2/include/c++/bits\stl_vector.h ****         vector(_InputIterator __first, _InputIterator __last,
 408:C:/Program Files (x86)/CodeBlocks/MinGW/lib/gcc/mingw32/4.9.2/include/c++/bits\stl_vector.h **** 	       const allocator_type& __a = allocator_type())
 409:C:/Program Files (x86)/CodeBlocks/MinGW/lib/gcc/mingw32/4.9.2/include/c++/bits\stl_vector.h **** 	: _Base(__a)
 410:C:/Program Files (x86)/CodeBlocks/MinGW/lib/gcc/mingw32/4.9.2/include/c++/bits\stl_vector.h ****         {
 411:C:/Program Files (x86)/CodeBlocks/MinGW/lib/gcc/mingw32/4.9.2/include/c++/bits\stl_vector.h **** 	  // Check whether it's an integral type.  If so, it's not an iterator.
 412:C:/Program Files (x86)/CodeBlocks/MinGW/lib/gcc/mingw32/4.9.2/include/c++/bits\stl_vector.h **** 	  typedef typename std::__is_integer<_InputIterator>::__type _Integral;
 413:C:/Program Files (x86)/CodeBlocks/MinGW/lib/gcc/mingw32/4.9.2/include/c++/bits\stl_vector.h **** 	  _M_initialize_dispatch(__first, __last, _Integral());
 414:C:/Program Files (x86)/CodeBlocks/MinGW/lib/gcc/mingw32/4.9.2/include/c++/bits\stl_vector.h **** 	}
 415:C:/Program Files (x86)/CodeBlocks/MinGW/lib/gcc/mingw32/4.9.2/include/c++/bits\stl_vector.h **** #endif
 416:C:/Program Files (x86)/CodeBlocks/MinGW/lib/gcc/mingw32/4.9.2/include/c++/bits\stl_vector.h **** 
 417:C:/Program Files (x86)/CodeBlocks/MinGW/lib/gcc/mingw32/4.9.2/include/c++/bits\stl_vector.h ****       /**
 418:C:/Program Files (x86)/CodeBlocks/MinGW/lib/gcc/mingw32/4.9.2/include/c++/bits\stl_vector.h ****        *  The dtor only erases the elements, and note that if the
 419:C:/Program Files (x86)/CodeBlocks/MinGW/lib/gcc/mingw32/4.9.2/include/c++/bits\stl_vector.h ****        *  elements themselves are pointers, the pointed-to memory is
 420:C:/Program Files (x86)/CodeBlocks/MinGW/lib/gcc/mingw32/4.9.2/include/c++/bits\stl_vector.h ****        *  not touched in any way.  Managing the pointer is the user's
 421:C:/Program Files (x86)/CodeBlocks/MinGW/lib/gcc/mingw32/4.9.2/include/c++/bits\stl_vector.h ****        *  responsibility.
 422:C:/Program Files (x86)/CodeBlocks/MinGW/lib/gcc/mingw32/4.9.2/include/c++/bits\stl_vector.h ****        */
 423:C:/Program Files (x86)/CodeBlocks/MinGW/lib/gcc/mingw32/4.9.2/include/c++/bits\stl_vector.h ****       ~vector() _GLIBCXX_NOEXCEPT
 687              		.loc 2 423 0
 688              		.cfi_startproc
 689              		.cfi_personality 0,___gxx_personality_sj0
 690              		.cfi_lsda 0,LLSDA1309
 691 0000 55       		pushl	%ebp
 692              		.cfi_def_cfa_offset 8
 693              		.cfi_offset 5, -8
 694 0001 89E5     		movl	%esp, %ebp
 695              		.cfi_def_cfa_register 5
 696 0003 57       		pushl	%edi
 697 0004 56       		pushl	%esi
 698 0005 53       		pushl	%ebx
 699 0006 83EC5C   		subl	$92, %esp
 700              		.cfi_offset 7, -12
 701              		.cfi_offset 6, -16
 702              		.cfi_offset 3, -20
 703 0009 894DE4   		movl	%ecx, -28(%ebp)
 704 000c C745C800 		movl	$___gxx_personality_sj0, -56(%ebp)
 704      000000
 705 0013 C745CC1E 		movl	$LLSDA1309, -52(%ebp)
 705      000000
 706 001a 8D45D0   		leal	-48(%ebp), %eax
 707 001d 8D5DE8   		leal	-24(%ebp), %ebx
 708 0020 8918     		movl	%ebx, (%eax)
 709 0022 BA790000 		movl	$L43, %edx
 709      00
 710 0027 895004   		movl	%edx, 4(%eax)
 711 002a 896008   		movl	%esp, 8(%eax)
GAS LISTING C:\Users\NJLLMR~1\AppData\Local\Temp\cce8JzPW.s 			page 23


 712 002d 8D45B0   		leal	-80(%ebp), %eax
 713 0030 890424   		movl	%eax, (%esp)
 714 0033 E8000000 		call	__Unwind_SjLj_Register
 714      00
 715              	LBB5:
 424:C:/Program Files (x86)/CodeBlocks/MinGW/lib/gcc/mingw32/4.9.2/include/c++/bits\stl_vector.h ****       { std::_Destroy(this->_M_impl._M_start, this->_M_impl._M_finish,
 425:C:/Program Files (x86)/CodeBlocks/MinGW/lib/gcc/mingw32/4.9.2/include/c++/bits\stl_vector.h **** 		      _M_get_Tp_allocator()); }
 716              		.loc 2 425 0
 717 0038 8B45E4   		movl	-28(%ebp), %eax
 718 003b 89C1     		movl	%eax, %ecx
 719 003d E8000000 		call	__ZNSt12_Vector_baseI8ToppingsSaIS0_EE19_M_get_Tp_allocatorEv
 719      00
 720 0042 89C1     		movl	%eax, %ecx
 721 0044 8B45E4   		movl	-28(%ebp), %eax
 722 0047 8B5004   		movl	4(%eax), %edx
 723 004a 8B45E4   		movl	-28(%ebp), %eax
 724 004d 8B00     		movl	(%eax), %eax
 424:C:/Program Files (x86)/CodeBlocks/MinGW/lib/gcc/mingw32/4.9.2/include/c++/bits\stl_vector.h ****       { std::_Destroy(this->_M_impl._M_start, this->_M_impl._M_finish,
 725              		.loc 2 424 0
 726 004f 894C2408 		movl	%ecx, 8(%esp)
 727 0053 89542404 		movl	%edx, 4(%esp)
 728 0057 890424   		movl	%eax, (%esp)
 729 005a C745B401 		movl	$1, -76(%ebp)
 729      000000
 730 0061 E8000000 		call	__ZSt8_DestroyIP8ToppingsS0_EvT_S2_RSaIT0_E
 730      00
 731              		.loc 2 425 0
 732 0066 8B45E4   		movl	-28(%ebp), %eax
 733 0069 C745B4FF 		movl	$-1, -76(%ebp)
 733      FFFFFF
 734 0070 89C1     		movl	%eax, %ecx
 735 0072 E8000000 		call	__ZNSt12_Vector_baseI8ToppingsSaIS0_EED2Ev
 735      00
 736 0077 EB2C     		jmp	L45
 737              	L43:
 738 0079 8D6D18   		leal	24(%ebp), %ebp
 739 007c 8B45B8   		movl	-72(%ebp), %eax
 740 007f 8945AC   		movl	%eax, -84(%ebp)
 741 0082 8B45E4   		movl	-28(%ebp), %eax
 742 0085 C745B400 		movl	$0, -76(%ebp)
 742      000000
 743 008c 89C1     		movl	%eax, %ecx
 744 008e E8000000 		call	__ZNSt12_Vector_baseI8ToppingsSaIS0_EED2Ev
 744      00
 745 0093 8B45AC   		movl	-84(%ebp), %eax
 746 0096 890424   		movl	%eax, (%esp)
 747 0099 C745B4FF 		movl	$-1, -76(%ebp)
 747      FFFFFF
 748 00a0 E8000000 		call	__Unwind_SjLj_Resume
 748      00
 749              	L45:
 750 00a5 8D45B0   		leal	-80(%ebp), %eax
 751 00a8 890424   		movl	%eax, (%esp)
 752 00ab E8000000 		call	__Unwind_SjLj_Unregister
 752      00
 753              	LBE5:
 754 00b0 83C45C   		addl	$92, %esp
GAS LISTING C:\Users\NJLLMR~1\AppData\Local\Temp\cce8JzPW.s 			page 24


 755 00b3 5B       		popl	%ebx
 756              		.cfi_restore 3
 757 00b4 5E       		popl	%esi
 758              		.cfi_restore 6
 759 00b5 5F       		popl	%edi
 760              		.cfi_restore 7
 761 00b6 5D       		popl	%ebp
 762              		.cfi_restore 5
 763              		.cfi_def_cfa 4, 4
 764 00b7 C3       		ret
 765              		.cfi_endproc
 766              	LFE1309:
 767              		.section	.gcc_except_table,"w"
 768              	LLSDA1309:
 769 001e FF       		.byte	0xff
 770 001f FF       		.byte	0xff
 771 0020 01       		.byte	0x1
 772 0021 02       		.uleb128 LLSDACSE1309-LLSDACSB1309
 773              	LLSDACSB1309:
 774 0022 00       		.uleb128 0
 775 0023 00       		.uleb128 0
 776              	LLSDACSE1309:
 777              		.section	.text$_ZNSt6vectorI8ToppingsSaIS0_EED1Ev,"x"
 778              		.linkonce discard
 779              		.section	.text$_ZNSt6vectorI8ToppingsSaIS0_EE5clearEv,"x"
 780              		.linkonce discard
 781              		.align 2
 782              		.globl	__ZNSt6vectorI8ToppingsSaIS0_EE5clearEv
 784              	__ZNSt6vectorI8ToppingsSaIS0_EE5clearEv:
 785              	LFB1311:
 426:C:/Program Files (x86)/CodeBlocks/MinGW/lib/gcc/mingw32/4.9.2/include/c++/bits\stl_vector.h **** 
 427:C:/Program Files (x86)/CodeBlocks/MinGW/lib/gcc/mingw32/4.9.2/include/c++/bits\stl_vector.h ****       /**
 428:C:/Program Files (x86)/CodeBlocks/MinGW/lib/gcc/mingw32/4.9.2/include/c++/bits\stl_vector.h ****        *  @brief  %Vector assignment operator.
 429:C:/Program Files (x86)/CodeBlocks/MinGW/lib/gcc/mingw32/4.9.2/include/c++/bits\stl_vector.h ****        *  @param  __x  A %vector of identical element and allocator types.
 430:C:/Program Files (x86)/CodeBlocks/MinGW/lib/gcc/mingw32/4.9.2/include/c++/bits\stl_vector.h ****        *
 431:C:/Program Files (x86)/CodeBlocks/MinGW/lib/gcc/mingw32/4.9.2/include/c++/bits\stl_vector.h ****        *  All the elements of @a __x are copied, but any extra memory in
 432:C:/Program Files (x86)/CodeBlocks/MinGW/lib/gcc/mingw32/4.9.2/include/c++/bits\stl_vector.h ****        *  @a __x (for fast expansion) will not be copied.  Unlike the
 433:C:/Program Files (x86)/CodeBlocks/MinGW/lib/gcc/mingw32/4.9.2/include/c++/bits\stl_vector.h ****        *  copy constructor, the allocator object is not copied.
 434:C:/Program Files (x86)/CodeBlocks/MinGW/lib/gcc/mingw32/4.9.2/include/c++/bits\stl_vector.h ****        */
 435:C:/Program Files (x86)/CodeBlocks/MinGW/lib/gcc/mingw32/4.9.2/include/c++/bits\stl_vector.h ****       vector&
 436:C:/Program Files (x86)/CodeBlocks/MinGW/lib/gcc/mingw32/4.9.2/include/c++/bits\stl_vector.h ****       operator=(const vector& __x);
 437:C:/Program Files (x86)/CodeBlocks/MinGW/lib/gcc/mingw32/4.9.2/include/c++/bits\stl_vector.h **** 
 438:C:/Program Files (x86)/CodeBlocks/MinGW/lib/gcc/mingw32/4.9.2/include/c++/bits\stl_vector.h **** #if __cplusplus >= 201103L
 439:C:/Program Files (x86)/CodeBlocks/MinGW/lib/gcc/mingw32/4.9.2/include/c++/bits\stl_vector.h ****       /**
 440:C:/Program Files (x86)/CodeBlocks/MinGW/lib/gcc/mingw32/4.9.2/include/c++/bits\stl_vector.h ****        *  @brief  %Vector move assignment operator.
 441:C:/Program Files (x86)/CodeBlocks/MinGW/lib/gcc/mingw32/4.9.2/include/c++/bits\stl_vector.h ****        *  @param  __x  A %vector of identical element and allocator types.
 442:C:/Program Files (x86)/CodeBlocks/MinGW/lib/gcc/mingw32/4.9.2/include/c++/bits\stl_vector.h ****        *
 443:C:/Program Files (x86)/CodeBlocks/MinGW/lib/gcc/mingw32/4.9.2/include/c++/bits\stl_vector.h ****        *  The contents of @a __x are moved into this %vector (without copying,
 444:C:/Program Files (x86)/CodeBlocks/MinGW/lib/gcc/mingw32/4.9.2/include/c++/bits\stl_vector.h ****        *  if the allocators permit it).
 445:C:/Program Files (x86)/CodeBlocks/MinGW/lib/gcc/mingw32/4.9.2/include/c++/bits\stl_vector.h ****        *  @a __x is a valid, but unspecified %vector.
 446:C:/Program Files (x86)/CodeBlocks/MinGW/lib/gcc/mingw32/4.9.2/include/c++/bits\stl_vector.h ****        */
 447:C:/Program Files (x86)/CodeBlocks/MinGW/lib/gcc/mingw32/4.9.2/include/c++/bits\stl_vector.h ****       vector&
 448:C:/Program Files (x86)/CodeBlocks/MinGW/lib/gcc/mingw32/4.9.2/include/c++/bits\stl_vector.h ****       operator=(vector&& __x) noexcept(_Alloc_traits::_S_nothrow_move())
 449:C:/Program Files (x86)/CodeBlocks/MinGW/lib/gcc/mingw32/4.9.2/include/c++/bits\stl_vector.h ****       {
 450:C:/Program Files (x86)/CodeBlocks/MinGW/lib/gcc/mingw32/4.9.2/include/c++/bits\stl_vector.h ****         constexpr bool __move_storage =
 451:C:/Program Files (x86)/CodeBlocks/MinGW/lib/gcc/mingw32/4.9.2/include/c++/bits\stl_vector.h ****           _Alloc_traits::_S_propagate_on_move_assign()
 452:C:/Program Files (x86)/CodeBlocks/MinGW/lib/gcc/mingw32/4.9.2/include/c++/bits\stl_vector.h ****           || _Alloc_traits::_S_always_equal();
GAS LISTING C:\Users\NJLLMR~1\AppData\Local\Temp\cce8JzPW.s 			page 25


 453:C:/Program Files (x86)/CodeBlocks/MinGW/lib/gcc/mingw32/4.9.2/include/c++/bits\stl_vector.h ****         _M_move_assign(std::move(__x),
 454:C:/Program Files (x86)/CodeBlocks/MinGW/lib/gcc/mingw32/4.9.2/include/c++/bits\stl_vector.h ****                        integral_constant<bool, __move_storage>());
 455:C:/Program Files (x86)/CodeBlocks/MinGW/lib/gcc/mingw32/4.9.2/include/c++/bits\stl_vector.h **** 	return *this;
 456:C:/Program Files (x86)/CodeBlocks/MinGW/lib/gcc/mingw32/4.9.2/include/c++/bits\stl_vector.h ****       }
 457:C:/Program Files (x86)/CodeBlocks/MinGW/lib/gcc/mingw32/4.9.2/include/c++/bits\stl_vector.h **** 
 458:C:/Program Files (x86)/CodeBlocks/MinGW/lib/gcc/mingw32/4.9.2/include/c++/bits\stl_vector.h ****       /**
 459:C:/Program Files (x86)/CodeBlocks/MinGW/lib/gcc/mingw32/4.9.2/include/c++/bits\stl_vector.h ****        *  @brief  %Vector list assignment operator.
 460:C:/Program Files (x86)/CodeBlocks/MinGW/lib/gcc/mingw32/4.9.2/include/c++/bits\stl_vector.h ****        *  @param  __l  An initializer_list.
 461:C:/Program Files (x86)/CodeBlocks/MinGW/lib/gcc/mingw32/4.9.2/include/c++/bits\stl_vector.h ****        *
 462:C:/Program Files (x86)/CodeBlocks/MinGW/lib/gcc/mingw32/4.9.2/include/c++/bits\stl_vector.h ****        *  This function fills a %vector with copies of the elements in the
 463:C:/Program Files (x86)/CodeBlocks/MinGW/lib/gcc/mingw32/4.9.2/include/c++/bits\stl_vector.h ****        *  initializer list @a __l.
 464:C:/Program Files (x86)/CodeBlocks/MinGW/lib/gcc/mingw32/4.9.2/include/c++/bits\stl_vector.h ****        *
 465:C:/Program Files (x86)/CodeBlocks/MinGW/lib/gcc/mingw32/4.9.2/include/c++/bits\stl_vector.h ****        *  Note that the assignment completely changes the %vector and
 466:C:/Program Files (x86)/CodeBlocks/MinGW/lib/gcc/mingw32/4.9.2/include/c++/bits\stl_vector.h ****        *  that the resulting %vector's size is the same as the number
 467:C:/Program Files (x86)/CodeBlocks/MinGW/lib/gcc/mingw32/4.9.2/include/c++/bits\stl_vector.h ****        *  of elements assigned.  Old data may be lost.
 468:C:/Program Files (x86)/CodeBlocks/MinGW/lib/gcc/mingw32/4.9.2/include/c++/bits\stl_vector.h ****        */
 469:C:/Program Files (x86)/CodeBlocks/MinGW/lib/gcc/mingw32/4.9.2/include/c++/bits\stl_vector.h ****       vector&
 470:C:/Program Files (x86)/CodeBlocks/MinGW/lib/gcc/mingw32/4.9.2/include/c++/bits\stl_vector.h ****       operator=(initializer_list<value_type> __l)
 471:C:/Program Files (x86)/CodeBlocks/MinGW/lib/gcc/mingw32/4.9.2/include/c++/bits\stl_vector.h ****       {
 472:C:/Program Files (x86)/CodeBlocks/MinGW/lib/gcc/mingw32/4.9.2/include/c++/bits\stl_vector.h **** 	this->assign(__l.begin(), __l.end());
 473:C:/Program Files (x86)/CodeBlocks/MinGW/lib/gcc/mingw32/4.9.2/include/c++/bits\stl_vector.h **** 	return *this;
 474:C:/Program Files (x86)/CodeBlocks/MinGW/lib/gcc/mingw32/4.9.2/include/c++/bits\stl_vector.h ****       }
 475:C:/Program Files (x86)/CodeBlocks/MinGW/lib/gcc/mingw32/4.9.2/include/c++/bits\stl_vector.h **** #endif
 476:C:/Program Files (x86)/CodeBlocks/MinGW/lib/gcc/mingw32/4.9.2/include/c++/bits\stl_vector.h **** 
 477:C:/Program Files (x86)/CodeBlocks/MinGW/lib/gcc/mingw32/4.9.2/include/c++/bits\stl_vector.h ****       /**
 478:C:/Program Files (x86)/CodeBlocks/MinGW/lib/gcc/mingw32/4.9.2/include/c++/bits\stl_vector.h ****        *  @brief  Assigns a given value to a %vector.
 479:C:/Program Files (x86)/CodeBlocks/MinGW/lib/gcc/mingw32/4.9.2/include/c++/bits\stl_vector.h ****        *  @param  __n  Number of elements to be assigned.
 480:C:/Program Files (x86)/CodeBlocks/MinGW/lib/gcc/mingw32/4.9.2/include/c++/bits\stl_vector.h ****        *  @param  __val  Value to be assigned.
 481:C:/Program Files (x86)/CodeBlocks/MinGW/lib/gcc/mingw32/4.9.2/include/c++/bits\stl_vector.h ****        *
 482:C:/Program Files (x86)/CodeBlocks/MinGW/lib/gcc/mingw32/4.9.2/include/c++/bits\stl_vector.h ****        *  This function fills a %vector with @a __n copies of the given
 483:C:/Program Files (x86)/CodeBlocks/MinGW/lib/gcc/mingw32/4.9.2/include/c++/bits\stl_vector.h ****        *  value.  Note that the assignment completely changes the
 484:C:/Program Files (x86)/CodeBlocks/MinGW/lib/gcc/mingw32/4.9.2/include/c++/bits\stl_vector.h ****        *  %vector and that the resulting %vector's size is the same as
 485:C:/Program Files (x86)/CodeBlocks/MinGW/lib/gcc/mingw32/4.9.2/include/c++/bits\stl_vector.h ****        *  the number of elements assigned.  Old data may be lost.
 486:C:/Program Files (x86)/CodeBlocks/MinGW/lib/gcc/mingw32/4.9.2/include/c++/bits\stl_vector.h ****        */
 487:C:/Program Files (x86)/CodeBlocks/MinGW/lib/gcc/mingw32/4.9.2/include/c++/bits\stl_vector.h ****       void
 488:C:/Program Files (x86)/CodeBlocks/MinGW/lib/gcc/mingw32/4.9.2/include/c++/bits\stl_vector.h ****       assign(size_type __n, const value_type& __val)
 489:C:/Program Files (x86)/CodeBlocks/MinGW/lib/gcc/mingw32/4.9.2/include/c++/bits\stl_vector.h ****       { _M_fill_assign(__n, __val); }
 490:C:/Program Files (x86)/CodeBlocks/MinGW/lib/gcc/mingw32/4.9.2/include/c++/bits\stl_vector.h **** 
 491:C:/Program Files (x86)/CodeBlocks/MinGW/lib/gcc/mingw32/4.9.2/include/c++/bits\stl_vector.h ****       /**
 492:C:/Program Files (x86)/CodeBlocks/MinGW/lib/gcc/mingw32/4.9.2/include/c++/bits\stl_vector.h ****        *  @brief  Assigns a range to a %vector.
 493:C:/Program Files (x86)/CodeBlocks/MinGW/lib/gcc/mingw32/4.9.2/include/c++/bits\stl_vector.h ****        *  @param  __first  An input iterator.
 494:C:/Program Files (x86)/CodeBlocks/MinGW/lib/gcc/mingw32/4.9.2/include/c++/bits\stl_vector.h ****        *  @param  __last   An input iterator.
 495:C:/Program Files (x86)/CodeBlocks/MinGW/lib/gcc/mingw32/4.9.2/include/c++/bits\stl_vector.h ****        *
 496:C:/Program Files (x86)/CodeBlocks/MinGW/lib/gcc/mingw32/4.9.2/include/c++/bits\stl_vector.h ****        *  This function fills a %vector with copies of the elements in the
 497:C:/Program Files (x86)/CodeBlocks/MinGW/lib/gcc/mingw32/4.9.2/include/c++/bits\stl_vector.h ****        *  range [__first,__last).
 498:C:/Program Files (x86)/CodeBlocks/MinGW/lib/gcc/mingw32/4.9.2/include/c++/bits\stl_vector.h ****        *
 499:C:/Program Files (x86)/CodeBlocks/MinGW/lib/gcc/mingw32/4.9.2/include/c++/bits\stl_vector.h ****        *  Note that the assignment completely changes the %vector and
 500:C:/Program Files (x86)/CodeBlocks/MinGW/lib/gcc/mingw32/4.9.2/include/c++/bits\stl_vector.h ****        *  that the resulting %vector's size is the same as the number
 501:C:/Program Files (x86)/CodeBlocks/MinGW/lib/gcc/mingw32/4.9.2/include/c++/bits\stl_vector.h ****        *  of elements assigned.  Old data may be lost.
 502:C:/Program Files (x86)/CodeBlocks/MinGW/lib/gcc/mingw32/4.9.2/include/c++/bits\stl_vector.h ****        */
 503:C:/Program Files (x86)/CodeBlocks/MinGW/lib/gcc/mingw32/4.9.2/include/c++/bits\stl_vector.h **** #if __cplusplus >= 201103L
 504:C:/Program Files (x86)/CodeBlocks/MinGW/lib/gcc/mingw32/4.9.2/include/c++/bits\stl_vector.h ****       template<typename _InputIterator,
 505:C:/Program Files (x86)/CodeBlocks/MinGW/lib/gcc/mingw32/4.9.2/include/c++/bits\stl_vector.h **** 	       typename = std::_RequireInputIter<_InputIterator>>
 506:C:/Program Files (x86)/CodeBlocks/MinGW/lib/gcc/mingw32/4.9.2/include/c++/bits\stl_vector.h ****         void
 507:C:/Program Files (x86)/CodeBlocks/MinGW/lib/gcc/mingw32/4.9.2/include/c++/bits\stl_vector.h ****         assign(_InputIterator __first, _InputIterator __last)
 508:C:/Program Files (x86)/CodeBlocks/MinGW/lib/gcc/mingw32/4.9.2/include/c++/bits\stl_vector.h ****         { _M_assign_dispatch(__first, __last, __false_type()); }
 509:C:/Program Files (x86)/CodeBlocks/MinGW/lib/gcc/mingw32/4.9.2/include/c++/bits\stl_vector.h **** #else
GAS LISTING C:\Users\NJLLMR~1\AppData\Local\Temp\cce8JzPW.s 			page 26


 510:C:/Program Files (x86)/CodeBlocks/MinGW/lib/gcc/mingw32/4.9.2/include/c++/bits\stl_vector.h ****       template<typename _InputIterator>
 511:C:/Program Files (x86)/CodeBlocks/MinGW/lib/gcc/mingw32/4.9.2/include/c++/bits\stl_vector.h ****         void
 512:C:/Program Files (x86)/CodeBlocks/MinGW/lib/gcc/mingw32/4.9.2/include/c++/bits\stl_vector.h ****         assign(_InputIterator __first, _InputIterator __last)
 513:C:/Program Files (x86)/CodeBlocks/MinGW/lib/gcc/mingw32/4.9.2/include/c++/bits\stl_vector.h ****         {
 514:C:/Program Files (x86)/CodeBlocks/MinGW/lib/gcc/mingw32/4.9.2/include/c++/bits\stl_vector.h **** 	  // Check whether it's an integral type.  If so, it's not an iterator.
 515:C:/Program Files (x86)/CodeBlocks/MinGW/lib/gcc/mingw32/4.9.2/include/c++/bits\stl_vector.h **** 	  typedef typename std::__is_integer<_InputIterator>::__type _Integral;
 516:C:/Program Files (x86)/CodeBlocks/MinGW/lib/gcc/mingw32/4.9.2/include/c++/bits\stl_vector.h **** 	  _M_assign_dispatch(__first, __last, _Integral());
 517:C:/Program Files (x86)/CodeBlocks/MinGW/lib/gcc/mingw32/4.9.2/include/c++/bits\stl_vector.h **** 	}
 518:C:/Program Files (x86)/CodeBlocks/MinGW/lib/gcc/mingw32/4.9.2/include/c++/bits\stl_vector.h **** #endif
 519:C:/Program Files (x86)/CodeBlocks/MinGW/lib/gcc/mingw32/4.9.2/include/c++/bits\stl_vector.h **** 
 520:C:/Program Files (x86)/CodeBlocks/MinGW/lib/gcc/mingw32/4.9.2/include/c++/bits\stl_vector.h **** #if __cplusplus >= 201103L
 521:C:/Program Files (x86)/CodeBlocks/MinGW/lib/gcc/mingw32/4.9.2/include/c++/bits\stl_vector.h ****       /**
 522:C:/Program Files (x86)/CodeBlocks/MinGW/lib/gcc/mingw32/4.9.2/include/c++/bits\stl_vector.h ****        *  @brief  Assigns an initializer list to a %vector.
 523:C:/Program Files (x86)/CodeBlocks/MinGW/lib/gcc/mingw32/4.9.2/include/c++/bits\stl_vector.h ****        *  @param  __l  An initializer_list.
 524:C:/Program Files (x86)/CodeBlocks/MinGW/lib/gcc/mingw32/4.9.2/include/c++/bits\stl_vector.h ****        *
 525:C:/Program Files (x86)/CodeBlocks/MinGW/lib/gcc/mingw32/4.9.2/include/c++/bits\stl_vector.h ****        *  This function fills a %vector with copies of the elements in the
 526:C:/Program Files (x86)/CodeBlocks/MinGW/lib/gcc/mingw32/4.9.2/include/c++/bits\stl_vector.h ****        *  initializer list @a __l.
 527:C:/Program Files (x86)/CodeBlocks/MinGW/lib/gcc/mingw32/4.9.2/include/c++/bits\stl_vector.h ****        *
 528:C:/Program Files (x86)/CodeBlocks/MinGW/lib/gcc/mingw32/4.9.2/include/c++/bits\stl_vector.h ****        *  Note that the assignment completely changes the %vector and
 529:C:/Program Files (x86)/CodeBlocks/MinGW/lib/gcc/mingw32/4.9.2/include/c++/bits\stl_vector.h ****        *  that the resulting %vector's size is the same as the number
 530:C:/Program Files (x86)/CodeBlocks/MinGW/lib/gcc/mingw32/4.9.2/include/c++/bits\stl_vector.h ****        *  of elements assigned.  Old data may be lost.
 531:C:/Program Files (x86)/CodeBlocks/MinGW/lib/gcc/mingw32/4.9.2/include/c++/bits\stl_vector.h ****        */
 532:C:/Program Files (x86)/CodeBlocks/MinGW/lib/gcc/mingw32/4.9.2/include/c++/bits\stl_vector.h ****       void
 533:C:/Program Files (x86)/CodeBlocks/MinGW/lib/gcc/mingw32/4.9.2/include/c++/bits\stl_vector.h ****       assign(initializer_list<value_type> __l)
 534:C:/Program Files (x86)/CodeBlocks/MinGW/lib/gcc/mingw32/4.9.2/include/c++/bits\stl_vector.h ****       { this->assign(__l.begin(), __l.end()); }
 535:C:/Program Files (x86)/CodeBlocks/MinGW/lib/gcc/mingw32/4.9.2/include/c++/bits\stl_vector.h **** #endif
 536:C:/Program Files (x86)/CodeBlocks/MinGW/lib/gcc/mingw32/4.9.2/include/c++/bits\stl_vector.h **** 
 537:C:/Program Files (x86)/CodeBlocks/MinGW/lib/gcc/mingw32/4.9.2/include/c++/bits\stl_vector.h ****       /// Get a copy of the memory allocation object.
 538:C:/Program Files (x86)/CodeBlocks/MinGW/lib/gcc/mingw32/4.9.2/include/c++/bits\stl_vector.h ****       using _Base::get_allocator;
 539:C:/Program Files (x86)/CodeBlocks/MinGW/lib/gcc/mingw32/4.9.2/include/c++/bits\stl_vector.h **** 
 540:C:/Program Files (x86)/CodeBlocks/MinGW/lib/gcc/mingw32/4.9.2/include/c++/bits\stl_vector.h ****       // iterators
 541:C:/Program Files (x86)/CodeBlocks/MinGW/lib/gcc/mingw32/4.9.2/include/c++/bits\stl_vector.h ****       /**
 542:C:/Program Files (x86)/CodeBlocks/MinGW/lib/gcc/mingw32/4.9.2/include/c++/bits\stl_vector.h ****        *  Returns a read/write iterator that points to the first
 543:C:/Program Files (x86)/CodeBlocks/MinGW/lib/gcc/mingw32/4.9.2/include/c++/bits\stl_vector.h ****        *  element in the %vector.  Iteration is done in ordinary
 544:C:/Program Files (x86)/CodeBlocks/MinGW/lib/gcc/mingw32/4.9.2/include/c++/bits\stl_vector.h ****        *  element order.
 545:C:/Program Files (x86)/CodeBlocks/MinGW/lib/gcc/mingw32/4.9.2/include/c++/bits\stl_vector.h ****        */
 546:C:/Program Files (x86)/CodeBlocks/MinGW/lib/gcc/mingw32/4.9.2/include/c++/bits\stl_vector.h ****       iterator
 547:C:/Program Files (x86)/CodeBlocks/MinGW/lib/gcc/mingw32/4.9.2/include/c++/bits\stl_vector.h ****       begin() _GLIBCXX_NOEXCEPT
 548:C:/Program Files (x86)/CodeBlocks/MinGW/lib/gcc/mingw32/4.9.2/include/c++/bits\stl_vector.h ****       { return iterator(this->_M_impl._M_start); }
 549:C:/Program Files (x86)/CodeBlocks/MinGW/lib/gcc/mingw32/4.9.2/include/c++/bits\stl_vector.h **** 
 550:C:/Program Files (x86)/CodeBlocks/MinGW/lib/gcc/mingw32/4.9.2/include/c++/bits\stl_vector.h ****       /**
 551:C:/Program Files (x86)/CodeBlocks/MinGW/lib/gcc/mingw32/4.9.2/include/c++/bits\stl_vector.h ****        *  Returns a read-only (constant) iterator that points to the
 552:C:/Program Files (x86)/CodeBlocks/MinGW/lib/gcc/mingw32/4.9.2/include/c++/bits\stl_vector.h ****        *  first element in the %vector.  Iteration is done in ordinary
 553:C:/Program Files (x86)/CodeBlocks/MinGW/lib/gcc/mingw32/4.9.2/include/c++/bits\stl_vector.h ****        *  element order.
 554:C:/Program Files (x86)/CodeBlocks/MinGW/lib/gcc/mingw32/4.9.2/include/c++/bits\stl_vector.h ****        */
 555:C:/Program Files (x86)/CodeBlocks/MinGW/lib/gcc/mingw32/4.9.2/include/c++/bits\stl_vector.h ****       const_iterator
 556:C:/Program Files (x86)/CodeBlocks/MinGW/lib/gcc/mingw32/4.9.2/include/c++/bits\stl_vector.h ****       begin() const _GLIBCXX_NOEXCEPT
 557:C:/Program Files (x86)/CodeBlocks/MinGW/lib/gcc/mingw32/4.9.2/include/c++/bits\stl_vector.h ****       { return const_iterator(this->_M_impl._M_start); }
 558:C:/Program Files (x86)/CodeBlocks/MinGW/lib/gcc/mingw32/4.9.2/include/c++/bits\stl_vector.h **** 
 559:C:/Program Files (x86)/CodeBlocks/MinGW/lib/gcc/mingw32/4.9.2/include/c++/bits\stl_vector.h ****       /**
 560:C:/Program Files (x86)/CodeBlocks/MinGW/lib/gcc/mingw32/4.9.2/include/c++/bits\stl_vector.h ****        *  Returns a read/write iterator that points one past the last
 561:C:/Program Files (x86)/CodeBlocks/MinGW/lib/gcc/mingw32/4.9.2/include/c++/bits\stl_vector.h ****        *  element in the %vector.  Iteration is done in ordinary
 562:C:/Program Files (x86)/CodeBlocks/MinGW/lib/gcc/mingw32/4.9.2/include/c++/bits\stl_vector.h ****        *  element order.
 563:C:/Program Files (x86)/CodeBlocks/MinGW/lib/gcc/mingw32/4.9.2/include/c++/bits\stl_vector.h ****        */
 564:C:/Program Files (x86)/CodeBlocks/MinGW/lib/gcc/mingw32/4.9.2/include/c++/bits\stl_vector.h ****       iterator
 565:C:/Program Files (x86)/CodeBlocks/MinGW/lib/gcc/mingw32/4.9.2/include/c++/bits\stl_vector.h ****       end() _GLIBCXX_NOEXCEPT
 566:C:/Program Files (x86)/CodeBlocks/MinGW/lib/gcc/mingw32/4.9.2/include/c++/bits\stl_vector.h ****       { return iterator(this->_M_impl._M_finish); }
GAS LISTING C:\Users\NJLLMR~1\AppData\Local\Temp\cce8JzPW.s 			page 27


 567:C:/Program Files (x86)/CodeBlocks/MinGW/lib/gcc/mingw32/4.9.2/include/c++/bits\stl_vector.h **** 
 568:C:/Program Files (x86)/CodeBlocks/MinGW/lib/gcc/mingw32/4.9.2/include/c++/bits\stl_vector.h ****       /**
 569:C:/Program Files (x86)/CodeBlocks/MinGW/lib/gcc/mingw32/4.9.2/include/c++/bits\stl_vector.h ****        *  Returns a read-only (constant) iterator that points one past
 570:C:/Program Files (x86)/CodeBlocks/MinGW/lib/gcc/mingw32/4.9.2/include/c++/bits\stl_vector.h ****        *  the last element in the %vector.  Iteration is done in
 571:C:/Program Files (x86)/CodeBlocks/MinGW/lib/gcc/mingw32/4.9.2/include/c++/bits\stl_vector.h ****        *  ordinary element order.
 572:C:/Program Files (x86)/CodeBlocks/MinGW/lib/gcc/mingw32/4.9.2/include/c++/bits\stl_vector.h ****        */
 573:C:/Program Files (x86)/CodeBlocks/MinGW/lib/gcc/mingw32/4.9.2/include/c++/bits\stl_vector.h ****       const_iterator
 574:C:/Program Files (x86)/CodeBlocks/MinGW/lib/gcc/mingw32/4.9.2/include/c++/bits\stl_vector.h ****       end() const _GLIBCXX_NOEXCEPT
 575:C:/Program Files (x86)/CodeBlocks/MinGW/lib/gcc/mingw32/4.9.2/include/c++/bits\stl_vector.h ****       { return const_iterator(this->_M_impl._M_finish); }
 576:C:/Program Files (x86)/CodeBlocks/MinGW/lib/gcc/mingw32/4.9.2/include/c++/bits\stl_vector.h **** 
 577:C:/Program Files (x86)/CodeBlocks/MinGW/lib/gcc/mingw32/4.9.2/include/c++/bits\stl_vector.h ****       /**
 578:C:/Program Files (x86)/CodeBlocks/MinGW/lib/gcc/mingw32/4.9.2/include/c++/bits\stl_vector.h ****        *  Returns a read/write reverse iterator that points to the
 579:C:/Program Files (x86)/CodeBlocks/MinGW/lib/gcc/mingw32/4.9.2/include/c++/bits\stl_vector.h ****        *  last element in the %vector.  Iteration is done in reverse
 580:C:/Program Files (x86)/CodeBlocks/MinGW/lib/gcc/mingw32/4.9.2/include/c++/bits\stl_vector.h ****        *  element order.
 581:C:/Program Files (x86)/CodeBlocks/MinGW/lib/gcc/mingw32/4.9.2/include/c++/bits\stl_vector.h ****        */
 582:C:/Program Files (x86)/CodeBlocks/MinGW/lib/gcc/mingw32/4.9.2/include/c++/bits\stl_vector.h ****       reverse_iterator
 583:C:/Program Files (x86)/CodeBlocks/MinGW/lib/gcc/mingw32/4.9.2/include/c++/bits\stl_vector.h ****       rbegin() _GLIBCXX_NOEXCEPT
 584:C:/Program Files (x86)/CodeBlocks/MinGW/lib/gcc/mingw32/4.9.2/include/c++/bits\stl_vector.h ****       { return reverse_iterator(end()); }
 585:C:/Program Files (x86)/CodeBlocks/MinGW/lib/gcc/mingw32/4.9.2/include/c++/bits\stl_vector.h **** 
 586:C:/Program Files (x86)/CodeBlocks/MinGW/lib/gcc/mingw32/4.9.2/include/c++/bits\stl_vector.h ****       /**
 587:C:/Program Files (x86)/CodeBlocks/MinGW/lib/gcc/mingw32/4.9.2/include/c++/bits\stl_vector.h ****        *  Returns a read-only (constant) reverse iterator that points
 588:C:/Program Files (x86)/CodeBlocks/MinGW/lib/gcc/mingw32/4.9.2/include/c++/bits\stl_vector.h ****        *  to the last element in the %vector.  Iteration is done in
 589:C:/Program Files (x86)/CodeBlocks/MinGW/lib/gcc/mingw32/4.9.2/include/c++/bits\stl_vector.h ****        *  reverse element order.
 590:C:/Program Files (x86)/CodeBlocks/MinGW/lib/gcc/mingw32/4.9.2/include/c++/bits\stl_vector.h ****        */
 591:C:/Program Files (x86)/CodeBlocks/MinGW/lib/gcc/mingw32/4.9.2/include/c++/bits\stl_vector.h ****       const_reverse_iterator
 592:C:/Program Files (x86)/CodeBlocks/MinGW/lib/gcc/mingw32/4.9.2/include/c++/bits\stl_vector.h ****       rbegin() const _GLIBCXX_NOEXCEPT
 593:C:/Program Files (x86)/CodeBlocks/MinGW/lib/gcc/mingw32/4.9.2/include/c++/bits\stl_vector.h ****       { return const_reverse_iterator(end()); }
 594:C:/Program Files (x86)/CodeBlocks/MinGW/lib/gcc/mingw32/4.9.2/include/c++/bits\stl_vector.h **** 
 595:C:/Program Files (x86)/CodeBlocks/MinGW/lib/gcc/mingw32/4.9.2/include/c++/bits\stl_vector.h ****       /**
 596:C:/Program Files (x86)/CodeBlocks/MinGW/lib/gcc/mingw32/4.9.2/include/c++/bits\stl_vector.h ****        *  Returns a read/write reverse iterator that points to one
 597:C:/Program Files (x86)/CodeBlocks/MinGW/lib/gcc/mingw32/4.9.2/include/c++/bits\stl_vector.h ****        *  before the first element in the %vector.  Iteration is done
 598:C:/Program Files (x86)/CodeBlocks/MinGW/lib/gcc/mingw32/4.9.2/include/c++/bits\stl_vector.h ****        *  in reverse element order.
 599:C:/Program Files (x86)/CodeBlocks/MinGW/lib/gcc/mingw32/4.9.2/include/c++/bits\stl_vector.h ****        */
 600:C:/Program Files (x86)/CodeBlocks/MinGW/lib/gcc/mingw32/4.9.2/include/c++/bits\stl_vector.h ****       reverse_iterator
 601:C:/Program Files (x86)/CodeBlocks/MinGW/lib/gcc/mingw32/4.9.2/include/c++/bits\stl_vector.h ****       rend() _GLIBCXX_NOEXCEPT
 602:C:/Program Files (x86)/CodeBlocks/MinGW/lib/gcc/mingw32/4.9.2/include/c++/bits\stl_vector.h ****       { return reverse_iterator(begin()); }
 603:C:/Program Files (x86)/CodeBlocks/MinGW/lib/gcc/mingw32/4.9.2/include/c++/bits\stl_vector.h **** 
 604:C:/Program Files (x86)/CodeBlocks/MinGW/lib/gcc/mingw32/4.9.2/include/c++/bits\stl_vector.h ****       /**
 605:C:/Program Files (x86)/CodeBlocks/MinGW/lib/gcc/mingw32/4.9.2/include/c++/bits\stl_vector.h ****        *  Returns a read-only (constant) reverse iterator that points
 606:C:/Program Files (x86)/CodeBlocks/MinGW/lib/gcc/mingw32/4.9.2/include/c++/bits\stl_vector.h ****        *  to one before the first element in the %vector.  Iteration
 607:C:/Program Files (x86)/CodeBlocks/MinGW/lib/gcc/mingw32/4.9.2/include/c++/bits\stl_vector.h ****        *  is done in reverse element order.
 608:C:/Program Files (x86)/CodeBlocks/MinGW/lib/gcc/mingw32/4.9.2/include/c++/bits\stl_vector.h ****        */
 609:C:/Program Files (x86)/CodeBlocks/MinGW/lib/gcc/mingw32/4.9.2/include/c++/bits\stl_vector.h ****       const_reverse_iterator
 610:C:/Program Files (x86)/CodeBlocks/MinGW/lib/gcc/mingw32/4.9.2/include/c++/bits\stl_vector.h ****       rend() const _GLIBCXX_NOEXCEPT
 611:C:/Program Files (x86)/CodeBlocks/MinGW/lib/gcc/mingw32/4.9.2/include/c++/bits\stl_vector.h ****       { return const_reverse_iterator(begin()); }
 612:C:/Program Files (x86)/CodeBlocks/MinGW/lib/gcc/mingw32/4.9.2/include/c++/bits\stl_vector.h **** 
 613:C:/Program Files (x86)/CodeBlocks/MinGW/lib/gcc/mingw32/4.9.2/include/c++/bits\stl_vector.h **** #if __cplusplus >= 201103L
 614:C:/Program Files (x86)/CodeBlocks/MinGW/lib/gcc/mingw32/4.9.2/include/c++/bits\stl_vector.h ****       /**
 615:C:/Program Files (x86)/CodeBlocks/MinGW/lib/gcc/mingw32/4.9.2/include/c++/bits\stl_vector.h ****        *  Returns a read-only (constant) iterator that points to the
 616:C:/Program Files (x86)/CodeBlocks/MinGW/lib/gcc/mingw32/4.9.2/include/c++/bits\stl_vector.h ****        *  first element in the %vector.  Iteration is done in ordinary
 617:C:/Program Files (x86)/CodeBlocks/MinGW/lib/gcc/mingw32/4.9.2/include/c++/bits\stl_vector.h ****        *  element order.
 618:C:/Program Files (x86)/CodeBlocks/MinGW/lib/gcc/mingw32/4.9.2/include/c++/bits\stl_vector.h ****        */
 619:C:/Program Files (x86)/CodeBlocks/MinGW/lib/gcc/mingw32/4.9.2/include/c++/bits\stl_vector.h ****       const_iterator
 620:C:/Program Files (x86)/CodeBlocks/MinGW/lib/gcc/mingw32/4.9.2/include/c++/bits\stl_vector.h ****       cbegin() const noexcept
 621:C:/Program Files (x86)/CodeBlocks/MinGW/lib/gcc/mingw32/4.9.2/include/c++/bits\stl_vector.h ****       { return const_iterator(this->_M_impl._M_start); }
 622:C:/Program Files (x86)/CodeBlocks/MinGW/lib/gcc/mingw32/4.9.2/include/c++/bits\stl_vector.h **** 
 623:C:/Program Files (x86)/CodeBlocks/MinGW/lib/gcc/mingw32/4.9.2/include/c++/bits\stl_vector.h ****       /**
GAS LISTING C:\Users\NJLLMR~1\AppData\Local\Temp\cce8JzPW.s 			page 28


 624:C:/Program Files (x86)/CodeBlocks/MinGW/lib/gcc/mingw32/4.9.2/include/c++/bits\stl_vector.h ****        *  Returns a read-only (constant) iterator that points one past
 625:C:/Program Files (x86)/CodeBlocks/MinGW/lib/gcc/mingw32/4.9.2/include/c++/bits\stl_vector.h ****        *  the last element in the %vector.  Iteration is done in
 626:C:/Program Files (x86)/CodeBlocks/MinGW/lib/gcc/mingw32/4.9.2/include/c++/bits\stl_vector.h ****        *  ordinary element order.
 627:C:/Program Files (x86)/CodeBlocks/MinGW/lib/gcc/mingw32/4.9.2/include/c++/bits\stl_vector.h ****        */
 628:C:/Program Files (x86)/CodeBlocks/MinGW/lib/gcc/mingw32/4.9.2/include/c++/bits\stl_vector.h ****       const_iterator
 629:C:/Program Files (x86)/CodeBlocks/MinGW/lib/gcc/mingw32/4.9.2/include/c++/bits\stl_vector.h ****       cend() const noexcept
 630:C:/Program Files (x86)/CodeBlocks/MinGW/lib/gcc/mingw32/4.9.2/include/c++/bits\stl_vector.h ****       { return const_iterator(this->_M_impl._M_finish); }
 631:C:/Program Files (x86)/CodeBlocks/MinGW/lib/gcc/mingw32/4.9.2/include/c++/bits\stl_vector.h **** 
 632:C:/Program Files (x86)/CodeBlocks/MinGW/lib/gcc/mingw32/4.9.2/include/c++/bits\stl_vector.h ****       /**
 633:C:/Program Files (x86)/CodeBlocks/MinGW/lib/gcc/mingw32/4.9.2/include/c++/bits\stl_vector.h ****        *  Returns a read-only (constant) reverse iterator that points
 634:C:/Program Files (x86)/CodeBlocks/MinGW/lib/gcc/mingw32/4.9.2/include/c++/bits\stl_vector.h ****        *  to the last element in the %vector.  Iteration is done in
 635:C:/Program Files (x86)/CodeBlocks/MinGW/lib/gcc/mingw32/4.9.2/include/c++/bits\stl_vector.h ****        *  reverse element order.
 636:C:/Program Files (x86)/CodeBlocks/MinGW/lib/gcc/mingw32/4.9.2/include/c++/bits\stl_vector.h ****        */
 637:C:/Program Files (x86)/CodeBlocks/MinGW/lib/gcc/mingw32/4.9.2/include/c++/bits\stl_vector.h ****       const_reverse_iterator
 638:C:/Program Files (x86)/CodeBlocks/MinGW/lib/gcc/mingw32/4.9.2/include/c++/bits\stl_vector.h ****       crbegin() const noexcept
 639:C:/Program Files (x86)/CodeBlocks/MinGW/lib/gcc/mingw32/4.9.2/include/c++/bits\stl_vector.h ****       { return const_reverse_iterator(end()); }
 640:C:/Program Files (x86)/CodeBlocks/MinGW/lib/gcc/mingw32/4.9.2/include/c++/bits\stl_vector.h **** 
 641:C:/Program Files (x86)/CodeBlocks/MinGW/lib/gcc/mingw32/4.9.2/include/c++/bits\stl_vector.h ****       /**
 642:C:/Program Files (x86)/CodeBlocks/MinGW/lib/gcc/mingw32/4.9.2/include/c++/bits\stl_vector.h ****        *  Returns a read-only (constant) reverse iterator that points
 643:C:/Program Files (x86)/CodeBlocks/MinGW/lib/gcc/mingw32/4.9.2/include/c++/bits\stl_vector.h ****        *  to one before the first element in the %vector.  Iteration
 644:C:/Program Files (x86)/CodeBlocks/MinGW/lib/gcc/mingw32/4.9.2/include/c++/bits\stl_vector.h ****        *  is done in reverse element order.
 645:C:/Program Files (x86)/CodeBlocks/MinGW/lib/gcc/mingw32/4.9.2/include/c++/bits\stl_vector.h ****        */
 646:C:/Program Files (x86)/CodeBlocks/MinGW/lib/gcc/mingw32/4.9.2/include/c++/bits\stl_vector.h ****       const_reverse_iterator
 647:C:/Program Files (x86)/CodeBlocks/MinGW/lib/gcc/mingw32/4.9.2/include/c++/bits\stl_vector.h ****       crend() const noexcept
 648:C:/Program Files (x86)/CodeBlocks/MinGW/lib/gcc/mingw32/4.9.2/include/c++/bits\stl_vector.h ****       { return const_reverse_iterator(begin()); }
 649:C:/Program Files (x86)/CodeBlocks/MinGW/lib/gcc/mingw32/4.9.2/include/c++/bits\stl_vector.h **** #endif
 650:C:/Program Files (x86)/CodeBlocks/MinGW/lib/gcc/mingw32/4.9.2/include/c++/bits\stl_vector.h **** 
 651:C:/Program Files (x86)/CodeBlocks/MinGW/lib/gcc/mingw32/4.9.2/include/c++/bits\stl_vector.h ****       // [23.2.4.2] capacity
 652:C:/Program Files (x86)/CodeBlocks/MinGW/lib/gcc/mingw32/4.9.2/include/c++/bits\stl_vector.h ****       /**  Returns the number of elements in the %vector.  */
 653:C:/Program Files (x86)/CodeBlocks/MinGW/lib/gcc/mingw32/4.9.2/include/c++/bits\stl_vector.h ****       size_type
 654:C:/Program Files (x86)/CodeBlocks/MinGW/lib/gcc/mingw32/4.9.2/include/c++/bits\stl_vector.h ****       size() const _GLIBCXX_NOEXCEPT
 655:C:/Program Files (x86)/CodeBlocks/MinGW/lib/gcc/mingw32/4.9.2/include/c++/bits\stl_vector.h ****       { return size_type(this->_M_impl._M_finish - this->_M_impl._M_start); }
 656:C:/Program Files (x86)/CodeBlocks/MinGW/lib/gcc/mingw32/4.9.2/include/c++/bits\stl_vector.h **** 
 657:C:/Program Files (x86)/CodeBlocks/MinGW/lib/gcc/mingw32/4.9.2/include/c++/bits\stl_vector.h ****       /**  Returns the size() of the largest possible %vector.  */
 658:C:/Program Files (x86)/CodeBlocks/MinGW/lib/gcc/mingw32/4.9.2/include/c++/bits\stl_vector.h ****       size_type
 659:C:/Program Files (x86)/CodeBlocks/MinGW/lib/gcc/mingw32/4.9.2/include/c++/bits\stl_vector.h ****       max_size() const _GLIBCXX_NOEXCEPT
 660:C:/Program Files (x86)/CodeBlocks/MinGW/lib/gcc/mingw32/4.9.2/include/c++/bits\stl_vector.h ****       { return _Alloc_traits::max_size(_M_get_Tp_allocator()); }
 661:C:/Program Files (x86)/CodeBlocks/MinGW/lib/gcc/mingw32/4.9.2/include/c++/bits\stl_vector.h **** 
 662:C:/Program Files (x86)/CodeBlocks/MinGW/lib/gcc/mingw32/4.9.2/include/c++/bits\stl_vector.h **** #if __cplusplus >= 201103L
 663:C:/Program Files (x86)/CodeBlocks/MinGW/lib/gcc/mingw32/4.9.2/include/c++/bits\stl_vector.h ****       /**
 664:C:/Program Files (x86)/CodeBlocks/MinGW/lib/gcc/mingw32/4.9.2/include/c++/bits\stl_vector.h ****        *  @brief  Resizes the %vector to the specified number of elements.
 665:C:/Program Files (x86)/CodeBlocks/MinGW/lib/gcc/mingw32/4.9.2/include/c++/bits\stl_vector.h ****        *  @param  __new_size  Number of elements the %vector should contain.
 666:C:/Program Files (x86)/CodeBlocks/MinGW/lib/gcc/mingw32/4.9.2/include/c++/bits\stl_vector.h ****        *
 667:C:/Program Files (x86)/CodeBlocks/MinGW/lib/gcc/mingw32/4.9.2/include/c++/bits\stl_vector.h ****        *  This function will %resize the %vector to the specified
 668:C:/Program Files (x86)/CodeBlocks/MinGW/lib/gcc/mingw32/4.9.2/include/c++/bits\stl_vector.h ****        *  number of elements.  If the number is smaller than the
 669:C:/Program Files (x86)/CodeBlocks/MinGW/lib/gcc/mingw32/4.9.2/include/c++/bits\stl_vector.h ****        *  %vector's current size the %vector is truncated, otherwise
 670:C:/Program Files (x86)/CodeBlocks/MinGW/lib/gcc/mingw32/4.9.2/include/c++/bits\stl_vector.h ****        *  default constructed elements are appended.
 671:C:/Program Files (x86)/CodeBlocks/MinGW/lib/gcc/mingw32/4.9.2/include/c++/bits\stl_vector.h ****        */
 672:C:/Program Files (x86)/CodeBlocks/MinGW/lib/gcc/mingw32/4.9.2/include/c++/bits\stl_vector.h ****       void
 673:C:/Program Files (x86)/CodeBlocks/MinGW/lib/gcc/mingw32/4.9.2/include/c++/bits\stl_vector.h ****       resize(size_type __new_size)
 674:C:/Program Files (x86)/CodeBlocks/MinGW/lib/gcc/mingw32/4.9.2/include/c++/bits\stl_vector.h ****       {
 675:C:/Program Files (x86)/CodeBlocks/MinGW/lib/gcc/mingw32/4.9.2/include/c++/bits\stl_vector.h **** 	if (__new_size > size())
 676:C:/Program Files (x86)/CodeBlocks/MinGW/lib/gcc/mingw32/4.9.2/include/c++/bits\stl_vector.h **** 	  _M_default_append(__new_size - size());
 677:C:/Program Files (x86)/CodeBlocks/MinGW/lib/gcc/mingw32/4.9.2/include/c++/bits\stl_vector.h **** 	else if (__new_size < size())
 678:C:/Program Files (x86)/CodeBlocks/MinGW/lib/gcc/mingw32/4.9.2/include/c++/bits\stl_vector.h **** 	  _M_erase_at_end(this->_M_impl._M_start + __new_size);
 679:C:/Program Files (x86)/CodeBlocks/MinGW/lib/gcc/mingw32/4.9.2/include/c++/bits\stl_vector.h ****       }
 680:C:/Program Files (x86)/CodeBlocks/MinGW/lib/gcc/mingw32/4.9.2/include/c++/bits\stl_vector.h **** 
GAS LISTING C:\Users\NJLLMR~1\AppData\Local\Temp\cce8JzPW.s 			page 29


 681:C:/Program Files (x86)/CodeBlocks/MinGW/lib/gcc/mingw32/4.9.2/include/c++/bits\stl_vector.h ****       /**
 682:C:/Program Files (x86)/CodeBlocks/MinGW/lib/gcc/mingw32/4.9.2/include/c++/bits\stl_vector.h ****        *  @brief  Resizes the %vector to the specified number of elements.
 683:C:/Program Files (x86)/CodeBlocks/MinGW/lib/gcc/mingw32/4.9.2/include/c++/bits\stl_vector.h ****        *  @param  __new_size  Number of elements the %vector should contain.
 684:C:/Program Files (x86)/CodeBlocks/MinGW/lib/gcc/mingw32/4.9.2/include/c++/bits\stl_vector.h ****        *  @param  __x  Data with which new elements should be populated.
 685:C:/Program Files (x86)/CodeBlocks/MinGW/lib/gcc/mingw32/4.9.2/include/c++/bits\stl_vector.h ****        *
 686:C:/Program Files (x86)/CodeBlocks/MinGW/lib/gcc/mingw32/4.9.2/include/c++/bits\stl_vector.h ****        *  This function will %resize the %vector to the specified
 687:C:/Program Files (x86)/CodeBlocks/MinGW/lib/gcc/mingw32/4.9.2/include/c++/bits\stl_vector.h ****        *  number of elements.  If the number is smaller than the
 688:C:/Program Files (x86)/CodeBlocks/MinGW/lib/gcc/mingw32/4.9.2/include/c++/bits\stl_vector.h ****        *  %vector's current size the %vector is truncated, otherwise
 689:C:/Program Files (x86)/CodeBlocks/MinGW/lib/gcc/mingw32/4.9.2/include/c++/bits\stl_vector.h ****        *  the %vector is extended and new elements are populated with
 690:C:/Program Files (x86)/CodeBlocks/MinGW/lib/gcc/mingw32/4.9.2/include/c++/bits\stl_vector.h ****        *  given data.
 691:C:/Program Files (x86)/CodeBlocks/MinGW/lib/gcc/mingw32/4.9.2/include/c++/bits\stl_vector.h ****        */
 692:C:/Program Files (x86)/CodeBlocks/MinGW/lib/gcc/mingw32/4.9.2/include/c++/bits\stl_vector.h ****       void
 693:C:/Program Files (x86)/CodeBlocks/MinGW/lib/gcc/mingw32/4.9.2/include/c++/bits\stl_vector.h ****       resize(size_type __new_size, const value_type& __x)
 694:C:/Program Files (x86)/CodeBlocks/MinGW/lib/gcc/mingw32/4.9.2/include/c++/bits\stl_vector.h ****       {
 695:C:/Program Files (x86)/CodeBlocks/MinGW/lib/gcc/mingw32/4.9.2/include/c++/bits\stl_vector.h **** 	if (__new_size > size())
 696:C:/Program Files (x86)/CodeBlocks/MinGW/lib/gcc/mingw32/4.9.2/include/c++/bits\stl_vector.h **** 	  insert(end(), __new_size - size(), __x);
 697:C:/Program Files (x86)/CodeBlocks/MinGW/lib/gcc/mingw32/4.9.2/include/c++/bits\stl_vector.h **** 	else if (__new_size < size())
 698:C:/Program Files (x86)/CodeBlocks/MinGW/lib/gcc/mingw32/4.9.2/include/c++/bits\stl_vector.h **** 	  _M_erase_at_end(this->_M_impl._M_start + __new_size);
 699:C:/Program Files (x86)/CodeBlocks/MinGW/lib/gcc/mingw32/4.9.2/include/c++/bits\stl_vector.h ****       }
 700:C:/Program Files (x86)/CodeBlocks/MinGW/lib/gcc/mingw32/4.9.2/include/c++/bits\stl_vector.h **** #else
 701:C:/Program Files (x86)/CodeBlocks/MinGW/lib/gcc/mingw32/4.9.2/include/c++/bits\stl_vector.h ****       /**
 702:C:/Program Files (x86)/CodeBlocks/MinGW/lib/gcc/mingw32/4.9.2/include/c++/bits\stl_vector.h ****        *  @brief  Resizes the %vector to the specified number of elements.
 703:C:/Program Files (x86)/CodeBlocks/MinGW/lib/gcc/mingw32/4.9.2/include/c++/bits\stl_vector.h ****        *  @param  __new_size  Number of elements the %vector should contain.
 704:C:/Program Files (x86)/CodeBlocks/MinGW/lib/gcc/mingw32/4.9.2/include/c++/bits\stl_vector.h ****        *  @param  __x  Data with which new elements should be populated.
 705:C:/Program Files (x86)/CodeBlocks/MinGW/lib/gcc/mingw32/4.9.2/include/c++/bits\stl_vector.h ****        *
 706:C:/Program Files (x86)/CodeBlocks/MinGW/lib/gcc/mingw32/4.9.2/include/c++/bits\stl_vector.h ****        *  This function will %resize the %vector to the specified
 707:C:/Program Files (x86)/CodeBlocks/MinGW/lib/gcc/mingw32/4.9.2/include/c++/bits\stl_vector.h ****        *  number of elements.  If the number is smaller than the
 708:C:/Program Files (x86)/CodeBlocks/MinGW/lib/gcc/mingw32/4.9.2/include/c++/bits\stl_vector.h ****        *  %vector's current size the %vector is truncated, otherwise
 709:C:/Program Files (x86)/CodeBlocks/MinGW/lib/gcc/mingw32/4.9.2/include/c++/bits\stl_vector.h ****        *  the %vector is extended and new elements are populated with
 710:C:/Program Files (x86)/CodeBlocks/MinGW/lib/gcc/mingw32/4.9.2/include/c++/bits\stl_vector.h ****        *  given data.
 711:C:/Program Files (x86)/CodeBlocks/MinGW/lib/gcc/mingw32/4.9.2/include/c++/bits\stl_vector.h ****        */
 712:C:/Program Files (x86)/CodeBlocks/MinGW/lib/gcc/mingw32/4.9.2/include/c++/bits\stl_vector.h ****       void
 713:C:/Program Files (x86)/CodeBlocks/MinGW/lib/gcc/mingw32/4.9.2/include/c++/bits\stl_vector.h ****       resize(size_type __new_size, value_type __x = value_type())
 714:C:/Program Files (x86)/CodeBlocks/MinGW/lib/gcc/mingw32/4.9.2/include/c++/bits\stl_vector.h ****       {
 715:C:/Program Files (x86)/CodeBlocks/MinGW/lib/gcc/mingw32/4.9.2/include/c++/bits\stl_vector.h **** 	if (__new_size > size())
 716:C:/Program Files (x86)/CodeBlocks/MinGW/lib/gcc/mingw32/4.9.2/include/c++/bits\stl_vector.h **** 	  insert(end(), __new_size - size(), __x);
 717:C:/Program Files (x86)/CodeBlocks/MinGW/lib/gcc/mingw32/4.9.2/include/c++/bits\stl_vector.h **** 	else if (__new_size < size())
 718:C:/Program Files (x86)/CodeBlocks/MinGW/lib/gcc/mingw32/4.9.2/include/c++/bits\stl_vector.h **** 	  _M_erase_at_end(this->_M_impl._M_start + __new_size);
 719:C:/Program Files (x86)/CodeBlocks/MinGW/lib/gcc/mingw32/4.9.2/include/c++/bits\stl_vector.h ****       }
 720:C:/Program Files (x86)/CodeBlocks/MinGW/lib/gcc/mingw32/4.9.2/include/c++/bits\stl_vector.h **** #endif
 721:C:/Program Files (x86)/CodeBlocks/MinGW/lib/gcc/mingw32/4.9.2/include/c++/bits\stl_vector.h **** 
 722:C:/Program Files (x86)/CodeBlocks/MinGW/lib/gcc/mingw32/4.9.2/include/c++/bits\stl_vector.h **** #if __cplusplus >= 201103L
 723:C:/Program Files (x86)/CodeBlocks/MinGW/lib/gcc/mingw32/4.9.2/include/c++/bits\stl_vector.h ****       /**  A non-binding request to reduce capacity() to size().  */
 724:C:/Program Files (x86)/CodeBlocks/MinGW/lib/gcc/mingw32/4.9.2/include/c++/bits\stl_vector.h ****       void
 725:C:/Program Files (x86)/CodeBlocks/MinGW/lib/gcc/mingw32/4.9.2/include/c++/bits\stl_vector.h ****       shrink_to_fit()
 726:C:/Program Files (x86)/CodeBlocks/MinGW/lib/gcc/mingw32/4.9.2/include/c++/bits\stl_vector.h ****       { _M_shrink_to_fit(); }
 727:C:/Program Files (x86)/CodeBlocks/MinGW/lib/gcc/mingw32/4.9.2/include/c++/bits\stl_vector.h **** #endif
 728:C:/Program Files (x86)/CodeBlocks/MinGW/lib/gcc/mingw32/4.9.2/include/c++/bits\stl_vector.h **** 
 729:C:/Program Files (x86)/CodeBlocks/MinGW/lib/gcc/mingw32/4.9.2/include/c++/bits\stl_vector.h ****       /**
 730:C:/Program Files (x86)/CodeBlocks/MinGW/lib/gcc/mingw32/4.9.2/include/c++/bits\stl_vector.h ****        *  Returns the total number of elements that the %vector can
 731:C:/Program Files (x86)/CodeBlocks/MinGW/lib/gcc/mingw32/4.9.2/include/c++/bits\stl_vector.h ****        *  hold before needing to allocate more memory.
 732:C:/Program Files (x86)/CodeBlocks/MinGW/lib/gcc/mingw32/4.9.2/include/c++/bits\stl_vector.h ****        */
 733:C:/Program Files (x86)/CodeBlocks/MinGW/lib/gcc/mingw32/4.9.2/include/c++/bits\stl_vector.h ****       size_type
 734:C:/Program Files (x86)/CodeBlocks/MinGW/lib/gcc/mingw32/4.9.2/include/c++/bits\stl_vector.h ****       capacity() const _GLIBCXX_NOEXCEPT
 735:C:/Program Files (x86)/CodeBlocks/MinGW/lib/gcc/mingw32/4.9.2/include/c++/bits\stl_vector.h ****       { return size_type(this->_M_impl._M_end_of_storage
 736:C:/Program Files (x86)/CodeBlocks/MinGW/lib/gcc/mingw32/4.9.2/include/c++/bits\stl_vector.h **** 			 - this->_M_impl._M_start); }
 737:C:/Program Files (x86)/CodeBlocks/MinGW/lib/gcc/mingw32/4.9.2/include/c++/bits\stl_vector.h **** 
GAS LISTING C:\Users\NJLLMR~1\AppData\Local\Temp\cce8JzPW.s 			page 30


 738:C:/Program Files (x86)/CodeBlocks/MinGW/lib/gcc/mingw32/4.9.2/include/c++/bits\stl_vector.h ****       /**
 739:C:/Program Files (x86)/CodeBlocks/MinGW/lib/gcc/mingw32/4.9.2/include/c++/bits\stl_vector.h ****        *  Returns true if the %vector is empty.  (Thus begin() would
 740:C:/Program Files (x86)/CodeBlocks/MinGW/lib/gcc/mingw32/4.9.2/include/c++/bits\stl_vector.h ****        *  equal end().)
 741:C:/Program Files (x86)/CodeBlocks/MinGW/lib/gcc/mingw32/4.9.2/include/c++/bits\stl_vector.h ****        */
 742:C:/Program Files (x86)/CodeBlocks/MinGW/lib/gcc/mingw32/4.9.2/include/c++/bits\stl_vector.h ****       bool
 743:C:/Program Files (x86)/CodeBlocks/MinGW/lib/gcc/mingw32/4.9.2/include/c++/bits\stl_vector.h ****       empty() const _GLIBCXX_NOEXCEPT
 744:C:/Program Files (x86)/CodeBlocks/MinGW/lib/gcc/mingw32/4.9.2/include/c++/bits\stl_vector.h ****       { return begin() == end(); }
 745:C:/Program Files (x86)/CodeBlocks/MinGW/lib/gcc/mingw32/4.9.2/include/c++/bits\stl_vector.h **** 
 746:C:/Program Files (x86)/CodeBlocks/MinGW/lib/gcc/mingw32/4.9.2/include/c++/bits\stl_vector.h ****       /**
 747:C:/Program Files (x86)/CodeBlocks/MinGW/lib/gcc/mingw32/4.9.2/include/c++/bits\stl_vector.h ****        *  @brief  Attempt to preallocate enough memory for specified number of
 748:C:/Program Files (x86)/CodeBlocks/MinGW/lib/gcc/mingw32/4.9.2/include/c++/bits\stl_vector.h ****        *          elements.
 749:C:/Program Files (x86)/CodeBlocks/MinGW/lib/gcc/mingw32/4.9.2/include/c++/bits\stl_vector.h ****        *  @param  __n  Number of elements required.
 750:C:/Program Files (x86)/CodeBlocks/MinGW/lib/gcc/mingw32/4.9.2/include/c++/bits\stl_vector.h ****        *  @throw  std::length_error  If @a n exceeds @c max_size().
 751:C:/Program Files (x86)/CodeBlocks/MinGW/lib/gcc/mingw32/4.9.2/include/c++/bits\stl_vector.h ****        *
 752:C:/Program Files (x86)/CodeBlocks/MinGW/lib/gcc/mingw32/4.9.2/include/c++/bits\stl_vector.h ****        *  This function attempts to reserve enough memory for the
 753:C:/Program Files (x86)/CodeBlocks/MinGW/lib/gcc/mingw32/4.9.2/include/c++/bits\stl_vector.h ****        *  %vector to hold the specified number of elements.  If the
 754:C:/Program Files (x86)/CodeBlocks/MinGW/lib/gcc/mingw32/4.9.2/include/c++/bits\stl_vector.h ****        *  number requested is more than max_size(), length_error is
 755:C:/Program Files (x86)/CodeBlocks/MinGW/lib/gcc/mingw32/4.9.2/include/c++/bits\stl_vector.h ****        *  thrown.
 756:C:/Program Files (x86)/CodeBlocks/MinGW/lib/gcc/mingw32/4.9.2/include/c++/bits\stl_vector.h ****        *
 757:C:/Program Files (x86)/CodeBlocks/MinGW/lib/gcc/mingw32/4.9.2/include/c++/bits\stl_vector.h ****        *  The advantage of this function is that if optimal code is a
 758:C:/Program Files (x86)/CodeBlocks/MinGW/lib/gcc/mingw32/4.9.2/include/c++/bits\stl_vector.h ****        *  necessity and the user can determine the number of elements
 759:C:/Program Files (x86)/CodeBlocks/MinGW/lib/gcc/mingw32/4.9.2/include/c++/bits\stl_vector.h ****        *  that will be required, the user can reserve the memory in
 760:C:/Program Files (x86)/CodeBlocks/MinGW/lib/gcc/mingw32/4.9.2/include/c++/bits\stl_vector.h ****        *  %advance, and thus prevent a possible reallocation of memory
 761:C:/Program Files (x86)/CodeBlocks/MinGW/lib/gcc/mingw32/4.9.2/include/c++/bits\stl_vector.h ****        *  and copying of %vector data.
 762:C:/Program Files (x86)/CodeBlocks/MinGW/lib/gcc/mingw32/4.9.2/include/c++/bits\stl_vector.h ****        */
 763:C:/Program Files (x86)/CodeBlocks/MinGW/lib/gcc/mingw32/4.9.2/include/c++/bits\stl_vector.h ****       void
 764:C:/Program Files (x86)/CodeBlocks/MinGW/lib/gcc/mingw32/4.9.2/include/c++/bits\stl_vector.h ****       reserve(size_type __n);
 765:C:/Program Files (x86)/CodeBlocks/MinGW/lib/gcc/mingw32/4.9.2/include/c++/bits\stl_vector.h **** 
 766:C:/Program Files (x86)/CodeBlocks/MinGW/lib/gcc/mingw32/4.9.2/include/c++/bits\stl_vector.h ****       // element access
 767:C:/Program Files (x86)/CodeBlocks/MinGW/lib/gcc/mingw32/4.9.2/include/c++/bits\stl_vector.h ****       /**
 768:C:/Program Files (x86)/CodeBlocks/MinGW/lib/gcc/mingw32/4.9.2/include/c++/bits\stl_vector.h ****        *  @brief  Subscript access to the data contained in the %vector.
 769:C:/Program Files (x86)/CodeBlocks/MinGW/lib/gcc/mingw32/4.9.2/include/c++/bits\stl_vector.h ****        *  @param __n The index of the element for which data should be
 770:C:/Program Files (x86)/CodeBlocks/MinGW/lib/gcc/mingw32/4.9.2/include/c++/bits\stl_vector.h ****        *  accessed.
 771:C:/Program Files (x86)/CodeBlocks/MinGW/lib/gcc/mingw32/4.9.2/include/c++/bits\stl_vector.h ****        *  @return  Read/write reference to data.
 772:C:/Program Files (x86)/CodeBlocks/MinGW/lib/gcc/mingw32/4.9.2/include/c++/bits\stl_vector.h ****        *
 773:C:/Program Files (x86)/CodeBlocks/MinGW/lib/gcc/mingw32/4.9.2/include/c++/bits\stl_vector.h ****        *  This operator allows for easy, array-style, data access.
 774:C:/Program Files (x86)/CodeBlocks/MinGW/lib/gcc/mingw32/4.9.2/include/c++/bits\stl_vector.h ****        *  Note that data access with this operator is unchecked and
 775:C:/Program Files (x86)/CodeBlocks/MinGW/lib/gcc/mingw32/4.9.2/include/c++/bits\stl_vector.h ****        *  out_of_range lookups are not defined. (For checked lookups
 776:C:/Program Files (x86)/CodeBlocks/MinGW/lib/gcc/mingw32/4.9.2/include/c++/bits\stl_vector.h ****        *  see at().)
 777:C:/Program Files (x86)/CodeBlocks/MinGW/lib/gcc/mingw32/4.9.2/include/c++/bits\stl_vector.h ****        */
 778:C:/Program Files (x86)/CodeBlocks/MinGW/lib/gcc/mingw32/4.9.2/include/c++/bits\stl_vector.h ****       reference
 779:C:/Program Files (x86)/CodeBlocks/MinGW/lib/gcc/mingw32/4.9.2/include/c++/bits\stl_vector.h ****       operator[](size_type __n) _GLIBCXX_NOEXCEPT
 780:C:/Program Files (x86)/CodeBlocks/MinGW/lib/gcc/mingw32/4.9.2/include/c++/bits\stl_vector.h ****       { return *(this->_M_impl._M_start + __n); }
 781:C:/Program Files (x86)/CodeBlocks/MinGW/lib/gcc/mingw32/4.9.2/include/c++/bits\stl_vector.h **** 
 782:C:/Program Files (x86)/CodeBlocks/MinGW/lib/gcc/mingw32/4.9.2/include/c++/bits\stl_vector.h ****       /**
 783:C:/Program Files (x86)/CodeBlocks/MinGW/lib/gcc/mingw32/4.9.2/include/c++/bits\stl_vector.h ****        *  @brief  Subscript access to the data contained in the %vector.
 784:C:/Program Files (x86)/CodeBlocks/MinGW/lib/gcc/mingw32/4.9.2/include/c++/bits\stl_vector.h ****        *  @param __n The index of the element for which data should be
 785:C:/Program Files (x86)/CodeBlocks/MinGW/lib/gcc/mingw32/4.9.2/include/c++/bits\stl_vector.h ****        *  accessed.
 786:C:/Program Files (x86)/CodeBlocks/MinGW/lib/gcc/mingw32/4.9.2/include/c++/bits\stl_vector.h ****        *  @return  Read-only (constant) reference to data.
 787:C:/Program Files (x86)/CodeBlocks/MinGW/lib/gcc/mingw32/4.9.2/include/c++/bits\stl_vector.h ****        *
 788:C:/Program Files (x86)/CodeBlocks/MinGW/lib/gcc/mingw32/4.9.2/include/c++/bits\stl_vector.h ****        *  This operator allows for easy, array-style, data access.
 789:C:/Program Files (x86)/CodeBlocks/MinGW/lib/gcc/mingw32/4.9.2/include/c++/bits\stl_vector.h ****        *  Note that data access with this operator is unchecked and
 790:C:/Program Files (x86)/CodeBlocks/MinGW/lib/gcc/mingw32/4.9.2/include/c++/bits\stl_vector.h ****        *  out_of_range lookups are not defined. (For checked lookups
 791:C:/Program Files (x86)/CodeBlocks/MinGW/lib/gcc/mingw32/4.9.2/include/c++/bits\stl_vector.h ****        *  see at().)
 792:C:/Program Files (x86)/CodeBlocks/MinGW/lib/gcc/mingw32/4.9.2/include/c++/bits\stl_vector.h ****        */
 793:C:/Program Files (x86)/CodeBlocks/MinGW/lib/gcc/mingw32/4.9.2/include/c++/bits\stl_vector.h ****       const_reference
 794:C:/Program Files (x86)/CodeBlocks/MinGW/lib/gcc/mingw32/4.9.2/include/c++/bits\stl_vector.h ****       operator[](size_type __n) const _GLIBCXX_NOEXCEPT
GAS LISTING C:\Users\NJLLMR~1\AppData\Local\Temp\cce8JzPW.s 			page 31


 795:C:/Program Files (x86)/CodeBlocks/MinGW/lib/gcc/mingw32/4.9.2/include/c++/bits\stl_vector.h ****       { return *(this->_M_impl._M_start + __n); }
 796:C:/Program Files (x86)/CodeBlocks/MinGW/lib/gcc/mingw32/4.9.2/include/c++/bits\stl_vector.h **** 
 797:C:/Program Files (x86)/CodeBlocks/MinGW/lib/gcc/mingw32/4.9.2/include/c++/bits\stl_vector.h ****     protected:
 798:C:/Program Files (x86)/CodeBlocks/MinGW/lib/gcc/mingw32/4.9.2/include/c++/bits\stl_vector.h ****       /// Safety check used only from at().
 799:C:/Program Files (x86)/CodeBlocks/MinGW/lib/gcc/mingw32/4.9.2/include/c++/bits\stl_vector.h ****       void
 800:C:/Program Files (x86)/CodeBlocks/MinGW/lib/gcc/mingw32/4.9.2/include/c++/bits\stl_vector.h ****       _M_range_check(size_type __n) const
 801:C:/Program Files (x86)/CodeBlocks/MinGW/lib/gcc/mingw32/4.9.2/include/c++/bits\stl_vector.h ****       {
 802:C:/Program Files (x86)/CodeBlocks/MinGW/lib/gcc/mingw32/4.9.2/include/c++/bits\stl_vector.h **** 	if (__n >= this->size())
 803:C:/Program Files (x86)/CodeBlocks/MinGW/lib/gcc/mingw32/4.9.2/include/c++/bits\stl_vector.h **** 	  __throw_out_of_range_fmt(__N("vector::_M_range_check: __n "
 804:C:/Program Files (x86)/CodeBlocks/MinGW/lib/gcc/mingw32/4.9.2/include/c++/bits\stl_vector.h **** 				       "(which is %zu) >= this->size() "
 805:C:/Program Files (x86)/CodeBlocks/MinGW/lib/gcc/mingw32/4.9.2/include/c++/bits\stl_vector.h **** 				       "(which is %zu)"),
 806:C:/Program Files (x86)/CodeBlocks/MinGW/lib/gcc/mingw32/4.9.2/include/c++/bits\stl_vector.h **** 				   __n, this->size());
 807:C:/Program Files (x86)/CodeBlocks/MinGW/lib/gcc/mingw32/4.9.2/include/c++/bits\stl_vector.h ****       }
 808:C:/Program Files (x86)/CodeBlocks/MinGW/lib/gcc/mingw32/4.9.2/include/c++/bits\stl_vector.h **** 
 809:C:/Program Files (x86)/CodeBlocks/MinGW/lib/gcc/mingw32/4.9.2/include/c++/bits\stl_vector.h ****     public:
 810:C:/Program Files (x86)/CodeBlocks/MinGW/lib/gcc/mingw32/4.9.2/include/c++/bits\stl_vector.h ****       /**
 811:C:/Program Files (x86)/CodeBlocks/MinGW/lib/gcc/mingw32/4.9.2/include/c++/bits\stl_vector.h ****        *  @brief  Provides access to the data contained in the %vector.
 812:C:/Program Files (x86)/CodeBlocks/MinGW/lib/gcc/mingw32/4.9.2/include/c++/bits\stl_vector.h ****        *  @param __n The index of the element for which data should be
 813:C:/Program Files (x86)/CodeBlocks/MinGW/lib/gcc/mingw32/4.9.2/include/c++/bits\stl_vector.h ****        *  accessed.
 814:C:/Program Files (x86)/CodeBlocks/MinGW/lib/gcc/mingw32/4.9.2/include/c++/bits\stl_vector.h ****        *  @return  Read/write reference to data.
 815:C:/Program Files (x86)/CodeBlocks/MinGW/lib/gcc/mingw32/4.9.2/include/c++/bits\stl_vector.h ****        *  @throw  std::out_of_range  If @a __n is an invalid index.
 816:C:/Program Files (x86)/CodeBlocks/MinGW/lib/gcc/mingw32/4.9.2/include/c++/bits\stl_vector.h ****        *
 817:C:/Program Files (x86)/CodeBlocks/MinGW/lib/gcc/mingw32/4.9.2/include/c++/bits\stl_vector.h ****        *  This function provides for safer data access.  The parameter
 818:C:/Program Files (x86)/CodeBlocks/MinGW/lib/gcc/mingw32/4.9.2/include/c++/bits\stl_vector.h ****        *  is first checked that it is in the range of the vector.  The
 819:C:/Program Files (x86)/CodeBlocks/MinGW/lib/gcc/mingw32/4.9.2/include/c++/bits\stl_vector.h ****        *  function throws out_of_range if the check fails.
 820:C:/Program Files (x86)/CodeBlocks/MinGW/lib/gcc/mingw32/4.9.2/include/c++/bits\stl_vector.h ****        */
 821:C:/Program Files (x86)/CodeBlocks/MinGW/lib/gcc/mingw32/4.9.2/include/c++/bits\stl_vector.h ****       reference
 822:C:/Program Files (x86)/CodeBlocks/MinGW/lib/gcc/mingw32/4.9.2/include/c++/bits\stl_vector.h ****       at(size_type __n)
 823:C:/Program Files (x86)/CodeBlocks/MinGW/lib/gcc/mingw32/4.9.2/include/c++/bits\stl_vector.h ****       {
 824:C:/Program Files (x86)/CodeBlocks/MinGW/lib/gcc/mingw32/4.9.2/include/c++/bits\stl_vector.h **** 	_M_range_check(__n);
 825:C:/Program Files (x86)/CodeBlocks/MinGW/lib/gcc/mingw32/4.9.2/include/c++/bits\stl_vector.h **** 	return (*this)[__n]; 
 826:C:/Program Files (x86)/CodeBlocks/MinGW/lib/gcc/mingw32/4.9.2/include/c++/bits\stl_vector.h ****       }
 827:C:/Program Files (x86)/CodeBlocks/MinGW/lib/gcc/mingw32/4.9.2/include/c++/bits\stl_vector.h **** 
 828:C:/Program Files (x86)/CodeBlocks/MinGW/lib/gcc/mingw32/4.9.2/include/c++/bits\stl_vector.h ****       /**
 829:C:/Program Files (x86)/CodeBlocks/MinGW/lib/gcc/mingw32/4.9.2/include/c++/bits\stl_vector.h ****        *  @brief  Provides access to the data contained in the %vector.
 830:C:/Program Files (x86)/CodeBlocks/MinGW/lib/gcc/mingw32/4.9.2/include/c++/bits\stl_vector.h ****        *  @param __n The index of the element for which data should be
 831:C:/Program Files (x86)/CodeBlocks/MinGW/lib/gcc/mingw32/4.9.2/include/c++/bits\stl_vector.h ****        *  accessed.
 832:C:/Program Files (x86)/CodeBlocks/MinGW/lib/gcc/mingw32/4.9.2/include/c++/bits\stl_vector.h ****        *  @return  Read-only (constant) reference to data.
 833:C:/Program Files (x86)/CodeBlocks/MinGW/lib/gcc/mingw32/4.9.2/include/c++/bits\stl_vector.h ****        *  @throw  std::out_of_range  If @a __n is an invalid index.
 834:C:/Program Files (x86)/CodeBlocks/MinGW/lib/gcc/mingw32/4.9.2/include/c++/bits\stl_vector.h ****        *
 835:C:/Program Files (x86)/CodeBlocks/MinGW/lib/gcc/mingw32/4.9.2/include/c++/bits\stl_vector.h ****        *  This function provides for safer data access.  The parameter
 836:C:/Program Files (x86)/CodeBlocks/MinGW/lib/gcc/mingw32/4.9.2/include/c++/bits\stl_vector.h ****        *  is first checked that it is in the range of the vector.  The
 837:C:/Program Files (x86)/CodeBlocks/MinGW/lib/gcc/mingw32/4.9.2/include/c++/bits\stl_vector.h ****        *  function throws out_of_range if the check fails.
 838:C:/Program Files (x86)/CodeBlocks/MinGW/lib/gcc/mingw32/4.9.2/include/c++/bits\stl_vector.h ****        */
 839:C:/Program Files (x86)/CodeBlocks/MinGW/lib/gcc/mingw32/4.9.2/include/c++/bits\stl_vector.h ****       const_reference
 840:C:/Program Files (x86)/CodeBlocks/MinGW/lib/gcc/mingw32/4.9.2/include/c++/bits\stl_vector.h ****       at(size_type __n) const
 841:C:/Program Files (x86)/CodeBlocks/MinGW/lib/gcc/mingw32/4.9.2/include/c++/bits\stl_vector.h ****       {
 842:C:/Program Files (x86)/CodeBlocks/MinGW/lib/gcc/mingw32/4.9.2/include/c++/bits\stl_vector.h **** 	_M_range_check(__n);
 843:C:/Program Files (x86)/CodeBlocks/MinGW/lib/gcc/mingw32/4.9.2/include/c++/bits\stl_vector.h **** 	return (*this)[__n];
 844:C:/Program Files (x86)/CodeBlocks/MinGW/lib/gcc/mingw32/4.9.2/include/c++/bits\stl_vector.h ****       }
 845:C:/Program Files (x86)/CodeBlocks/MinGW/lib/gcc/mingw32/4.9.2/include/c++/bits\stl_vector.h **** 
 846:C:/Program Files (x86)/CodeBlocks/MinGW/lib/gcc/mingw32/4.9.2/include/c++/bits\stl_vector.h ****       /**
 847:C:/Program Files (x86)/CodeBlocks/MinGW/lib/gcc/mingw32/4.9.2/include/c++/bits\stl_vector.h ****        *  Returns a read/write reference to the data at the first
 848:C:/Program Files (x86)/CodeBlocks/MinGW/lib/gcc/mingw32/4.9.2/include/c++/bits\stl_vector.h ****        *  element of the %vector.
 849:C:/Program Files (x86)/CodeBlocks/MinGW/lib/gcc/mingw32/4.9.2/include/c++/bits\stl_vector.h ****        */
 850:C:/Program Files (x86)/CodeBlocks/MinGW/lib/gcc/mingw32/4.9.2/include/c++/bits\stl_vector.h ****       reference
 851:C:/Program Files (x86)/CodeBlocks/MinGW/lib/gcc/mingw32/4.9.2/include/c++/bits\stl_vector.h ****       front() _GLIBCXX_NOEXCEPT
GAS LISTING C:\Users\NJLLMR~1\AppData\Local\Temp\cce8JzPW.s 			page 32


 852:C:/Program Files (x86)/CodeBlocks/MinGW/lib/gcc/mingw32/4.9.2/include/c++/bits\stl_vector.h ****       { return *begin(); }
 853:C:/Program Files (x86)/CodeBlocks/MinGW/lib/gcc/mingw32/4.9.2/include/c++/bits\stl_vector.h **** 
 854:C:/Program Files (x86)/CodeBlocks/MinGW/lib/gcc/mingw32/4.9.2/include/c++/bits\stl_vector.h ****       /**
 855:C:/Program Files (x86)/CodeBlocks/MinGW/lib/gcc/mingw32/4.9.2/include/c++/bits\stl_vector.h ****        *  Returns a read-only (constant) reference to the data at the first
 856:C:/Program Files (x86)/CodeBlocks/MinGW/lib/gcc/mingw32/4.9.2/include/c++/bits\stl_vector.h ****        *  element of the %vector.
 857:C:/Program Files (x86)/CodeBlocks/MinGW/lib/gcc/mingw32/4.9.2/include/c++/bits\stl_vector.h ****        */
 858:C:/Program Files (x86)/CodeBlocks/MinGW/lib/gcc/mingw32/4.9.2/include/c++/bits\stl_vector.h ****       const_reference
 859:C:/Program Files (x86)/CodeBlocks/MinGW/lib/gcc/mingw32/4.9.2/include/c++/bits\stl_vector.h ****       front() const _GLIBCXX_NOEXCEPT
 860:C:/Program Files (x86)/CodeBlocks/MinGW/lib/gcc/mingw32/4.9.2/include/c++/bits\stl_vector.h ****       { return *begin(); }
 861:C:/Program Files (x86)/CodeBlocks/MinGW/lib/gcc/mingw32/4.9.2/include/c++/bits\stl_vector.h **** 
 862:C:/Program Files (x86)/CodeBlocks/MinGW/lib/gcc/mingw32/4.9.2/include/c++/bits\stl_vector.h ****       /**
 863:C:/Program Files (x86)/CodeBlocks/MinGW/lib/gcc/mingw32/4.9.2/include/c++/bits\stl_vector.h ****        *  Returns a read/write reference to the data at the last
 864:C:/Program Files (x86)/CodeBlocks/MinGW/lib/gcc/mingw32/4.9.2/include/c++/bits\stl_vector.h ****        *  element of the %vector.
 865:C:/Program Files (x86)/CodeBlocks/MinGW/lib/gcc/mingw32/4.9.2/include/c++/bits\stl_vector.h ****        */
 866:C:/Program Files (x86)/CodeBlocks/MinGW/lib/gcc/mingw32/4.9.2/include/c++/bits\stl_vector.h ****       reference
 867:C:/Program Files (x86)/CodeBlocks/MinGW/lib/gcc/mingw32/4.9.2/include/c++/bits\stl_vector.h ****       back() _GLIBCXX_NOEXCEPT
 868:C:/Program Files (x86)/CodeBlocks/MinGW/lib/gcc/mingw32/4.9.2/include/c++/bits\stl_vector.h ****       { return *(end() - 1); }
 869:C:/Program Files (x86)/CodeBlocks/MinGW/lib/gcc/mingw32/4.9.2/include/c++/bits\stl_vector.h ****       
 870:C:/Program Files (x86)/CodeBlocks/MinGW/lib/gcc/mingw32/4.9.2/include/c++/bits\stl_vector.h ****       /**
 871:C:/Program Files (x86)/CodeBlocks/MinGW/lib/gcc/mingw32/4.9.2/include/c++/bits\stl_vector.h ****        *  Returns a read-only (constant) reference to the data at the
 872:C:/Program Files (x86)/CodeBlocks/MinGW/lib/gcc/mingw32/4.9.2/include/c++/bits\stl_vector.h ****        *  last element of the %vector.
 873:C:/Program Files (x86)/CodeBlocks/MinGW/lib/gcc/mingw32/4.9.2/include/c++/bits\stl_vector.h ****        */
 874:C:/Program Files (x86)/CodeBlocks/MinGW/lib/gcc/mingw32/4.9.2/include/c++/bits\stl_vector.h ****       const_reference
 875:C:/Program Files (x86)/CodeBlocks/MinGW/lib/gcc/mingw32/4.9.2/include/c++/bits\stl_vector.h ****       back() const _GLIBCXX_NOEXCEPT
 876:C:/Program Files (x86)/CodeBlocks/MinGW/lib/gcc/mingw32/4.9.2/include/c++/bits\stl_vector.h ****       { return *(end() - 1); }
 877:C:/Program Files (x86)/CodeBlocks/MinGW/lib/gcc/mingw32/4.9.2/include/c++/bits\stl_vector.h **** 
 878:C:/Program Files (x86)/CodeBlocks/MinGW/lib/gcc/mingw32/4.9.2/include/c++/bits\stl_vector.h ****       // _GLIBCXX_RESOLVE_LIB_DEFECTS
 879:C:/Program Files (x86)/CodeBlocks/MinGW/lib/gcc/mingw32/4.9.2/include/c++/bits\stl_vector.h ****       // DR 464. Suggestion for new member functions in standard containers.
 880:C:/Program Files (x86)/CodeBlocks/MinGW/lib/gcc/mingw32/4.9.2/include/c++/bits\stl_vector.h ****       // data access
 881:C:/Program Files (x86)/CodeBlocks/MinGW/lib/gcc/mingw32/4.9.2/include/c++/bits\stl_vector.h ****       /**
 882:C:/Program Files (x86)/CodeBlocks/MinGW/lib/gcc/mingw32/4.9.2/include/c++/bits\stl_vector.h ****        *   Returns a pointer such that [data(), data() + size()) is a valid
 883:C:/Program Files (x86)/CodeBlocks/MinGW/lib/gcc/mingw32/4.9.2/include/c++/bits\stl_vector.h ****        *   range.  For a non-empty %vector, data() == &front().
 884:C:/Program Files (x86)/CodeBlocks/MinGW/lib/gcc/mingw32/4.9.2/include/c++/bits\stl_vector.h ****        */
 885:C:/Program Files (x86)/CodeBlocks/MinGW/lib/gcc/mingw32/4.9.2/include/c++/bits\stl_vector.h **** #if __cplusplus >= 201103L
 886:C:/Program Files (x86)/CodeBlocks/MinGW/lib/gcc/mingw32/4.9.2/include/c++/bits\stl_vector.h ****       _Tp*
 887:C:/Program Files (x86)/CodeBlocks/MinGW/lib/gcc/mingw32/4.9.2/include/c++/bits\stl_vector.h **** #else
 888:C:/Program Files (x86)/CodeBlocks/MinGW/lib/gcc/mingw32/4.9.2/include/c++/bits\stl_vector.h ****       pointer
 889:C:/Program Files (x86)/CodeBlocks/MinGW/lib/gcc/mingw32/4.9.2/include/c++/bits\stl_vector.h **** #endif
 890:C:/Program Files (x86)/CodeBlocks/MinGW/lib/gcc/mingw32/4.9.2/include/c++/bits\stl_vector.h ****       data() _GLIBCXX_NOEXCEPT
 891:C:/Program Files (x86)/CodeBlocks/MinGW/lib/gcc/mingw32/4.9.2/include/c++/bits\stl_vector.h ****       { return _M_data_ptr(this->_M_impl._M_start); }
 892:C:/Program Files (x86)/CodeBlocks/MinGW/lib/gcc/mingw32/4.9.2/include/c++/bits\stl_vector.h **** 
 893:C:/Program Files (x86)/CodeBlocks/MinGW/lib/gcc/mingw32/4.9.2/include/c++/bits\stl_vector.h **** #if __cplusplus >= 201103L
 894:C:/Program Files (x86)/CodeBlocks/MinGW/lib/gcc/mingw32/4.9.2/include/c++/bits\stl_vector.h ****       const _Tp*
 895:C:/Program Files (x86)/CodeBlocks/MinGW/lib/gcc/mingw32/4.9.2/include/c++/bits\stl_vector.h **** #else
 896:C:/Program Files (x86)/CodeBlocks/MinGW/lib/gcc/mingw32/4.9.2/include/c++/bits\stl_vector.h ****       const_pointer
 897:C:/Program Files (x86)/CodeBlocks/MinGW/lib/gcc/mingw32/4.9.2/include/c++/bits\stl_vector.h **** #endif
 898:C:/Program Files (x86)/CodeBlocks/MinGW/lib/gcc/mingw32/4.9.2/include/c++/bits\stl_vector.h ****       data() const _GLIBCXX_NOEXCEPT
 899:C:/Program Files (x86)/CodeBlocks/MinGW/lib/gcc/mingw32/4.9.2/include/c++/bits\stl_vector.h ****       { return _M_data_ptr(this->_M_impl._M_start); }
 900:C:/Program Files (x86)/CodeBlocks/MinGW/lib/gcc/mingw32/4.9.2/include/c++/bits\stl_vector.h **** 
 901:C:/Program Files (x86)/CodeBlocks/MinGW/lib/gcc/mingw32/4.9.2/include/c++/bits\stl_vector.h ****       // [23.2.4.3] modifiers
 902:C:/Program Files (x86)/CodeBlocks/MinGW/lib/gcc/mingw32/4.9.2/include/c++/bits\stl_vector.h ****       /**
 903:C:/Program Files (x86)/CodeBlocks/MinGW/lib/gcc/mingw32/4.9.2/include/c++/bits\stl_vector.h ****        *  @brief  Add data to the end of the %vector.
 904:C:/Program Files (x86)/CodeBlocks/MinGW/lib/gcc/mingw32/4.9.2/include/c++/bits\stl_vector.h ****        *  @param  __x  Data to be added.
 905:C:/Program Files (x86)/CodeBlocks/MinGW/lib/gcc/mingw32/4.9.2/include/c++/bits\stl_vector.h ****        *
 906:C:/Program Files (x86)/CodeBlocks/MinGW/lib/gcc/mingw32/4.9.2/include/c++/bits\stl_vector.h ****        *  This is a typical stack operation.  The function creates an
 907:C:/Program Files (x86)/CodeBlocks/MinGW/lib/gcc/mingw32/4.9.2/include/c++/bits\stl_vector.h ****        *  element at the end of the %vector and assigns the given data
 908:C:/Program Files (x86)/CodeBlocks/MinGW/lib/gcc/mingw32/4.9.2/include/c++/bits\stl_vector.h ****        *  to it.  Due to the nature of a %vector this operation can be
GAS LISTING C:\Users\NJLLMR~1\AppData\Local\Temp\cce8JzPW.s 			page 33


 909:C:/Program Files (x86)/CodeBlocks/MinGW/lib/gcc/mingw32/4.9.2/include/c++/bits\stl_vector.h ****        *  done in constant time if the %vector has preallocated space
 910:C:/Program Files (x86)/CodeBlocks/MinGW/lib/gcc/mingw32/4.9.2/include/c++/bits\stl_vector.h ****        *  available.
 911:C:/Program Files (x86)/CodeBlocks/MinGW/lib/gcc/mingw32/4.9.2/include/c++/bits\stl_vector.h ****        */
 912:C:/Program Files (x86)/CodeBlocks/MinGW/lib/gcc/mingw32/4.9.2/include/c++/bits\stl_vector.h ****       void
 913:C:/Program Files (x86)/CodeBlocks/MinGW/lib/gcc/mingw32/4.9.2/include/c++/bits\stl_vector.h ****       push_back(const value_type& __x)
 914:C:/Program Files (x86)/CodeBlocks/MinGW/lib/gcc/mingw32/4.9.2/include/c++/bits\stl_vector.h ****       {
 915:C:/Program Files (x86)/CodeBlocks/MinGW/lib/gcc/mingw32/4.9.2/include/c++/bits\stl_vector.h **** 	if (this->_M_impl._M_finish != this->_M_impl._M_end_of_storage)
 916:C:/Program Files (x86)/CodeBlocks/MinGW/lib/gcc/mingw32/4.9.2/include/c++/bits\stl_vector.h **** 	  {
 917:C:/Program Files (x86)/CodeBlocks/MinGW/lib/gcc/mingw32/4.9.2/include/c++/bits\stl_vector.h **** 	    _Alloc_traits::construct(this->_M_impl, this->_M_impl._M_finish,
 918:C:/Program Files (x86)/CodeBlocks/MinGW/lib/gcc/mingw32/4.9.2/include/c++/bits\stl_vector.h **** 	                             __x);
 919:C:/Program Files (x86)/CodeBlocks/MinGW/lib/gcc/mingw32/4.9.2/include/c++/bits\stl_vector.h **** 	    ++this->_M_impl._M_finish;
 920:C:/Program Files (x86)/CodeBlocks/MinGW/lib/gcc/mingw32/4.9.2/include/c++/bits\stl_vector.h **** 	  }
 921:C:/Program Files (x86)/CodeBlocks/MinGW/lib/gcc/mingw32/4.9.2/include/c++/bits\stl_vector.h **** 	else
 922:C:/Program Files (x86)/CodeBlocks/MinGW/lib/gcc/mingw32/4.9.2/include/c++/bits\stl_vector.h **** #if __cplusplus >= 201103L
 923:C:/Program Files (x86)/CodeBlocks/MinGW/lib/gcc/mingw32/4.9.2/include/c++/bits\stl_vector.h **** 	  _M_emplace_back_aux(__x);
 924:C:/Program Files (x86)/CodeBlocks/MinGW/lib/gcc/mingw32/4.9.2/include/c++/bits\stl_vector.h **** #else
 925:C:/Program Files (x86)/CodeBlocks/MinGW/lib/gcc/mingw32/4.9.2/include/c++/bits\stl_vector.h **** 	  _M_insert_aux(end(), __x);
 926:C:/Program Files (x86)/CodeBlocks/MinGW/lib/gcc/mingw32/4.9.2/include/c++/bits\stl_vector.h **** #endif
 927:C:/Program Files (x86)/CodeBlocks/MinGW/lib/gcc/mingw32/4.9.2/include/c++/bits\stl_vector.h ****       }
 928:C:/Program Files (x86)/CodeBlocks/MinGW/lib/gcc/mingw32/4.9.2/include/c++/bits\stl_vector.h **** 
 929:C:/Program Files (x86)/CodeBlocks/MinGW/lib/gcc/mingw32/4.9.2/include/c++/bits\stl_vector.h **** #if __cplusplus >= 201103L
 930:C:/Program Files (x86)/CodeBlocks/MinGW/lib/gcc/mingw32/4.9.2/include/c++/bits\stl_vector.h ****       void
 931:C:/Program Files (x86)/CodeBlocks/MinGW/lib/gcc/mingw32/4.9.2/include/c++/bits\stl_vector.h ****       push_back(value_type&& __x)
 932:C:/Program Files (x86)/CodeBlocks/MinGW/lib/gcc/mingw32/4.9.2/include/c++/bits\stl_vector.h ****       { emplace_back(std::move(__x)); }
 933:C:/Program Files (x86)/CodeBlocks/MinGW/lib/gcc/mingw32/4.9.2/include/c++/bits\stl_vector.h **** 
 934:C:/Program Files (x86)/CodeBlocks/MinGW/lib/gcc/mingw32/4.9.2/include/c++/bits\stl_vector.h ****       template<typename... _Args>
 935:C:/Program Files (x86)/CodeBlocks/MinGW/lib/gcc/mingw32/4.9.2/include/c++/bits\stl_vector.h ****         void
 936:C:/Program Files (x86)/CodeBlocks/MinGW/lib/gcc/mingw32/4.9.2/include/c++/bits\stl_vector.h ****         emplace_back(_Args&&... __args);
 937:C:/Program Files (x86)/CodeBlocks/MinGW/lib/gcc/mingw32/4.9.2/include/c++/bits\stl_vector.h **** #endif
 938:C:/Program Files (x86)/CodeBlocks/MinGW/lib/gcc/mingw32/4.9.2/include/c++/bits\stl_vector.h **** 
 939:C:/Program Files (x86)/CodeBlocks/MinGW/lib/gcc/mingw32/4.9.2/include/c++/bits\stl_vector.h ****       /**
 940:C:/Program Files (x86)/CodeBlocks/MinGW/lib/gcc/mingw32/4.9.2/include/c++/bits\stl_vector.h ****        *  @brief  Removes last element.
 941:C:/Program Files (x86)/CodeBlocks/MinGW/lib/gcc/mingw32/4.9.2/include/c++/bits\stl_vector.h ****        *
 942:C:/Program Files (x86)/CodeBlocks/MinGW/lib/gcc/mingw32/4.9.2/include/c++/bits\stl_vector.h ****        *  This is a typical stack operation. It shrinks the %vector by one.
 943:C:/Program Files (x86)/CodeBlocks/MinGW/lib/gcc/mingw32/4.9.2/include/c++/bits\stl_vector.h ****        *
 944:C:/Program Files (x86)/CodeBlocks/MinGW/lib/gcc/mingw32/4.9.2/include/c++/bits\stl_vector.h ****        *  Note that no data is returned, and if the last element's
 945:C:/Program Files (x86)/CodeBlocks/MinGW/lib/gcc/mingw32/4.9.2/include/c++/bits\stl_vector.h ****        *  data is needed, it should be retrieved before pop_back() is
 946:C:/Program Files (x86)/CodeBlocks/MinGW/lib/gcc/mingw32/4.9.2/include/c++/bits\stl_vector.h ****        *  called.
 947:C:/Program Files (x86)/CodeBlocks/MinGW/lib/gcc/mingw32/4.9.2/include/c++/bits\stl_vector.h ****        */
 948:C:/Program Files (x86)/CodeBlocks/MinGW/lib/gcc/mingw32/4.9.2/include/c++/bits\stl_vector.h ****       void
 949:C:/Program Files (x86)/CodeBlocks/MinGW/lib/gcc/mingw32/4.9.2/include/c++/bits\stl_vector.h ****       pop_back() _GLIBCXX_NOEXCEPT
 950:C:/Program Files (x86)/CodeBlocks/MinGW/lib/gcc/mingw32/4.9.2/include/c++/bits\stl_vector.h ****       {
 951:C:/Program Files (x86)/CodeBlocks/MinGW/lib/gcc/mingw32/4.9.2/include/c++/bits\stl_vector.h **** 	--this->_M_impl._M_finish;
 952:C:/Program Files (x86)/CodeBlocks/MinGW/lib/gcc/mingw32/4.9.2/include/c++/bits\stl_vector.h **** 	_Alloc_traits::destroy(this->_M_impl, this->_M_impl._M_finish);
 953:C:/Program Files (x86)/CodeBlocks/MinGW/lib/gcc/mingw32/4.9.2/include/c++/bits\stl_vector.h ****       }
 954:C:/Program Files (x86)/CodeBlocks/MinGW/lib/gcc/mingw32/4.9.2/include/c++/bits\stl_vector.h **** 
 955:C:/Program Files (x86)/CodeBlocks/MinGW/lib/gcc/mingw32/4.9.2/include/c++/bits\stl_vector.h **** #if __cplusplus >= 201103L
 956:C:/Program Files (x86)/CodeBlocks/MinGW/lib/gcc/mingw32/4.9.2/include/c++/bits\stl_vector.h ****       /**
 957:C:/Program Files (x86)/CodeBlocks/MinGW/lib/gcc/mingw32/4.9.2/include/c++/bits\stl_vector.h ****        *  @brief  Inserts an object in %vector before specified iterator.
 958:C:/Program Files (x86)/CodeBlocks/MinGW/lib/gcc/mingw32/4.9.2/include/c++/bits\stl_vector.h ****        *  @param  __position  A const_iterator into the %vector.
 959:C:/Program Files (x86)/CodeBlocks/MinGW/lib/gcc/mingw32/4.9.2/include/c++/bits\stl_vector.h ****        *  @param  __args  Arguments.
 960:C:/Program Files (x86)/CodeBlocks/MinGW/lib/gcc/mingw32/4.9.2/include/c++/bits\stl_vector.h ****        *  @return  An iterator that points to the inserted data.
 961:C:/Program Files (x86)/CodeBlocks/MinGW/lib/gcc/mingw32/4.9.2/include/c++/bits\stl_vector.h ****        *
 962:C:/Program Files (x86)/CodeBlocks/MinGW/lib/gcc/mingw32/4.9.2/include/c++/bits\stl_vector.h ****        *  This function will insert an object of type T constructed
 963:C:/Program Files (x86)/CodeBlocks/MinGW/lib/gcc/mingw32/4.9.2/include/c++/bits\stl_vector.h ****        *  with T(std::forward<Args>(args)...) before the specified location.
 964:C:/Program Files (x86)/CodeBlocks/MinGW/lib/gcc/mingw32/4.9.2/include/c++/bits\stl_vector.h ****        *  Note that this kind of operation could be expensive for a %vector
 965:C:/Program Files (x86)/CodeBlocks/MinGW/lib/gcc/mingw32/4.9.2/include/c++/bits\stl_vector.h ****        *  and if it is frequently used the user should consider using
GAS LISTING C:\Users\NJLLMR~1\AppData\Local\Temp\cce8JzPW.s 			page 34


 966:C:/Program Files (x86)/CodeBlocks/MinGW/lib/gcc/mingw32/4.9.2/include/c++/bits\stl_vector.h ****        *  std::list.
 967:C:/Program Files (x86)/CodeBlocks/MinGW/lib/gcc/mingw32/4.9.2/include/c++/bits\stl_vector.h ****        */
 968:C:/Program Files (x86)/CodeBlocks/MinGW/lib/gcc/mingw32/4.9.2/include/c++/bits\stl_vector.h ****       template<typename... _Args>
 969:C:/Program Files (x86)/CodeBlocks/MinGW/lib/gcc/mingw32/4.9.2/include/c++/bits\stl_vector.h ****         iterator
 970:C:/Program Files (x86)/CodeBlocks/MinGW/lib/gcc/mingw32/4.9.2/include/c++/bits\stl_vector.h ****         emplace(const_iterator __position, _Args&&... __args);
 971:C:/Program Files (x86)/CodeBlocks/MinGW/lib/gcc/mingw32/4.9.2/include/c++/bits\stl_vector.h **** 
 972:C:/Program Files (x86)/CodeBlocks/MinGW/lib/gcc/mingw32/4.9.2/include/c++/bits\stl_vector.h ****       /**
 973:C:/Program Files (x86)/CodeBlocks/MinGW/lib/gcc/mingw32/4.9.2/include/c++/bits\stl_vector.h ****        *  @brief  Inserts given value into %vector before specified iterator.
 974:C:/Program Files (x86)/CodeBlocks/MinGW/lib/gcc/mingw32/4.9.2/include/c++/bits\stl_vector.h ****        *  @param  __position  A const_iterator into the %vector.
 975:C:/Program Files (x86)/CodeBlocks/MinGW/lib/gcc/mingw32/4.9.2/include/c++/bits\stl_vector.h ****        *  @param  __x  Data to be inserted.
 976:C:/Program Files (x86)/CodeBlocks/MinGW/lib/gcc/mingw32/4.9.2/include/c++/bits\stl_vector.h ****        *  @return  An iterator that points to the inserted data.
 977:C:/Program Files (x86)/CodeBlocks/MinGW/lib/gcc/mingw32/4.9.2/include/c++/bits\stl_vector.h ****        *
 978:C:/Program Files (x86)/CodeBlocks/MinGW/lib/gcc/mingw32/4.9.2/include/c++/bits\stl_vector.h ****        *  This function will insert a copy of the given value before
 979:C:/Program Files (x86)/CodeBlocks/MinGW/lib/gcc/mingw32/4.9.2/include/c++/bits\stl_vector.h ****        *  the specified location.  Note that this kind of operation
 980:C:/Program Files (x86)/CodeBlocks/MinGW/lib/gcc/mingw32/4.9.2/include/c++/bits\stl_vector.h ****        *  could be expensive for a %vector and if it is frequently
 981:C:/Program Files (x86)/CodeBlocks/MinGW/lib/gcc/mingw32/4.9.2/include/c++/bits\stl_vector.h ****        *  used the user should consider using std::list.
 982:C:/Program Files (x86)/CodeBlocks/MinGW/lib/gcc/mingw32/4.9.2/include/c++/bits\stl_vector.h ****        */
 983:C:/Program Files (x86)/CodeBlocks/MinGW/lib/gcc/mingw32/4.9.2/include/c++/bits\stl_vector.h ****       iterator
 984:C:/Program Files (x86)/CodeBlocks/MinGW/lib/gcc/mingw32/4.9.2/include/c++/bits\stl_vector.h ****       insert(const_iterator __position, const value_type& __x);
 985:C:/Program Files (x86)/CodeBlocks/MinGW/lib/gcc/mingw32/4.9.2/include/c++/bits\stl_vector.h **** #else
 986:C:/Program Files (x86)/CodeBlocks/MinGW/lib/gcc/mingw32/4.9.2/include/c++/bits\stl_vector.h ****       /**
 987:C:/Program Files (x86)/CodeBlocks/MinGW/lib/gcc/mingw32/4.9.2/include/c++/bits\stl_vector.h ****        *  @brief  Inserts given value into %vector before specified iterator.
 988:C:/Program Files (x86)/CodeBlocks/MinGW/lib/gcc/mingw32/4.9.2/include/c++/bits\stl_vector.h ****        *  @param  __position  An iterator into the %vector.
 989:C:/Program Files (x86)/CodeBlocks/MinGW/lib/gcc/mingw32/4.9.2/include/c++/bits\stl_vector.h ****        *  @param  __x  Data to be inserted.
 990:C:/Program Files (x86)/CodeBlocks/MinGW/lib/gcc/mingw32/4.9.2/include/c++/bits\stl_vector.h ****        *  @return  An iterator that points to the inserted data.
 991:C:/Program Files (x86)/CodeBlocks/MinGW/lib/gcc/mingw32/4.9.2/include/c++/bits\stl_vector.h ****        *
 992:C:/Program Files (x86)/CodeBlocks/MinGW/lib/gcc/mingw32/4.9.2/include/c++/bits\stl_vector.h ****        *  This function will insert a copy of the given value before
 993:C:/Program Files (x86)/CodeBlocks/MinGW/lib/gcc/mingw32/4.9.2/include/c++/bits\stl_vector.h ****        *  the specified location.  Note that this kind of operation
 994:C:/Program Files (x86)/CodeBlocks/MinGW/lib/gcc/mingw32/4.9.2/include/c++/bits\stl_vector.h ****        *  could be expensive for a %vector and if it is frequently
 995:C:/Program Files (x86)/CodeBlocks/MinGW/lib/gcc/mingw32/4.9.2/include/c++/bits\stl_vector.h ****        *  used the user should consider using std::list.
 996:C:/Program Files (x86)/CodeBlocks/MinGW/lib/gcc/mingw32/4.9.2/include/c++/bits\stl_vector.h ****        */
 997:C:/Program Files (x86)/CodeBlocks/MinGW/lib/gcc/mingw32/4.9.2/include/c++/bits\stl_vector.h ****       iterator
 998:C:/Program Files (x86)/CodeBlocks/MinGW/lib/gcc/mingw32/4.9.2/include/c++/bits\stl_vector.h ****       insert(iterator __position, const value_type& __x);
 999:C:/Program Files (x86)/CodeBlocks/MinGW/lib/gcc/mingw32/4.9.2/include/c++/bits\stl_vector.h **** #endif
1000:C:/Program Files (x86)/CodeBlocks/MinGW/lib/gcc/mingw32/4.9.2/include/c++/bits\stl_vector.h **** 
1001:C:/Program Files (x86)/CodeBlocks/MinGW/lib/gcc/mingw32/4.9.2/include/c++/bits\stl_vector.h **** #if __cplusplus >= 201103L
1002:C:/Program Files (x86)/CodeBlocks/MinGW/lib/gcc/mingw32/4.9.2/include/c++/bits\stl_vector.h ****       /**
1003:C:/Program Files (x86)/CodeBlocks/MinGW/lib/gcc/mingw32/4.9.2/include/c++/bits\stl_vector.h ****        *  @brief  Inserts given rvalue into %vector before specified iterator.
1004:C:/Program Files (x86)/CodeBlocks/MinGW/lib/gcc/mingw32/4.9.2/include/c++/bits\stl_vector.h ****        *  @param  __position  A const_iterator into the %vector.
1005:C:/Program Files (x86)/CodeBlocks/MinGW/lib/gcc/mingw32/4.9.2/include/c++/bits\stl_vector.h ****        *  @param  __x  Data to be inserted.
1006:C:/Program Files (x86)/CodeBlocks/MinGW/lib/gcc/mingw32/4.9.2/include/c++/bits\stl_vector.h ****        *  @return  An iterator that points to the inserted data.
1007:C:/Program Files (x86)/CodeBlocks/MinGW/lib/gcc/mingw32/4.9.2/include/c++/bits\stl_vector.h ****        *
1008:C:/Program Files (x86)/CodeBlocks/MinGW/lib/gcc/mingw32/4.9.2/include/c++/bits\stl_vector.h ****        *  This function will insert a copy of the given rvalue before
1009:C:/Program Files (x86)/CodeBlocks/MinGW/lib/gcc/mingw32/4.9.2/include/c++/bits\stl_vector.h ****        *  the specified location.  Note that this kind of operation
1010:C:/Program Files (x86)/CodeBlocks/MinGW/lib/gcc/mingw32/4.9.2/include/c++/bits\stl_vector.h ****        *  could be expensive for a %vector and if it is frequently
1011:C:/Program Files (x86)/CodeBlocks/MinGW/lib/gcc/mingw32/4.9.2/include/c++/bits\stl_vector.h ****        *  used the user should consider using std::list.
1012:C:/Program Files (x86)/CodeBlocks/MinGW/lib/gcc/mingw32/4.9.2/include/c++/bits\stl_vector.h ****        */
1013:C:/Program Files (x86)/CodeBlocks/MinGW/lib/gcc/mingw32/4.9.2/include/c++/bits\stl_vector.h ****       iterator
1014:C:/Program Files (x86)/CodeBlocks/MinGW/lib/gcc/mingw32/4.9.2/include/c++/bits\stl_vector.h ****       insert(const_iterator __position, value_type&& __x)
1015:C:/Program Files (x86)/CodeBlocks/MinGW/lib/gcc/mingw32/4.9.2/include/c++/bits\stl_vector.h ****       { return emplace(__position, std::move(__x)); }
1016:C:/Program Files (x86)/CodeBlocks/MinGW/lib/gcc/mingw32/4.9.2/include/c++/bits\stl_vector.h **** 
1017:C:/Program Files (x86)/CodeBlocks/MinGW/lib/gcc/mingw32/4.9.2/include/c++/bits\stl_vector.h ****       /**
1018:C:/Program Files (x86)/CodeBlocks/MinGW/lib/gcc/mingw32/4.9.2/include/c++/bits\stl_vector.h ****        *  @brief  Inserts an initializer_list into the %vector.
1019:C:/Program Files (x86)/CodeBlocks/MinGW/lib/gcc/mingw32/4.9.2/include/c++/bits\stl_vector.h ****        *  @param  __position  An iterator into the %vector.
1020:C:/Program Files (x86)/CodeBlocks/MinGW/lib/gcc/mingw32/4.9.2/include/c++/bits\stl_vector.h ****        *  @param  __l  An initializer_list.
1021:C:/Program Files (x86)/CodeBlocks/MinGW/lib/gcc/mingw32/4.9.2/include/c++/bits\stl_vector.h ****        *
1022:C:/Program Files (x86)/CodeBlocks/MinGW/lib/gcc/mingw32/4.9.2/include/c++/bits\stl_vector.h ****        *  This function will insert copies of the data in the 
GAS LISTING C:\Users\NJLLMR~1\AppData\Local\Temp\cce8JzPW.s 			page 35


1023:C:/Program Files (x86)/CodeBlocks/MinGW/lib/gcc/mingw32/4.9.2/include/c++/bits\stl_vector.h ****        *  initializer_list @a l into the %vector before the location
1024:C:/Program Files (x86)/CodeBlocks/MinGW/lib/gcc/mingw32/4.9.2/include/c++/bits\stl_vector.h ****        *  specified by @a position.
1025:C:/Program Files (x86)/CodeBlocks/MinGW/lib/gcc/mingw32/4.9.2/include/c++/bits\stl_vector.h ****        *
1026:C:/Program Files (x86)/CodeBlocks/MinGW/lib/gcc/mingw32/4.9.2/include/c++/bits\stl_vector.h ****        *  Note that this kind of operation could be expensive for a
1027:C:/Program Files (x86)/CodeBlocks/MinGW/lib/gcc/mingw32/4.9.2/include/c++/bits\stl_vector.h ****        *  %vector and if it is frequently used the user should
1028:C:/Program Files (x86)/CodeBlocks/MinGW/lib/gcc/mingw32/4.9.2/include/c++/bits\stl_vector.h ****        *  consider using std::list.
1029:C:/Program Files (x86)/CodeBlocks/MinGW/lib/gcc/mingw32/4.9.2/include/c++/bits\stl_vector.h ****        */
1030:C:/Program Files (x86)/CodeBlocks/MinGW/lib/gcc/mingw32/4.9.2/include/c++/bits\stl_vector.h ****       iterator
1031:C:/Program Files (x86)/CodeBlocks/MinGW/lib/gcc/mingw32/4.9.2/include/c++/bits\stl_vector.h ****       insert(const_iterator __position, initializer_list<value_type> __l)
1032:C:/Program Files (x86)/CodeBlocks/MinGW/lib/gcc/mingw32/4.9.2/include/c++/bits\stl_vector.h ****       { return this->insert(__position, __l.begin(), __l.end()); }
1033:C:/Program Files (x86)/CodeBlocks/MinGW/lib/gcc/mingw32/4.9.2/include/c++/bits\stl_vector.h **** #endif
1034:C:/Program Files (x86)/CodeBlocks/MinGW/lib/gcc/mingw32/4.9.2/include/c++/bits\stl_vector.h **** 
1035:C:/Program Files (x86)/CodeBlocks/MinGW/lib/gcc/mingw32/4.9.2/include/c++/bits\stl_vector.h **** #if __cplusplus >= 201103L
1036:C:/Program Files (x86)/CodeBlocks/MinGW/lib/gcc/mingw32/4.9.2/include/c++/bits\stl_vector.h ****       /**
1037:C:/Program Files (x86)/CodeBlocks/MinGW/lib/gcc/mingw32/4.9.2/include/c++/bits\stl_vector.h ****        *  @brief  Inserts a number of copies of given data into the %vector.
1038:C:/Program Files (x86)/CodeBlocks/MinGW/lib/gcc/mingw32/4.9.2/include/c++/bits\stl_vector.h ****        *  @param  __position  A const_iterator into the %vector.
1039:C:/Program Files (x86)/CodeBlocks/MinGW/lib/gcc/mingw32/4.9.2/include/c++/bits\stl_vector.h ****        *  @param  __n  Number of elements to be inserted.
1040:C:/Program Files (x86)/CodeBlocks/MinGW/lib/gcc/mingw32/4.9.2/include/c++/bits\stl_vector.h ****        *  @param  __x  Data to be inserted.
1041:C:/Program Files (x86)/CodeBlocks/MinGW/lib/gcc/mingw32/4.9.2/include/c++/bits\stl_vector.h ****        *  @return  An iterator that points to the inserted data.
1042:C:/Program Files (x86)/CodeBlocks/MinGW/lib/gcc/mingw32/4.9.2/include/c++/bits\stl_vector.h ****        *
1043:C:/Program Files (x86)/CodeBlocks/MinGW/lib/gcc/mingw32/4.9.2/include/c++/bits\stl_vector.h ****        *  This function will insert a specified number of copies of
1044:C:/Program Files (x86)/CodeBlocks/MinGW/lib/gcc/mingw32/4.9.2/include/c++/bits\stl_vector.h ****        *  the given data before the location specified by @a position.
1045:C:/Program Files (x86)/CodeBlocks/MinGW/lib/gcc/mingw32/4.9.2/include/c++/bits\stl_vector.h ****        *
1046:C:/Program Files (x86)/CodeBlocks/MinGW/lib/gcc/mingw32/4.9.2/include/c++/bits\stl_vector.h ****        *  Note that this kind of operation could be expensive for a
1047:C:/Program Files (x86)/CodeBlocks/MinGW/lib/gcc/mingw32/4.9.2/include/c++/bits\stl_vector.h ****        *  %vector and if it is frequently used the user should
1048:C:/Program Files (x86)/CodeBlocks/MinGW/lib/gcc/mingw32/4.9.2/include/c++/bits\stl_vector.h ****        *  consider using std::list.
1049:C:/Program Files (x86)/CodeBlocks/MinGW/lib/gcc/mingw32/4.9.2/include/c++/bits\stl_vector.h ****        */
1050:C:/Program Files (x86)/CodeBlocks/MinGW/lib/gcc/mingw32/4.9.2/include/c++/bits\stl_vector.h ****       iterator
1051:C:/Program Files (x86)/CodeBlocks/MinGW/lib/gcc/mingw32/4.9.2/include/c++/bits\stl_vector.h ****       insert(const_iterator __position, size_type __n, const value_type& __x)
1052:C:/Program Files (x86)/CodeBlocks/MinGW/lib/gcc/mingw32/4.9.2/include/c++/bits\stl_vector.h ****       {
1053:C:/Program Files (x86)/CodeBlocks/MinGW/lib/gcc/mingw32/4.9.2/include/c++/bits\stl_vector.h **** 	difference_type __offset = __position - cbegin();
1054:C:/Program Files (x86)/CodeBlocks/MinGW/lib/gcc/mingw32/4.9.2/include/c++/bits\stl_vector.h **** 	_M_fill_insert(begin() + __offset, __n, __x);
1055:C:/Program Files (x86)/CodeBlocks/MinGW/lib/gcc/mingw32/4.9.2/include/c++/bits\stl_vector.h **** 	return begin() + __offset;
1056:C:/Program Files (x86)/CodeBlocks/MinGW/lib/gcc/mingw32/4.9.2/include/c++/bits\stl_vector.h ****       }
1057:C:/Program Files (x86)/CodeBlocks/MinGW/lib/gcc/mingw32/4.9.2/include/c++/bits\stl_vector.h **** #else
1058:C:/Program Files (x86)/CodeBlocks/MinGW/lib/gcc/mingw32/4.9.2/include/c++/bits\stl_vector.h ****       /**
1059:C:/Program Files (x86)/CodeBlocks/MinGW/lib/gcc/mingw32/4.9.2/include/c++/bits\stl_vector.h ****        *  @brief  Inserts a number of copies of given data into the %vector.
1060:C:/Program Files (x86)/CodeBlocks/MinGW/lib/gcc/mingw32/4.9.2/include/c++/bits\stl_vector.h ****        *  @param  __position  An iterator into the %vector.
1061:C:/Program Files (x86)/CodeBlocks/MinGW/lib/gcc/mingw32/4.9.2/include/c++/bits\stl_vector.h ****        *  @param  __n  Number of elements to be inserted.
1062:C:/Program Files (x86)/CodeBlocks/MinGW/lib/gcc/mingw32/4.9.2/include/c++/bits\stl_vector.h ****        *  @param  __x  Data to be inserted.
1063:C:/Program Files (x86)/CodeBlocks/MinGW/lib/gcc/mingw32/4.9.2/include/c++/bits\stl_vector.h ****        *
1064:C:/Program Files (x86)/CodeBlocks/MinGW/lib/gcc/mingw32/4.9.2/include/c++/bits\stl_vector.h ****        *  This function will insert a specified number of copies of
1065:C:/Program Files (x86)/CodeBlocks/MinGW/lib/gcc/mingw32/4.9.2/include/c++/bits\stl_vector.h ****        *  the given data before the location specified by @a position.
1066:C:/Program Files (x86)/CodeBlocks/MinGW/lib/gcc/mingw32/4.9.2/include/c++/bits\stl_vector.h ****        *
1067:C:/Program Files (x86)/CodeBlocks/MinGW/lib/gcc/mingw32/4.9.2/include/c++/bits\stl_vector.h ****        *  Note that this kind of operation could be expensive for a
1068:C:/Program Files (x86)/CodeBlocks/MinGW/lib/gcc/mingw32/4.9.2/include/c++/bits\stl_vector.h ****        *  %vector and if it is frequently used the user should
1069:C:/Program Files (x86)/CodeBlocks/MinGW/lib/gcc/mingw32/4.9.2/include/c++/bits\stl_vector.h ****        *  consider using std::list.
1070:C:/Program Files (x86)/CodeBlocks/MinGW/lib/gcc/mingw32/4.9.2/include/c++/bits\stl_vector.h ****        */
1071:C:/Program Files (x86)/CodeBlocks/MinGW/lib/gcc/mingw32/4.9.2/include/c++/bits\stl_vector.h ****       void
1072:C:/Program Files (x86)/CodeBlocks/MinGW/lib/gcc/mingw32/4.9.2/include/c++/bits\stl_vector.h ****       insert(iterator __position, size_type __n, const value_type& __x)
1073:C:/Program Files (x86)/CodeBlocks/MinGW/lib/gcc/mingw32/4.9.2/include/c++/bits\stl_vector.h ****       { _M_fill_insert(__position, __n, __x); }
1074:C:/Program Files (x86)/CodeBlocks/MinGW/lib/gcc/mingw32/4.9.2/include/c++/bits\stl_vector.h **** #endif
1075:C:/Program Files (x86)/CodeBlocks/MinGW/lib/gcc/mingw32/4.9.2/include/c++/bits\stl_vector.h **** 
1076:C:/Program Files (x86)/CodeBlocks/MinGW/lib/gcc/mingw32/4.9.2/include/c++/bits\stl_vector.h **** #if __cplusplus >= 201103L
1077:C:/Program Files (x86)/CodeBlocks/MinGW/lib/gcc/mingw32/4.9.2/include/c++/bits\stl_vector.h ****       /**
1078:C:/Program Files (x86)/CodeBlocks/MinGW/lib/gcc/mingw32/4.9.2/include/c++/bits\stl_vector.h ****        *  @brief  Inserts a range into the %vector.
1079:C:/Program Files (x86)/CodeBlocks/MinGW/lib/gcc/mingw32/4.9.2/include/c++/bits\stl_vector.h ****        *  @param  __position  A const_iterator into the %vector.
GAS LISTING C:\Users\NJLLMR~1\AppData\Local\Temp\cce8JzPW.s 			page 36


1080:C:/Program Files (x86)/CodeBlocks/MinGW/lib/gcc/mingw32/4.9.2/include/c++/bits\stl_vector.h ****        *  @param  __first  An input iterator.
1081:C:/Program Files (x86)/CodeBlocks/MinGW/lib/gcc/mingw32/4.9.2/include/c++/bits\stl_vector.h ****        *  @param  __last   An input iterator.
1082:C:/Program Files (x86)/CodeBlocks/MinGW/lib/gcc/mingw32/4.9.2/include/c++/bits\stl_vector.h ****        *  @return  An iterator that points to the inserted data.
1083:C:/Program Files (x86)/CodeBlocks/MinGW/lib/gcc/mingw32/4.9.2/include/c++/bits\stl_vector.h ****        *
1084:C:/Program Files (x86)/CodeBlocks/MinGW/lib/gcc/mingw32/4.9.2/include/c++/bits\stl_vector.h ****        *  This function will insert copies of the data in the range
1085:C:/Program Files (x86)/CodeBlocks/MinGW/lib/gcc/mingw32/4.9.2/include/c++/bits\stl_vector.h ****        *  [__first,__last) into the %vector before the location specified
1086:C:/Program Files (x86)/CodeBlocks/MinGW/lib/gcc/mingw32/4.9.2/include/c++/bits\stl_vector.h ****        *  by @a pos.
1087:C:/Program Files (x86)/CodeBlocks/MinGW/lib/gcc/mingw32/4.9.2/include/c++/bits\stl_vector.h ****        *
1088:C:/Program Files (x86)/CodeBlocks/MinGW/lib/gcc/mingw32/4.9.2/include/c++/bits\stl_vector.h ****        *  Note that this kind of operation could be expensive for a
1089:C:/Program Files (x86)/CodeBlocks/MinGW/lib/gcc/mingw32/4.9.2/include/c++/bits\stl_vector.h ****        *  %vector and if it is frequently used the user should
1090:C:/Program Files (x86)/CodeBlocks/MinGW/lib/gcc/mingw32/4.9.2/include/c++/bits\stl_vector.h ****        *  consider using std::list.
1091:C:/Program Files (x86)/CodeBlocks/MinGW/lib/gcc/mingw32/4.9.2/include/c++/bits\stl_vector.h ****        */
1092:C:/Program Files (x86)/CodeBlocks/MinGW/lib/gcc/mingw32/4.9.2/include/c++/bits\stl_vector.h ****       template<typename _InputIterator,
1093:C:/Program Files (x86)/CodeBlocks/MinGW/lib/gcc/mingw32/4.9.2/include/c++/bits\stl_vector.h **** 	       typename = std::_RequireInputIter<_InputIterator>>
1094:C:/Program Files (x86)/CodeBlocks/MinGW/lib/gcc/mingw32/4.9.2/include/c++/bits\stl_vector.h ****         iterator
1095:C:/Program Files (x86)/CodeBlocks/MinGW/lib/gcc/mingw32/4.9.2/include/c++/bits\stl_vector.h ****         insert(const_iterator __position, _InputIterator __first,
1096:C:/Program Files (x86)/CodeBlocks/MinGW/lib/gcc/mingw32/4.9.2/include/c++/bits\stl_vector.h **** 	       _InputIterator __last)
1097:C:/Program Files (x86)/CodeBlocks/MinGW/lib/gcc/mingw32/4.9.2/include/c++/bits\stl_vector.h ****         {
1098:C:/Program Files (x86)/CodeBlocks/MinGW/lib/gcc/mingw32/4.9.2/include/c++/bits\stl_vector.h **** 	  difference_type __offset = __position - cbegin();
1099:C:/Program Files (x86)/CodeBlocks/MinGW/lib/gcc/mingw32/4.9.2/include/c++/bits\stl_vector.h **** 	  _M_insert_dispatch(begin() + __offset,
1100:C:/Program Files (x86)/CodeBlocks/MinGW/lib/gcc/mingw32/4.9.2/include/c++/bits\stl_vector.h **** 			     __first, __last, __false_type());
1101:C:/Program Files (x86)/CodeBlocks/MinGW/lib/gcc/mingw32/4.9.2/include/c++/bits\stl_vector.h **** 	  return begin() + __offset;
1102:C:/Program Files (x86)/CodeBlocks/MinGW/lib/gcc/mingw32/4.9.2/include/c++/bits\stl_vector.h **** 	}
1103:C:/Program Files (x86)/CodeBlocks/MinGW/lib/gcc/mingw32/4.9.2/include/c++/bits\stl_vector.h **** #else
1104:C:/Program Files (x86)/CodeBlocks/MinGW/lib/gcc/mingw32/4.9.2/include/c++/bits\stl_vector.h ****       /**
1105:C:/Program Files (x86)/CodeBlocks/MinGW/lib/gcc/mingw32/4.9.2/include/c++/bits\stl_vector.h ****        *  @brief  Inserts a range into the %vector.
1106:C:/Program Files (x86)/CodeBlocks/MinGW/lib/gcc/mingw32/4.9.2/include/c++/bits\stl_vector.h ****        *  @param  __position  An iterator into the %vector.
1107:C:/Program Files (x86)/CodeBlocks/MinGW/lib/gcc/mingw32/4.9.2/include/c++/bits\stl_vector.h ****        *  @param  __first  An input iterator.
1108:C:/Program Files (x86)/CodeBlocks/MinGW/lib/gcc/mingw32/4.9.2/include/c++/bits\stl_vector.h ****        *  @param  __last   An input iterator.
1109:C:/Program Files (x86)/CodeBlocks/MinGW/lib/gcc/mingw32/4.9.2/include/c++/bits\stl_vector.h ****        *
1110:C:/Program Files (x86)/CodeBlocks/MinGW/lib/gcc/mingw32/4.9.2/include/c++/bits\stl_vector.h ****        *  This function will insert copies of the data in the range
1111:C:/Program Files (x86)/CodeBlocks/MinGW/lib/gcc/mingw32/4.9.2/include/c++/bits\stl_vector.h ****        *  [__first,__last) into the %vector before the location specified
1112:C:/Program Files (x86)/CodeBlocks/MinGW/lib/gcc/mingw32/4.9.2/include/c++/bits\stl_vector.h ****        *  by @a pos.
1113:C:/Program Files (x86)/CodeBlocks/MinGW/lib/gcc/mingw32/4.9.2/include/c++/bits\stl_vector.h ****        *
1114:C:/Program Files (x86)/CodeBlocks/MinGW/lib/gcc/mingw32/4.9.2/include/c++/bits\stl_vector.h ****        *  Note that this kind of operation could be expensive for a
1115:C:/Program Files (x86)/CodeBlocks/MinGW/lib/gcc/mingw32/4.9.2/include/c++/bits\stl_vector.h ****        *  %vector and if it is frequently used the user should
1116:C:/Program Files (x86)/CodeBlocks/MinGW/lib/gcc/mingw32/4.9.2/include/c++/bits\stl_vector.h ****        *  consider using std::list.
1117:C:/Program Files (x86)/CodeBlocks/MinGW/lib/gcc/mingw32/4.9.2/include/c++/bits\stl_vector.h ****        */
1118:C:/Program Files (x86)/CodeBlocks/MinGW/lib/gcc/mingw32/4.9.2/include/c++/bits\stl_vector.h ****       template<typename _InputIterator>
1119:C:/Program Files (x86)/CodeBlocks/MinGW/lib/gcc/mingw32/4.9.2/include/c++/bits\stl_vector.h ****         void
1120:C:/Program Files (x86)/CodeBlocks/MinGW/lib/gcc/mingw32/4.9.2/include/c++/bits\stl_vector.h ****         insert(iterator __position, _InputIterator __first,
1121:C:/Program Files (x86)/CodeBlocks/MinGW/lib/gcc/mingw32/4.9.2/include/c++/bits\stl_vector.h **** 	       _InputIterator __last)
1122:C:/Program Files (x86)/CodeBlocks/MinGW/lib/gcc/mingw32/4.9.2/include/c++/bits\stl_vector.h ****         {
1123:C:/Program Files (x86)/CodeBlocks/MinGW/lib/gcc/mingw32/4.9.2/include/c++/bits\stl_vector.h **** 	  // Check whether it's an integral type.  If so, it's not an iterator.
1124:C:/Program Files (x86)/CodeBlocks/MinGW/lib/gcc/mingw32/4.9.2/include/c++/bits\stl_vector.h **** 	  typedef typename std::__is_integer<_InputIterator>::__type _Integral;
1125:C:/Program Files (x86)/CodeBlocks/MinGW/lib/gcc/mingw32/4.9.2/include/c++/bits\stl_vector.h **** 	  _M_insert_dispatch(__position, __first, __last, _Integral());
1126:C:/Program Files (x86)/CodeBlocks/MinGW/lib/gcc/mingw32/4.9.2/include/c++/bits\stl_vector.h **** 	}
1127:C:/Program Files (x86)/CodeBlocks/MinGW/lib/gcc/mingw32/4.9.2/include/c++/bits\stl_vector.h **** #endif
1128:C:/Program Files (x86)/CodeBlocks/MinGW/lib/gcc/mingw32/4.9.2/include/c++/bits\stl_vector.h **** 
1129:C:/Program Files (x86)/CodeBlocks/MinGW/lib/gcc/mingw32/4.9.2/include/c++/bits\stl_vector.h ****       /**
1130:C:/Program Files (x86)/CodeBlocks/MinGW/lib/gcc/mingw32/4.9.2/include/c++/bits\stl_vector.h ****        *  @brief  Remove element at given position.
1131:C:/Program Files (x86)/CodeBlocks/MinGW/lib/gcc/mingw32/4.9.2/include/c++/bits\stl_vector.h ****        *  @param  __position  Iterator pointing to element to be erased.
1132:C:/Program Files (x86)/CodeBlocks/MinGW/lib/gcc/mingw32/4.9.2/include/c++/bits\stl_vector.h ****        *  @return  An iterator pointing to the next element (or end()).
1133:C:/Program Files (x86)/CodeBlocks/MinGW/lib/gcc/mingw32/4.9.2/include/c++/bits\stl_vector.h ****        *
1134:C:/Program Files (x86)/CodeBlocks/MinGW/lib/gcc/mingw32/4.9.2/include/c++/bits\stl_vector.h ****        *  This function will erase the element at the given position and thus
1135:C:/Program Files (x86)/CodeBlocks/MinGW/lib/gcc/mingw32/4.9.2/include/c++/bits\stl_vector.h ****        *  shorten the %vector by one.
1136:C:/Program Files (x86)/CodeBlocks/MinGW/lib/gcc/mingw32/4.9.2/include/c++/bits\stl_vector.h ****        *
GAS LISTING C:\Users\NJLLMR~1\AppData\Local\Temp\cce8JzPW.s 			page 37


1137:C:/Program Files (x86)/CodeBlocks/MinGW/lib/gcc/mingw32/4.9.2/include/c++/bits\stl_vector.h ****        *  Note This operation could be expensive and if it is
1138:C:/Program Files (x86)/CodeBlocks/MinGW/lib/gcc/mingw32/4.9.2/include/c++/bits\stl_vector.h ****        *  frequently used the user should consider using std::list.
1139:C:/Program Files (x86)/CodeBlocks/MinGW/lib/gcc/mingw32/4.9.2/include/c++/bits\stl_vector.h ****        *  The user is also cautioned that this function only erases
1140:C:/Program Files (x86)/CodeBlocks/MinGW/lib/gcc/mingw32/4.9.2/include/c++/bits\stl_vector.h ****        *  the element, and that if the element is itself a pointer,
1141:C:/Program Files (x86)/CodeBlocks/MinGW/lib/gcc/mingw32/4.9.2/include/c++/bits\stl_vector.h ****        *  the pointed-to memory is not touched in any way.  Managing
1142:C:/Program Files (x86)/CodeBlocks/MinGW/lib/gcc/mingw32/4.9.2/include/c++/bits\stl_vector.h ****        *  the pointer is the user's responsibility.
1143:C:/Program Files (x86)/CodeBlocks/MinGW/lib/gcc/mingw32/4.9.2/include/c++/bits\stl_vector.h ****        */
1144:C:/Program Files (x86)/CodeBlocks/MinGW/lib/gcc/mingw32/4.9.2/include/c++/bits\stl_vector.h ****       iterator
1145:C:/Program Files (x86)/CodeBlocks/MinGW/lib/gcc/mingw32/4.9.2/include/c++/bits\stl_vector.h **** #if __cplusplus >= 201103L
1146:C:/Program Files (x86)/CodeBlocks/MinGW/lib/gcc/mingw32/4.9.2/include/c++/bits\stl_vector.h ****       erase(const_iterator __position)
1147:C:/Program Files (x86)/CodeBlocks/MinGW/lib/gcc/mingw32/4.9.2/include/c++/bits\stl_vector.h ****       { return _M_erase(begin() + (__position - cbegin())); }
1148:C:/Program Files (x86)/CodeBlocks/MinGW/lib/gcc/mingw32/4.9.2/include/c++/bits\stl_vector.h **** #else
1149:C:/Program Files (x86)/CodeBlocks/MinGW/lib/gcc/mingw32/4.9.2/include/c++/bits\stl_vector.h ****       erase(iterator __position)
1150:C:/Program Files (x86)/CodeBlocks/MinGW/lib/gcc/mingw32/4.9.2/include/c++/bits\stl_vector.h ****       { return _M_erase(__position); }
1151:C:/Program Files (x86)/CodeBlocks/MinGW/lib/gcc/mingw32/4.9.2/include/c++/bits\stl_vector.h **** #endif
1152:C:/Program Files (x86)/CodeBlocks/MinGW/lib/gcc/mingw32/4.9.2/include/c++/bits\stl_vector.h **** 
1153:C:/Program Files (x86)/CodeBlocks/MinGW/lib/gcc/mingw32/4.9.2/include/c++/bits\stl_vector.h ****       /**
1154:C:/Program Files (x86)/CodeBlocks/MinGW/lib/gcc/mingw32/4.9.2/include/c++/bits\stl_vector.h ****        *  @brief  Remove a range of elements.
1155:C:/Program Files (x86)/CodeBlocks/MinGW/lib/gcc/mingw32/4.9.2/include/c++/bits\stl_vector.h ****        *  @param  __first  Iterator pointing to the first element to be erased.
1156:C:/Program Files (x86)/CodeBlocks/MinGW/lib/gcc/mingw32/4.9.2/include/c++/bits\stl_vector.h ****        *  @param  __last  Iterator pointing to one past the last element to be
1157:C:/Program Files (x86)/CodeBlocks/MinGW/lib/gcc/mingw32/4.9.2/include/c++/bits\stl_vector.h ****        *                  erased.
1158:C:/Program Files (x86)/CodeBlocks/MinGW/lib/gcc/mingw32/4.9.2/include/c++/bits\stl_vector.h ****        *  @return  An iterator pointing to the element pointed to by @a __last
1159:C:/Program Files (x86)/CodeBlocks/MinGW/lib/gcc/mingw32/4.9.2/include/c++/bits\stl_vector.h ****        *           prior to erasing (or end()).
1160:C:/Program Files (x86)/CodeBlocks/MinGW/lib/gcc/mingw32/4.9.2/include/c++/bits\stl_vector.h ****        *
1161:C:/Program Files (x86)/CodeBlocks/MinGW/lib/gcc/mingw32/4.9.2/include/c++/bits\stl_vector.h ****        *  This function will erase the elements in the range
1162:C:/Program Files (x86)/CodeBlocks/MinGW/lib/gcc/mingw32/4.9.2/include/c++/bits\stl_vector.h ****        *  [__first,__last) and shorten the %vector accordingly.
1163:C:/Program Files (x86)/CodeBlocks/MinGW/lib/gcc/mingw32/4.9.2/include/c++/bits\stl_vector.h ****        *
1164:C:/Program Files (x86)/CodeBlocks/MinGW/lib/gcc/mingw32/4.9.2/include/c++/bits\stl_vector.h ****        *  Note This operation could be expensive and if it is
1165:C:/Program Files (x86)/CodeBlocks/MinGW/lib/gcc/mingw32/4.9.2/include/c++/bits\stl_vector.h ****        *  frequently used the user should consider using std::list.
1166:C:/Program Files (x86)/CodeBlocks/MinGW/lib/gcc/mingw32/4.9.2/include/c++/bits\stl_vector.h ****        *  The user is also cautioned that this function only erases
1167:C:/Program Files (x86)/CodeBlocks/MinGW/lib/gcc/mingw32/4.9.2/include/c++/bits\stl_vector.h ****        *  the elements, and that if the elements themselves are
1168:C:/Program Files (x86)/CodeBlocks/MinGW/lib/gcc/mingw32/4.9.2/include/c++/bits\stl_vector.h ****        *  pointers, the pointed-to memory is not touched in any way.
1169:C:/Program Files (x86)/CodeBlocks/MinGW/lib/gcc/mingw32/4.9.2/include/c++/bits\stl_vector.h ****        *  Managing the pointer is the user's responsibility.
1170:C:/Program Files (x86)/CodeBlocks/MinGW/lib/gcc/mingw32/4.9.2/include/c++/bits\stl_vector.h ****        */
1171:C:/Program Files (x86)/CodeBlocks/MinGW/lib/gcc/mingw32/4.9.2/include/c++/bits\stl_vector.h ****       iterator
1172:C:/Program Files (x86)/CodeBlocks/MinGW/lib/gcc/mingw32/4.9.2/include/c++/bits\stl_vector.h **** #if __cplusplus >= 201103L
1173:C:/Program Files (x86)/CodeBlocks/MinGW/lib/gcc/mingw32/4.9.2/include/c++/bits\stl_vector.h ****       erase(const_iterator __first, const_iterator __last)
1174:C:/Program Files (x86)/CodeBlocks/MinGW/lib/gcc/mingw32/4.9.2/include/c++/bits\stl_vector.h ****       {
1175:C:/Program Files (x86)/CodeBlocks/MinGW/lib/gcc/mingw32/4.9.2/include/c++/bits\stl_vector.h **** 	const auto __beg = begin();
1176:C:/Program Files (x86)/CodeBlocks/MinGW/lib/gcc/mingw32/4.9.2/include/c++/bits\stl_vector.h **** 	const auto __cbeg = cbegin();
1177:C:/Program Files (x86)/CodeBlocks/MinGW/lib/gcc/mingw32/4.9.2/include/c++/bits\stl_vector.h **** 	return _M_erase(__beg + (__first - __cbeg), __beg + (__last - __cbeg));
1178:C:/Program Files (x86)/CodeBlocks/MinGW/lib/gcc/mingw32/4.9.2/include/c++/bits\stl_vector.h ****       }
1179:C:/Program Files (x86)/CodeBlocks/MinGW/lib/gcc/mingw32/4.9.2/include/c++/bits\stl_vector.h **** #else
1180:C:/Program Files (x86)/CodeBlocks/MinGW/lib/gcc/mingw32/4.9.2/include/c++/bits\stl_vector.h ****       erase(iterator __first, iterator __last)
1181:C:/Program Files (x86)/CodeBlocks/MinGW/lib/gcc/mingw32/4.9.2/include/c++/bits\stl_vector.h ****       { return _M_erase(__first, __last); }
1182:C:/Program Files (x86)/CodeBlocks/MinGW/lib/gcc/mingw32/4.9.2/include/c++/bits\stl_vector.h **** #endif
1183:C:/Program Files (x86)/CodeBlocks/MinGW/lib/gcc/mingw32/4.9.2/include/c++/bits\stl_vector.h **** 
1184:C:/Program Files (x86)/CodeBlocks/MinGW/lib/gcc/mingw32/4.9.2/include/c++/bits\stl_vector.h ****       /**
1185:C:/Program Files (x86)/CodeBlocks/MinGW/lib/gcc/mingw32/4.9.2/include/c++/bits\stl_vector.h ****        *  @brief  Swaps data with another %vector.
1186:C:/Program Files (x86)/CodeBlocks/MinGW/lib/gcc/mingw32/4.9.2/include/c++/bits\stl_vector.h ****        *  @param  __x  A %vector of the same element and allocator types.
1187:C:/Program Files (x86)/CodeBlocks/MinGW/lib/gcc/mingw32/4.9.2/include/c++/bits\stl_vector.h ****        *
1188:C:/Program Files (x86)/CodeBlocks/MinGW/lib/gcc/mingw32/4.9.2/include/c++/bits\stl_vector.h ****        *  This exchanges the elements between two vectors in constant time.
1189:C:/Program Files (x86)/CodeBlocks/MinGW/lib/gcc/mingw32/4.9.2/include/c++/bits\stl_vector.h ****        *  (Three pointers, so it should be quite fast.)
1190:C:/Program Files (x86)/CodeBlocks/MinGW/lib/gcc/mingw32/4.9.2/include/c++/bits\stl_vector.h ****        *  Note that the global std::swap() function is specialized such that
1191:C:/Program Files (x86)/CodeBlocks/MinGW/lib/gcc/mingw32/4.9.2/include/c++/bits\stl_vector.h ****        *  std::swap(v1,v2) will feed to this function.
1192:C:/Program Files (x86)/CodeBlocks/MinGW/lib/gcc/mingw32/4.9.2/include/c++/bits\stl_vector.h ****        */
1193:C:/Program Files (x86)/CodeBlocks/MinGW/lib/gcc/mingw32/4.9.2/include/c++/bits\stl_vector.h ****       void
GAS LISTING C:\Users\NJLLMR~1\AppData\Local\Temp\cce8JzPW.s 			page 38


1194:C:/Program Files (x86)/CodeBlocks/MinGW/lib/gcc/mingw32/4.9.2/include/c++/bits\stl_vector.h ****       swap(vector& __x)
1195:C:/Program Files (x86)/CodeBlocks/MinGW/lib/gcc/mingw32/4.9.2/include/c++/bits\stl_vector.h **** #if __cplusplus >= 201103L
1196:C:/Program Files (x86)/CodeBlocks/MinGW/lib/gcc/mingw32/4.9.2/include/c++/bits\stl_vector.h ****       noexcept(_Alloc_traits::_S_nothrow_swap())
1197:C:/Program Files (x86)/CodeBlocks/MinGW/lib/gcc/mingw32/4.9.2/include/c++/bits\stl_vector.h **** #endif
1198:C:/Program Files (x86)/CodeBlocks/MinGW/lib/gcc/mingw32/4.9.2/include/c++/bits\stl_vector.h ****       {
1199:C:/Program Files (x86)/CodeBlocks/MinGW/lib/gcc/mingw32/4.9.2/include/c++/bits\stl_vector.h **** 	this->_M_impl._M_swap_data(__x._M_impl);
1200:C:/Program Files (x86)/CodeBlocks/MinGW/lib/gcc/mingw32/4.9.2/include/c++/bits\stl_vector.h **** 	_Alloc_traits::_S_on_swap(_M_get_Tp_allocator(),
1201:C:/Program Files (x86)/CodeBlocks/MinGW/lib/gcc/mingw32/4.9.2/include/c++/bits\stl_vector.h **** 	                          __x._M_get_Tp_allocator());
1202:C:/Program Files (x86)/CodeBlocks/MinGW/lib/gcc/mingw32/4.9.2/include/c++/bits\stl_vector.h ****       }
1203:C:/Program Files (x86)/CodeBlocks/MinGW/lib/gcc/mingw32/4.9.2/include/c++/bits\stl_vector.h **** 
1204:C:/Program Files (x86)/CodeBlocks/MinGW/lib/gcc/mingw32/4.9.2/include/c++/bits\stl_vector.h ****       /**
1205:C:/Program Files (x86)/CodeBlocks/MinGW/lib/gcc/mingw32/4.9.2/include/c++/bits\stl_vector.h ****        *  Erases all the elements.  Note that this function only erases the
1206:C:/Program Files (x86)/CodeBlocks/MinGW/lib/gcc/mingw32/4.9.2/include/c++/bits\stl_vector.h ****        *  elements, and that if the elements themselves are pointers, the
1207:C:/Program Files (x86)/CodeBlocks/MinGW/lib/gcc/mingw32/4.9.2/include/c++/bits\stl_vector.h ****        *  pointed-to memory is not touched in any way.  Managing the pointer is
1208:C:/Program Files (x86)/CodeBlocks/MinGW/lib/gcc/mingw32/4.9.2/include/c++/bits\stl_vector.h ****        *  the user's responsibility.
1209:C:/Program Files (x86)/CodeBlocks/MinGW/lib/gcc/mingw32/4.9.2/include/c++/bits\stl_vector.h ****        */
1210:C:/Program Files (x86)/CodeBlocks/MinGW/lib/gcc/mingw32/4.9.2/include/c++/bits\stl_vector.h ****       void
1211:C:/Program Files (x86)/CodeBlocks/MinGW/lib/gcc/mingw32/4.9.2/include/c++/bits\stl_vector.h ****       clear() _GLIBCXX_NOEXCEPT
 786              		.loc 2 1211 0
 787              		.cfi_startproc
 788 0000 55       		pushl	%ebp
 789              		.cfi_def_cfa_offset 8
 790              		.cfi_offset 5, -8
 791 0001 89E5     		movl	%esp, %ebp
 792              		.cfi_def_cfa_register 5
 793 0003 83EC28   		subl	$40, %esp
 794 0006 894DF4   		movl	%ecx, -12(%ebp)
1212:C:/Program Files (x86)/CodeBlocks/MinGW/lib/gcc/mingw32/4.9.2/include/c++/bits\stl_vector.h ****       { _M_erase_at_end(this->_M_impl._M_start); }
 795              		.loc 2 1212 0
 796 0009 8B45F4   		movl	-12(%ebp), %eax
 797 000c 8B10     		movl	(%eax), %edx
 798 000e 8B45F4   		movl	-12(%ebp), %eax
 799 0011 891424   		movl	%edx, (%esp)
 800 0014 89C1     		movl	%eax, %ecx
 801 0016 E8000000 		call	__ZNSt6vectorI8ToppingsSaIS0_EE15_M_erase_at_endEPS0_
 801      00
 802 001b 83EC04   		subl	$4, %esp
 803 001e C9       		leave
 804              		.cfi_restore 5
 805              		.cfi_def_cfa 4, 4
 806 001f C3       		ret
 807              		.cfi_endproc
 808              	LFE1311:
 809              		.section	.text$_ZNSt12_Vector_baseI8ToppingsSaIS0_EE12_Vector_implD1Ev,"x"
 810              		.linkonce discard
 811              		.align 2
 812              		.globl	__ZNSt12_Vector_baseI8ToppingsSaIS0_EE12_Vector_implD1Ev
 814              	__ZNSt12_Vector_baseI8ToppingsSaIS0_EE12_Vector_implD1Ev:
 815              	LFB1330:
  79:C:/Program Files (x86)/CodeBlocks/MinGW/lib/gcc/mingw32/4.9.2/include/c++/bits\stl_vector.h ****       : public _Tp_alloc_type
 816              		.loc 2 79 0
 817              		.cfi_startproc
 818 0000 55       		pushl	%ebp
 819              		.cfi_def_cfa_offset 8
 820              		.cfi_offset 5, -8
 821 0001 89E5     		movl	%esp, %ebp
 822              		.cfi_def_cfa_register 5
GAS LISTING C:\Users\NJLLMR~1\AppData\Local\Temp\cce8JzPW.s 			page 39


 823 0003 83EC18   		subl	$24, %esp
 824 0006 894DF4   		movl	%ecx, -12(%ebp)
 825              	LBB6:
  79:C:/Program Files (x86)/CodeBlocks/MinGW/lib/gcc/mingw32/4.9.2/include/c++/bits\stl_vector.h ****       : public _Tp_alloc_type
 826              		.loc 2 79 0
 827 0009 8B45F4   		movl	-12(%ebp), %eax
 828 000c 89C1     		movl	%eax, %ecx
 829 000e E8000000 		call	__ZNSaI8ToppingsED2Ev
 829      00
 830              	LBE6:
 831 0013 C9       		leave
 832              		.cfi_restore 5
 833              		.cfi_def_cfa 4, 4
 834 0014 C3       		ret
 835              		.cfi_endproc
 836              	LFE1330:
 837 0015 909090   		.section	.text$_ZNSt12_Vector_baseI8ToppingsSaIS0_EEC2Ev,"x"
 838              		.linkonce discard
 839              		.align 2
 840              		.globl	__ZNSt12_Vector_baseI8ToppingsSaIS0_EEC2Ev
 842              	__ZNSt12_Vector_baseI8ToppingsSaIS0_EEC2Ev:
 843              	LFB1331:
 124:C:/Program Files (x86)/CodeBlocks/MinGW/lib/gcc/mingw32/4.9.2/include/c++/bits\stl_vector.h ****       : _M_impl() { }
 844              		.loc 2 124 0
 845              		.cfi_startproc
 846 0000 55       		pushl	%ebp
 847              		.cfi_def_cfa_offset 8
 848              		.cfi_offset 5, -8
 849 0001 89E5     		movl	%esp, %ebp
 850              		.cfi_def_cfa_register 5
 851 0003 83EC18   		subl	$24, %esp
 852 0006 894DF4   		movl	%ecx, -12(%ebp)
 853              	LBB7:
 125:C:/Program Files (x86)/CodeBlocks/MinGW/lib/gcc/mingw32/4.9.2/include/c++/bits\stl_vector.h **** 
 854              		.loc 2 125 0
 855 0009 8B45F4   		movl	-12(%ebp), %eax
 856 000c 89C1     		movl	%eax, %ecx
 857 000e E8000000 		call	__ZNSt12_Vector_baseI8ToppingsSaIS0_EE12_Vector_implC1Ev
 857      00
 858              	LBE7:
 859 0013 C9       		leave
 860              		.cfi_restore 5
 861              		.cfi_def_cfa 4, 4
 862 0014 C3       		ret
 863              		.cfi_endproc
 864              	LFE1331:
 865 0015 909090   		.section	.text$_ZNSt12_Vector_baseI8ToppingsSaIS0_EED2Ev,"x"
 866              		.linkonce discard
 867              		.align 2
 868              		.globl	__ZNSt12_Vector_baseI8ToppingsSaIS0_EED2Ev
 870              	__ZNSt12_Vector_baseI8ToppingsSaIS0_EED2Ev:
 871              	LFB1334:
 159:C:/Program Files (x86)/CodeBlocks/MinGW/lib/gcc/mingw32/4.9.2/include/c++/bits\stl_vector.h ****       { _M_deallocate(this->_M_impl._M_start, this->_M_impl._M_end_of_storage
 872              		.loc 2 159 0
 873              		.cfi_startproc
 874              		.cfi_personality 0,___gxx_personality_sj0
 875              		.cfi_lsda 0,LLSDA1334
GAS LISTING C:\Users\NJLLMR~1\AppData\Local\Temp\cce8JzPW.s 			page 40


 876 0000 55       		pushl	%ebp
 877              		.cfi_def_cfa_offset 8
 878              		.cfi_offset 5, -8
 879 0001 89E5     		movl	%esp, %ebp
 880              		.cfi_def_cfa_register 5
 881 0003 57       		pushl	%edi
 882 0004 56       		pushl	%esi
 883 0005 53       		pushl	%ebx
 884 0006 83EC5C   		subl	$92, %esp
 885              		.cfi_offset 7, -12
 886              		.cfi_offset 6, -16
 887              		.cfi_offset 3, -20
 888 0009 894DE4   		movl	%ecx, -28(%ebp)
 889 000c C745C800 		movl	$___gxx_personality_sj0, -56(%ebp)
 889      000000
 890 0013 C745CC24 		movl	$LLSDA1334, -52(%ebp)
 890      000000
 891 001a 8D45D0   		leal	-48(%ebp), %eax
 892 001d 8D5DE8   		leal	-24(%ebp), %ebx
 893 0020 8918     		movl	%ebx, (%eax)
 894 0022 BA800000 		movl	$L53, %edx
 894      00
 895 0027 895004   		movl	%edx, 4(%eax)
 896 002a 896008   		movl	%esp, 8(%eax)
 897 002d 8D45B0   		leal	-80(%ebp), %eax
 898 0030 890424   		movl	%eax, (%esp)
 899 0033 E8000000 		call	__Unwind_SjLj_Register
 899      00
 900              	LBB8:
 161:C:/Program Files (x86)/CodeBlocks/MinGW/lib/gcc/mingw32/4.9.2/include/c++/bits\stl_vector.h **** 
 901              		.loc 2 161 0
 902 0038 8B45E4   		movl	-28(%ebp), %eax
 903 003b 8B4008   		movl	8(%eax), %eax
 904 003e 89C2     		movl	%eax, %edx
 905 0040 8B45E4   		movl	-28(%ebp), %eax
 906 0043 8B00     		movl	(%eax), %eax
 907 0045 29C2     		subl	%eax, %edx
 908 0047 89D0     		movl	%edx, %eax
 909 0049 C1F802   		sarl	$2, %eax
 910 004c 69C0ABAA 		imull	$-1431655765, %eax, %eax
 910      AAAA
 911 0052 89C1     		movl	%eax, %ecx
 912 0054 8B45E4   		movl	-28(%ebp), %eax
 913 0057 8B10     		movl	(%eax), %edx
 160:C:/Program Files (x86)/CodeBlocks/MinGW/lib/gcc/mingw32/4.9.2/include/c++/bits\stl_vector.h **** 		      - this->_M_impl._M_start); }
 914              		.loc 2 160 0
 915 0059 8B45E4   		movl	-28(%ebp), %eax
 916 005c 894C2404 		movl	%ecx, 4(%esp)
 917 0060 891424   		movl	%edx, (%esp)
 918 0063 C745B401 		movl	$1, -76(%ebp)
 918      000000
 919 006a 89C1     		movl	%eax, %ecx
 920 006c E8000000 		call	__ZNSt12_Vector_baseI8ToppingsSaIS0_EE13_M_deallocateEPS0_j
 920      00
 921 0071 83EC08   		subl	$8, %esp
 161:C:/Program Files (x86)/CodeBlocks/MinGW/lib/gcc/mingw32/4.9.2/include/c++/bits\stl_vector.h **** 
 922              		.loc 2 161 0
GAS LISTING C:\Users\NJLLMR~1\AppData\Local\Temp\cce8JzPW.s 			page 41


 923 0074 8B45E4   		movl	-28(%ebp), %eax
 924 0077 89C1     		movl	%eax, %ecx
 925 0079 E8000000 		call	__ZNSt12_Vector_baseI8ToppingsSaIS0_EE12_Vector_implD1Ev
 925      00
 926 007e EB25     		jmp	L55
 927              	L53:
 928 0080 8D6D18   		leal	24(%ebp), %ebp
 929 0083 8B45B8   		movl	-72(%ebp), %eax
 930 0086 8945AC   		movl	%eax, -84(%ebp)
 931 0089 8B45E4   		movl	-28(%ebp), %eax
 932 008c 89C1     		movl	%eax, %ecx
 933 008e E8000000 		call	__ZNSt12_Vector_baseI8ToppingsSaIS0_EE12_Vector_implD1Ev
 933      00
 934 0093 8B45AC   		movl	-84(%ebp), %eax
 935 0096 890424   		movl	%eax, (%esp)
 936 0099 C745B4FF 		movl	$-1, -76(%ebp)
 936      FFFFFF
 937 00a0 E8000000 		call	__Unwind_SjLj_Resume
 937      00
 938              	L55:
 939 00a5 8D45B0   		leal	-80(%ebp), %eax
 940 00a8 890424   		movl	%eax, (%esp)
 941 00ab E8000000 		call	__Unwind_SjLj_Unregister
 941      00
 942              	LBE8:
 943 00b0 8D65F4   		leal	-12(%ebp), %esp
 944 00b3 5B       		popl	%ebx
 945              		.cfi_restore 3
 946 00b4 5E       		popl	%esi
 947              		.cfi_restore 6
 948 00b5 5F       		popl	%edi
 949              		.cfi_restore 7
 950 00b6 5D       		popl	%ebp
 951              		.cfi_restore 5
 952              		.cfi_def_cfa 4, 4
 953 00b7 C3       		ret
 954              		.cfi_endproc
 955              	LFE1334:
 956              		.section	.gcc_except_table,"w"
 957              	LLSDA1334:
 958 0024 FF       		.byte	0xff
 959 0025 FF       		.byte	0xff
 960 0026 01       		.byte	0x1
 961 0027 02       		.uleb128 LLSDACSE1334-LLSDACSB1334
 962              	LLSDACSB1334:
 963 0028 00       		.uleb128 0
 964 0029 00       		.uleb128 0
 965              	LLSDACSE1334:
 966 002a 0000     		.section	.text$_ZNSt12_Vector_baseI8ToppingsSaIS0_EED2Ev,"x"
 967              		.linkonce discard
 968              		.section	.text$_ZNSt12_Vector_baseI8ToppingsSaIS0_EE19_M_get_Tp_allocatorEv,"x"
 969              		.linkonce discard
 970              		.align 2
 971              		.globl	__ZNSt12_Vector_baseI8ToppingsSaIS0_EE19_M_get_Tp_allocatorEv
 973              	__ZNSt12_Vector_baseI8ToppingsSaIS0_EE19_M_get_Tp_allocatorEv:
 974              	LFB1336:
 113:C:/Program Files (x86)/CodeBlocks/MinGW/lib/gcc/mingw32/4.9.2/include/c++/bits\stl_vector.h ****       { return *static_cast<_Tp_alloc_type*>(&this->_M_impl); }
GAS LISTING C:\Users\NJLLMR~1\AppData\Local\Temp\cce8JzPW.s 			page 42


 975              		.loc 2 113 0
 976              		.cfi_startproc
 977 0000 55       		pushl	%ebp
 978              		.cfi_def_cfa_offset 8
 979              		.cfi_offset 5, -8
 980 0001 89E5     		movl	%esp, %ebp
 981              		.cfi_def_cfa_register 5
 982 0003 83EC04   		subl	$4, %esp
 983 0006 894DFC   		movl	%ecx, -4(%ebp)
 114:C:/Program Files (x86)/CodeBlocks/MinGW/lib/gcc/mingw32/4.9.2/include/c++/bits\stl_vector.h **** 
 984              		.loc 2 114 0
 985 0009 8B45FC   		movl	-4(%ebp), %eax
 986 000c C9       		leave
 987              		.cfi_restore 5
 988              		.cfi_def_cfa 4, 4
 989 000d C3       		ret
 990              		.cfi_endproc
 991              	LFE1336:
 992 000e 9090     		.section	.text$_ZSt8_DestroyIP8ToppingsS0_EvT_S2_RSaIT0_E,"x"
 993              		.linkonce discard
 994              		.globl	__ZSt8_DestroyIP8ToppingsS0_EvT_S2_RSaIT0_E
 996              	__ZSt8_DestroyIP8ToppingsS0_EvT_S2_RSaIT0_E:
 997              	LFB1337:
 998              		.file 3 "C:/Program Files (x86)/CodeBlocks/MinGW/lib/gcc/mingw32/4.9.2/include/c++/bits/stl_constr
   1:C:/Program Files (x86)/CodeBlocks/MinGW/lib/gcc/mingw32/4.9.2/include/c++/bits\stl_construct.h **** // nonstandard construct and destroy functions -*- C++ -*-
   2:C:/Program Files (x86)/CodeBlocks/MinGW/lib/gcc/mingw32/4.9.2/include/c++/bits\stl_construct.h **** 
   3:C:/Program Files (x86)/CodeBlocks/MinGW/lib/gcc/mingw32/4.9.2/include/c++/bits\stl_construct.h **** // Copyright (C) 2001-2014 Free Software Foundation, Inc.
   4:C:/Program Files (x86)/CodeBlocks/MinGW/lib/gcc/mingw32/4.9.2/include/c++/bits\stl_construct.h **** //
   5:C:/Program Files (x86)/CodeBlocks/MinGW/lib/gcc/mingw32/4.9.2/include/c++/bits\stl_construct.h **** // This file is part of the GNU ISO C++ Library.  This library is free
   6:C:/Program Files (x86)/CodeBlocks/MinGW/lib/gcc/mingw32/4.9.2/include/c++/bits\stl_construct.h **** // software; you can redistribute it and/or modify it under the
   7:C:/Program Files (x86)/CodeBlocks/MinGW/lib/gcc/mingw32/4.9.2/include/c++/bits\stl_construct.h **** // terms of the GNU General Public License as published by the
   8:C:/Program Files (x86)/CodeBlocks/MinGW/lib/gcc/mingw32/4.9.2/include/c++/bits\stl_construct.h **** // Free Software Foundation; either version 3, or (at your option)
   9:C:/Program Files (x86)/CodeBlocks/MinGW/lib/gcc/mingw32/4.9.2/include/c++/bits\stl_construct.h **** // any later version.
  10:C:/Program Files (x86)/CodeBlocks/MinGW/lib/gcc/mingw32/4.9.2/include/c++/bits\stl_construct.h **** 
  11:C:/Program Files (x86)/CodeBlocks/MinGW/lib/gcc/mingw32/4.9.2/include/c++/bits\stl_construct.h **** // This library is distributed in the hope that it will be useful,
  12:C:/Program Files (x86)/CodeBlocks/MinGW/lib/gcc/mingw32/4.9.2/include/c++/bits\stl_construct.h **** // but WITHOUT ANY WARRANTY; without even the implied warranty of
  13:C:/Program Files (x86)/CodeBlocks/MinGW/lib/gcc/mingw32/4.9.2/include/c++/bits\stl_construct.h **** // MERCHANTABILITY or FITNESS FOR A PARTICULAR PURPOSE.  See the
  14:C:/Program Files (x86)/CodeBlocks/MinGW/lib/gcc/mingw32/4.9.2/include/c++/bits\stl_construct.h **** // GNU General Public License for more details.
  15:C:/Program Files (x86)/CodeBlocks/MinGW/lib/gcc/mingw32/4.9.2/include/c++/bits\stl_construct.h **** 
  16:C:/Program Files (x86)/CodeBlocks/MinGW/lib/gcc/mingw32/4.9.2/include/c++/bits\stl_construct.h **** // Under Section 7 of GPL version 3, you are granted additional
  17:C:/Program Files (x86)/CodeBlocks/MinGW/lib/gcc/mingw32/4.9.2/include/c++/bits\stl_construct.h **** // permissions described in the GCC Runtime Library Exception, version
  18:C:/Program Files (x86)/CodeBlocks/MinGW/lib/gcc/mingw32/4.9.2/include/c++/bits\stl_construct.h **** // 3.1, as published by the Free Software Foundation.
  19:C:/Program Files (x86)/CodeBlocks/MinGW/lib/gcc/mingw32/4.9.2/include/c++/bits\stl_construct.h **** 
  20:C:/Program Files (x86)/CodeBlocks/MinGW/lib/gcc/mingw32/4.9.2/include/c++/bits\stl_construct.h **** // You should have received a copy of the GNU General Public License and
  21:C:/Program Files (x86)/CodeBlocks/MinGW/lib/gcc/mingw32/4.9.2/include/c++/bits\stl_construct.h **** // a copy of the GCC Runtime Library Exception along with this program;
  22:C:/Program Files (x86)/CodeBlocks/MinGW/lib/gcc/mingw32/4.9.2/include/c++/bits\stl_construct.h **** // see the files COPYING3 and COPYING.RUNTIME respectively.  If not, see
  23:C:/Program Files (x86)/CodeBlocks/MinGW/lib/gcc/mingw32/4.9.2/include/c++/bits\stl_construct.h **** // <http://www.gnu.org/licenses/>.
  24:C:/Program Files (x86)/CodeBlocks/MinGW/lib/gcc/mingw32/4.9.2/include/c++/bits\stl_construct.h **** 
  25:C:/Program Files (x86)/CodeBlocks/MinGW/lib/gcc/mingw32/4.9.2/include/c++/bits\stl_construct.h **** /*
  26:C:/Program Files (x86)/CodeBlocks/MinGW/lib/gcc/mingw32/4.9.2/include/c++/bits\stl_construct.h ****  *
  27:C:/Program Files (x86)/CodeBlocks/MinGW/lib/gcc/mingw32/4.9.2/include/c++/bits\stl_construct.h ****  * Copyright (c) 1994
  28:C:/Program Files (x86)/CodeBlocks/MinGW/lib/gcc/mingw32/4.9.2/include/c++/bits\stl_construct.h ****  * Hewlett-Packard Company
  29:C:/Program Files (x86)/CodeBlocks/MinGW/lib/gcc/mingw32/4.9.2/include/c++/bits\stl_construct.h ****  *
  30:C:/Program Files (x86)/CodeBlocks/MinGW/lib/gcc/mingw32/4.9.2/include/c++/bits\stl_construct.h ****  * Permission to use, copy, modify, distribute and sell this software
  31:C:/Program Files (x86)/CodeBlocks/MinGW/lib/gcc/mingw32/4.9.2/include/c++/bits\stl_construct.h ****  * and its documentation for any purpose is hereby granted without fee,
  32:C:/Program Files (x86)/CodeBlocks/MinGW/lib/gcc/mingw32/4.9.2/include/c++/bits\stl_construct.h ****  * provided that the above copyright notice appear in all copies and
  33:C:/Program Files (x86)/CodeBlocks/MinGW/lib/gcc/mingw32/4.9.2/include/c++/bits\stl_construct.h ****  * that both that copyright notice and this permission notice appear
GAS LISTING C:\Users\NJLLMR~1\AppData\Local\Temp\cce8JzPW.s 			page 43


  34:C:/Program Files (x86)/CodeBlocks/MinGW/lib/gcc/mingw32/4.9.2/include/c++/bits\stl_construct.h ****  * in supporting documentation.  Hewlett-Packard Company makes no
  35:C:/Program Files (x86)/CodeBlocks/MinGW/lib/gcc/mingw32/4.9.2/include/c++/bits\stl_construct.h ****  * representations about the suitability of this software for any
  36:C:/Program Files (x86)/CodeBlocks/MinGW/lib/gcc/mingw32/4.9.2/include/c++/bits\stl_construct.h ****  * purpose.  It is provided "as is" without express or implied warranty.
  37:C:/Program Files (x86)/CodeBlocks/MinGW/lib/gcc/mingw32/4.9.2/include/c++/bits\stl_construct.h ****  *
  38:C:/Program Files (x86)/CodeBlocks/MinGW/lib/gcc/mingw32/4.9.2/include/c++/bits\stl_construct.h ****  *
  39:C:/Program Files (x86)/CodeBlocks/MinGW/lib/gcc/mingw32/4.9.2/include/c++/bits\stl_construct.h ****  * Copyright (c) 1996,1997
  40:C:/Program Files (x86)/CodeBlocks/MinGW/lib/gcc/mingw32/4.9.2/include/c++/bits\stl_construct.h ****  * Silicon Graphics Computer Systems, Inc.
  41:C:/Program Files (x86)/CodeBlocks/MinGW/lib/gcc/mingw32/4.9.2/include/c++/bits\stl_construct.h ****  *
  42:C:/Program Files (x86)/CodeBlocks/MinGW/lib/gcc/mingw32/4.9.2/include/c++/bits\stl_construct.h ****  * Permission to use, copy, modify, distribute and sell this software
  43:C:/Program Files (x86)/CodeBlocks/MinGW/lib/gcc/mingw32/4.9.2/include/c++/bits\stl_construct.h ****  * and its documentation for any purpose is hereby granted without fee,
  44:C:/Program Files (x86)/CodeBlocks/MinGW/lib/gcc/mingw32/4.9.2/include/c++/bits\stl_construct.h ****  * provided that the above copyright notice appear in all copies and
  45:C:/Program Files (x86)/CodeBlocks/MinGW/lib/gcc/mingw32/4.9.2/include/c++/bits\stl_construct.h ****  * that both that copyright notice and this permission notice appear
  46:C:/Program Files (x86)/CodeBlocks/MinGW/lib/gcc/mingw32/4.9.2/include/c++/bits\stl_construct.h ****  * in supporting documentation.  Silicon Graphics makes no
  47:C:/Program Files (x86)/CodeBlocks/MinGW/lib/gcc/mingw32/4.9.2/include/c++/bits\stl_construct.h ****  * representations about the suitability of this software for any
  48:C:/Program Files (x86)/CodeBlocks/MinGW/lib/gcc/mingw32/4.9.2/include/c++/bits\stl_construct.h ****  * purpose.  It is provided "as is" without express or implied warranty.
  49:C:/Program Files (x86)/CodeBlocks/MinGW/lib/gcc/mingw32/4.9.2/include/c++/bits\stl_construct.h ****  */
  50:C:/Program Files (x86)/CodeBlocks/MinGW/lib/gcc/mingw32/4.9.2/include/c++/bits\stl_construct.h **** 
  51:C:/Program Files (x86)/CodeBlocks/MinGW/lib/gcc/mingw32/4.9.2/include/c++/bits\stl_construct.h **** /** @file bits/stl_construct.h
  52:C:/Program Files (x86)/CodeBlocks/MinGW/lib/gcc/mingw32/4.9.2/include/c++/bits\stl_construct.h ****  *  This is an internal header file, included by other library headers.
  53:C:/Program Files (x86)/CodeBlocks/MinGW/lib/gcc/mingw32/4.9.2/include/c++/bits\stl_construct.h ****  *  Do not attempt to use it directly. @headername{memory}
  54:C:/Program Files (x86)/CodeBlocks/MinGW/lib/gcc/mingw32/4.9.2/include/c++/bits\stl_construct.h ****  */
  55:C:/Program Files (x86)/CodeBlocks/MinGW/lib/gcc/mingw32/4.9.2/include/c++/bits\stl_construct.h **** 
  56:C:/Program Files (x86)/CodeBlocks/MinGW/lib/gcc/mingw32/4.9.2/include/c++/bits\stl_construct.h **** #ifndef _STL_CONSTRUCT_H
  57:C:/Program Files (x86)/CodeBlocks/MinGW/lib/gcc/mingw32/4.9.2/include/c++/bits\stl_construct.h **** #define _STL_CONSTRUCT_H 1
  58:C:/Program Files (x86)/CodeBlocks/MinGW/lib/gcc/mingw32/4.9.2/include/c++/bits\stl_construct.h **** 
  59:C:/Program Files (x86)/CodeBlocks/MinGW/lib/gcc/mingw32/4.9.2/include/c++/bits\stl_construct.h **** #include <new>
  60:C:/Program Files (x86)/CodeBlocks/MinGW/lib/gcc/mingw32/4.9.2/include/c++/bits\stl_construct.h **** #include <bits/move.h>
  61:C:/Program Files (x86)/CodeBlocks/MinGW/lib/gcc/mingw32/4.9.2/include/c++/bits\stl_construct.h **** #include <ext/alloc_traits.h>
  62:C:/Program Files (x86)/CodeBlocks/MinGW/lib/gcc/mingw32/4.9.2/include/c++/bits\stl_construct.h **** 
  63:C:/Program Files (x86)/CodeBlocks/MinGW/lib/gcc/mingw32/4.9.2/include/c++/bits\stl_construct.h **** namespace std _GLIBCXX_VISIBILITY(default)
  64:C:/Program Files (x86)/CodeBlocks/MinGW/lib/gcc/mingw32/4.9.2/include/c++/bits\stl_construct.h **** {
  65:C:/Program Files (x86)/CodeBlocks/MinGW/lib/gcc/mingw32/4.9.2/include/c++/bits\stl_construct.h **** _GLIBCXX_BEGIN_NAMESPACE_VERSION
  66:C:/Program Files (x86)/CodeBlocks/MinGW/lib/gcc/mingw32/4.9.2/include/c++/bits\stl_construct.h **** 
  67:C:/Program Files (x86)/CodeBlocks/MinGW/lib/gcc/mingw32/4.9.2/include/c++/bits\stl_construct.h ****   /**
  68:C:/Program Files (x86)/CodeBlocks/MinGW/lib/gcc/mingw32/4.9.2/include/c++/bits\stl_construct.h ****    * Constructs an object in existing memory by invoking an allocated
  69:C:/Program Files (x86)/CodeBlocks/MinGW/lib/gcc/mingw32/4.9.2/include/c++/bits\stl_construct.h ****    * object's constructor with an initializer.
  70:C:/Program Files (x86)/CodeBlocks/MinGW/lib/gcc/mingw32/4.9.2/include/c++/bits\stl_construct.h ****    */
  71:C:/Program Files (x86)/CodeBlocks/MinGW/lib/gcc/mingw32/4.9.2/include/c++/bits\stl_construct.h **** #if __cplusplus >= 201103L
  72:C:/Program Files (x86)/CodeBlocks/MinGW/lib/gcc/mingw32/4.9.2/include/c++/bits\stl_construct.h ****   template<typename _T1, typename... _Args>
  73:C:/Program Files (x86)/CodeBlocks/MinGW/lib/gcc/mingw32/4.9.2/include/c++/bits\stl_construct.h ****     inline void
  74:C:/Program Files (x86)/CodeBlocks/MinGW/lib/gcc/mingw32/4.9.2/include/c++/bits\stl_construct.h ****     _Construct(_T1* __p, _Args&&... __args)
  75:C:/Program Files (x86)/CodeBlocks/MinGW/lib/gcc/mingw32/4.9.2/include/c++/bits\stl_construct.h ****     { ::new(static_cast<void*>(__p)) _T1(std::forward<_Args>(__args)...); }
  76:C:/Program Files (x86)/CodeBlocks/MinGW/lib/gcc/mingw32/4.9.2/include/c++/bits\stl_construct.h **** #else
  77:C:/Program Files (x86)/CodeBlocks/MinGW/lib/gcc/mingw32/4.9.2/include/c++/bits\stl_construct.h ****   template<typename _T1, typename _T2>
  78:C:/Program Files (x86)/CodeBlocks/MinGW/lib/gcc/mingw32/4.9.2/include/c++/bits\stl_construct.h ****     inline void
  79:C:/Program Files (x86)/CodeBlocks/MinGW/lib/gcc/mingw32/4.9.2/include/c++/bits\stl_construct.h ****     _Construct(_T1* __p, const _T2& __value)
  80:C:/Program Files (x86)/CodeBlocks/MinGW/lib/gcc/mingw32/4.9.2/include/c++/bits\stl_construct.h ****     {
  81:C:/Program Files (x86)/CodeBlocks/MinGW/lib/gcc/mingw32/4.9.2/include/c++/bits\stl_construct.h ****       // _GLIBCXX_RESOLVE_LIB_DEFECTS
  82:C:/Program Files (x86)/CodeBlocks/MinGW/lib/gcc/mingw32/4.9.2/include/c++/bits\stl_construct.h ****       // 402. wrong new expression in [some_]allocator::construct
  83:C:/Program Files (x86)/CodeBlocks/MinGW/lib/gcc/mingw32/4.9.2/include/c++/bits\stl_construct.h ****       ::new(static_cast<void*>(__p)) _T1(__value);
  84:C:/Program Files (x86)/CodeBlocks/MinGW/lib/gcc/mingw32/4.9.2/include/c++/bits\stl_construct.h ****     }
  85:C:/Program Files (x86)/CodeBlocks/MinGW/lib/gcc/mingw32/4.9.2/include/c++/bits\stl_construct.h **** #endif
  86:C:/Program Files (x86)/CodeBlocks/MinGW/lib/gcc/mingw32/4.9.2/include/c++/bits\stl_construct.h **** 
  87:C:/Program Files (x86)/CodeBlocks/MinGW/lib/gcc/mingw32/4.9.2/include/c++/bits\stl_construct.h ****   /**
  88:C:/Program Files (x86)/CodeBlocks/MinGW/lib/gcc/mingw32/4.9.2/include/c++/bits\stl_construct.h ****    * Destroy the object pointed to by a pointer type.
  89:C:/Program Files (x86)/CodeBlocks/MinGW/lib/gcc/mingw32/4.9.2/include/c++/bits\stl_construct.h ****    */
  90:C:/Program Files (x86)/CodeBlocks/MinGW/lib/gcc/mingw32/4.9.2/include/c++/bits\stl_construct.h ****   template<typename _Tp>
GAS LISTING C:\Users\NJLLMR~1\AppData\Local\Temp\cce8JzPW.s 			page 44


  91:C:/Program Files (x86)/CodeBlocks/MinGW/lib/gcc/mingw32/4.9.2/include/c++/bits\stl_construct.h ****     inline void
  92:C:/Program Files (x86)/CodeBlocks/MinGW/lib/gcc/mingw32/4.9.2/include/c++/bits\stl_construct.h ****     _Destroy(_Tp* __pointer)
  93:C:/Program Files (x86)/CodeBlocks/MinGW/lib/gcc/mingw32/4.9.2/include/c++/bits\stl_construct.h ****     { __pointer->~_Tp(); }
  94:C:/Program Files (x86)/CodeBlocks/MinGW/lib/gcc/mingw32/4.9.2/include/c++/bits\stl_construct.h **** 
  95:C:/Program Files (x86)/CodeBlocks/MinGW/lib/gcc/mingw32/4.9.2/include/c++/bits\stl_construct.h ****   template<bool>
  96:C:/Program Files (x86)/CodeBlocks/MinGW/lib/gcc/mingw32/4.9.2/include/c++/bits\stl_construct.h ****     struct _Destroy_aux
  97:C:/Program Files (x86)/CodeBlocks/MinGW/lib/gcc/mingw32/4.9.2/include/c++/bits\stl_construct.h ****     {
  98:C:/Program Files (x86)/CodeBlocks/MinGW/lib/gcc/mingw32/4.9.2/include/c++/bits\stl_construct.h ****       template<typename _ForwardIterator>
  99:C:/Program Files (x86)/CodeBlocks/MinGW/lib/gcc/mingw32/4.9.2/include/c++/bits\stl_construct.h ****         static void
 100:C:/Program Files (x86)/CodeBlocks/MinGW/lib/gcc/mingw32/4.9.2/include/c++/bits\stl_construct.h ****         __destroy(_ForwardIterator __first, _ForwardIterator __last)
 101:C:/Program Files (x86)/CodeBlocks/MinGW/lib/gcc/mingw32/4.9.2/include/c++/bits\stl_construct.h **** 	{
 102:C:/Program Files (x86)/CodeBlocks/MinGW/lib/gcc/mingw32/4.9.2/include/c++/bits\stl_construct.h **** 	  for (; __first != __last; ++__first)
 103:C:/Program Files (x86)/CodeBlocks/MinGW/lib/gcc/mingw32/4.9.2/include/c++/bits\stl_construct.h **** 	    std::_Destroy(std::__addressof(*__first));
 104:C:/Program Files (x86)/CodeBlocks/MinGW/lib/gcc/mingw32/4.9.2/include/c++/bits\stl_construct.h **** 	}
 105:C:/Program Files (x86)/CodeBlocks/MinGW/lib/gcc/mingw32/4.9.2/include/c++/bits\stl_construct.h ****     };
 106:C:/Program Files (x86)/CodeBlocks/MinGW/lib/gcc/mingw32/4.9.2/include/c++/bits\stl_construct.h **** 
 107:C:/Program Files (x86)/CodeBlocks/MinGW/lib/gcc/mingw32/4.9.2/include/c++/bits\stl_construct.h ****   template<>
 108:C:/Program Files (x86)/CodeBlocks/MinGW/lib/gcc/mingw32/4.9.2/include/c++/bits\stl_construct.h ****     struct _Destroy_aux<true>
 109:C:/Program Files (x86)/CodeBlocks/MinGW/lib/gcc/mingw32/4.9.2/include/c++/bits\stl_construct.h ****     {
 110:C:/Program Files (x86)/CodeBlocks/MinGW/lib/gcc/mingw32/4.9.2/include/c++/bits\stl_construct.h ****       template<typename _ForwardIterator>
 111:C:/Program Files (x86)/CodeBlocks/MinGW/lib/gcc/mingw32/4.9.2/include/c++/bits\stl_construct.h ****         static void
 112:C:/Program Files (x86)/CodeBlocks/MinGW/lib/gcc/mingw32/4.9.2/include/c++/bits\stl_construct.h ****         __destroy(_ForwardIterator, _ForwardIterator) { }
 113:C:/Program Files (x86)/CodeBlocks/MinGW/lib/gcc/mingw32/4.9.2/include/c++/bits\stl_construct.h ****     };
 114:C:/Program Files (x86)/CodeBlocks/MinGW/lib/gcc/mingw32/4.9.2/include/c++/bits\stl_construct.h **** 
 115:C:/Program Files (x86)/CodeBlocks/MinGW/lib/gcc/mingw32/4.9.2/include/c++/bits\stl_construct.h ****   /**
 116:C:/Program Files (x86)/CodeBlocks/MinGW/lib/gcc/mingw32/4.9.2/include/c++/bits\stl_construct.h ****    * Destroy a range of objects.  If the value_type of the object has
 117:C:/Program Files (x86)/CodeBlocks/MinGW/lib/gcc/mingw32/4.9.2/include/c++/bits\stl_construct.h ****    * a trivial destructor, the compiler should optimize all of this
 118:C:/Program Files (x86)/CodeBlocks/MinGW/lib/gcc/mingw32/4.9.2/include/c++/bits\stl_construct.h ****    * away, otherwise the objects' destructors must be invoked.
 119:C:/Program Files (x86)/CodeBlocks/MinGW/lib/gcc/mingw32/4.9.2/include/c++/bits\stl_construct.h ****    */
 120:C:/Program Files (x86)/CodeBlocks/MinGW/lib/gcc/mingw32/4.9.2/include/c++/bits\stl_construct.h ****   template<typename _ForwardIterator>
 121:C:/Program Files (x86)/CodeBlocks/MinGW/lib/gcc/mingw32/4.9.2/include/c++/bits\stl_construct.h ****     inline void
 122:C:/Program Files (x86)/CodeBlocks/MinGW/lib/gcc/mingw32/4.9.2/include/c++/bits\stl_construct.h ****     _Destroy(_ForwardIterator __first, _ForwardIterator __last)
 123:C:/Program Files (x86)/CodeBlocks/MinGW/lib/gcc/mingw32/4.9.2/include/c++/bits\stl_construct.h ****     {
 124:C:/Program Files (x86)/CodeBlocks/MinGW/lib/gcc/mingw32/4.9.2/include/c++/bits\stl_construct.h ****       typedef typename iterator_traits<_ForwardIterator>::value_type
 125:C:/Program Files (x86)/CodeBlocks/MinGW/lib/gcc/mingw32/4.9.2/include/c++/bits\stl_construct.h ****                        _Value_type;
 126:C:/Program Files (x86)/CodeBlocks/MinGW/lib/gcc/mingw32/4.9.2/include/c++/bits\stl_construct.h ****       std::_Destroy_aux<__has_trivial_destructor(_Value_type)>::
 127:C:/Program Files (x86)/CodeBlocks/MinGW/lib/gcc/mingw32/4.9.2/include/c++/bits\stl_construct.h **** 	__destroy(__first, __last);
 128:C:/Program Files (x86)/CodeBlocks/MinGW/lib/gcc/mingw32/4.9.2/include/c++/bits\stl_construct.h ****     }
 129:C:/Program Files (x86)/CodeBlocks/MinGW/lib/gcc/mingw32/4.9.2/include/c++/bits\stl_construct.h **** 
 130:C:/Program Files (x86)/CodeBlocks/MinGW/lib/gcc/mingw32/4.9.2/include/c++/bits\stl_construct.h ****   /**
 131:C:/Program Files (x86)/CodeBlocks/MinGW/lib/gcc/mingw32/4.9.2/include/c++/bits\stl_construct.h ****    * Destroy a range of objects using the supplied allocator.  For
 132:C:/Program Files (x86)/CodeBlocks/MinGW/lib/gcc/mingw32/4.9.2/include/c++/bits\stl_construct.h ****    * nondefault allocators we do not optimize away invocation of 
 133:C:/Program Files (x86)/CodeBlocks/MinGW/lib/gcc/mingw32/4.9.2/include/c++/bits\stl_construct.h ****    * destroy() even if _Tp has a trivial destructor.
 134:C:/Program Files (x86)/CodeBlocks/MinGW/lib/gcc/mingw32/4.9.2/include/c++/bits\stl_construct.h ****    */
 135:C:/Program Files (x86)/CodeBlocks/MinGW/lib/gcc/mingw32/4.9.2/include/c++/bits\stl_construct.h **** 
 136:C:/Program Files (x86)/CodeBlocks/MinGW/lib/gcc/mingw32/4.9.2/include/c++/bits\stl_construct.h ****   template<typename _ForwardIterator, typename _Allocator>
 137:C:/Program Files (x86)/CodeBlocks/MinGW/lib/gcc/mingw32/4.9.2/include/c++/bits\stl_construct.h ****     void
 138:C:/Program Files (x86)/CodeBlocks/MinGW/lib/gcc/mingw32/4.9.2/include/c++/bits\stl_construct.h ****     _Destroy(_ForwardIterator __first, _ForwardIterator __last,
 139:C:/Program Files (x86)/CodeBlocks/MinGW/lib/gcc/mingw32/4.9.2/include/c++/bits\stl_construct.h **** 	     _Allocator& __alloc)
 140:C:/Program Files (x86)/CodeBlocks/MinGW/lib/gcc/mingw32/4.9.2/include/c++/bits\stl_construct.h ****     {
 141:C:/Program Files (x86)/CodeBlocks/MinGW/lib/gcc/mingw32/4.9.2/include/c++/bits\stl_construct.h ****       typedef __gnu_cxx::__alloc_traits<_Allocator> __traits;
 142:C:/Program Files (x86)/CodeBlocks/MinGW/lib/gcc/mingw32/4.9.2/include/c++/bits\stl_construct.h ****       for (; __first != __last; ++__first)
 143:C:/Program Files (x86)/CodeBlocks/MinGW/lib/gcc/mingw32/4.9.2/include/c++/bits\stl_construct.h **** 	__traits::destroy(__alloc, std::__addressof(*__first));
 144:C:/Program Files (x86)/CodeBlocks/MinGW/lib/gcc/mingw32/4.9.2/include/c++/bits\stl_construct.h ****     }
 145:C:/Program Files (x86)/CodeBlocks/MinGW/lib/gcc/mingw32/4.9.2/include/c++/bits\stl_construct.h **** 
 146:C:/Program Files (x86)/CodeBlocks/MinGW/lib/gcc/mingw32/4.9.2/include/c++/bits\stl_construct.h ****   template<typename _ForwardIterator, typename _Tp>
 147:C:/Program Files (x86)/CodeBlocks/MinGW/lib/gcc/mingw32/4.9.2/include/c++/bits\stl_construct.h ****     inline void
GAS LISTING C:\Users\NJLLMR~1\AppData\Local\Temp\cce8JzPW.s 			page 45


 148:C:/Program Files (x86)/CodeBlocks/MinGW/lib/gcc/mingw32/4.9.2/include/c++/bits\stl_construct.h ****     _Destroy(_ForwardIterator __first, _ForwardIterator __last,
 999              		.loc 3 148 0
 1000              		.cfi_startproc
 1001 0000 55       		pushl	%ebp
 1002              		.cfi_def_cfa_offset 8
 1003              		.cfi_offset 5, -8
 1004 0001 89E5     		movl	%esp, %ebp
 1005              		.cfi_def_cfa_register 5
 1006 0003 83EC18   		subl	$24, %esp
 149:C:/Program Files (x86)/CodeBlocks/MinGW/lib/gcc/mingw32/4.9.2/include/c++/bits\stl_construct.h **** 	     allocator<_Tp>&)
 150:C:/Program Files (x86)/CodeBlocks/MinGW/lib/gcc/mingw32/4.9.2/include/c++/bits\stl_construct.h ****     {
 151:C:/Program Files (x86)/CodeBlocks/MinGW/lib/gcc/mingw32/4.9.2/include/c++/bits\stl_construct.h ****       _Destroy(__first, __last);
 1007              		.loc 3 151 0
 1008 0006 8B450C   		movl	12(%ebp), %eax
 1009 0009 89442404 		movl	%eax, 4(%esp)
 1010 000d 8B4508   		movl	8(%ebp), %eax
 1011 0010 890424   		movl	%eax, (%esp)
 1012 0013 E8000000 		call	__ZSt8_DestroyIP8ToppingsEvT_S2_
 1012      00
 152:C:/Program Files (x86)/CodeBlocks/MinGW/lib/gcc/mingw32/4.9.2/include/c++/bits\stl_construct.h ****     }
 1013              		.loc 3 152 0
 1014 0018 C9       		leave
 1015              		.cfi_restore 5
 1016              		.cfi_def_cfa 4, 4
 1017 0019 C3       		ret
 1018              		.cfi_endproc
 1019              	LFE1337:
 1020 001a 9090     		.section	.text$_ZNSt6vectorI8ToppingsSaIS0_EE15_M_erase_at_endEPS0_,"x"
 1021              		.linkonce discard
 1022              		.align 2
 1023              		.globl	__ZNSt6vectorI8ToppingsSaIS0_EE15_M_erase_at_endEPS0_
 1025              	__ZNSt6vectorI8ToppingsSaIS0_EE15_M_erase_at_endEPS0_:
 1026              	LFB1339:
1213:C:/Program Files (x86)/CodeBlocks/MinGW/lib/gcc/mingw32/4.9.2/include/c++/bits\stl_vector.h **** 
1214:C:/Program Files (x86)/CodeBlocks/MinGW/lib/gcc/mingw32/4.9.2/include/c++/bits\stl_vector.h ****     protected:
1215:C:/Program Files (x86)/CodeBlocks/MinGW/lib/gcc/mingw32/4.9.2/include/c++/bits\stl_vector.h ****       /**
1216:C:/Program Files (x86)/CodeBlocks/MinGW/lib/gcc/mingw32/4.9.2/include/c++/bits\stl_vector.h ****        *  Memory expansion handler.  Uses the member allocation function to
1217:C:/Program Files (x86)/CodeBlocks/MinGW/lib/gcc/mingw32/4.9.2/include/c++/bits\stl_vector.h ****        *  obtain @a n bytes of memory, and then copies [first,last) into it.
1218:C:/Program Files (x86)/CodeBlocks/MinGW/lib/gcc/mingw32/4.9.2/include/c++/bits\stl_vector.h ****        */
1219:C:/Program Files (x86)/CodeBlocks/MinGW/lib/gcc/mingw32/4.9.2/include/c++/bits\stl_vector.h ****       template<typename _ForwardIterator>
1220:C:/Program Files (x86)/CodeBlocks/MinGW/lib/gcc/mingw32/4.9.2/include/c++/bits\stl_vector.h ****         pointer
1221:C:/Program Files (x86)/CodeBlocks/MinGW/lib/gcc/mingw32/4.9.2/include/c++/bits\stl_vector.h ****         _M_allocate_and_copy(size_type __n,
1222:C:/Program Files (x86)/CodeBlocks/MinGW/lib/gcc/mingw32/4.9.2/include/c++/bits\stl_vector.h **** 			     _ForwardIterator __first, _ForwardIterator __last)
1223:C:/Program Files (x86)/CodeBlocks/MinGW/lib/gcc/mingw32/4.9.2/include/c++/bits\stl_vector.h ****         {
1224:C:/Program Files (x86)/CodeBlocks/MinGW/lib/gcc/mingw32/4.9.2/include/c++/bits\stl_vector.h **** 	  pointer __result = this->_M_allocate(__n);
1225:C:/Program Files (x86)/CodeBlocks/MinGW/lib/gcc/mingw32/4.9.2/include/c++/bits\stl_vector.h **** 	  __try
1226:C:/Program Files (x86)/CodeBlocks/MinGW/lib/gcc/mingw32/4.9.2/include/c++/bits\stl_vector.h **** 	    {
1227:C:/Program Files (x86)/CodeBlocks/MinGW/lib/gcc/mingw32/4.9.2/include/c++/bits\stl_vector.h **** 	      std::__uninitialized_copy_a(__first, __last, __result,
1228:C:/Program Files (x86)/CodeBlocks/MinGW/lib/gcc/mingw32/4.9.2/include/c++/bits\stl_vector.h **** 					  _M_get_Tp_allocator());
1229:C:/Program Files (x86)/CodeBlocks/MinGW/lib/gcc/mingw32/4.9.2/include/c++/bits\stl_vector.h **** 	      return __result;
1230:C:/Program Files (x86)/CodeBlocks/MinGW/lib/gcc/mingw32/4.9.2/include/c++/bits\stl_vector.h **** 	    }
1231:C:/Program Files (x86)/CodeBlocks/MinGW/lib/gcc/mingw32/4.9.2/include/c++/bits\stl_vector.h **** 	  __catch(...)
1232:C:/Program Files (x86)/CodeBlocks/MinGW/lib/gcc/mingw32/4.9.2/include/c++/bits\stl_vector.h **** 	    {
1233:C:/Program Files (x86)/CodeBlocks/MinGW/lib/gcc/mingw32/4.9.2/include/c++/bits\stl_vector.h **** 	      _M_deallocate(__result, __n);
1234:C:/Program Files (x86)/CodeBlocks/MinGW/lib/gcc/mingw32/4.9.2/include/c++/bits\stl_vector.h **** 	      __throw_exception_again;
1235:C:/Program Files (x86)/CodeBlocks/MinGW/lib/gcc/mingw32/4.9.2/include/c++/bits\stl_vector.h **** 	    }
1236:C:/Program Files (x86)/CodeBlocks/MinGW/lib/gcc/mingw32/4.9.2/include/c++/bits\stl_vector.h **** 	}
GAS LISTING C:\Users\NJLLMR~1\AppData\Local\Temp\cce8JzPW.s 			page 46


1237:C:/Program Files (x86)/CodeBlocks/MinGW/lib/gcc/mingw32/4.9.2/include/c++/bits\stl_vector.h **** 
1238:C:/Program Files (x86)/CodeBlocks/MinGW/lib/gcc/mingw32/4.9.2/include/c++/bits\stl_vector.h **** 
1239:C:/Program Files (x86)/CodeBlocks/MinGW/lib/gcc/mingw32/4.9.2/include/c++/bits\stl_vector.h ****       // Internal constructor functions follow.
1240:C:/Program Files (x86)/CodeBlocks/MinGW/lib/gcc/mingw32/4.9.2/include/c++/bits\stl_vector.h **** 
1241:C:/Program Files (x86)/CodeBlocks/MinGW/lib/gcc/mingw32/4.9.2/include/c++/bits\stl_vector.h ****       // Called by the range constructor to implement [23.1.1]/9
1242:C:/Program Files (x86)/CodeBlocks/MinGW/lib/gcc/mingw32/4.9.2/include/c++/bits\stl_vector.h **** 
1243:C:/Program Files (x86)/CodeBlocks/MinGW/lib/gcc/mingw32/4.9.2/include/c++/bits\stl_vector.h ****       // _GLIBCXX_RESOLVE_LIB_DEFECTS
1244:C:/Program Files (x86)/CodeBlocks/MinGW/lib/gcc/mingw32/4.9.2/include/c++/bits\stl_vector.h ****       // 438. Ambiguity in the "do the right thing" clause
1245:C:/Program Files (x86)/CodeBlocks/MinGW/lib/gcc/mingw32/4.9.2/include/c++/bits\stl_vector.h ****       template<typename _Integer>
1246:C:/Program Files (x86)/CodeBlocks/MinGW/lib/gcc/mingw32/4.9.2/include/c++/bits\stl_vector.h ****         void
1247:C:/Program Files (x86)/CodeBlocks/MinGW/lib/gcc/mingw32/4.9.2/include/c++/bits\stl_vector.h ****         _M_initialize_dispatch(_Integer __n, _Integer __value, __true_type)
1248:C:/Program Files (x86)/CodeBlocks/MinGW/lib/gcc/mingw32/4.9.2/include/c++/bits\stl_vector.h ****         {
1249:C:/Program Files (x86)/CodeBlocks/MinGW/lib/gcc/mingw32/4.9.2/include/c++/bits\stl_vector.h **** 	  this->_M_impl._M_start = _M_allocate(static_cast<size_type>(__n));
1250:C:/Program Files (x86)/CodeBlocks/MinGW/lib/gcc/mingw32/4.9.2/include/c++/bits\stl_vector.h **** 	  this->_M_impl._M_end_of_storage =
1251:C:/Program Files (x86)/CodeBlocks/MinGW/lib/gcc/mingw32/4.9.2/include/c++/bits\stl_vector.h **** 	    this->_M_impl._M_start + static_cast<size_type>(__n);
1252:C:/Program Files (x86)/CodeBlocks/MinGW/lib/gcc/mingw32/4.9.2/include/c++/bits\stl_vector.h **** 	  _M_fill_initialize(static_cast<size_type>(__n), __value);
1253:C:/Program Files (x86)/CodeBlocks/MinGW/lib/gcc/mingw32/4.9.2/include/c++/bits\stl_vector.h **** 	}
1254:C:/Program Files (x86)/CodeBlocks/MinGW/lib/gcc/mingw32/4.9.2/include/c++/bits\stl_vector.h **** 
1255:C:/Program Files (x86)/CodeBlocks/MinGW/lib/gcc/mingw32/4.9.2/include/c++/bits\stl_vector.h ****       // Called by the range constructor to implement [23.1.1]/9
1256:C:/Program Files (x86)/CodeBlocks/MinGW/lib/gcc/mingw32/4.9.2/include/c++/bits\stl_vector.h ****       template<typename _InputIterator>
1257:C:/Program Files (x86)/CodeBlocks/MinGW/lib/gcc/mingw32/4.9.2/include/c++/bits\stl_vector.h ****         void
1258:C:/Program Files (x86)/CodeBlocks/MinGW/lib/gcc/mingw32/4.9.2/include/c++/bits\stl_vector.h ****         _M_initialize_dispatch(_InputIterator __first, _InputIterator __last,
1259:C:/Program Files (x86)/CodeBlocks/MinGW/lib/gcc/mingw32/4.9.2/include/c++/bits\stl_vector.h **** 			       __false_type)
1260:C:/Program Files (x86)/CodeBlocks/MinGW/lib/gcc/mingw32/4.9.2/include/c++/bits\stl_vector.h ****         {
1261:C:/Program Files (x86)/CodeBlocks/MinGW/lib/gcc/mingw32/4.9.2/include/c++/bits\stl_vector.h **** 	  typedef typename std::iterator_traits<_InputIterator>::
1262:C:/Program Files (x86)/CodeBlocks/MinGW/lib/gcc/mingw32/4.9.2/include/c++/bits\stl_vector.h **** 	    iterator_category _IterCategory;
1263:C:/Program Files (x86)/CodeBlocks/MinGW/lib/gcc/mingw32/4.9.2/include/c++/bits\stl_vector.h **** 	  _M_range_initialize(__first, __last, _IterCategory());
1264:C:/Program Files (x86)/CodeBlocks/MinGW/lib/gcc/mingw32/4.9.2/include/c++/bits\stl_vector.h **** 	}
1265:C:/Program Files (x86)/CodeBlocks/MinGW/lib/gcc/mingw32/4.9.2/include/c++/bits\stl_vector.h **** 
1266:C:/Program Files (x86)/CodeBlocks/MinGW/lib/gcc/mingw32/4.9.2/include/c++/bits\stl_vector.h ****       // Called by the second initialize_dispatch above
1267:C:/Program Files (x86)/CodeBlocks/MinGW/lib/gcc/mingw32/4.9.2/include/c++/bits\stl_vector.h ****       template<typename _InputIterator>
1268:C:/Program Files (x86)/CodeBlocks/MinGW/lib/gcc/mingw32/4.9.2/include/c++/bits\stl_vector.h ****         void
1269:C:/Program Files (x86)/CodeBlocks/MinGW/lib/gcc/mingw32/4.9.2/include/c++/bits\stl_vector.h ****         _M_range_initialize(_InputIterator __first,
1270:C:/Program Files (x86)/CodeBlocks/MinGW/lib/gcc/mingw32/4.9.2/include/c++/bits\stl_vector.h **** 			    _InputIterator __last, std::input_iterator_tag)
1271:C:/Program Files (x86)/CodeBlocks/MinGW/lib/gcc/mingw32/4.9.2/include/c++/bits\stl_vector.h ****         {
1272:C:/Program Files (x86)/CodeBlocks/MinGW/lib/gcc/mingw32/4.9.2/include/c++/bits\stl_vector.h **** 	  for (; __first != __last; ++__first)
1273:C:/Program Files (x86)/CodeBlocks/MinGW/lib/gcc/mingw32/4.9.2/include/c++/bits\stl_vector.h **** #if __cplusplus >= 201103L
1274:C:/Program Files (x86)/CodeBlocks/MinGW/lib/gcc/mingw32/4.9.2/include/c++/bits\stl_vector.h **** 	    emplace_back(*__first);
1275:C:/Program Files (x86)/CodeBlocks/MinGW/lib/gcc/mingw32/4.9.2/include/c++/bits\stl_vector.h **** #else
1276:C:/Program Files (x86)/CodeBlocks/MinGW/lib/gcc/mingw32/4.9.2/include/c++/bits\stl_vector.h **** 	    push_back(*__first);
1277:C:/Program Files (x86)/CodeBlocks/MinGW/lib/gcc/mingw32/4.9.2/include/c++/bits\stl_vector.h **** #endif
1278:C:/Program Files (x86)/CodeBlocks/MinGW/lib/gcc/mingw32/4.9.2/include/c++/bits\stl_vector.h **** 	}
1279:C:/Program Files (x86)/CodeBlocks/MinGW/lib/gcc/mingw32/4.9.2/include/c++/bits\stl_vector.h **** 
1280:C:/Program Files (x86)/CodeBlocks/MinGW/lib/gcc/mingw32/4.9.2/include/c++/bits\stl_vector.h ****       // Called by the second initialize_dispatch above
1281:C:/Program Files (x86)/CodeBlocks/MinGW/lib/gcc/mingw32/4.9.2/include/c++/bits\stl_vector.h ****       template<typename _ForwardIterator>
1282:C:/Program Files (x86)/CodeBlocks/MinGW/lib/gcc/mingw32/4.9.2/include/c++/bits\stl_vector.h ****         void
1283:C:/Program Files (x86)/CodeBlocks/MinGW/lib/gcc/mingw32/4.9.2/include/c++/bits\stl_vector.h ****         _M_range_initialize(_ForwardIterator __first,
1284:C:/Program Files (x86)/CodeBlocks/MinGW/lib/gcc/mingw32/4.9.2/include/c++/bits\stl_vector.h **** 			    _ForwardIterator __last, std::forward_iterator_tag)
1285:C:/Program Files (x86)/CodeBlocks/MinGW/lib/gcc/mingw32/4.9.2/include/c++/bits\stl_vector.h ****         {
1286:C:/Program Files (x86)/CodeBlocks/MinGW/lib/gcc/mingw32/4.9.2/include/c++/bits\stl_vector.h **** 	  const size_type __n = std::distance(__first, __last);
1287:C:/Program Files (x86)/CodeBlocks/MinGW/lib/gcc/mingw32/4.9.2/include/c++/bits\stl_vector.h **** 	  this->_M_impl._M_start = this->_M_allocate(__n);
1288:C:/Program Files (x86)/CodeBlocks/MinGW/lib/gcc/mingw32/4.9.2/include/c++/bits\stl_vector.h **** 	  this->_M_impl._M_end_of_storage = this->_M_impl._M_start + __n;
1289:C:/Program Files (x86)/CodeBlocks/MinGW/lib/gcc/mingw32/4.9.2/include/c++/bits\stl_vector.h **** 	  this->_M_impl._M_finish =
1290:C:/Program Files (x86)/CodeBlocks/MinGW/lib/gcc/mingw32/4.9.2/include/c++/bits\stl_vector.h **** 	    std::__uninitialized_copy_a(__first, __last,
1291:C:/Program Files (x86)/CodeBlocks/MinGW/lib/gcc/mingw32/4.9.2/include/c++/bits\stl_vector.h **** 					this->_M_impl._M_start,
1292:C:/Program Files (x86)/CodeBlocks/MinGW/lib/gcc/mingw32/4.9.2/include/c++/bits\stl_vector.h **** 					_M_get_Tp_allocator());
1293:C:/Program Files (x86)/CodeBlocks/MinGW/lib/gcc/mingw32/4.9.2/include/c++/bits\stl_vector.h **** 	}
GAS LISTING C:\Users\NJLLMR~1\AppData\Local\Temp\cce8JzPW.s 			page 47


1294:C:/Program Files (x86)/CodeBlocks/MinGW/lib/gcc/mingw32/4.9.2/include/c++/bits\stl_vector.h **** 
1295:C:/Program Files (x86)/CodeBlocks/MinGW/lib/gcc/mingw32/4.9.2/include/c++/bits\stl_vector.h ****       // Called by the first initialize_dispatch above and by the
1296:C:/Program Files (x86)/CodeBlocks/MinGW/lib/gcc/mingw32/4.9.2/include/c++/bits\stl_vector.h ****       // vector(n,value,a) constructor.
1297:C:/Program Files (x86)/CodeBlocks/MinGW/lib/gcc/mingw32/4.9.2/include/c++/bits\stl_vector.h ****       void
1298:C:/Program Files (x86)/CodeBlocks/MinGW/lib/gcc/mingw32/4.9.2/include/c++/bits\stl_vector.h ****       _M_fill_initialize(size_type __n, const value_type& __value)
1299:C:/Program Files (x86)/CodeBlocks/MinGW/lib/gcc/mingw32/4.9.2/include/c++/bits\stl_vector.h ****       {
1300:C:/Program Files (x86)/CodeBlocks/MinGW/lib/gcc/mingw32/4.9.2/include/c++/bits\stl_vector.h **** 	std::__uninitialized_fill_n_a(this->_M_impl._M_start, __n, __value, 
1301:C:/Program Files (x86)/CodeBlocks/MinGW/lib/gcc/mingw32/4.9.2/include/c++/bits\stl_vector.h **** 				      _M_get_Tp_allocator());
1302:C:/Program Files (x86)/CodeBlocks/MinGW/lib/gcc/mingw32/4.9.2/include/c++/bits\stl_vector.h **** 	this->_M_impl._M_finish = this->_M_impl._M_end_of_storage;
1303:C:/Program Files (x86)/CodeBlocks/MinGW/lib/gcc/mingw32/4.9.2/include/c++/bits\stl_vector.h ****       }
1304:C:/Program Files (x86)/CodeBlocks/MinGW/lib/gcc/mingw32/4.9.2/include/c++/bits\stl_vector.h **** 
1305:C:/Program Files (x86)/CodeBlocks/MinGW/lib/gcc/mingw32/4.9.2/include/c++/bits\stl_vector.h **** #if __cplusplus >= 201103L
1306:C:/Program Files (x86)/CodeBlocks/MinGW/lib/gcc/mingw32/4.9.2/include/c++/bits\stl_vector.h ****       // Called by the vector(n) constructor.
1307:C:/Program Files (x86)/CodeBlocks/MinGW/lib/gcc/mingw32/4.9.2/include/c++/bits\stl_vector.h ****       void
1308:C:/Program Files (x86)/CodeBlocks/MinGW/lib/gcc/mingw32/4.9.2/include/c++/bits\stl_vector.h ****       _M_default_initialize(size_type __n)
1309:C:/Program Files (x86)/CodeBlocks/MinGW/lib/gcc/mingw32/4.9.2/include/c++/bits\stl_vector.h ****       {
1310:C:/Program Files (x86)/CodeBlocks/MinGW/lib/gcc/mingw32/4.9.2/include/c++/bits\stl_vector.h **** 	std::__uninitialized_default_n_a(this->_M_impl._M_start, __n, 
1311:C:/Program Files (x86)/CodeBlocks/MinGW/lib/gcc/mingw32/4.9.2/include/c++/bits\stl_vector.h **** 					 _M_get_Tp_allocator());
1312:C:/Program Files (x86)/CodeBlocks/MinGW/lib/gcc/mingw32/4.9.2/include/c++/bits\stl_vector.h **** 	this->_M_impl._M_finish = this->_M_impl._M_end_of_storage;
1313:C:/Program Files (x86)/CodeBlocks/MinGW/lib/gcc/mingw32/4.9.2/include/c++/bits\stl_vector.h ****       }
1314:C:/Program Files (x86)/CodeBlocks/MinGW/lib/gcc/mingw32/4.9.2/include/c++/bits\stl_vector.h **** #endif
1315:C:/Program Files (x86)/CodeBlocks/MinGW/lib/gcc/mingw32/4.9.2/include/c++/bits\stl_vector.h **** 
1316:C:/Program Files (x86)/CodeBlocks/MinGW/lib/gcc/mingw32/4.9.2/include/c++/bits\stl_vector.h ****       // Internal assign functions follow.  The *_aux functions do the actual
1317:C:/Program Files (x86)/CodeBlocks/MinGW/lib/gcc/mingw32/4.9.2/include/c++/bits\stl_vector.h ****       // assignment work for the range versions.
1318:C:/Program Files (x86)/CodeBlocks/MinGW/lib/gcc/mingw32/4.9.2/include/c++/bits\stl_vector.h **** 
1319:C:/Program Files (x86)/CodeBlocks/MinGW/lib/gcc/mingw32/4.9.2/include/c++/bits\stl_vector.h ****       // Called by the range assign to implement [23.1.1]/9
1320:C:/Program Files (x86)/CodeBlocks/MinGW/lib/gcc/mingw32/4.9.2/include/c++/bits\stl_vector.h **** 
1321:C:/Program Files (x86)/CodeBlocks/MinGW/lib/gcc/mingw32/4.9.2/include/c++/bits\stl_vector.h ****       // _GLIBCXX_RESOLVE_LIB_DEFECTS
1322:C:/Program Files (x86)/CodeBlocks/MinGW/lib/gcc/mingw32/4.9.2/include/c++/bits\stl_vector.h ****       // 438. Ambiguity in the "do the right thing" clause
1323:C:/Program Files (x86)/CodeBlocks/MinGW/lib/gcc/mingw32/4.9.2/include/c++/bits\stl_vector.h ****       template<typename _Integer>
1324:C:/Program Files (x86)/CodeBlocks/MinGW/lib/gcc/mingw32/4.9.2/include/c++/bits\stl_vector.h ****         void
1325:C:/Program Files (x86)/CodeBlocks/MinGW/lib/gcc/mingw32/4.9.2/include/c++/bits\stl_vector.h ****         _M_assign_dispatch(_Integer __n, _Integer __val, __true_type)
1326:C:/Program Files (x86)/CodeBlocks/MinGW/lib/gcc/mingw32/4.9.2/include/c++/bits\stl_vector.h ****         { _M_fill_assign(__n, __val); }
1327:C:/Program Files (x86)/CodeBlocks/MinGW/lib/gcc/mingw32/4.9.2/include/c++/bits\stl_vector.h **** 
1328:C:/Program Files (x86)/CodeBlocks/MinGW/lib/gcc/mingw32/4.9.2/include/c++/bits\stl_vector.h ****       // Called by the range assign to implement [23.1.1]/9
1329:C:/Program Files (x86)/CodeBlocks/MinGW/lib/gcc/mingw32/4.9.2/include/c++/bits\stl_vector.h ****       template<typename _InputIterator>
1330:C:/Program Files (x86)/CodeBlocks/MinGW/lib/gcc/mingw32/4.9.2/include/c++/bits\stl_vector.h ****         void
1331:C:/Program Files (x86)/CodeBlocks/MinGW/lib/gcc/mingw32/4.9.2/include/c++/bits\stl_vector.h ****         _M_assign_dispatch(_InputIterator __first, _InputIterator __last,
1332:C:/Program Files (x86)/CodeBlocks/MinGW/lib/gcc/mingw32/4.9.2/include/c++/bits\stl_vector.h **** 			   __false_type)
1333:C:/Program Files (x86)/CodeBlocks/MinGW/lib/gcc/mingw32/4.9.2/include/c++/bits\stl_vector.h ****         {
1334:C:/Program Files (x86)/CodeBlocks/MinGW/lib/gcc/mingw32/4.9.2/include/c++/bits\stl_vector.h **** 	  typedef typename std::iterator_traits<_InputIterator>::
1335:C:/Program Files (x86)/CodeBlocks/MinGW/lib/gcc/mingw32/4.9.2/include/c++/bits\stl_vector.h **** 	    iterator_category _IterCategory;
1336:C:/Program Files (x86)/CodeBlocks/MinGW/lib/gcc/mingw32/4.9.2/include/c++/bits\stl_vector.h **** 	  _M_assign_aux(__first, __last, _IterCategory());
1337:C:/Program Files (x86)/CodeBlocks/MinGW/lib/gcc/mingw32/4.9.2/include/c++/bits\stl_vector.h **** 	}
1338:C:/Program Files (x86)/CodeBlocks/MinGW/lib/gcc/mingw32/4.9.2/include/c++/bits\stl_vector.h **** 
1339:C:/Program Files (x86)/CodeBlocks/MinGW/lib/gcc/mingw32/4.9.2/include/c++/bits\stl_vector.h ****       // Called by the second assign_dispatch above
1340:C:/Program Files (x86)/CodeBlocks/MinGW/lib/gcc/mingw32/4.9.2/include/c++/bits\stl_vector.h ****       template<typename _InputIterator>
1341:C:/Program Files (x86)/CodeBlocks/MinGW/lib/gcc/mingw32/4.9.2/include/c++/bits\stl_vector.h ****         void
1342:C:/Program Files (x86)/CodeBlocks/MinGW/lib/gcc/mingw32/4.9.2/include/c++/bits\stl_vector.h ****         _M_assign_aux(_InputIterator __first, _InputIterator __last,
1343:C:/Program Files (x86)/CodeBlocks/MinGW/lib/gcc/mingw32/4.9.2/include/c++/bits\stl_vector.h **** 		      std::input_iterator_tag);
1344:C:/Program Files (x86)/CodeBlocks/MinGW/lib/gcc/mingw32/4.9.2/include/c++/bits\stl_vector.h **** 
1345:C:/Program Files (x86)/CodeBlocks/MinGW/lib/gcc/mingw32/4.9.2/include/c++/bits\stl_vector.h ****       // Called by the second assign_dispatch above
1346:C:/Program Files (x86)/CodeBlocks/MinGW/lib/gcc/mingw32/4.9.2/include/c++/bits\stl_vector.h ****       template<typename _ForwardIterator>
1347:C:/Program Files (x86)/CodeBlocks/MinGW/lib/gcc/mingw32/4.9.2/include/c++/bits\stl_vector.h ****         void
1348:C:/Program Files (x86)/CodeBlocks/MinGW/lib/gcc/mingw32/4.9.2/include/c++/bits\stl_vector.h ****         _M_assign_aux(_ForwardIterator __first, _ForwardIterator __last,
1349:C:/Program Files (x86)/CodeBlocks/MinGW/lib/gcc/mingw32/4.9.2/include/c++/bits\stl_vector.h **** 		      std::forward_iterator_tag);
1350:C:/Program Files (x86)/CodeBlocks/MinGW/lib/gcc/mingw32/4.9.2/include/c++/bits\stl_vector.h **** 
GAS LISTING C:\Users\NJLLMR~1\AppData\Local\Temp\cce8JzPW.s 			page 48


1351:C:/Program Files (x86)/CodeBlocks/MinGW/lib/gcc/mingw32/4.9.2/include/c++/bits\stl_vector.h ****       // Called by assign(n,t), and the range assign when it turns out
1352:C:/Program Files (x86)/CodeBlocks/MinGW/lib/gcc/mingw32/4.9.2/include/c++/bits\stl_vector.h ****       // to be the same thing.
1353:C:/Program Files (x86)/CodeBlocks/MinGW/lib/gcc/mingw32/4.9.2/include/c++/bits\stl_vector.h ****       void
1354:C:/Program Files (x86)/CodeBlocks/MinGW/lib/gcc/mingw32/4.9.2/include/c++/bits\stl_vector.h ****       _M_fill_assign(size_type __n, const value_type& __val);
1355:C:/Program Files (x86)/CodeBlocks/MinGW/lib/gcc/mingw32/4.9.2/include/c++/bits\stl_vector.h **** 
1356:C:/Program Files (x86)/CodeBlocks/MinGW/lib/gcc/mingw32/4.9.2/include/c++/bits\stl_vector.h **** 
1357:C:/Program Files (x86)/CodeBlocks/MinGW/lib/gcc/mingw32/4.9.2/include/c++/bits\stl_vector.h ****       // Internal insert functions follow.
1358:C:/Program Files (x86)/CodeBlocks/MinGW/lib/gcc/mingw32/4.9.2/include/c++/bits\stl_vector.h **** 
1359:C:/Program Files (x86)/CodeBlocks/MinGW/lib/gcc/mingw32/4.9.2/include/c++/bits\stl_vector.h ****       // Called by the range insert to implement [23.1.1]/9
1360:C:/Program Files (x86)/CodeBlocks/MinGW/lib/gcc/mingw32/4.9.2/include/c++/bits\stl_vector.h **** 
1361:C:/Program Files (x86)/CodeBlocks/MinGW/lib/gcc/mingw32/4.9.2/include/c++/bits\stl_vector.h ****       // _GLIBCXX_RESOLVE_LIB_DEFECTS
1362:C:/Program Files (x86)/CodeBlocks/MinGW/lib/gcc/mingw32/4.9.2/include/c++/bits\stl_vector.h ****       // 438. Ambiguity in the "do the right thing" clause
1363:C:/Program Files (x86)/CodeBlocks/MinGW/lib/gcc/mingw32/4.9.2/include/c++/bits\stl_vector.h ****       template<typename _Integer>
1364:C:/Program Files (x86)/CodeBlocks/MinGW/lib/gcc/mingw32/4.9.2/include/c++/bits\stl_vector.h ****         void
1365:C:/Program Files (x86)/CodeBlocks/MinGW/lib/gcc/mingw32/4.9.2/include/c++/bits\stl_vector.h ****         _M_insert_dispatch(iterator __pos, _Integer __n, _Integer __val,
1366:C:/Program Files (x86)/CodeBlocks/MinGW/lib/gcc/mingw32/4.9.2/include/c++/bits\stl_vector.h **** 			   __true_type)
1367:C:/Program Files (x86)/CodeBlocks/MinGW/lib/gcc/mingw32/4.9.2/include/c++/bits\stl_vector.h ****         { _M_fill_insert(__pos, __n, __val); }
1368:C:/Program Files (x86)/CodeBlocks/MinGW/lib/gcc/mingw32/4.9.2/include/c++/bits\stl_vector.h **** 
1369:C:/Program Files (x86)/CodeBlocks/MinGW/lib/gcc/mingw32/4.9.2/include/c++/bits\stl_vector.h ****       // Called by the range insert to implement [23.1.1]/9
1370:C:/Program Files (x86)/CodeBlocks/MinGW/lib/gcc/mingw32/4.9.2/include/c++/bits\stl_vector.h ****       template<typename _InputIterator>
1371:C:/Program Files (x86)/CodeBlocks/MinGW/lib/gcc/mingw32/4.9.2/include/c++/bits\stl_vector.h ****         void
1372:C:/Program Files (x86)/CodeBlocks/MinGW/lib/gcc/mingw32/4.9.2/include/c++/bits\stl_vector.h ****         _M_insert_dispatch(iterator __pos, _InputIterator __first,
1373:C:/Program Files (x86)/CodeBlocks/MinGW/lib/gcc/mingw32/4.9.2/include/c++/bits\stl_vector.h **** 			   _InputIterator __last, __false_type)
1374:C:/Program Files (x86)/CodeBlocks/MinGW/lib/gcc/mingw32/4.9.2/include/c++/bits\stl_vector.h ****         {
1375:C:/Program Files (x86)/CodeBlocks/MinGW/lib/gcc/mingw32/4.9.2/include/c++/bits\stl_vector.h **** 	  typedef typename std::iterator_traits<_InputIterator>::
1376:C:/Program Files (x86)/CodeBlocks/MinGW/lib/gcc/mingw32/4.9.2/include/c++/bits\stl_vector.h **** 	    iterator_category _IterCategory;
1377:C:/Program Files (x86)/CodeBlocks/MinGW/lib/gcc/mingw32/4.9.2/include/c++/bits\stl_vector.h **** 	  _M_range_insert(__pos, __first, __last, _IterCategory());
1378:C:/Program Files (x86)/CodeBlocks/MinGW/lib/gcc/mingw32/4.9.2/include/c++/bits\stl_vector.h **** 	}
1379:C:/Program Files (x86)/CodeBlocks/MinGW/lib/gcc/mingw32/4.9.2/include/c++/bits\stl_vector.h **** 
1380:C:/Program Files (x86)/CodeBlocks/MinGW/lib/gcc/mingw32/4.9.2/include/c++/bits\stl_vector.h ****       // Called by the second insert_dispatch above
1381:C:/Program Files (x86)/CodeBlocks/MinGW/lib/gcc/mingw32/4.9.2/include/c++/bits\stl_vector.h ****       template<typename _InputIterator>
1382:C:/Program Files (x86)/CodeBlocks/MinGW/lib/gcc/mingw32/4.9.2/include/c++/bits\stl_vector.h ****         void
1383:C:/Program Files (x86)/CodeBlocks/MinGW/lib/gcc/mingw32/4.9.2/include/c++/bits\stl_vector.h ****         _M_range_insert(iterator __pos, _InputIterator __first,
1384:C:/Program Files (x86)/CodeBlocks/MinGW/lib/gcc/mingw32/4.9.2/include/c++/bits\stl_vector.h **** 			_InputIterator __last, std::input_iterator_tag);
1385:C:/Program Files (x86)/CodeBlocks/MinGW/lib/gcc/mingw32/4.9.2/include/c++/bits\stl_vector.h **** 
1386:C:/Program Files (x86)/CodeBlocks/MinGW/lib/gcc/mingw32/4.9.2/include/c++/bits\stl_vector.h ****       // Called by the second insert_dispatch above
1387:C:/Program Files (x86)/CodeBlocks/MinGW/lib/gcc/mingw32/4.9.2/include/c++/bits\stl_vector.h ****       template<typename _ForwardIterator>
1388:C:/Program Files (x86)/CodeBlocks/MinGW/lib/gcc/mingw32/4.9.2/include/c++/bits\stl_vector.h ****         void
1389:C:/Program Files (x86)/CodeBlocks/MinGW/lib/gcc/mingw32/4.9.2/include/c++/bits\stl_vector.h ****         _M_range_insert(iterator __pos, _ForwardIterator __first,
1390:C:/Program Files (x86)/CodeBlocks/MinGW/lib/gcc/mingw32/4.9.2/include/c++/bits\stl_vector.h **** 			_ForwardIterator __last, std::forward_iterator_tag);
1391:C:/Program Files (x86)/CodeBlocks/MinGW/lib/gcc/mingw32/4.9.2/include/c++/bits\stl_vector.h **** 
1392:C:/Program Files (x86)/CodeBlocks/MinGW/lib/gcc/mingw32/4.9.2/include/c++/bits\stl_vector.h ****       // Called by insert(p,n,x), and the range insert when it turns out to be
1393:C:/Program Files (x86)/CodeBlocks/MinGW/lib/gcc/mingw32/4.9.2/include/c++/bits\stl_vector.h ****       // the same thing.
1394:C:/Program Files (x86)/CodeBlocks/MinGW/lib/gcc/mingw32/4.9.2/include/c++/bits\stl_vector.h ****       void
1395:C:/Program Files (x86)/CodeBlocks/MinGW/lib/gcc/mingw32/4.9.2/include/c++/bits\stl_vector.h ****       _M_fill_insert(iterator __pos, size_type __n, const value_type& __x);
1396:C:/Program Files (x86)/CodeBlocks/MinGW/lib/gcc/mingw32/4.9.2/include/c++/bits\stl_vector.h **** 
1397:C:/Program Files (x86)/CodeBlocks/MinGW/lib/gcc/mingw32/4.9.2/include/c++/bits\stl_vector.h **** #if __cplusplus >= 201103L
1398:C:/Program Files (x86)/CodeBlocks/MinGW/lib/gcc/mingw32/4.9.2/include/c++/bits\stl_vector.h ****       // Called by resize(n).
1399:C:/Program Files (x86)/CodeBlocks/MinGW/lib/gcc/mingw32/4.9.2/include/c++/bits\stl_vector.h ****       void
1400:C:/Program Files (x86)/CodeBlocks/MinGW/lib/gcc/mingw32/4.9.2/include/c++/bits\stl_vector.h ****       _M_default_append(size_type __n);
1401:C:/Program Files (x86)/CodeBlocks/MinGW/lib/gcc/mingw32/4.9.2/include/c++/bits\stl_vector.h **** 
1402:C:/Program Files (x86)/CodeBlocks/MinGW/lib/gcc/mingw32/4.9.2/include/c++/bits\stl_vector.h ****       bool
1403:C:/Program Files (x86)/CodeBlocks/MinGW/lib/gcc/mingw32/4.9.2/include/c++/bits\stl_vector.h ****       _M_shrink_to_fit();
1404:C:/Program Files (x86)/CodeBlocks/MinGW/lib/gcc/mingw32/4.9.2/include/c++/bits\stl_vector.h **** #endif
1405:C:/Program Files (x86)/CodeBlocks/MinGW/lib/gcc/mingw32/4.9.2/include/c++/bits\stl_vector.h **** 
1406:C:/Program Files (x86)/CodeBlocks/MinGW/lib/gcc/mingw32/4.9.2/include/c++/bits\stl_vector.h ****       // Called by insert(p,x)
1407:C:/Program Files (x86)/CodeBlocks/MinGW/lib/gcc/mingw32/4.9.2/include/c++/bits\stl_vector.h **** #if __cplusplus < 201103L
GAS LISTING C:\Users\NJLLMR~1\AppData\Local\Temp\cce8JzPW.s 			page 49


1408:C:/Program Files (x86)/CodeBlocks/MinGW/lib/gcc/mingw32/4.9.2/include/c++/bits\stl_vector.h ****       void
1409:C:/Program Files (x86)/CodeBlocks/MinGW/lib/gcc/mingw32/4.9.2/include/c++/bits\stl_vector.h ****       _M_insert_aux(iterator __position, const value_type& __x);
1410:C:/Program Files (x86)/CodeBlocks/MinGW/lib/gcc/mingw32/4.9.2/include/c++/bits\stl_vector.h **** #else
1411:C:/Program Files (x86)/CodeBlocks/MinGW/lib/gcc/mingw32/4.9.2/include/c++/bits\stl_vector.h ****       template<typename... _Args>
1412:C:/Program Files (x86)/CodeBlocks/MinGW/lib/gcc/mingw32/4.9.2/include/c++/bits\stl_vector.h ****         void
1413:C:/Program Files (x86)/CodeBlocks/MinGW/lib/gcc/mingw32/4.9.2/include/c++/bits\stl_vector.h ****         _M_insert_aux(iterator __position, _Args&&... __args);
1414:C:/Program Files (x86)/CodeBlocks/MinGW/lib/gcc/mingw32/4.9.2/include/c++/bits\stl_vector.h **** 
1415:C:/Program Files (x86)/CodeBlocks/MinGW/lib/gcc/mingw32/4.9.2/include/c++/bits\stl_vector.h ****       template<typename... _Args>
1416:C:/Program Files (x86)/CodeBlocks/MinGW/lib/gcc/mingw32/4.9.2/include/c++/bits\stl_vector.h ****         void
1417:C:/Program Files (x86)/CodeBlocks/MinGW/lib/gcc/mingw32/4.9.2/include/c++/bits\stl_vector.h ****         _M_emplace_back_aux(_Args&&... __args);
1418:C:/Program Files (x86)/CodeBlocks/MinGW/lib/gcc/mingw32/4.9.2/include/c++/bits\stl_vector.h **** #endif
1419:C:/Program Files (x86)/CodeBlocks/MinGW/lib/gcc/mingw32/4.9.2/include/c++/bits\stl_vector.h **** 
1420:C:/Program Files (x86)/CodeBlocks/MinGW/lib/gcc/mingw32/4.9.2/include/c++/bits\stl_vector.h ****       // Called by the latter.
1421:C:/Program Files (x86)/CodeBlocks/MinGW/lib/gcc/mingw32/4.9.2/include/c++/bits\stl_vector.h ****       size_type
1422:C:/Program Files (x86)/CodeBlocks/MinGW/lib/gcc/mingw32/4.9.2/include/c++/bits\stl_vector.h ****       _M_check_len(size_type __n, const char* __s) const
1423:C:/Program Files (x86)/CodeBlocks/MinGW/lib/gcc/mingw32/4.9.2/include/c++/bits\stl_vector.h ****       {
1424:C:/Program Files (x86)/CodeBlocks/MinGW/lib/gcc/mingw32/4.9.2/include/c++/bits\stl_vector.h **** 	if (max_size() - size() < __n)
1425:C:/Program Files (x86)/CodeBlocks/MinGW/lib/gcc/mingw32/4.9.2/include/c++/bits\stl_vector.h **** 	  __throw_length_error(__N(__s));
1426:C:/Program Files (x86)/CodeBlocks/MinGW/lib/gcc/mingw32/4.9.2/include/c++/bits\stl_vector.h **** 
1427:C:/Program Files (x86)/CodeBlocks/MinGW/lib/gcc/mingw32/4.9.2/include/c++/bits\stl_vector.h **** 	const size_type __len = size() + std::max(size(), __n);
1428:C:/Program Files (x86)/CodeBlocks/MinGW/lib/gcc/mingw32/4.9.2/include/c++/bits\stl_vector.h **** 	return (__len < size() || __len > max_size()) ? max_size() : __len;
1429:C:/Program Files (x86)/CodeBlocks/MinGW/lib/gcc/mingw32/4.9.2/include/c++/bits\stl_vector.h ****       }
1430:C:/Program Files (x86)/CodeBlocks/MinGW/lib/gcc/mingw32/4.9.2/include/c++/bits\stl_vector.h **** 
1431:C:/Program Files (x86)/CodeBlocks/MinGW/lib/gcc/mingw32/4.9.2/include/c++/bits\stl_vector.h ****       // Internal erase functions follow.
1432:C:/Program Files (x86)/CodeBlocks/MinGW/lib/gcc/mingw32/4.9.2/include/c++/bits\stl_vector.h **** 
1433:C:/Program Files (x86)/CodeBlocks/MinGW/lib/gcc/mingw32/4.9.2/include/c++/bits\stl_vector.h ****       // Called by erase(q1,q2), clear(), resize(), _M_fill_assign,
1434:C:/Program Files (x86)/CodeBlocks/MinGW/lib/gcc/mingw32/4.9.2/include/c++/bits\stl_vector.h ****       // _M_assign_aux.
1435:C:/Program Files (x86)/CodeBlocks/MinGW/lib/gcc/mingw32/4.9.2/include/c++/bits\stl_vector.h ****       void
1436:C:/Program Files (x86)/CodeBlocks/MinGW/lib/gcc/mingw32/4.9.2/include/c++/bits\stl_vector.h ****       _M_erase_at_end(pointer __pos) _GLIBCXX_NOEXCEPT
 1027              		.loc 2 1436 0
 1028              		.cfi_startproc
 1029 0000 55       		pushl	%ebp
 1030              		.cfi_def_cfa_offset 8
 1031              		.cfi_offset 5, -8
 1032 0001 89E5     		movl	%esp, %ebp
 1033              		.cfi_def_cfa_register 5
 1034 0003 83EC28   		subl	$40, %esp
 1035 0006 894DF4   		movl	%ecx, -12(%ebp)
1437:C:/Program Files (x86)/CodeBlocks/MinGW/lib/gcc/mingw32/4.9.2/include/c++/bits\stl_vector.h ****       {
1438:C:/Program Files (x86)/CodeBlocks/MinGW/lib/gcc/mingw32/4.9.2/include/c++/bits\stl_vector.h **** 	std::_Destroy(__pos, this->_M_impl._M_finish, _M_get_Tp_allocator());
 1036              		.loc 2 1438 0
 1037 0009 8B45F4   		movl	-12(%ebp), %eax
 1038 000c 89C1     		movl	%eax, %ecx
 1039 000e E8000000 		call	__ZNSt12_Vector_baseI8ToppingsSaIS0_EE19_M_get_Tp_allocatorEv
 1039      00
 1040 0013 89C2     		movl	%eax, %edx
 1041 0015 8B45F4   		movl	-12(%ebp), %eax
 1042 0018 8B4004   		movl	4(%eax), %eax
 1043 001b 89542408 		movl	%edx, 8(%esp)
 1044 001f 89442404 		movl	%eax, 4(%esp)
 1045 0023 8B4508   		movl	8(%ebp), %eax
 1046 0026 890424   		movl	%eax, (%esp)
 1047 0029 E8000000 		call	__ZSt8_DestroyIP8ToppingsS0_EvT_S2_RSaIT0_E
 1047      00
1439:C:/Program Files (x86)/CodeBlocks/MinGW/lib/gcc/mingw32/4.9.2/include/c++/bits\stl_vector.h **** 	this->_M_impl._M_finish = __pos;
 1048              		.loc 2 1439 0
 1049 002e 8B45F4   		movl	-12(%ebp), %eax
GAS LISTING C:\Users\NJLLMR~1\AppData\Local\Temp\cce8JzPW.s 			page 50


 1050 0031 8B5508   		movl	8(%ebp), %edx
 1051 0034 895004   		movl	%edx, 4(%eax)
1440:C:/Program Files (x86)/CodeBlocks/MinGW/lib/gcc/mingw32/4.9.2/include/c++/bits\stl_vector.h ****       }
 1052              		.loc 2 1440 0
 1053 0037 C9       		leave
 1054              		.cfi_restore 5
 1055              		.cfi_def_cfa 4, 4
 1056 0038 C20400   		ret	$4
 1057              		.cfi_endproc
 1058              	LFE1339:
 1059 003b 90       		.section	.text$_ZNSt12_Vector_baseI8ToppingsSaIS0_EE12_Vector_implC1Ev,"x"
 1060              		.linkonce discard
 1061              		.align 2
 1062              		.globl	__ZNSt12_Vector_baseI8ToppingsSaIS0_EE12_Vector_implC1Ev
 1064              	__ZNSt12_Vector_baseI8ToppingsSaIS0_EE12_Vector_implC1Ev:
 1065              	LFB1353:
  86:C:/Program Files (x86)/CodeBlocks/MinGW/lib/gcc/mingw32/4.9.2/include/c++/bits\stl_vector.h **** 	: _Tp_alloc_type(), _M_start(0), _M_finish(0), _M_end_of_storage(0)
 1066              		.loc 2 86 0
 1067              		.cfi_startproc
 1068 0000 55       		pushl	%ebp
 1069              		.cfi_def_cfa_offset 8
 1070              		.cfi_offset 5, -8
 1071 0001 89E5     		movl	%esp, %ebp
 1072              		.cfi_def_cfa_register 5
 1073 0003 83EC18   		subl	$24, %esp
 1074 0006 894DF4   		movl	%ecx, -12(%ebp)
 1075              	LBB9:
  87:C:/Program Files (x86)/CodeBlocks/MinGW/lib/gcc/mingw32/4.9.2/include/c++/bits\stl_vector.h **** 	{ }
 1076              		.loc 2 87 0
 1077 0009 8B45F4   		movl	-12(%ebp), %eax
 1078 000c 89C1     		movl	%eax, %ecx
 1079 000e E8000000 		call	__ZNSaI8ToppingsEC2Ev
 1079      00
 1080 0013 8B45F4   		movl	-12(%ebp), %eax
 1081 0016 C7000000 		movl	$0, (%eax)
 1081      0000
 1082 001c 8B45F4   		movl	-12(%ebp), %eax
 1083 001f C7400400 		movl	$0, 4(%eax)
 1083      000000
 1084 0026 8B45F4   		movl	-12(%ebp), %eax
 1085 0029 C7400800 		movl	$0, 8(%eax)
 1085      000000
 1086              	LBE9:
  88:C:/Program Files (x86)/CodeBlocks/MinGW/lib/gcc/mingw32/4.9.2/include/c++/bits\stl_vector.h **** 
 1087              		.loc 2 88 0
 1088 0030 C9       		leave
 1089              		.cfi_restore 5
 1090              		.cfi_def_cfa 4, 4
 1091 0031 C3       		ret
 1092              		.cfi_endproc
 1093              	LFE1353:
 1094 0032 9090     		.section	.text$_ZNSaI8ToppingsED2Ev,"x"
 1095              		.linkonce discard
 1096              		.align 2
 1097              		.globl	__ZNSaI8ToppingsED2Ev
 1099              	__ZNSaI8ToppingsED2Ev:
 1100              	LFB1355:
GAS LISTING C:\Users\NJLLMR~1\AppData\Local\Temp\cce8JzPW.s 			page 51


 1101              		.file 4 "C:/Program Files (x86)/CodeBlocks/MinGW/lib/gcc/mingw32/4.9.2/include/c++/bits/allocator.
   1:C:/Program Files (x86)/CodeBlocks/MinGW/lib/gcc/mingw32/4.9.2/include/c++/bits\allocator.h **** // Allocators -*- C++ -*-
   2:C:/Program Files (x86)/CodeBlocks/MinGW/lib/gcc/mingw32/4.9.2/include/c++/bits\allocator.h **** 
   3:C:/Program Files (x86)/CodeBlocks/MinGW/lib/gcc/mingw32/4.9.2/include/c++/bits\allocator.h **** // Copyright (C) 2001-2014 Free Software Foundation, Inc.
   4:C:/Program Files (x86)/CodeBlocks/MinGW/lib/gcc/mingw32/4.9.2/include/c++/bits\allocator.h **** //
   5:C:/Program Files (x86)/CodeBlocks/MinGW/lib/gcc/mingw32/4.9.2/include/c++/bits\allocator.h **** // This file is part of the GNU ISO C++ Library.  This library is free
   6:C:/Program Files (x86)/CodeBlocks/MinGW/lib/gcc/mingw32/4.9.2/include/c++/bits\allocator.h **** // software; you can redistribute it and/or modify it under the
   7:C:/Program Files (x86)/CodeBlocks/MinGW/lib/gcc/mingw32/4.9.2/include/c++/bits\allocator.h **** // terms of the GNU General Public License as published by the
   8:C:/Program Files (x86)/CodeBlocks/MinGW/lib/gcc/mingw32/4.9.2/include/c++/bits\allocator.h **** // Free Software Foundation; either version 3, or (at your option)
   9:C:/Program Files (x86)/CodeBlocks/MinGW/lib/gcc/mingw32/4.9.2/include/c++/bits\allocator.h **** // any later version.
  10:C:/Program Files (x86)/CodeBlocks/MinGW/lib/gcc/mingw32/4.9.2/include/c++/bits\allocator.h **** 
  11:C:/Program Files (x86)/CodeBlocks/MinGW/lib/gcc/mingw32/4.9.2/include/c++/bits\allocator.h **** // This library is distributed in the hope that it will be useful,
  12:C:/Program Files (x86)/CodeBlocks/MinGW/lib/gcc/mingw32/4.9.2/include/c++/bits\allocator.h **** // but WITHOUT ANY WARRANTY; without even the implied warranty of
  13:C:/Program Files (x86)/CodeBlocks/MinGW/lib/gcc/mingw32/4.9.2/include/c++/bits\allocator.h **** // MERCHANTABILITY or FITNESS FOR A PARTICULAR PURPOSE.  See the
  14:C:/Program Files (x86)/CodeBlocks/MinGW/lib/gcc/mingw32/4.9.2/include/c++/bits\allocator.h **** // GNU General Public License for more details.
  15:C:/Program Files (x86)/CodeBlocks/MinGW/lib/gcc/mingw32/4.9.2/include/c++/bits\allocator.h **** 
  16:C:/Program Files (x86)/CodeBlocks/MinGW/lib/gcc/mingw32/4.9.2/include/c++/bits\allocator.h **** // Under Section 7 of GPL version 3, you are granted additional
  17:C:/Program Files (x86)/CodeBlocks/MinGW/lib/gcc/mingw32/4.9.2/include/c++/bits\allocator.h **** // permissions described in the GCC Runtime Library Exception, version
  18:C:/Program Files (x86)/CodeBlocks/MinGW/lib/gcc/mingw32/4.9.2/include/c++/bits\allocator.h **** // 3.1, as published by the Free Software Foundation.
  19:C:/Program Files (x86)/CodeBlocks/MinGW/lib/gcc/mingw32/4.9.2/include/c++/bits\allocator.h **** 
  20:C:/Program Files (x86)/CodeBlocks/MinGW/lib/gcc/mingw32/4.9.2/include/c++/bits\allocator.h **** // You should have received a copy of the GNU General Public License and
  21:C:/Program Files (x86)/CodeBlocks/MinGW/lib/gcc/mingw32/4.9.2/include/c++/bits\allocator.h **** // a copy of the GCC Runtime Library Exception along with this program;
  22:C:/Program Files (x86)/CodeBlocks/MinGW/lib/gcc/mingw32/4.9.2/include/c++/bits\allocator.h **** // see the files COPYING3 and COPYING.RUNTIME respectively.  If not, see
  23:C:/Program Files (x86)/CodeBlocks/MinGW/lib/gcc/mingw32/4.9.2/include/c++/bits\allocator.h **** // <http://www.gnu.org/licenses/>.
  24:C:/Program Files (x86)/CodeBlocks/MinGW/lib/gcc/mingw32/4.9.2/include/c++/bits\allocator.h **** 
  25:C:/Program Files (x86)/CodeBlocks/MinGW/lib/gcc/mingw32/4.9.2/include/c++/bits\allocator.h **** /*
  26:C:/Program Files (x86)/CodeBlocks/MinGW/lib/gcc/mingw32/4.9.2/include/c++/bits\allocator.h ****  * Copyright (c) 1996-1997
  27:C:/Program Files (x86)/CodeBlocks/MinGW/lib/gcc/mingw32/4.9.2/include/c++/bits\allocator.h ****  * Silicon Graphics Computer Systems, Inc.
  28:C:/Program Files (x86)/CodeBlocks/MinGW/lib/gcc/mingw32/4.9.2/include/c++/bits\allocator.h ****  *
  29:C:/Program Files (x86)/CodeBlocks/MinGW/lib/gcc/mingw32/4.9.2/include/c++/bits\allocator.h ****  * Permission to use, copy, modify, distribute and sell this software
  30:C:/Program Files (x86)/CodeBlocks/MinGW/lib/gcc/mingw32/4.9.2/include/c++/bits\allocator.h ****  * and its documentation for any purpose is hereby granted without fee,
  31:C:/Program Files (x86)/CodeBlocks/MinGW/lib/gcc/mingw32/4.9.2/include/c++/bits\allocator.h ****  * provided that the above copyright notice appear in all copies and
  32:C:/Program Files (x86)/CodeBlocks/MinGW/lib/gcc/mingw32/4.9.2/include/c++/bits\allocator.h ****  * that both that copyright notice and this permission notice appear
  33:C:/Program Files (x86)/CodeBlocks/MinGW/lib/gcc/mingw32/4.9.2/include/c++/bits\allocator.h ****  * in supporting documentation.  Silicon Graphics makes no
  34:C:/Program Files (x86)/CodeBlocks/MinGW/lib/gcc/mingw32/4.9.2/include/c++/bits\allocator.h ****  * representations about the suitability of this software for any
  35:C:/Program Files (x86)/CodeBlocks/MinGW/lib/gcc/mingw32/4.9.2/include/c++/bits\allocator.h ****  * purpose.  It is provided "as is" without express or implied warranty.
  36:C:/Program Files (x86)/CodeBlocks/MinGW/lib/gcc/mingw32/4.9.2/include/c++/bits\allocator.h ****  */
  37:C:/Program Files (x86)/CodeBlocks/MinGW/lib/gcc/mingw32/4.9.2/include/c++/bits\allocator.h **** 
  38:C:/Program Files (x86)/CodeBlocks/MinGW/lib/gcc/mingw32/4.9.2/include/c++/bits\allocator.h **** /** @file bits/allocator.h
  39:C:/Program Files (x86)/CodeBlocks/MinGW/lib/gcc/mingw32/4.9.2/include/c++/bits\allocator.h ****  *  This is an internal header file, included by other library headers.
  40:C:/Program Files (x86)/CodeBlocks/MinGW/lib/gcc/mingw32/4.9.2/include/c++/bits\allocator.h ****  *  Do not attempt to use it directly. @headername{memory}
  41:C:/Program Files (x86)/CodeBlocks/MinGW/lib/gcc/mingw32/4.9.2/include/c++/bits\allocator.h ****  */
  42:C:/Program Files (x86)/CodeBlocks/MinGW/lib/gcc/mingw32/4.9.2/include/c++/bits\allocator.h **** 
  43:C:/Program Files (x86)/CodeBlocks/MinGW/lib/gcc/mingw32/4.9.2/include/c++/bits\allocator.h **** #ifndef _ALLOCATOR_H
  44:C:/Program Files (x86)/CodeBlocks/MinGW/lib/gcc/mingw32/4.9.2/include/c++/bits\allocator.h **** #define _ALLOCATOR_H 1
  45:C:/Program Files (x86)/CodeBlocks/MinGW/lib/gcc/mingw32/4.9.2/include/c++/bits\allocator.h **** 
  46:C:/Program Files (x86)/CodeBlocks/MinGW/lib/gcc/mingw32/4.9.2/include/c++/bits\allocator.h **** #include <bits/c++allocator.h> // Define the base class to std::allocator.
  47:C:/Program Files (x86)/CodeBlocks/MinGW/lib/gcc/mingw32/4.9.2/include/c++/bits\allocator.h **** #include <bits/memoryfwd.h>
  48:C:/Program Files (x86)/CodeBlocks/MinGW/lib/gcc/mingw32/4.9.2/include/c++/bits\allocator.h **** #if __cplusplus >= 201103L
  49:C:/Program Files (x86)/CodeBlocks/MinGW/lib/gcc/mingw32/4.9.2/include/c++/bits\allocator.h **** #include <type_traits>
  50:C:/Program Files (x86)/CodeBlocks/MinGW/lib/gcc/mingw32/4.9.2/include/c++/bits\allocator.h **** #endif
  51:C:/Program Files (x86)/CodeBlocks/MinGW/lib/gcc/mingw32/4.9.2/include/c++/bits\allocator.h **** 
  52:C:/Program Files (x86)/CodeBlocks/MinGW/lib/gcc/mingw32/4.9.2/include/c++/bits\allocator.h **** namespace std _GLIBCXX_VISIBILITY(default)
  53:C:/Program Files (x86)/CodeBlocks/MinGW/lib/gcc/mingw32/4.9.2/include/c++/bits\allocator.h **** {
  54:C:/Program Files (x86)/CodeBlocks/MinGW/lib/gcc/mingw32/4.9.2/include/c++/bits\allocator.h **** _GLIBCXX_BEGIN_NAMESPACE_VERSION
  55:C:/Program Files (x86)/CodeBlocks/MinGW/lib/gcc/mingw32/4.9.2/include/c++/bits\allocator.h **** 
  56:C:/Program Files (x86)/CodeBlocks/MinGW/lib/gcc/mingw32/4.9.2/include/c++/bits\allocator.h ****   /**
GAS LISTING C:\Users\NJLLMR~1\AppData\Local\Temp\cce8JzPW.s 			page 52


  57:C:/Program Files (x86)/CodeBlocks/MinGW/lib/gcc/mingw32/4.9.2/include/c++/bits\allocator.h ****    *  @addtogroup allocators
  58:C:/Program Files (x86)/CodeBlocks/MinGW/lib/gcc/mingw32/4.9.2/include/c++/bits\allocator.h ****    *  @{
  59:C:/Program Files (x86)/CodeBlocks/MinGW/lib/gcc/mingw32/4.9.2/include/c++/bits\allocator.h ****    */
  60:C:/Program Files (x86)/CodeBlocks/MinGW/lib/gcc/mingw32/4.9.2/include/c++/bits\allocator.h **** 
  61:C:/Program Files (x86)/CodeBlocks/MinGW/lib/gcc/mingw32/4.9.2/include/c++/bits\allocator.h ****   /// allocator<void> specialization.
  62:C:/Program Files (x86)/CodeBlocks/MinGW/lib/gcc/mingw32/4.9.2/include/c++/bits\allocator.h ****   template<>
  63:C:/Program Files (x86)/CodeBlocks/MinGW/lib/gcc/mingw32/4.9.2/include/c++/bits\allocator.h ****     class allocator<void>
  64:C:/Program Files (x86)/CodeBlocks/MinGW/lib/gcc/mingw32/4.9.2/include/c++/bits\allocator.h ****     {
  65:C:/Program Files (x86)/CodeBlocks/MinGW/lib/gcc/mingw32/4.9.2/include/c++/bits\allocator.h ****     public:
  66:C:/Program Files (x86)/CodeBlocks/MinGW/lib/gcc/mingw32/4.9.2/include/c++/bits\allocator.h ****       typedef size_t      size_type;
  67:C:/Program Files (x86)/CodeBlocks/MinGW/lib/gcc/mingw32/4.9.2/include/c++/bits\allocator.h ****       typedef ptrdiff_t   difference_type;
  68:C:/Program Files (x86)/CodeBlocks/MinGW/lib/gcc/mingw32/4.9.2/include/c++/bits\allocator.h ****       typedef void*       pointer;
  69:C:/Program Files (x86)/CodeBlocks/MinGW/lib/gcc/mingw32/4.9.2/include/c++/bits\allocator.h ****       typedef const void* const_pointer;
  70:C:/Program Files (x86)/CodeBlocks/MinGW/lib/gcc/mingw32/4.9.2/include/c++/bits\allocator.h ****       typedef void        value_type;
  71:C:/Program Files (x86)/CodeBlocks/MinGW/lib/gcc/mingw32/4.9.2/include/c++/bits\allocator.h **** 
  72:C:/Program Files (x86)/CodeBlocks/MinGW/lib/gcc/mingw32/4.9.2/include/c++/bits\allocator.h ****       template<typename _Tp1>
  73:C:/Program Files (x86)/CodeBlocks/MinGW/lib/gcc/mingw32/4.9.2/include/c++/bits\allocator.h ****         struct rebind
  74:C:/Program Files (x86)/CodeBlocks/MinGW/lib/gcc/mingw32/4.9.2/include/c++/bits\allocator.h ****         { typedef allocator<_Tp1> other; };
  75:C:/Program Files (x86)/CodeBlocks/MinGW/lib/gcc/mingw32/4.9.2/include/c++/bits\allocator.h **** 
  76:C:/Program Files (x86)/CodeBlocks/MinGW/lib/gcc/mingw32/4.9.2/include/c++/bits\allocator.h **** #if __cplusplus >= 201103L
  77:C:/Program Files (x86)/CodeBlocks/MinGW/lib/gcc/mingw32/4.9.2/include/c++/bits\allocator.h ****       // _GLIBCXX_RESOLVE_LIB_DEFECTS
  78:C:/Program Files (x86)/CodeBlocks/MinGW/lib/gcc/mingw32/4.9.2/include/c++/bits\allocator.h ****       // 2103. std::allocator propagate_on_container_move_assignment
  79:C:/Program Files (x86)/CodeBlocks/MinGW/lib/gcc/mingw32/4.9.2/include/c++/bits\allocator.h ****       typedef true_type propagate_on_container_move_assignment;
  80:C:/Program Files (x86)/CodeBlocks/MinGW/lib/gcc/mingw32/4.9.2/include/c++/bits\allocator.h **** #endif
  81:C:/Program Files (x86)/CodeBlocks/MinGW/lib/gcc/mingw32/4.9.2/include/c++/bits\allocator.h ****     };
  82:C:/Program Files (x86)/CodeBlocks/MinGW/lib/gcc/mingw32/4.9.2/include/c++/bits\allocator.h **** 
  83:C:/Program Files (x86)/CodeBlocks/MinGW/lib/gcc/mingw32/4.9.2/include/c++/bits\allocator.h ****   /**
  84:C:/Program Files (x86)/CodeBlocks/MinGW/lib/gcc/mingw32/4.9.2/include/c++/bits\allocator.h ****    * @brief  The @a standard allocator, as per [20.4].
  85:C:/Program Files (x86)/CodeBlocks/MinGW/lib/gcc/mingw32/4.9.2/include/c++/bits\allocator.h ****    *
  86:C:/Program Files (x86)/CodeBlocks/MinGW/lib/gcc/mingw32/4.9.2/include/c++/bits\allocator.h ****    *  See http://gcc.gnu.org/onlinedocs/libstdc++/manual/bk01pt04ch11.html
  87:C:/Program Files (x86)/CodeBlocks/MinGW/lib/gcc/mingw32/4.9.2/include/c++/bits\allocator.h ****    *  for further details.
  88:C:/Program Files (x86)/CodeBlocks/MinGW/lib/gcc/mingw32/4.9.2/include/c++/bits\allocator.h ****    *
  89:C:/Program Files (x86)/CodeBlocks/MinGW/lib/gcc/mingw32/4.9.2/include/c++/bits\allocator.h ****    *  @tparam  _Tp  Type of allocated object.
  90:C:/Program Files (x86)/CodeBlocks/MinGW/lib/gcc/mingw32/4.9.2/include/c++/bits\allocator.h ****    */
  91:C:/Program Files (x86)/CodeBlocks/MinGW/lib/gcc/mingw32/4.9.2/include/c++/bits\allocator.h ****   template<typename _Tp>
  92:C:/Program Files (x86)/CodeBlocks/MinGW/lib/gcc/mingw32/4.9.2/include/c++/bits\allocator.h ****     class allocator: public __allocator_base<_Tp>
  93:C:/Program Files (x86)/CodeBlocks/MinGW/lib/gcc/mingw32/4.9.2/include/c++/bits\allocator.h ****     {
  94:C:/Program Files (x86)/CodeBlocks/MinGW/lib/gcc/mingw32/4.9.2/include/c++/bits\allocator.h ****    public:
  95:C:/Program Files (x86)/CodeBlocks/MinGW/lib/gcc/mingw32/4.9.2/include/c++/bits\allocator.h ****       typedef size_t     size_type;
  96:C:/Program Files (x86)/CodeBlocks/MinGW/lib/gcc/mingw32/4.9.2/include/c++/bits\allocator.h ****       typedef ptrdiff_t  difference_type;
  97:C:/Program Files (x86)/CodeBlocks/MinGW/lib/gcc/mingw32/4.9.2/include/c++/bits\allocator.h ****       typedef _Tp*       pointer;
  98:C:/Program Files (x86)/CodeBlocks/MinGW/lib/gcc/mingw32/4.9.2/include/c++/bits\allocator.h ****       typedef const _Tp* const_pointer;
  99:C:/Program Files (x86)/CodeBlocks/MinGW/lib/gcc/mingw32/4.9.2/include/c++/bits\allocator.h ****       typedef _Tp&       reference;
 100:C:/Program Files (x86)/CodeBlocks/MinGW/lib/gcc/mingw32/4.9.2/include/c++/bits\allocator.h ****       typedef const _Tp& const_reference;
 101:C:/Program Files (x86)/CodeBlocks/MinGW/lib/gcc/mingw32/4.9.2/include/c++/bits\allocator.h ****       typedef _Tp        value_type;
 102:C:/Program Files (x86)/CodeBlocks/MinGW/lib/gcc/mingw32/4.9.2/include/c++/bits\allocator.h **** 
 103:C:/Program Files (x86)/CodeBlocks/MinGW/lib/gcc/mingw32/4.9.2/include/c++/bits\allocator.h ****       template<typename _Tp1>
 104:C:/Program Files (x86)/CodeBlocks/MinGW/lib/gcc/mingw32/4.9.2/include/c++/bits\allocator.h ****         struct rebind
 105:C:/Program Files (x86)/CodeBlocks/MinGW/lib/gcc/mingw32/4.9.2/include/c++/bits\allocator.h ****         { typedef allocator<_Tp1> other; };
 106:C:/Program Files (x86)/CodeBlocks/MinGW/lib/gcc/mingw32/4.9.2/include/c++/bits\allocator.h **** 
 107:C:/Program Files (x86)/CodeBlocks/MinGW/lib/gcc/mingw32/4.9.2/include/c++/bits\allocator.h **** #if __cplusplus >= 201103L
 108:C:/Program Files (x86)/CodeBlocks/MinGW/lib/gcc/mingw32/4.9.2/include/c++/bits\allocator.h ****       // _GLIBCXX_RESOLVE_LIB_DEFECTS
 109:C:/Program Files (x86)/CodeBlocks/MinGW/lib/gcc/mingw32/4.9.2/include/c++/bits\allocator.h ****       // 2103. std::allocator propagate_on_container_move_assignment
 110:C:/Program Files (x86)/CodeBlocks/MinGW/lib/gcc/mingw32/4.9.2/include/c++/bits\allocator.h ****       typedef true_type propagate_on_container_move_assignment;
 111:C:/Program Files (x86)/CodeBlocks/MinGW/lib/gcc/mingw32/4.9.2/include/c++/bits\allocator.h **** #endif
 112:C:/Program Files (x86)/CodeBlocks/MinGW/lib/gcc/mingw32/4.9.2/include/c++/bits\allocator.h **** 
 113:C:/Program Files (x86)/CodeBlocks/MinGW/lib/gcc/mingw32/4.9.2/include/c++/bits\allocator.h ****       allocator() throw() { }
GAS LISTING C:\Users\NJLLMR~1\AppData\Local\Temp\cce8JzPW.s 			page 53


 114:C:/Program Files (x86)/CodeBlocks/MinGW/lib/gcc/mingw32/4.9.2/include/c++/bits\allocator.h **** 
 115:C:/Program Files (x86)/CodeBlocks/MinGW/lib/gcc/mingw32/4.9.2/include/c++/bits\allocator.h ****       allocator(const allocator& __a) throw()
 116:C:/Program Files (x86)/CodeBlocks/MinGW/lib/gcc/mingw32/4.9.2/include/c++/bits\allocator.h ****       : __allocator_base<_Tp>(__a) { }
 117:C:/Program Files (x86)/CodeBlocks/MinGW/lib/gcc/mingw32/4.9.2/include/c++/bits\allocator.h **** 
 118:C:/Program Files (x86)/CodeBlocks/MinGW/lib/gcc/mingw32/4.9.2/include/c++/bits\allocator.h ****       template<typename _Tp1>
 119:C:/Program Files (x86)/CodeBlocks/MinGW/lib/gcc/mingw32/4.9.2/include/c++/bits\allocator.h ****         allocator(const allocator<_Tp1>&) throw() { }
 120:C:/Program Files (x86)/CodeBlocks/MinGW/lib/gcc/mingw32/4.9.2/include/c++/bits\allocator.h **** 
 121:C:/Program Files (x86)/CodeBlocks/MinGW/lib/gcc/mingw32/4.9.2/include/c++/bits\allocator.h ****       ~allocator() throw() { }
 1102              		.loc 4 121 0
 1103              		.cfi_startproc
 1104 0000 55       		pushl	%ebp
 1105              		.cfi_def_cfa_offset 8
 1106              		.cfi_offset 5, -8
 1107 0001 89E5     		movl	%esp, %ebp
 1108              		.cfi_def_cfa_register 5
 1109 0003 83EC18   		subl	$24, %esp
 1110 0006 894DF4   		movl	%ecx, -12(%ebp)
 1111              	LBB10:
 1112              		.loc 4 121 0
 1113 0009 8B45F4   		movl	-12(%ebp), %eax
 1114 000c 89C1     		movl	%eax, %ecx
 1115 000e E8000000 		call	__ZN9__gnu_cxx13new_allocatorI8ToppingsED2Ev
 1115      00
 1116              	LBE10:
 1117 0013 C9       		leave
 1118              		.cfi_restore 5
 1119              		.cfi_def_cfa 4, 4
 1120 0014 C3       		ret
 1121              		.cfi_endproc
 1122              	LFE1355:
 1123 0015 909090   		.section	.text$_ZNSt12_Vector_baseI8ToppingsSaIS0_EE13_M_deallocateEPS0_j,"x"
 1124              		.linkonce discard
 1125              		.align 2
 1126              		.globl	__ZNSt12_Vector_baseI8ToppingsSaIS0_EE13_M_deallocateEPS0_j
 1128              	__ZNSt12_Vector_baseI8ToppingsSaIS0_EE13_M_deallocateEPS0_j:
 1129              	LFB1357:
 174:C:/Program Files (x86)/CodeBlocks/MinGW/lib/gcc/mingw32/4.9.2/include/c++/bits\stl_vector.h ****       {
 1130              		.loc 2 174 0
 1131              		.cfi_startproc
 1132 0000 55       		pushl	%ebp
 1133              		.cfi_def_cfa_offset 8
 1134              		.cfi_offset 5, -8
 1135 0001 89E5     		movl	%esp, %ebp
 1136              		.cfi_def_cfa_register 5
 1137 0003 83EC28   		subl	$40, %esp
 1138 0006 894DF4   		movl	%ecx, -12(%ebp)
 1139              	LBB11:
 177:C:/Program Files (x86)/CodeBlocks/MinGW/lib/gcc/mingw32/4.9.2/include/c++/bits\stl_vector.h **** 	  _Tr::deallocate(_M_impl, __p, __n);
 1140              		.loc 2 177 0
 1141 0009 837D0800 		cmpl	$0, 8(%ebp)
 1142 000d 7419     		je	L63
 178:C:/Program Files (x86)/CodeBlocks/MinGW/lib/gcc/mingw32/4.9.2/include/c++/bits\stl_vector.h ****       }
 1143              		.loc 2 178 0
 1144 000f 8B45F4   		movl	-12(%ebp), %eax
 1145 0012 8B550C   		movl	12(%ebp), %edx
 1146 0015 89542408 		movl	%edx, 8(%esp)
 1147 0019 8B5508   		movl	8(%ebp), %edx
GAS LISTING C:\Users\NJLLMR~1\AppData\Local\Temp\cce8JzPW.s 			page 54


 1148 001c 89542404 		movl	%edx, 4(%esp)
 1149 0020 890424   		movl	%eax, (%esp)
 1150 0023 E8000000 		call	__ZN9__gnu_cxx14__alloc_traitsISaI8ToppingsEE10deallocateERS2_PS1_j
 1150      00
 1151              	L63:
 1152              	LBE11:
 179:C:/Program Files (x86)/CodeBlocks/MinGW/lib/gcc/mingw32/4.9.2/include/c++/bits\stl_vector.h **** 
 1153              		.loc 2 179 0
 1154 0028 C9       		leave
 1155              		.cfi_restore 5
 1156              		.cfi_def_cfa 4, 4
 1157 0029 C20800   		ret	$8
 1158              		.cfi_endproc
 1159              	LFE1357:
 1160              		.section	.text$_ZSt8_DestroyIP8ToppingsEvT_S2_,"x"
 1161              		.linkonce discard
 1162              		.globl	__ZSt8_DestroyIP8ToppingsEvT_S2_
 1164              	__ZSt8_DestroyIP8ToppingsEvT_S2_:
 1165              	LFB1358:
 122:C:/Program Files (x86)/CodeBlocks/MinGW/lib/gcc/mingw32/4.9.2/include/c++/bits\stl_construct.h ****     {
 1166              		.loc 3 122 0
 1167              		.cfi_startproc
 1168 0000 55       		pushl	%ebp
 1169              		.cfi_def_cfa_offset 8
 1170              		.cfi_offset 5, -8
 1171 0001 89E5     		movl	%esp, %ebp
 1172              		.cfi_def_cfa_register 5
 1173 0003 83EC18   		subl	$24, %esp
 1174              	LBB12:
 126:C:/Program Files (x86)/CodeBlocks/MinGW/lib/gcc/mingw32/4.9.2/include/c++/bits\stl_construct.h **** 	__destroy(__first, __last);
 1175              		.loc 3 126 0
 1176 0006 8B450C   		movl	12(%ebp), %eax
 1177 0009 89442404 		movl	%eax, 4(%esp)
 1178 000d 8B4508   		movl	8(%ebp), %eax
 1179 0010 890424   		movl	%eax, (%esp)
 1180 0013 E8000000 		call	__ZNSt12_Destroy_auxILb0EE9__destroyIP8ToppingsEEvT_S4_
 1180      00
 1181              	LBE12:
 128:C:/Program Files (x86)/CodeBlocks/MinGW/lib/gcc/mingw32/4.9.2/include/c++/bits\stl_construct.h **** 
 1182              		.loc 3 128 0
 1183 0018 C9       		leave
 1184              		.cfi_restore 5
 1185              		.cfi_def_cfa 4, 4
 1186 0019 C3       		ret
 1187              		.cfi_endproc
 1188              	LFE1358:
 1189 001a 9090     		.section	.text$_ZNSaI8ToppingsEC2Ev,"x"
 1190              		.linkonce discard
 1191              		.align 2
 1192              		.globl	__ZNSaI8ToppingsEC2Ev
 1194              	__ZNSaI8ToppingsEC2Ev:
 1195              	LFB1363:
 113:C:/Program Files (x86)/CodeBlocks/MinGW/lib/gcc/mingw32/4.9.2/include/c++/bits\allocator.h **** 
 1196              		.loc 4 113 0
 1197              		.cfi_startproc
 1198 0000 55       		pushl	%ebp
 1199              		.cfi_def_cfa_offset 8
GAS LISTING C:\Users\NJLLMR~1\AppData\Local\Temp\cce8JzPW.s 			page 55


 1200              		.cfi_offset 5, -8
 1201 0001 89E5     		movl	%esp, %ebp
 1202              		.cfi_def_cfa_register 5
 1203 0003 83EC18   		subl	$24, %esp
 1204 0006 894DF4   		movl	%ecx, -12(%ebp)
 1205              	LBB13:
 113:C:/Program Files (x86)/CodeBlocks/MinGW/lib/gcc/mingw32/4.9.2/include/c++/bits\allocator.h **** 
 1206              		.loc 4 113 0
 1207 0009 8B45F4   		movl	-12(%ebp), %eax
 1208 000c 89C1     		movl	%eax, %ecx
 1209 000e E8000000 		call	__ZN9__gnu_cxx13new_allocatorI8ToppingsEC2Ev
 1209      00
 1210              	LBE13:
 1211 0013 C9       		leave
 1212              		.cfi_restore 5
 1213              		.cfi_def_cfa 4, 4
 1214 0014 C3       		ret
 1215              		.cfi_endproc
 1216              	LFE1363:
 1217 0015 909090   		.section	.text$_ZN9__gnu_cxx13new_allocatorI8ToppingsED2Ev,"x"
 1218              		.linkonce discard
 1219              		.align 2
 1220              		.globl	__ZN9__gnu_cxx13new_allocatorI8ToppingsED2Ev
 1222              	__ZN9__gnu_cxx13new_allocatorI8ToppingsED2Ev:
 1223              	LFB1366:
 1224              		.file 5 "C:/Program Files (x86)/CodeBlocks/MinGW/lib/gcc/mingw32/4.9.2/include/c++/ext/new_allocat
   1:C:/Program Files (x86)/CodeBlocks/MinGW/lib/gcc/mingw32/4.9.2/include/c++/ext\new_allocator.h **** // Allocator that wraps operator new -*- C++ -*-
   2:C:/Program Files (x86)/CodeBlocks/MinGW/lib/gcc/mingw32/4.9.2/include/c++/ext\new_allocator.h **** 
   3:C:/Program Files (x86)/CodeBlocks/MinGW/lib/gcc/mingw32/4.9.2/include/c++/ext\new_allocator.h **** // Copyright (C) 2001-2014 Free Software Foundation, Inc.
   4:C:/Program Files (x86)/CodeBlocks/MinGW/lib/gcc/mingw32/4.9.2/include/c++/ext\new_allocator.h **** //
   5:C:/Program Files (x86)/CodeBlocks/MinGW/lib/gcc/mingw32/4.9.2/include/c++/ext\new_allocator.h **** // This file is part of the GNU ISO C++ Library.  This library is free
   6:C:/Program Files (x86)/CodeBlocks/MinGW/lib/gcc/mingw32/4.9.2/include/c++/ext\new_allocator.h **** // software; you can redistribute it and/or modify it under the
   7:C:/Program Files (x86)/CodeBlocks/MinGW/lib/gcc/mingw32/4.9.2/include/c++/ext\new_allocator.h **** // terms of the GNU General Public License as published by the
   8:C:/Program Files (x86)/CodeBlocks/MinGW/lib/gcc/mingw32/4.9.2/include/c++/ext\new_allocator.h **** // Free Software Foundation; either version 3, or (at your option)
   9:C:/Program Files (x86)/CodeBlocks/MinGW/lib/gcc/mingw32/4.9.2/include/c++/ext\new_allocator.h **** // any later version.
  10:C:/Program Files (x86)/CodeBlocks/MinGW/lib/gcc/mingw32/4.9.2/include/c++/ext\new_allocator.h **** 
  11:C:/Program Files (x86)/CodeBlocks/MinGW/lib/gcc/mingw32/4.9.2/include/c++/ext\new_allocator.h **** // This library is distributed in the hope that it will be useful,
  12:C:/Program Files (x86)/CodeBlocks/MinGW/lib/gcc/mingw32/4.9.2/include/c++/ext\new_allocator.h **** // but WITHOUT ANY WARRANTY; without even the implied warranty of
  13:C:/Program Files (x86)/CodeBlocks/MinGW/lib/gcc/mingw32/4.9.2/include/c++/ext\new_allocator.h **** // MERCHANTABILITY or FITNESS FOR A PARTICULAR PURPOSE.  See the
  14:C:/Program Files (x86)/CodeBlocks/MinGW/lib/gcc/mingw32/4.9.2/include/c++/ext\new_allocator.h **** // GNU General Public License for more details.
  15:C:/Program Files (x86)/CodeBlocks/MinGW/lib/gcc/mingw32/4.9.2/include/c++/ext\new_allocator.h **** 
  16:C:/Program Files (x86)/CodeBlocks/MinGW/lib/gcc/mingw32/4.9.2/include/c++/ext\new_allocator.h **** // Under Section 7 of GPL version 3, you are granted additional
  17:C:/Program Files (x86)/CodeBlocks/MinGW/lib/gcc/mingw32/4.9.2/include/c++/ext\new_allocator.h **** // permissions described in the GCC Runtime Library Exception, version
  18:C:/Program Files (x86)/CodeBlocks/MinGW/lib/gcc/mingw32/4.9.2/include/c++/ext\new_allocator.h **** // 3.1, as published by the Free Software Foundation.
  19:C:/Program Files (x86)/CodeBlocks/MinGW/lib/gcc/mingw32/4.9.2/include/c++/ext\new_allocator.h **** 
  20:C:/Program Files (x86)/CodeBlocks/MinGW/lib/gcc/mingw32/4.9.2/include/c++/ext\new_allocator.h **** // You should have received a copy of the GNU General Public License and
  21:C:/Program Files (x86)/CodeBlocks/MinGW/lib/gcc/mingw32/4.9.2/include/c++/ext\new_allocator.h **** // a copy of the GCC Runtime Library Exception along with this program;
  22:C:/Program Files (x86)/CodeBlocks/MinGW/lib/gcc/mingw32/4.9.2/include/c++/ext\new_allocator.h **** // see the files COPYING3 and COPYING.RUNTIME respectively.  If not, see
  23:C:/Program Files (x86)/CodeBlocks/MinGW/lib/gcc/mingw32/4.9.2/include/c++/ext\new_allocator.h **** // <http://www.gnu.org/licenses/>.
  24:C:/Program Files (x86)/CodeBlocks/MinGW/lib/gcc/mingw32/4.9.2/include/c++/ext\new_allocator.h **** 
  25:C:/Program Files (x86)/CodeBlocks/MinGW/lib/gcc/mingw32/4.9.2/include/c++/ext\new_allocator.h **** /** @file ext/new_allocator.h
  26:C:/Program Files (x86)/CodeBlocks/MinGW/lib/gcc/mingw32/4.9.2/include/c++/ext\new_allocator.h ****  *  This file is a GNU extension to the Standard C++ Library.
  27:C:/Program Files (x86)/CodeBlocks/MinGW/lib/gcc/mingw32/4.9.2/include/c++/ext\new_allocator.h ****  */
  28:C:/Program Files (x86)/CodeBlocks/MinGW/lib/gcc/mingw32/4.9.2/include/c++/ext\new_allocator.h **** 
  29:C:/Program Files (x86)/CodeBlocks/MinGW/lib/gcc/mingw32/4.9.2/include/c++/ext\new_allocator.h **** #ifndef _NEW_ALLOCATOR_H
  30:C:/Program Files (x86)/CodeBlocks/MinGW/lib/gcc/mingw32/4.9.2/include/c++/ext\new_allocator.h **** #define _NEW_ALLOCATOR_H 1
  31:C:/Program Files (x86)/CodeBlocks/MinGW/lib/gcc/mingw32/4.9.2/include/c++/ext\new_allocator.h **** 
GAS LISTING C:\Users\NJLLMR~1\AppData\Local\Temp\cce8JzPW.s 			page 56


  32:C:/Program Files (x86)/CodeBlocks/MinGW/lib/gcc/mingw32/4.9.2/include/c++/ext\new_allocator.h **** #include <bits/c++config.h>
  33:C:/Program Files (x86)/CodeBlocks/MinGW/lib/gcc/mingw32/4.9.2/include/c++/ext\new_allocator.h **** #include <new>
  34:C:/Program Files (x86)/CodeBlocks/MinGW/lib/gcc/mingw32/4.9.2/include/c++/ext\new_allocator.h **** #include <bits/functexcept.h>
  35:C:/Program Files (x86)/CodeBlocks/MinGW/lib/gcc/mingw32/4.9.2/include/c++/ext\new_allocator.h **** #include <bits/move.h>
  36:C:/Program Files (x86)/CodeBlocks/MinGW/lib/gcc/mingw32/4.9.2/include/c++/ext\new_allocator.h **** #if __cplusplus >= 201103L
  37:C:/Program Files (x86)/CodeBlocks/MinGW/lib/gcc/mingw32/4.9.2/include/c++/ext\new_allocator.h **** #include <type_traits>
  38:C:/Program Files (x86)/CodeBlocks/MinGW/lib/gcc/mingw32/4.9.2/include/c++/ext\new_allocator.h **** #endif
  39:C:/Program Files (x86)/CodeBlocks/MinGW/lib/gcc/mingw32/4.9.2/include/c++/ext\new_allocator.h **** 
  40:C:/Program Files (x86)/CodeBlocks/MinGW/lib/gcc/mingw32/4.9.2/include/c++/ext\new_allocator.h **** namespace __gnu_cxx _GLIBCXX_VISIBILITY(default)
  41:C:/Program Files (x86)/CodeBlocks/MinGW/lib/gcc/mingw32/4.9.2/include/c++/ext\new_allocator.h **** {
  42:C:/Program Files (x86)/CodeBlocks/MinGW/lib/gcc/mingw32/4.9.2/include/c++/ext\new_allocator.h **** _GLIBCXX_BEGIN_NAMESPACE_VERSION
  43:C:/Program Files (x86)/CodeBlocks/MinGW/lib/gcc/mingw32/4.9.2/include/c++/ext\new_allocator.h **** 
  44:C:/Program Files (x86)/CodeBlocks/MinGW/lib/gcc/mingw32/4.9.2/include/c++/ext\new_allocator.h ****   using std::size_t;
  45:C:/Program Files (x86)/CodeBlocks/MinGW/lib/gcc/mingw32/4.9.2/include/c++/ext\new_allocator.h ****   using std::ptrdiff_t;
  46:C:/Program Files (x86)/CodeBlocks/MinGW/lib/gcc/mingw32/4.9.2/include/c++/ext\new_allocator.h **** 
  47:C:/Program Files (x86)/CodeBlocks/MinGW/lib/gcc/mingw32/4.9.2/include/c++/ext\new_allocator.h ****   /**
  48:C:/Program Files (x86)/CodeBlocks/MinGW/lib/gcc/mingw32/4.9.2/include/c++/ext\new_allocator.h ****    *  @brief  An allocator that uses global new, as per [20.4].
  49:C:/Program Files (x86)/CodeBlocks/MinGW/lib/gcc/mingw32/4.9.2/include/c++/ext\new_allocator.h ****    *  @ingroup allocators
  50:C:/Program Files (x86)/CodeBlocks/MinGW/lib/gcc/mingw32/4.9.2/include/c++/ext\new_allocator.h ****    *
  51:C:/Program Files (x86)/CodeBlocks/MinGW/lib/gcc/mingw32/4.9.2/include/c++/ext\new_allocator.h ****    *  This is precisely the allocator defined in the C++ Standard. 
  52:C:/Program Files (x86)/CodeBlocks/MinGW/lib/gcc/mingw32/4.9.2/include/c++/ext\new_allocator.h ****    *    - all allocation calls operator new
  53:C:/Program Files (x86)/CodeBlocks/MinGW/lib/gcc/mingw32/4.9.2/include/c++/ext\new_allocator.h ****    *    - all deallocation calls operator delete
  54:C:/Program Files (x86)/CodeBlocks/MinGW/lib/gcc/mingw32/4.9.2/include/c++/ext\new_allocator.h ****    *
  55:C:/Program Files (x86)/CodeBlocks/MinGW/lib/gcc/mingw32/4.9.2/include/c++/ext\new_allocator.h ****    *  @tparam  _Tp  Type of allocated object.
  56:C:/Program Files (x86)/CodeBlocks/MinGW/lib/gcc/mingw32/4.9.2/include/c++/ext\new_allocator.h ****    */
  57:C:/Program Files (x86)/CodeBlocks/MinGW/lib/gcc/mingw32/4.9.2/include/c++/ext\new_allocator.h ****   template<typename _Tp>
  58:C:/Program Files (x86)/CodeBlocks/MinGW/lib/gcc/mingw32/4.9.2/include/c++/ext\new_allocator.h ****     class new_allocator
  59:C:/Program Files (x86)/CodeBlocks/MinGW/lib/gcc/mingw32/4.9.2/include/c++/ext\new_allocator.h ****     {
  60:C:/Program Files (x86)/CodeBlocks/MinGW/lib/gcc/mingw32/4.9.2/include/c++/ext\new_allocator.h ****     public:
  61:C:/Program Files (x86)/CodeBlocks/MinGW/lib/gcc/mingw32/4.9.2/include/c++/ext\new_allocator.h ****       typedef size_t     size_type;
  62:C:/Program Files (x86)/CodeBlocks/MinGW/lib/gcc/mingw32/4.9.2/include/c++/ext\new_allocator.h ****       typedef ptrdiff_t  difference_type;
  63:C:/Program Files (x86)/CodeBlocks/MinGW/lib/gcc/mingw32/4.9.2/include/c++/ext\new_allocator.h ****       typedef _Tp*       pointer;
  64:C:/Program Files (x86)/CodeBlocks/MinGW/lib/gcc/mingw32/4.9.2/include/c++/ext\new_allocator.h ****       typedef const _Tp* const_pointer;
  65:C:/Program Files (x86)/CodeBlocks/MinGW/lib/gcc/mingw32/4.9.2/include/c++/ext\new_allocator.h ****       typedef _Tp&       reference;
  66:C:/Program Files (x86)/CodeBlocks/MinGW/lib/gcc/mingw32/4.9.2/include/c++/ext\new_allocator.h ****       typedef const _Tp& const_reference;
  67:C:/Program Files (x86)/CodeBlocks/MinGW/lib/gcc/mingw32/4.9.2/include/c++/ext\new_allocator.h ****       typedef _Tp        value_type;
  68:C:/Program Files (x86)/CodeBlocks/MinGW/lib/gcc/mingw32/4.9.2/include/c++/ext\new_allocator.h **** 
  69:C:/Program Files (x86)/CodeBlocks/MinGW/lib/gcc/mingw32/4.9.2/include/c++/ext\new_allocator.h ****       template<typename _Tp1>
  70:C:/Program Files (x86)/CodeBlocks/MinGW/lib/gcc/mingw32/4.9.2/include/c++/ext\new_allocator.h ****         struct rebind
  71:C:/Program Files (x86)/CodeBlocks/MinGW/lib/gcc/mingw32/4.9.2/include/c++/ext\new_allocator.h ****         { typedef new_allocator<_Tp1> other; };
  72:C:/Program Files (x86)/CodeBlocks/MinGW/lib/gcc/mingw32/4.9.2/include/c++/ext\new_allocator.h **** 
  73:C:/Program Files (x86)/CodeBlocks/MinGW/lib/gcc/mingw32/4.9.2/include/c++/ext\new_allocator.h **** #if __cplusplus >= 201103L
  74:C:/Program Files (x86)/CodeBlocks/MinGW/lib/gcc/mingw32/4.9.2/include/c++/ext\new_allocator.h ****       // _GLIBCXX_RESOLVE_LIB_DEFECTS
  75:C:/Program Files (x86)/CodeBlocks/MinGW/lib/gcc/mingw32/4.9.2/include/c++/ext\new_allocator.h ****       // 2103. propagate_on_container_move_assignment
  76:C:/Program Files (x86)/CodeBlocks/MinGW/lib/gcc/mingw32/4.9.2/include/c++/ext\new_allocator.h ****       typedef std::true_type propagate_on_container_move_assignment;
  77:C:/Program Files (x86)/CodeBlocks/MinGW/lib/gcc/mingw32/4.9.2/include/c++/ext\new_allocator.h **** #endif
  78:C:/Program Files (x86)/CodeBlocks/MinGW/lib/gcc/mingw32/4.9.2/include/c++/ext\new_allocator.h **** 
  79:C:/Program Files (x86)/CodeBlocks/MinGW/lib/gcc/mingw32/4.9.2/include/c++/ext\new_allocator.h ****       new_allocator() _GLIBCXX_USE_NOEXCEPT { }
  80:C:/Program Files (x86)/CodeBlocks/MinGW/lib/gcc/mingw32/4.9.2/include/c++/ext\new_allocator.h **** 
  81:C:/Program Files (x86)/CodeBlocks/MinGW/lib/gcc/mingw32/4.9.2/include/c++/ext\new_allocator.h ****       new_allocator(const new_allocator&) _GLIBCXX_USE_NOEXCEPT { }
  82:C:/Program Files (x86)/CodeBlocks/MinGW/lib/gcc/mingw32/4.9.2/include/c++/ext\new_allocator.h **** 
  83:C:/Program Files (x86)/CodeBlocks/MinGW/lib/gcc/mingw32/4.9.2/include/c++/ext\new_allocator.h ****       template<typename _Tp1>
  84:C:/Program Files (x86)/CodeBlocks/MinGW/lib/gcc/mingw32/4.9.2/include/c++/ext\new_allocator.h ****         new_allocator(const new_allocator<_Tp1>&) _GLIBCXX_USE_NOEXCEPT { }
  85:C:/Program Files (x86)/CodeBlocks/MinGW/lib/gcc/mingw32/4.9.2/include/c++/ext\new_allocator.h **** 
  86:C:/Program Files (x86)/CodeBlocks/MinGW/lib/gcc/mingw32/4.9.2/include/c++/ext\new_allocator.h ****       ~new_allocator() _GLIBCXX_USE_NOEXCEPT { }
 1225              		.loc 5 86 0
 1226              		.cfi_startproc
GAS LISTING C:\Users\NJLLMR~1\AppData\Local\Temp\cce8JzPW.s 			page 57


 1227 0000 55       		pushl	%ebp
 1228              		.cfi_def_cfa_offset 8
 1229              		.cfi_offset 5, -8
 1230 0001 89E5     		movl	%esp, %ebp
 1231              		.cfi_def_cfa_register 5
 1232 0003 83EC04   		subl	$4, %esp
 1233 0006 894DFC   		movl	%ecx, -4(%ebp)
 1234              		.loc 5 86 0
 1235 0009 C9       		leave
 1236              		.cfi_restore 5
 1237              		.cfi_def_cfa 4, 4
 1238 000a C3       		ret
 1239              		.cfi_endproc
 1240              	LFE1366:
 1241 000b 90       		.section	.text$_ZN9__gnu_cxx14__alloc_traitsISaI8ToppingsEE10deallocateERS2_PS1_j,"x"
 1242              		.linkonce discard
 1243              		.globl	__ZN9__gnu_cxx14__alloc_traitsISaI8ToppingsEE10deallocateERS2_PS1_j
 1245              	__ZN9__gnu_cxx14__alloc_traitsISaI8ToppingsEE10deallocateERS2_PS1_j:
 1246              	LFB1368:
 1247              		.file 6 "C:/Program Files (x86)/CodeBlocks/MinGW/lib/gcc/mingw32/4.9.2/include/c++/ext/alloc_trait
   1:C:/Program Files (x86)/CodeBlocks/MinGW/lib/gcc/mingw32/4.9.2/include/c++/ext\alloc_traits.h **** // Allocator traits -*- C++ -*-
   2:C:/Program Files (x86)/CodeBlocks/MinGW/lib/gcc/mingw32/4.9.2/include/c++/ext\alloc_traits.h **** 
   3:C:/Program Files (x86)/CodeBlocks/MinGW/lib/gcc/mingw32/4.9.2/include/c++/ext\alloc_traits.h **** // Copyright (C) 2011-2014 Free Software Foundation, Inc.
   4:C:/Program Files (x86)/CodeBlocks/MinGW/lib/gcc/mingw32/4.9.2/include/c++/ext\alloc_traits.h **** //
   5:C:/Program Files (x86)/CodeBlocks/MinGW/lib/gcc/mingw32/4.9.2/include/c++/ext\alloc_traits.h **** // This file is part of the GNU ISO C++ Library.  This library is free
   6:C:/Program Files (x86)/CodeBlocks/MinGW/lib/gcc/mingw32/4.9.2/include/c++/ext\alloc_traits.h **** // software; you can redistribute it and/or modify it under the
   7:C:/Program Files (x86)/CodeBlocks/MinGW/lib/gcc/mingw32/4.9.2/include/c++/ext\alloc_traits.h **** // terms of the GNU General Public License as published by the
   8:C:/Program Files (x86)/CodeBlocks/MinGW/lib/gcc/mingw32/4.9.2/include/c++/ext\alloc_traits.h **** // Free Software Foundation; either version 3, or (at your option)
   9:C:/Program Files (x86)/CodeBlocks/MinGW/lib/gcc/mingw32/4.9.2/include/c++/ext\alloc_traits.h **** // any later version.
  10:C:/Program Files (x86)/CodeBlocks/MinGW/lib/gcc/mingw32/4.9.2/include/c++/ext\alloc_traits.h **** 
  11:C:/Program Files (x86)/CodeBlocks/MinGW/lib/gcc/mingw32/4.9.2/include/c++/ext\alloc_traits.h **** // This library is distributed in the hope that it will be useful,
  12:C:/Program Files (x86)/CodeBlocks/MinGW/lib/gcc/mingw32/4.9.2/include/c++/ext\alloc_traits.h **** // but WITHOUT ANY WARRANTY; without even the implied warranty of
  13:C:/Program Files (x86)/CodeBlocks/MinGW/lib/gcc/mingw32/4.9.2/include/c++/ext\alloc_traits.h **** // MERCHANTABILITY or FITNESS FOR A PARTICULAR PURPOSE.  See the
  14:C:/Program Files (x86)/CodeBlocks/MinGW/lib/gcc/mingw32/4.9.2/include/c++/ext\alloc_traits.h **** // GNU General Public License for more details.
  15:C:/Program Files (x86)/CodeBlocks/MinGW/lib/gcc/mingw32/4.9.2/include/c++/ext\alloc_traits.h **** 
  16:C:/Program Files (x86)/CodeBlocks/MinGW/lib/gcc/mingw32/4.9.2/include/c++/ext\alloc_traits.h **** // Under Section 7 of GPL version 3, you are granted additional
  17:C:/Program Files (x86)/CodeBlocks/MinGW/lib/gcc/mingw32/4.9.2/include/c++/ext\alloc_traits.h **** // permissions described in the GCC Runtime Library Exception, version
  18:C:/Program Files (x86)/CodeBlocks/MinGW/lib/gcc/mingw32/4.9.2/include/c++/ext\alloc_traits.h **** // 3.1, as published by the Free Software Foundation.
  19:C:/Program Files (x86)/CodeBlocks/MinGW/lib/gcc/mingw32/4.9.2/include/c++/ext\alloc_traits.h **** 
  20:C:/Program Files (x86)/CodeBlocks/MinGW/lib/gcc/mingw32/4.9.2/include/c++/ext\alloc_traits.h **** // You should have received a copy of the GNU General Public License and
  21:C:/Program Files (x86)/CodeBlocks/MinGW/lib/gcc/mingw32/4.9.2/include/c++/ext\alloc_traits.h **** // a copy of the GCC Runtime Library Exception along with this program;
  22:C:/Program Files (x86)/CodeBlocks/MinGW/lib/gcc/mingw32/4.9.2/include/c++/ext\alloc_traits.h **** // see the files COPYING3 and COPYING.RUNTIME respectively.  If not, see
  23:C:/Program Files (x86)/CodeBlocks/MinGW/lib/gcc/mingw32/4.9.2/include/c++/ext\alloc_traits.h **** // <http://www.gnu.org/licenses/>.
  24:C:/Program Files (x86)/CodeBlocks/MinGW/lib/gcc/mingw32/4.9.2/include/c++/ext\alloc_traits.h **** 
  25:C:/Program Files (x86)/CodeBlocks/MinGW/lib/gcc/mingw32/4.9.2/include/c++/ext\alloc_traits.h **** /** @file ext/alloc_traits.h
  26:C:/Program Files (x86)/CodeBlocks/MinGW/lib/gcc/mingw32/4.9.2/include/c++/ext\alloc_traits.h ****  *  This file is a GNU extension to the Standard C++ Library.
  27:C:/Program Files (x86)/CodeBlocks/MinGW/lib/gcc/mingw32/4.9.2/include/c++/ext\alloc_traits.h ****  */
  28:C:/Program Files (x86)/CodeBlocks/MinGW/lib/gcc/mingw32/4.9.2/include/c++/ext\alloc_traits.h **** 
  29:C:/Program Files (x86)/CodeBlocks/MinGW/lib/gcc/mingw32/4.9.2/include/c++/ext\alloc_traits.h **** #ifndef _EXT_ALLOC_TRAITS_H
  30:C:/Program Files (x86)/CodeBlocks/MinGW/lib/gcc/mingw32/4.9.2/include/c++/ext\alloc_traits.h **** #define _EXT_ALLOC_TRAITS_H 1
  31:C:/Program Files (x86)/CodeBlocks/MinGW/lib/gcc/mingw32/4.9.2/include/c++/ext\alloc_traits.h **** 
  32:C:/Program Files (x86)/CodeBlocks/MinGW/lib/gcc/mingw32/4.9.2/include/c++/ext\alloc_traits.h **** #pragma GCC system_header
  33:C:/Program Files (x86)/CodeBlocks/MinGW/lib/gcc/mingw32/4.9.2/include/c++/ext\alloc_traits.h **** 
  34:C:/Program Files (x86)/CodeBlocks/MinGW/lib/gcc/mingw32/4.9.2/include/c++/ext\alloc_traits.h **** #if __cplusplus >= 201103L
  35:C:/Program Files (x86)/CodeBlocks/MinGW/lib/gcc/mingw32/4.9.2/include/c++/ext\alloc_traits.h **** # include <bits/move.h>
  36:C:/Program Files (x86)/CodeBlocks/MinGW/lib/gcc/mingw32/4.9.2/include/c++/ext\alloc_traits.h **** # include <bits/alloc_traits.h>
  37:C:/Program Files (x86)/CodeBlocks/MinGW/lib/gcc/mingw32/4.9.2/include/c++/ext\alloc_traits.h **** #else
GAS LISTING C:\Users\NJLLMR~1\AppData\Local\Temp\cce8JzPW.s 			page 58


  38:C:/Program Files (x86)/CodeBlocks/MinGW/lib/gcc/mingw32/4.9.2/include/c++/ext\alloc_traits.h **** # include <bits/allocator.h>  // for __alloc_swap
  39:C:/Program Files (x86)/CodeBlocks/MinGW/lib/gcc/mingw32/4.9.2/include/c++/ext\alloc_traits.h **** #endif
  40:C:/Program Files (x86)/CodeBlocks/MinGW/lib/gcc/mingw32/4.9.2/include/c++/ext\alloc_traits.h **** 
  41:C:/Program Files (x86)/CodeBlocks/MinGW/lib/gcc/mingw32/4.9.2/include/c++/ext\alloc_traits.h **** namespace __gnu_cxx _GLIBCXX_VISIBILITY(default)
  42:C:/Program Files (x86)/CodeBlocks/MinGW/lib/gcc/mingw32/4.9.2/include/c++/ext\alloc_traits.h **** {
  43:C:/Program Files (x86)/CodeBlocks/MinGW/lib/gcc/mingw32/4.9.2/include/c++/ext\alloc_traits.h **** _GLIBCXX_BEGIN_NAMESPACE_VERSION
  44:C:/Program Files (x86)/CodeBlocks/MinGW/lib/gcc/mingw32/4.9.2/include/c++/ext\alloc_traits.h **** 
  45:C:/Program Files (x86)/CodeBlocks/MinGW/lib/gcc/mingw32/4.9.2/include/c++/ext\alloc_traits.h **** #if __cplusplus >= 201103L
  46:C:/Program Files (x86)/CodeBlocks/MinGW/lib/gcc/mingw32/4.9.2/include/c++/ext\alloc_traits.h ****   template<typename _Alloc>
  47:C:/Program Files (x86)/CodeBlocks/MinGW/lib/gcc/mingw32/4.9.2/include/c++/ext\alloc_traits.h ****     struct __allocator_always_compares_equal : std::false_type { };
  48:C:/Program Files (x86)/CodeBlocks/MinGW/lib/gcc/mingw32/4.9.2/include/c++/ext\alloc_traits.h **** 
  49:C:/Program Files (x86)/CodeBlocks/MinGW/lib/gcc/mingw32/4.9.2/include/c++/ext\alloc_traits.h ****   template<typename _Tp>
  50:C:/Program Files (x86)/CodeBlocks/MinGW/lib/gcc/mingw32/4.9.2/include/c++/ext\alloc_traits.h ****     struct __allocator_always_compares_equal<std::allocator<_Tp>>
  51:C:/Program Files (x86)/CodeBlocks/MinGW/lib/gcc/mingw32/4.9.2/include/c++/ext\alloc_traits.h ****     : std::true_type { };
  52:C:/Program Files (x86)/CodeBlocks/MinGW/lib/gcc/mingw32/4.9.2/include/c++/ext\alloc_traits.h **** 
  53:C:/Program Files (x86)/CodeBlocks/MinGW/lib/gcc/mingw32/4.9.2/include/c++/ext\alloc_traits.h ****   template<typename, typename> struct array_allocator;
  54:C:/Program Files (x86)/CodeBlocks/MinGW/lib/gcc/mingw32/4.9.2/include/c++/ext\alloc_traits.h **** 
  55:C:/Program Files (x86)/CodeBlocks/MinGW/lib/gcc/mingw32/4.9.2/include/c++/ext\alloc_traits.h ****   template<typename _Tp, typename _Array>
  56:C:/Program Files (x86)/CodeBlocks/MinGW/lib/gcc/mingw32/4.9.2/include/c++/ext\alloc_traits.h ****     struct __allocator_always_compares_equal<array_allocator<_Tp, _Array>>
  57:C:/Program Files (x86)/CodeBlocks/MinGW/lib/gcc/mingw32/4.9.2/include/c++/ext\alloc_traits.h ****     : std::true_type { };
  58:C:/Program Files (x86)/CodeBlocks/MinGW/lib/gcc/mingw32/4.9.2/include/c++/ext\alloc_traits.h **** 
  59:C:/Program Files (x86)/CodeBlocks/MinGW/lib/gcc/mingw32/4.9.2/include/c++/ext\alloc_traits.h ****   template<typename> struct bitmap_allocator;
  60:C:/Program Files (x86)/CodeBlocks/MinGW/lib/gcc/mingw32/4.9.2/include/c++/ext\alloc_traits.h **** 
  61:C:/Program Files (x86)/CodeBlocks/MinGW/lib/gcc/mingw32/4.9.2/include/c++/ext\alloc_traits.h ****   template<typename _Tp>
  62:C:/Program Files (x86)/CodeBlocks/MinGW/lib/gcc/mingw32/4.9.2/include/c++/ext\alloc_traits.h ****     struct __allocator_always_compares_equal<bitmap_allocator<_Tp>>
  63:C:/Program Files (x86)/CodeBlocks/MinGW/lib/gcc/mingw32/4.9.2/include/c++/ext\alloc_traits.h ****     : std::true_type { };
  64:C:/Program Files (x86)/CodeBlocks/MinGW/lib/gcc/mingw32/4.9.2/include/c++/ext\alloc_traits.h **** 
  65:C:/Program Files (x86)/CodeBlocks/MinGW/lib/gcc/mingw32/4.9.2/include/c++/ext\alloc_traits.h ****   template<typename> struct malloc_allocator;
  66:C:/Program Files (x86)/CodeBlocks/MinGW/lib/gcc/mingw32/4.9.2/include/c++/ext\alloc_traits.h **** 
  67:C:/Program Files (x86)/CodeBlocks/MinGW/lib/gcc/mingw32/4.9.2/include/c++/ext\alloc_traits.h ****   template<typename _Tp>
  68:C:/Program Files (x86)/CodeBlocks/MinGW/lib/gcc/mingw32/4.9.2/include/c++/ext\alloc_traits.h ****     struct __allocator_always_compares_equal<malloc_allocator<_Tp>>
  69:C:/Program Files (x86)/CodeBlocks/MinGW/lib/gcc/mingw32/4.9.2/include/c++/ext\alloc_traits.h ****     : std::true_type { };
  70:C:/Program Files (x86)/CodeBlocks/MinGW/lib/gcc/mingw32/4.9.2/include/c++/ext\alloc_traits.h **** 
  71:C:/Program Files (x86)/CodeBlocks/MinGW/lib/gcc/mingw32/4.9.2/include/c++/ext\alloc_traits.h ****   template<typename> struct mt_allocator;
  72:C:/Program Files (x86)/CodeBlocks/MinGW/lib/gcc/mingw32/4.9.2/include/c++/ext\alloc_traits.h **** 
  73:C:/Program Files (x86)/CodeBlocks/MinGW/lib/gcc/mingw32/4.9.2/include/c++/ext\alloc_traits.h ****   template<typename _Tp>
  74:C:/Program Files (x86)/CodeBlocks/MinGW/lib/gcc/mingw32/4.9.2/include/c++/ext\alloc_traits.h ****     struct __allocator_always_compares_equal<mt_allocator<_Tp>>
  75:C:/Program Files (x86)/CodeBlocks/MinGW/lib/gcc/mingw32/4.9.2/include/c++/ext\alloc_traits.h ****     : std::true_type { };
  76:C:/Program Files (x86)/CodeBlocks/MinGW/lib/gcc/mingw32/4.9.2/include/c++/ext\alloc_traits.h **** 
  77:C:/Program Files (x86)/CodeBlocks/MinGW/lib/gcc/mingw32/4.9.2/include/c++/ext\alloc_traits.h ****   template<typename> struct new_allocator;
  78:C:/Program Files (x86)/CodeBlocks/MinGW/lib/gcc/mingw32/4.9.2/include/c++/ext\alloc_traits.h **** 
  79:C:/Program Files (x86)/CodeBlocks/MinGW/lib/gcc/mingw32/4.9.2/include/c++/ext\alloc_traits.h ****   template<typename _Tp>
  80:C:/Program Files (x86)/CodeBlocks/MinGW/lib/gcc/mingw32/4.9.2/include/c++/ext\alloc_traits.h ****     struct __allocator_always_compares_equal<new_allocator<_Tp>>
  81:C:/Program Files (x86)/CodeBlocks/MinGW/lib/gcc/mingw32/4.9.2/include/c++/ext\alloc_traits.h ****     : std::true_type { };
  82:C:/Program Files (x86)/CodeBlocks/MinGW/lib/gcc/mingw32/4.9.2/include/c++/ext\alloc_traits.h **** 
  83:C:/Program Files (x86)/CodeBlocks/MinGW/lib/gcc/mingw32/4.9.2/include/c++/ext\alloc_traits.h ****   template<typename> struct pool_allocator;
  84:C:/Program Files (x86)/CodeBlocks/MinGW/lib/gcc/mingw32/4.9.2/include/c++/ext\alloc_traits.h **** 
  85:C:/Program Files (x86)/CodeBlocks/MinGW/lib/gcc/mingw32/4.9.2/include/c++/ext\alloc_traits.h ****   template<typename _Tp>
  86:C:/Program Files (x86)/CodeBlocks/MinGW/lib/gcc/mingw32/4.9.2/include/c++/ext\alloc_traits.h ****     struct __allocator_always_compares_equal<pool_allocator<_Tp>>
  87:C:/Program Files (x86)/CodeBlocks/MinGW/lib/gcc/mingw32/4.9.2/include/c++/ext\alloc_traits.h ****     : std::true_type { };
  88:C:/Program Files (x86)/CodeBlocks/MinGW/lib/gcc/mingw32/4.9.2/include/c++/ext\alloc_traits.h **** #endif
  89:C:/Program Files (x86)/CodeBlocks/MinGW/lib/gcc/mingw32/4.9.2/include/c++/ext\alloc_traits.h **** 
  90:C:/Program Files (x86)/CodeBlocks/MinGW/lib/gcc/mingw32/4.9.2/include/c++/ext\alloc_traits.h **** /**
  91:C:/Program Files (x86)/CodeBlocks/MinGW/lib/gcc/mingw32/4.9.2/include/c++/ext\alloc_traits.h ****  * @brief  Uniform interface to C++98 and C++0x allocators.
  92:C:/Program Files (x86)/CodeBlocks/MinGW/lib/gcc/mingw32/4.9.2/include/c++/ext\alloc_traits.h ****  * @ingroup allocators
  93:C:/Program Files (x86)/CodeBlocks/MinGW/lib/gcc/mingw32/4.9.2/include/c++/ext\alloc_traits.h **** */
  94:C:/Program Files (x86)/CodeBlocks/MinGW/lib/gcc/mingw32/4.9.2/include/c++/ext\alloc_traits.h **** template<typename _Alloc>
GAS LISTING C:\Users\NJLLMR~1\AppData\Local\Temp\cce8JzPW.s 			page 59


  95:C:/Program Files (x86)/CodeBlocks/MinGW/lib/gcc/mingw32/4.9.2/include/c++/ext\alloc_traits.h ****   struct __alloc_traits
  96:C:/Program Files (x86)/CodeBlocks/MinGW/lib/gcc/mingw32/4.9.2/include/c++/ext\alloc_traits.h **** #if __cplusplus >= 201103L
  97:C:/Program Files (x86)/CodeBlocks/MinGW/lib/gcc/mingw32/4.9.2/include/c++/ext\alloc_traits.h ****   : std::allocator_traits<_Alloc>
  98:C:/Program Files (x86)/CodeBlocks/MinGW/lib/gcc/mingw32/4.9.2/include/c++/ext\alloc_traits.h **** #endif
  99:C:/Program Files (x86)/CodeBlocks/MinGW/lib/gcc/mingw32/4.9.2/include/c++/ext\alloc_traits.h ****   {
 100:C:/Program Files (x86)/CodeBlocks/MinGW/lib/gcc/mingw32/4.9.2/include/c++/ext\alloc_traits.h ****     typedef _Alloc allocator_type;
 101:C:/Program Files (x86)/CodeBlocks/MinGW/lib/gcc/mingw32/4.9.2/include/c++/ext\alloc_traits.h **** #if __cplusplus >= 201103L
 102:C:/Program Files (x86)/CodeBlocks/MinGW/lib/gcc/mingw32/4.9.2/include/c++/ext\alloc_traits.h ****     typedef std::allocator_traits<_Alloc>           _Base_type;
 103:C:/Program Files (x86)/CodeBlocks/MinGW/lib/gcc/mingw32/4.9.2/include/c++/ext\alloc_traits.h ****     typedef typename _Base_type::value_type         value_type;
 104:C:/Program Files (x86)/CodeBlocks/MinGW/lib/gcc/mingw32/4.9.2/include/c++/ext\alloc_traits.h ****     typedef typename _Base_type::pointer            pointer;
 105:C:/Program Files (x86)/CodeBlocks/MinGW/lib/gcc/mingw32/4.9.2/include/c++/ext\alloc_traits.h ****     typedef typename _Base_type::const_pointer      const_pointer;
 106:C:/Program Files (x86)/CodeBlocks/MinGW/lib/gcc/mingw32/4.9.2/include/c++/ext\alloc_traits.h ****     typedef typename _Base_type::size_type          size_type;
 107:C:/Program Files (x86)/CodeBlocks/MinGW/lib/gcc/mingw32/4.9.2/include/c++/ext\alloc_traits.h ****     typedef typename _Base_type::difference_type    difference_type;
 108:C:/Program Files (x86)/CodeBlocks/MinGW/lib/gcc/mingw32/4.9.2/include/c++/ext\alloc_traits.h ****     // C++11 allocators do not define reference or const_reference
 109:C:/Program Files (x86)/CodeBlocks/MinGW/lib/gcc/mingw32/4.9.2/include/c++/ext\alloc_traits.h ****     typedef value_type&                             reference;
 110:C:/Program Files (x86)/CodeBlocks/MinGW/lib/gcc/mingw32/4.9.2/include/c++/ext\alloc_traits.h ****     typedef const value_type&                       const_reference;
 111:C:/Program Files (x86)/CodeBlocks/MinGW/lib/gcc/mingw32/4.9.2/include/c++/ext\alloc_traits.h ****     using _Base_type::allocate;
 112:C:/Program Files (x86)/CodeBlocks/MinGW/lib/gcc/mingw32/4.9.2/include/c++/ext\alloc_traits.h ****     using _Base_type::deallocate;
 113:C:/Program Files (x86)/CodeBlocks/MinGW/lib/gcc/mingw32/4.9.2/include/c++/ext\alloc_traits.h ****     using _Base_type::construct;
 114:C:/Program Files (x86)/CodeBlocks/MinGW/lib/gcc/mingw32/4.9.2/include/c++/ext\alloc_traits.h ****     using _Base_type::destroy;
 115:C:/Program Files (x86)/CodeBlocks/MinGW/lib/gcc/mingw32/4.9.2/include/c++/ext\alloc_traits.h ****     using _Base_type::max_size;
 116:C:/Program Files (x86)/CodeBlocks/MinGW/lib/gcc/mingw32/4.9.2/include/c++/ext\alloc_traits.h **** 
 117:C:/Program Files (x86)/CodeBlocks/MinGW/lib/gcc/mingw32/4.9.2/include/c++/ext\alloc_traits.h ****   private:
 118:C:/Program Files (x86)/CodeBlocks/MinGW/lib/gcc/mingw32/4.9.2/include/c++/ext\alloc_traits.h ****     template<typename _Ptr>
 119:C:/Program Files (x86)/CodeBlocks/MinGW/lib/gcc/mingw32/4.9.2/include/c++/ext\alloc_traits.h ****       using __is_custom_pointer
 120:C:/Program Files (x86)/CodeBlocks/MinGW/lib/gcc/mingw32/4.9.2/include/c++/ext\alloc_traits.h **** 	= std::__and_<std::is_same<pointer, _Ptr>,
 121:C:/Program Files (x86)/CodeBlocks/MinGW/lib/gcc/mingw32/4.9.2/include/c++/ext\alloc_traits.h **** 		      std::__not_<std::is_pointer<_Ptr>>>;
 122:C:/Program Files (x86)/CodeBlocks/MinGW/lib/gcc/mingw32/4.9.2/include/c++/ext\alloc_traits.h **** 
 123:C:/Program Files (x86)/CodeBlocks/MinGW/lib/gcc/mingw32/4.9.2/include/c++/ext\alloc_traits.h ****   public:
 124:C:/Program Files (x86)/CodeBlocks/MinGW/lib/gcc/mingw32/4.9.2/include/c++/ext\alloc_traits.h ****     // overload construct for non-standard pointer types
 125:C:/Program Files (x86)/CodeBlocks/MinGW/lib/gcc/mingw32/4.9.2/include/c++/ext\alloc_traits.h ****     template<typename _Ptr, typename... _Args>
 126:C:/Program Files (x86)/CodeBlocks/MinGW/lib/gcc/mingw32/4.9.2/include/c++/ext\alloc_traits.h ****       static typename std::enable_if<__is_custom_pointer<_Ptr>::value>::type
 127:C:/Program Files (x86)/CodeBlocks/MinGW/lib/gcc/mingw32/4.9.2/include/c++/ext\alloc_traits.h ****       construct(_Alloc& __a, _Ptr __p, _Args&&... __args)
 128:C:/Program Files (x86)/CodeBlocks/MinGW/lib/gcc/mingw32/4.9.2/include/c++/ext\alloc_traits.h ****       {
 129:C:/Program Files (x86)/CodeBlocks/MinGW/lib/gcc/mingw32/4.9.2/include/c++/ext\alloc_traits.h **** 	_Base_type::construct(__a, std::addressof(*__p),
 130:C:/Program Files (x86)/CodeBlocks/MinGW/lib/gcc/mingw32/4.9.2/include/c++/ext\alloc_traits.h **** 			      std::forward<_Args>(__args)...);
 131:C:/Program Files (x86)/CodeBlocks/MinGW/lib/gcc/mingw32/4.9.2/include/c++/ext\alloc_traits.h ****       }
 132:C:/Program Files (x86)/CodeBlocks/MinGW/lib/gcc/mingw32/4.9.2/include/c++/ext\alloc_traits.h **** 
 133:C:/Program Files (x86)/CodeBlocks/MinGW/lib/gcc/mingw32/4.9.2/include/c++/ext\alloc_traits.h ****     // overload destroy for non-standard pointer types
 134:C:/Program Files (x86)/CodeBlocks/MinGW/lib/gcc/mingw32/4.9.2/include/c++/ext\alloc_traits.h ****     template<typename _Ptr>
 135:C:/Program Files (x86)/CodeBlocks/MinGW/lib/gcc/mingw32/4.9.2/include/c++/ext\alloc_traits.h ****       static typename std::enable_if<__is_custom_pointer<_Ptr>::value>::type
 136:C:/Program Files (x86)/CodeBlocks/MinGW/lib/gcc/mingw32/4.9.2/include/c++/ext\alloc_traits.h ****       destroy(_Alloc& __a, _Ptr __p)
 137:C:/Program Files (x86)/CodeBlocks/MinGW/lib/gcc/mingw32/4.9.2/include/c++/ext\alloc_traits.h ****       { _Base_type::destroy(__a, std::addressof(*__p)); }
 138:C:/Program Files (x86)/CodeBlocks/MinGW/lib/gcc/mingw32/4.9.2/include/c++/ext\alloc_traits.h **** 
 139:C:/Program Files (x86)/CodeBlocks/MinGW/lib/gcc/mingw32/4.9.2/include/c++/ext\alloc_traits.h ****     static _Alloc _S_select_on_copy(const _Alloc& __a)
 140:C:/Program Files (x86)/CodeBlocks/MinGW/lib/gcc/mingw32/4.9.2/include/c++/ext\alloc_traits.h ****     { return _Base_type::select_on_container_copy_construction(__a); }
 141:C:/Program Files (x86)/CodeBlocks/MinGW/lib/gcc/mingw32/4.9.2/include/c++/ext\alloc_traits.h **** 
 142:C:/Program Files (x86)/CodeBlocks/MinGW/lib/gcc/mingw32/4.9.2/include/c++/ext\alloc_traits.h ****     static void _S_on_swap(_Alloc& __a, _Alloc& __b)
 143:C:/Program Files (x86)/CodeBlocks/MinGW/lib/gcc/mingw32/4.9.2/include/c++/ext\alloc_traits.h ****     { std::__alloc_on_swap(__a, __b); }
 144:C:/Program Files (x86)/CodeBlocks/MinGW/lib/gcc/mingw32/4.9.2/include/c++/ext\alloc_traits.h **** 
 145:C:/Program Files (x86)/CodeBlocks/MinGW/lib/gcc/mingw32/4.9.2/include/c++/ext\alloc_traits.h ****     static constexpr bool _S_propagate_on_copy_assign()
 146:C:/Program Files (x86)/CodeBlocks/MinGW/lib/gcc/mingw32/4.9.2/include/c++/ext\alloc_traits.h ****     { return _Base_type::propagate_on_container_copy_assignment::value; }
 147:C:/Program Files (x86)/CodeBlocks/MinGW/lib/gcc/mingw32/4.9.2/include/c++/ext\alloc_traits.h **** 
 148:C:/Program Files (x86)/CodeBlocks/MinGW/lib/gcc/mingw32/4.9.2/include/c++/ext\alloc_traits.h ****     static constexpr bool _S_propagate_on_move_assign()
 149:C:/Program Files (x86)/CodeBlocks/MinGW/lib/gcc/mingw32/4.9.2/include/c++/ext\alloc_traits.h ****     { return _Base_type::propagate_on_container_move_assignment::value; }
 150:C:/Program Files (x86)/CodeBlocks/MinGW/lib/gcc/mingw32/4.9.2/include/c++/ext\alloc_traits.h **** 
 151:C:/Program Files (x86)/CodeBlocks/MinGW/lib/gcc/mingw32/4.9.2/include/c++/ext\alloc_traits.h ****     static constexpr bool _S_propagate_on_swap()
GAS LISTING C:\Users\NJLLMR~1\AppData\Local\Temp\cce8JzPW.s 			page 60


 152:C:/Program Files (x86)/CodeBlocks/MinGW/lib/gcc/mingw32/4.9.2/include/c++/ext\alloc_traits.h ****     { return _Base_type::propagate_on_container_swap::value; }
 153:C:/Program Files (x86)/CodeBlocks/MinGW/lib/gcc/mingw32/4.9.2/include/c++/ext\alloc_traits.h **** 
 154:C:/Program Files (x86)/CodeBlocks/MinGW/lib/gcc/mingw32/4.9.2/include/c++/ext\alloc_traits.h ****     static constexpr bool _S_always_equal()
 155:C:/Program Files (x86)/CodeBlocks/MinGW/lib/gcc/mingw32/4.9.2/include/c++/ext\alloc_traits.h ****     { return __allocator_always_compares_equal<_Alloc>::value; }
 156:C:/Program Files (x86)/CodeBlocks/MinGW/lib/gcc/mingw32/4.9.2/include/c++/ext\alloc_traits.h **** 
 157:C:/Program Files (x86)/CodeBlocks/MinGW/lib/gcc/mingw32/4.9.2/include/c++/ext\alloc_traits.h ****     static constexpr bool _S_nothrow_move()
 158:C:/Program Files (x86)/CodeBlocks/MinGW/lib/gcc/mingw32/4.9.2/include/c++/ext\alloc_traits.h ****     { return _S_propagate_on_move_assign() || _S_always_equal(); }
 159:C:/Program Files (x86)/CodeBlocks/MinGW/lib/gcc/mingw32/4.9.2/include/c++/ext\alloc_traits.h **** 
 160:C:/Program Files (x86)/CodeBlocks/MinGW/lib/gcc/mingw32/4.9.2/include/c++/ext\alloc_traits.h ****     static constexpr bool _S_nothrow_swap()
 161:C:/Program Files (x86)/CodeBlocks/MinGW/lib/gcc/mingw32/4.9.2/include/c++/ext\alloc_traits.h ****     {
 162:C:/Program Files (x86)/CodeBlocks/MinGW/lib/gcc/mingw32/4.9.2/include/c++/ext\alloc_traits.h ****       using std::swap;
 163:C:/Program Files (x86)/CodeBlocks/MinGW/lib/gcc/mingw32/4.9.2/include/c++/ext\alloc_traits.h ****       return !_S_propagate_on_swap()
 164:C:/Program Files (x86)/CodeBlocks/MinGW/lib/gcc/mingw32/4.9.2/include/c++/ext\alloc_traits.h ****        	|| noexcept(swap(std::declval<_Alloc&>(), std::declval<_Alloc&>()));
 165:C:/Program Files (x86)/CodeBlocks/MinGW/lib/gcc/mingw32/4.9.2/include/c++/ext\alloc_traits.h ****     }
 166:C:/Program Files (x86)/CodeBlocks/MinGW/lib/gcc/mingw32/4.9.2/include/c++/ext\alloc_traits.h **** 
 167:C:/Program Files (x86)/CodeBlocks/MinGW/lib/gcc/mingw32/4.9.2/include/c++/ext\alloc_traits.h ****     template<typename _Tp>
 168:C:/Program Files (x86)/CodeBlocks/MinGW/lib/gcc/mingw32/4.9.2/include/c++/ext\alloc_traits.h ****       struct rebind
 169:C:/Program Files (x86)/CodeBlocks/MinGW/lib/gcc/mingw32/4.9.2/include/c++/ext\alloc_traits.h ****       { typedef typename _Base_type::template rebind_alloc<_Tp> other; };
 170:C:/Program Files (x86)/CodeBlocks/MinGW/lib/gcc/mingw32/4.9.2/include/c++/ext\alloc_traits.h **** #else
 171:C:/Program Files (x86)/CodeBlocks/MinGW/lib/gcc/mingw32/4.9.2/include/c++/ext\alloc_traits.h **** 
 172:C:/Program Files (x86)/CodeBlocks/MinGW/lib/gcc/mingw32/4.9.2/include/c++/ext\alloc_traits.h ****     typedef typename _Alloc::pointer                pointer;
 173:C:/Program Files (x86)/CodeBlocks/MinGW/lib/gcc/mingw32/4.9.2/include/c++/ext\alloc_traits.h ****     typedef typename _Alloc::const_pointer          const_pointer;
 174:C:/Program Files (x86)/CodeBlocks/MinGW/lib/gcc/mingw32/4.9.2/include/c++/ext\alloc_traits.h ****     typedef typename _Alloc::value_type             value_type;
 175:C:/Program Files (x86)/CodeBlocks/MinGW/lib/gcc/mingw32/4.9.2/include/c++/ext\alloc_traits.h ****     typedef typename _Alloc::reference              reference;
 176:C:/Program Files (x86)/CodeBlocks/MinGW/lib/gcc/mingw32/4.9.2/include/c++/ext\alloc_traits.h ****     typedef typename _Alloc::const_reference        const_reference;
 177:C:/Program Files (x86)/CodeBlocks/MinGW/lib/gcc/mingw32/4.9.2/include/c++/ext\alloc_traits.h ****     typedef typename _Alloc::size_type              size_type;
 178:C:/Program Files (x86)/CodeBlocks/MinGW/lib/gcc/mingw32/4.9.2/include/c++/ext\alloc_traits.h ****     typedef typename _Alloc::difference_type        difference_type;
 179:C:/Program Files (x86)/CodeBlocks/MinGW/lib/gcc/mingw32/4.9.2/include/c++/ext\alloc_traits.h **** 
 180:C:/Program Files (x86)/CodeBlocks/MinGW/lib/gcc/mingw32/4.9.2/include/c++/ext\alloc_traits.h ****     static pointer
 181:C:/Program Files (x86)/CodeBlocks/MinGW/lib/gcc/mingw32/4.9.2/include/c++/ext\alloc_traits.h ****     allocate(_Alloc& __a, size_type __n)
 182:C:/Program Files (x86)/CodeBlocks/MinGW/lib/gcc/mingw32/4.9.2/include/c++/ext\alloc_traits.h ****     { return __a.allocate(__n); }
 183:C:/Program Files (x86)/CodeBlocks/MinGW/lib/gcc/mingw32/4.9.2/include/c++/ext\alloc_traits.h **** 
 184:C:/Program Files (x86)/CodeBlocks/MinGW/lib/gcc/mingw32/4.9.2/include/c++/ext\alloc_traits.h ****     static void deallocate(_Alloc& __a, pointer __p, size_type __n)
 1248              		.loc 6 184 0
 1249              		.cfi_startproc
 1250 0000 55       		pushl	%ebp
 1251              		.cfi_def_cfa_offset 8
 1252              		.cfi_offset 5, -8
 1253 0001 89E5     		movl	%esp, %ebp
 1254              		.cfi_def_cfa_register 5
 1255 0003 83EC18   		subl	$24, %esp
 185:C:/Program Files (x86)/CodeBlocks/MinGW/lib/gcc/mingw32/4.9.2/include/c++/ext\alloc_traits.h ****     { __a.deallocate(__p, __n); }
 1256              		.loc 6 185 0
 1257 0006 8B4510   		movl	16(%ebp), %eax
 1258 0009 89442404 		movl	%eax, 4(%esp)
 1259 000d 8B450C   		movl	12(%ebp), %eax
 1260 0010 890424   		movl	%eax, (%esp)
 1261 0013 8B4D08   		movl	8(%ebp), %ecx
 1262 0016 E8000000 		call	__ZN9__gnu_cxx13new_allocatorI8ToppingsE10deallocateEPS1_j
 1262      00
 1263 001b 83EC08   		subl	$8, %esp
 1264 001e C9       		leave
 1265              		.cfi_restore 5
 1266              		.cfi_def_cfa 4, 4
 1267 001f C3       		ret
 1268              		.cfi_endproc
 1269              	LFE1368:
GAS LISTING C:\Users\NJLLMR~1\AppData\Local\Temp\cce8JzPW.s 			page 61


 1270              		.section	.text$_ZNSt12_Destroy_auxILb0EE9__destroyIP8ToppingsEEvT_S4_,"x"
 1271              		.linkonce discard
 1272              		.globl	__ZNSt12_Destroy_auxILb0EE9__destroyIP8ToppingsEEvT_S4_
 1274              	__ZNSt12_Destroy_auxILb0EE9__destroyIP8ToppingsEEvT_S4_:
 1275              	LFB1369:
 100:C:/Program Files (x86)/CodeBlocks/MinGW/lib/gcc/mingw32/4.9.2/include/c++/bits\stl_construct.h **** 	{
 1276              		.loc 3 100 0
 1277              		.cfi_startproc
 1278 0000 55       		pushl	%ebp
 1279              		.cfi_def_cfa_offset 8
 1280              		.cfi_offset 5, -8
 1281 0001 89E5     		movl	%esp, %ebp
 1282              		.cfi_def_cfa_register 5
 1283 0003 83EC18   		subl	$24, %esp
 102:C:/Program Files (x86)/CodeBlocks/MinGW/lib/gcc/mingw32/4.9.2/include/c++/bits\stl_construct.h **** 	    std::_Destroy(std::__addressof(*__first));
 1284              		.loc 3 102 0
 1285 0006 EB17     		jmp	L71
 1286              	L72:
 103:C:/Program Files (x86)/CodeBlocks/MinGW/lib/gcc/mingw32/4.9.2/include/c++/bits\stl_construct.h **** 	}
 1287              		.loc 3 103 0 discriminator 2
 1288 0008 8B4508   		movl	8(%ebp), %eax
 1289 000b 890424   		movl	%eax, (%esp)
 1290 000e E8000000 		call	__ZSt11__addressofI8ToppingsEPT_RS1_
 1290      00
 1291 0013 890424   		movl	%eax, (%esp)
 1292 0016 E8000000 		call	__ZSt8_DestroyI8ToppingsEvPT_
 1292      00
 102:C:/Program Files (x86)/CodeBlocks/MinGW/lib/gcc/mingw32/4.9.2/include/c++/bits\stl_construct.h **** 	    std::_Destroy(std::__addressof(*__first));
 1293              		.loc 3 102 0 discriminator 2
 1294 001b 8345080C 		addl	$12, 8(%ebp)
 1295              	L71:
 102:C:/Program Files (x86)/CodeBlocks/MinGW/lib/gcc/mingw32/4.9.2/include/c++/bits\stl_construct.h **** 	    std::_Destroy(std::__addressof(*__first));
 1296              		.loc 3 102 0 is_stmt 0 discriminator 1
 1297 001f 8B4508   		movl	8(%ebp), %eax
 1298 0022 3B450C   		cmpl	12(%ebp), %eax
 1299 0025 75E1     		jne	L72
 104:C:/Program Files (x86)/CodeBlocks/MinGW/lib/gcc/mingw32/4.9.2/include/c++/bits\stl_construct.h ****     };
 1300              		.loc 3 104 0 is_stmt 1
 1301 0027 C9       		leave
 1302              		.cfi_restore 5
 1303              		.cfi_def_cfa 4, 4
 1304 0028 C3       		ret
 1305              		.cfi_endproc
 1306              	LFE1369:
 1307 0029 909090   		.section	.text$_ZN9__gnu_cxx13new_allocatorI8ToppingsEC2Ev,"x"
 1308              		.linkonce discard
 1309              		.align 2
 1310              		.globl	__ZN9__gnu_cxx13new_allocatorI8ToppingsEC2Ev
 1312              	__ZN9__gnu_cxx13new_allocatorI8ToppingsEC2Ev:
 1313              	LFB1371:
  79:C:/Program Files (x86)/CodeBlocks/MinGW/lib/gcc/mingw32/4.9.2/include/c++/ext\new_allocator.h **** 
 1314              		.loc 5 79 0
 1315              		.cfi_startproc
 1316 0000 55       		pushl	%ebp
 1317              		.cfi_def_cfa_offset 8
 1318              		.cfi_offset 5, -8
 1319 0001 89E5     		movl	%esp, %ebp
GAS LISTING C:\Users\NJLLMR~1\AppData\Local\Temp\cce8JzPW.s 			page 62


 1320              		.cfi_def_cfa_register 5
 1321 0003 83EC04   		subl	$4, %esp
 1322 0006 894DFC   		movl	%ecx, -4(%ebp)
  79:C:/Program Files (x86)/CodeBlocks/MinGW/lib/gcc/mingw32/4.9.2/include/c++/ext\new_allocator.h **** 
 1323              		.loc 5 79 0
 1324 0009 C9       		leave
 1325              		.cfi_restore 5
 1326              		.cfi_def_cfa 4, 4
 1327 000a C3       		ret
 1328              		.cfi_endproc
 1329              	LFE1371:
 1330 000b 90       		.section	.text$_ZN9__gnu_cxx13new_allocatorI8ToppingsE10deallocateEPS1_j,"x"
 1331              		.linkonce discard
 1332              		.align 2
 1333              		.globl	__ZN9__gnu_cxx13new_allocatorI8ToppingsE10deallocateEPS1_j
 1335              	__ZN9__gnu_cxx13new_allocatorI8ToppingsE10deallocateEPS1_j:
 1336              	LFB1373:
  87:C:/Program Files (x86)/CodeBlocks/MinGW/lib/gcc/mingw32/4.9.2/include/c++/ext\new_allocator.h **** 
  88:C:/Program Files (x86)/CodeBlocks/MinGW/lib/gcc/mingw32/4.9.2/include/c++/ext\new_allocator.h ****       pointer
  89:C:/Program Files (x86)/CodeBlocks/MinGW/lib/gcc/mingw32/4.9.2/include/c++/ext\new_allocator.h ****       address(reference __x) const _GLIBCXX_NOEXCEPT
  90:C:/Program Files (x86)/CodeBlocks/MinGW/lib/gcc/mingw32/4.9.2/include/c++/ext\new_allocator.h ****       { return std::__addressof(__x); }
  91:C:/Program Files (x86)/CodeBlocks/MinGW/lib/gcc/mingw32/4.9.2/include/c++/ext\new_allocator.h **** 
  92:C:/Program Files (x86)/CodeBlocks/MinGW/lib/gcc/mingw32/4.9.2/include/c++/ext\new_allocator.h ****       const_pointer
  93:C:/Program Files (x86)/CodeBlocks/MinGW/lib/gcc/mingw32/4.9.2/include/c++/ext\new_allocator.h ****       address(const_reference __x) const _GLIBCXX_NOEXCEPT
  94:C:/Program Files (x86)/CodeBlocks/MinGW/lib/gcc/mingw32/4.9.2/include/c++/ext\new_allocator.h ****       { return std::__addressof(__x); }
  95:C:/Program Files (x86)/CodeBlocks/MinGW/lib/gcc/mingw32/4.9.2/include/c++/ext\new_allocator.h **** 
  96:C:/Program Files (x86)/CodeBlocks/MinGW/lib/gcc/mingw32/4.9.2/include/c++/ext\new_allocator.h ****       // NB: __n is permitted to be 0.  The C++ standard says nothing
  97:C:/Program Files (x86)/CodeBlocks/MinGW/lib/gcc/mingw32/4.9.2/include/c++/ext\new_allocator.h ****       // about what the return value is when __n == 0.
  98:C:/Program Files (x86)/CodeBlocks/MinGW/lib/gcc/mingw32/4.9.2/include/c++/ext\new_allocator.h ****       pointer
  99:C:/Program Files (x86)/CodeBlocks/MinGW/lib/gcc/mingw32/4.9.2/include/c++/ext\new_allocator.h ****       allocate(size_type __n, const void* = 0)
 100:C:/Program Files (x86)/CodeBlocks/MinGW/lib/gcc/mingw32/4.9.2/include/c++/ext\new_allocator.h ****       { 
 101:C:/Program Files (x86)/CodeBlocks/MinGW/lib/gcc/mingw32/4.9.2/include/c++/ext\new_allocator.h **** 	if (__n > this->max_size())
 102:C:/Program Files (x86)/CodeBlocks/MinGW/lib/gcc/mingw32/4.9.2/include/c++/ext\new_allocator.h **** 	  std::__throw_bad_alloc();
 103:C:/Program Files (x86)/CodeBlocks/MinGW/lib/gcc/mingw32/4.9.2/include/c++/ext\new_allocator.h **** 
 104:C:/Program Files (x86)/CodeBlocks/MinGW/lib/gcc/mingw32/4.9.2/include/c++/ext\new_allocator.h **** 	return static_cast<_Tp*>(::operator new(__n * sizeof(_Tp)));
 105:C:/Program Files (x86)/CodeBlocks/MinGW/lib/gcc/mingw32/4.9.2/include/c++/ext\new_allocator.h ****       }
 106:C:/Program Files (x86)/CodeBlocks/MinGW/lib/gcc/mingw32/4.9.2/include/c++/ext\new_allocator.h **** 
 107:C:/Program Files (x86)/CodeBlocks/MinGW/lib/gcc/mingw32/4.9.2/include/c++/ext\new_allocator.h ****       // __p is not permitted to be a null pointer.
 108:C:/Program Files (x86)/CodeBlocks/MinGW/lib/gcc/mingw32/4.9.2/include/c++/ext\new_allocator.h ****       void
 109:C:/Program Files (x86)/CodeBlocks/MinGW/lib/gcc/mingw32/4.9.2/include/c++/ext\new_allocator.h ****       deallocate(pointer __p, size_type)
 1337              		.loc 5 109 0
 1338              		.cfi_startproc
 1339 0000 55       		pushl	%ebp
 1340              		.cfi_def_cfa_offset 8
 1341              		.cfi_offset 5, -8
 1342 0001 89E5     		movl	%esp, %ebp
 1343              		.cfi_def_cfa_register 5
 1344 0003 83EC28   		subl	$40, %esp
 1345 0006 894DF4   		movl	%ecx, -12(%ebp)
 110:C:/Program Files (x86)/CodeBlocks/MinGW/lib/gcc/mingw32/4.9.2/include/c++/ext\new_allocator.h ****       { ::operator delete(__p); }
 1346              		.loc 5 110 0
 1347 0009 8B4508   		movl	8(%ebp), %eax
 1348 000c 890424   		movl	%eax, (%esp)
 1349 000f E8000000 		call	__ZdlPv
 1349      00
 1350 0014 C9       		leave
 1351              		.cfi_restore 5
GAS LISTING C:\Users\NJLLMR~1\AppData\Local\Temp\cce8JzPW.s 			page 63


 1352              		.cfi_def_cfa 4, 4
 1353 0015 C20800   		ret	$8
 1354              		.cfi_endproc
 1355              	LFE1373:
 1356              		.section	.text$_ZSt11__addressofI8ToppingsEPT_RS1_,"x"
 1357              		.linkonce discard
 1358              		.globl	__ZSt11__addressofI8ToppingsEPT_RS1_
 1360              	__ZSt11__addressofI8ToppingsEPT_RS1_:
 1361              	LFB1374:
 1362              		.file 7 "C:/Program Files (x86)/CodeBlocks/MinGW/lib/gcc/mingw32/4.9.2/include/c++/bits/move.h"
   1:C:/Program Files (x86)/CodeBlocks/MinGW/lib/gcc/mingw32/4.9.2/include/c++/bits\move.h **** // Move, forward and identity for C++0x + swap -*- C++ -*-
   2:C:/Program Files (x86)/CodeBlocks/MinGW/lib/gcc/mingw32/4.9.2/include/c++/bits\move.h **** 
   3:C:/Program Files (x86)/CodeBlocks/MinGW/lib/gcc/mingw32/4.9.2/include/c++/bits\move.h **** // Copyright (C) 2007-2014 Free Software Foundation, Inc.
   4:C:/Program Files (x86)/CodeBlocks/MinGW/lib/gcc/mingw32/4.9.2/include/c++/bits\move.h **** //
   5:C:/Program Files (x86)/CodeBlocks/MinGW/lib/gcc/mingw32/4.9.2/include/c++/bits\move.h **** // This file is part of the GNU ISO C++ Library.  This library is free
   6:C:/Program Files (x86)/CodeBlocks/MinGW/lib/gcc/mingw32/4.9.2/include/c++/bits\move.h **** // software; you can redistribute it and/or modify it under the
   7:C:/Program Files (x86)/CodeBlocks/MinGW/lib/gcc/mingw32/4.9.2/include/c++/bits\move.h **** // terms of the GNU General Public License as published by the
   8:C:/Program Files (x86)/CodeBlocks/MinGW/lib/gcc/mingw32/4.9.2/include/c++/bits\move.h **** // Free Software Foundation; either version 3, or (at your option)
   9:C:/Program Files (x86)/CodeBlocks/MinGW/lib/gcc/mingw32/4.9.2/include/c++/bits\move.h **** // any later version.
  10:C:/Program Files (x86)/CodeBlocks/MinGW/lib/gcc/mingw32/4.9.2/include/c++/bits\move.h **** 
  11:C:/Program Files (x86)/CodeBlocks/MinGW/lib/gcc/mingw32/4.9.2/include/c++/bits\move.h **** // This library is distributed in the hope that it will be useful,
  12:C:/Program Files (x86)/CodeBlocks/MinGW/lib/gcc/mingw32/4.9.2/include/c++/bits\move.h **** // but WITHOUT ANY WARRANTY; without even the implied warranty of
  13:C:/Program Files (x86)/CodeBlocks/MinGW/lib/gcc/mingw32/4.9.2/include/c++/bits\move.h **** // MERCHANTABILITY or FITNESS FOR A PARTICULAR PURPOSE.  See the
  14:C:/Program Files (x86)/CodeBlocks/MinGW/lib/gcc/mingw32/4.9.2/include/c++/bits\move.h **** // GNU General Public License for more details.
  15:C:/Program Files (x86)/CodeBlocks/MinGW/lib/gcc/mingw32/4.9.2/include/c++/bits\move.h **** 
  16:C:/Program Files (x86)/CodeBlocks/MinGW/lib/gcc/mingw32/4.9.2/include/c++/bits\move.h **** // Under Section 7 of GPL version 3, you are granted additional
  17:C:/Program Files (x86)/CodeBlocks/MinGW/lib/gcc/mingw32/4.9.2/include/c++/bits\move.h **** // permissions described in the GCC Runtime Library Exception, version
  18:C:/Program Files (x86)/CodeBlocks/MinGW/lib/gcc/mingw32/4.9.2/include/c++/bits\move.h **** // 3.1, as published by the Free Software Foundation.
  19:C:/Program Files (x86)/CodeBlocks/MinGW/lib/gcc/mingw32/4.9.2/include/c++/bits\move.h **** 
  20:C:/Program Files (x86)/CodeBlocks/MinGW/lib/gcc/mingw32/4.9.2/include/c++/bits\move.h **** // You should have received a copy of the GNU General Public License and
  21:C:/Program Files (x86)/CodeBlocks/MinGW/lib/gcc/mingw32/4.9.2/include/c++/bits\move.h **** // a copy of the GCC Runtime Library Exception along with this program;
  22:C:/Program Files (x86)/CodeBlocks/MinGW/lib/gcc/mingw32/4.9.2/include/c++/bits\move.h **** // see the files COPYING3 and COPYING.RUNTIME respectively.  If not, see
  23:C:/Program Files (x86)/CodeBlocks/MinGW/lib/gcc/mingw32/4.9.2/include/c++/bits\move.h **** // <http://www.gnu.org/licenses/>.
  24:C:/Program Files (x86)/CodeBlocks/MinGW/lib/gcc/mingw32/4.9.2/include/c++/bits\move.h **** 
  25:C:/Program Files (x86)/CodeBlocks/MinGW/lib/gcc/mingw32/4.9.2/include/c++/bits\move.h **** /** @file bits/move.h
  26:C:/Program Files (x86)/CodeBlocks/MinGW/lib/gcc/mingw32/4.9.2/include/c++/bits\move.h ****  *  This is an internal header file, included by other library headers.
  27:C:/Program Files (x86)/CodeBlocks/MinGW/lib/gcc/mingw32/4.9.2/include/c++/bits\move.h ****  *  Do not attempt to use it directly. @headername{utility}
  28:C:/Program Files (x86)/CodeBlocks/MinGW/lib/gcc/mingw32/4.9.2/include/c++/bits\move.h ****  */
  29:C:/Program Files (x86)/CodeBlocks/MinGW/lib/gcc/mingw32/4.9.2/include/c++/bits\move.h **** 
  30:C:/Program Files (x86)/CodeBlocks/MinGW/lib/gcc/mingw32/4.9.2/include/c++/bits\move.h **** #ifndef _MOVE_H
  31:C:/Program Files (x86)/CodeBlocks/MinGW/lib/gcc/mingw32/4.9.2/include/c++/bits\move.h **** #define _MOVE_H 1
  32:C:/Program Files (x86)/CodeBlocks/MinGW/lib/gcc/mingw32/4.9.2/include/c++/bits\move.h **** 
  33:C:/Program Files (x86)/CodeBlocks/MinGW/lib/gcc/mingw32/4.9.2/include/c++/bits\move.h **** #include <bits/c++config.h>
  34:C:/Program Files (x86)/CodeBlocks/MinGW/lib/gcc/mingw32/4.9.2/include/c++/bits\move.h **** #include <bits/concept_check.h>
  35:C:/Program Files (x86)/CodeBlocks/MinGW/lib/gcc/mingw32/4.9.2/include/c++/bits\move.h **** 
  36:C:/Program Files (x86)/CodeBlocks/MinGW/lib/gcc/mingw32/4.9.2/include/c++/bits\move.h **** namespace std _GLIBCXX_VISIBILITY(default)
  37:C:/Program Files (x86)/CodeBlocks/MinGW/lib/gcc/mingw32/4.9.2/include/c++/bits\move.h **** {
  38:C:/Program Files (x86)/CodeBlocks/MinGW/lib/gcc/mingw32/4.9.2/include/c++/bits\move.h **** _GLIBCXX_BEGIN_NAMESPACE_VERSION
  39:C:/Program Files (x86)/CodeBlocks/MinGW/lib/gcc/mingw32/4.9.2/include/c++/bits\move.h **** 
  40:C:/Program Files (x86)/CodeBlocks/MinGW/lib/gcc/mingw32/4.9.2/include/c++/bits\move.h ****   // Used, in C++03 mode too, by allocators, etc.
  41:C:/Program Files (x86)/CodeBlocks/MinGW/lib/gcc/mingw32/4.9.2/include/c++/bits\move.h ****   /**
  42:C:/Program Files (x86)/CodeBlocks/MinGW/lib/gcc/mingw32/4.9.2/include/c++/bits\move.h ****    *  @brief Same as C++11 std::addressof
  43:C:/Program Files (x86)/CodeBlocks/MinGW/lib/gcc/mingw32/4.9.2/include/c++/bits\move.h ****    *  @ingroup utilities
  44:C:/Program Files (x86)/CodeBlocks/MinGW/lib/gcc/mingw32/4.9.2/include/c++/bits\move.h ****    */
  45:C:/Program Files (x86)/CodeBlocks/MinGW/lib/gcc/mingw32/4.9.2/include/c++/bits\move.h ****   template<typename _Tp>
  46:C:/Program Files (x86)/CodeBlocks/MinGW/lib/gcc/mingw32/4.9.2/include/c++/bits\move.h ****     inline _Tp*
  47:C:/Program Files (x86)/CodeBlocks/MinGW/lib/gcc/mingw32/4.9.2/include/c++/bits\move.h ****     __addressof(_Tp& __r) _GLIBCXX_NOEXCEPT
GAS LISTING C:\Users\NJLLMR~1\AppData\Local\Temp\cce8JzPW.s 			page 64


 1363              		.loc 7 47 0
 1364              		.cfi_startproc
 1365 0000 55       		pushl	%ebp
 1366              		.cfi_def_cfa_offset 8
 1367              		.cfi_offset 5, -8
 1368 0001 89E5     		movl	%esp, %ebp
 1369              		.cfi_def_cfa_register 5
  48:C:/Program Files (x86)/CodeBlocks/MinGW/lib/gcc/mingw32/4.9.2/include/c++/bits\move.h ****     {
  49:C:/Program Files (x86)/CodeBlocks/MinGW/lib/gcc/mingw32/4.9.2/include/c++/bits\move.h ****       return reinterpret_cast<_Tp*>
  50:C:/Program Files (x86)/CodeBlocks/MinGW/lib/gcc/mingw32/4.9.2/include/c++/bits\move.h **** 	(&const_cast<char&>(reinterpret_cast<const volatile char&>(__r)));
 1370              		.loc 7 50 0
 1371 0003 8B4508   		movl	8(%ebp), %eax
  51:C:/Program Files (x86)/CodeBlocks/MinGW/lib/gcc/mingw32/4.9.2/include/c++/bits\move.h ****     }
 1372              		.loc 7 51 0
 1373 0006 5D       		popl	%ebp
 1374              		.cfi_restore 5
 1375              		.cfi_def_cfa 4, 4
 1376 0007 C3       		ret
 1377              		.cfi_endproc
 1378              	LFE1374:
 1379              		.section	.text$_ZSt8_DestroyI8ToppingsEvPT_,"x"
 1380              		.linkonce discard
 1381              		.globl	__ZSt8_DestroyI8ToppingsEvPT_
 1383              	__ZSt8_DestroyI8ToppingsEvPT_:
 1384              	LFB1375:
  92:C:/Program Files (x86)/CodeBlocks/MinGW/lib/gcc/mingw32/4.9.2/include/c++/bits\stl_construct.h ****     { __pointer->~_Tp(); }
 1385              		.loc 3 92 0
 1386              		.cfi_startproc
 1387 0000 55       		pushl	%ebp
 1388              		.cfi_def_cfa_offset 8
 1389              		.cfi_offset 5, -8
 1390 0001 89E5     		movl	%esp, %ebp
 1391              		.cfi_def_cfa_register 5
 1392 0003 83EC08   		subl	$8, %esp
  93:C:/Program Files (x86)/CodeBlocks/MinGW/lib/gcc/mingw32/4.9.2/include/c++/bits\stl_construct.h **** 
 1393              		.loc 3 93 0
 1394 0006 8B4508   		movl	8(%ebp), %eax
 1395 0009 8B00     		movl	(%eax), %eax
 1396 000b 8B00     		movl	(%eax), %eax
 1397 000d 8B4D08   		movl	8(%ebp), %ecx
 1398 0010 FFD0     		call	*%eax
 1399 0012 C9       		leave
 1400              		.cfi_restore 5
 1401              		.cfi_def_cfa 4, 4
 1402 0013 C3       		ret
 1403              		.cfi_endproc
 1404              	LFE1375:
 1405              		.text
 1407              	___tcf_0:
 1408              	LFB1377:
 1409              		.file 8 "C:/Program Files (x86)/CodeBlocks/MinGW/lib/gcc/mingw32/4.9.2/include/c++/iostream"
   1:C:/Program Files (x86)/CodeBlocks/MinGW/lib/gcc/mingw32/4.9.2/include/c++\iostream **** // Standard iostream objects -*- C++ -*-
   2:C:/Program Files (x86)/CodeBlocks/MinGW/lib/gcc/mingw32/4.9.2/include/c++\iostream **** 
   3:C:/Program Files (x86)/CodeBlocks/MinGW/lib/gcc/mingw32/4.9.2/include/c++\iostream **** // Copyright (C) 1997-2014 Free Software Foundation, Inc.
   4:C:/Program Files (x86)/CodeBlocks/MinGW/lib/gcc/mingw32/4.9.2/include/c++\iostream **** //
   5:C:/Program Files (x86)/CodeBlocks/MinGW/lib/gcc/mingw32/4.9.2/include/c++\iostream **** // This file is part of the GNU ISO C++ Library.  This library is free
   6:C:/Program Files (x86)/CodeBlocks/MinGW/lib/gcc/mingw32/4.9.2/include/c++\iostream **** // software; you can redistribute it and/or modify it under the
GAS LISTING C:\Users\NJLLMR~1\AppData\Local\Temp\cce8JzPW.s 			page 65


   7:C:/Program Files (x86)/CodeBlocks/MinGW/lib/gcc/mingw32/4.9.2/include/c++\iostream **** // terms of the GNU General Public License as published by the
   8:C:/Program Files (x86)/CodeBlocks/MinGW/lib/gcc/mingw32/4.9.2/include/c++\iostream **** // Free Software Foundation; either version 3, or (at your option)
   9:C:/Program Files (x86)/CodeBlocks/MinGW/lib/gcc/mingw32/4.9.2/include/c++\iostream **** // any later version.
  10:C:/Program Files (x86)/CodeBlocks/MinGW/lib/gcc/mingw32/4.9.2/include/c++\iostream **** 
  11:C:/Program Files (x86)/CodeBlocks/MinGW/lib/gcc/mingw32/4.9.2/include/c++\iostream **** // This library is distributed in the hope that it will be useful,
  12:C:/Program Files (x86)/CodeBlocks/MinGW/lib/gcc/mingw32/4.9.2/include/c++\iostream **** // but WITHOUT ANY WARRANTY; without even the implied warranty of
  13:C:/Program Files (x86)/CodeBlocks/MinGW/lib/gcc/mingw32/4.9.2/include/c++\iostream **** // MERCHANTABILITY or FITNESS FOR A PARTICULAR PURPOSE.  See the
  14:C:/Program Files (x86)/CodeBlocks/MinGW/lib/gcc/mingw32/4.9.2/include/c++\iostream **** // GNU General Public License for more details.
  15:C:/Program Files (x86)/CodeBlocks/MinGW/lib/gcc/mingw32/4.9.2/include/c++\iostream **** 
  16:C:/Program Files (x86)/CodeBlocks/MinGW/lib/gcc/mingw32/4.9.2/include/c++\iostream **** // Under Section 7 of GPL version 3, you are granted additional
  17:C:/Program Files (x86)/CodeBlocks/MinGW/lib/gcc/mingw32/4.9.2/include/c++\iostream **** // permissions described in the GCC Runtime Library Exception, version
  18:C:/Program Files (x86)/CodeBlocks/MinGW/lib/gcc/mingw32/4.9.2/include/c++\iostream **** // 3.1, as published by the Free Software Foundation.
  19:C:/Program Files (x86)/CodeBlocks/MinGW/lib/gcc/mingw32/4.9.2/include/c++\iostream **** 
  20:C:/Program Files (x86)/CodeBlocks/MinGW/lib/gcc/mingw32/4.9.2/include/c++\iostream **** // You should have received a copy of the GNU General Public License and
  21:C:/Program Files (x86)/CodeBlocks/MinGW/lib/gcc/mingw32/4.9.2/include/c++\iostream **** // a copy of the GCC Runtime Library Exception along with this program;
  22:C:/Program Files (x86)/CodeBlocks/MinGW/lib/gcc/mingw32/4.9.2/include/c++\iostream **** // see the files COPYING3 and COPYING.RUNTIME respectively.  If not, see
  23:C:/Program Files (x86)/CodeBlocks/MinGW/lib/gcc/mingw32/4.9.2/include/c++\iostream **** // <http://www.gnu.org/licenses/>.
  24:C:/Program Files (x86)/CodeBlocks/MinGW/lib/gcc/mingw32/4.9.2/include/c++\iostream **** 
  25:C:/Program Files (x86)/CodeBlocks/MinGW/lib/gcc/mingw32/4.9.2/include/c++\iostream **** /** @file include/iostream
  26:C:/Program Files (x86)/CodeBlocks/MinGW/lib/gcc/mingw32/4.9.2/include/c++\iostream ****  *  This is a Standard C++ Library header.
  27:C:/Program Files (x86)/CodeBlocks/MinGW/lib/gcc/mingw32/4.9.2/include/c++\iostream ****  */
  28:C:/Program Files (x86)/CodeBlocks/MinGW/lib/gcc/mingw32/4.9.2/include/c++\iostream **** 
  29:C:/Program Files (x86)/CodeBlocks/MinGW/lib/gcc/mingw32/4.9.2/include/c++\iostream **** //
  30:C:/Program Files (x86)/CodeBlocks/MinGW/lib/gcc/mingw32/4.9.2/include/c++\iostream **** // ISO C++ 14882: 27.3  Standard iostream objects
  31:C:/Program Files (x86)/CodeBlocks/MinGW/lib/gcc/mingw32/4.9.2/include/c++\iostream **** //
  32:C:/Program Files (x86)/CodeBlocks/MinGW/lib/gcc/mingw32/4.9.2/include/c++\iostream **** 
  33:C:/Program Files (x86)/CodeBlocks/MinGW/lib/gcc/mingw32/4.9.2/include/c++\iostream **** #ifndef _GLIBCXX_IOSTREAM
  34:C:/Program Files (x86)/CodeBlocks/MinGW/lib/gcc/mingw32/4.9.2/include/c++\iostream **** #define _GLIBCXX_IOSTREAM 1
  35:C:/Program Files (x86)/CodeBlocks/MinGW/lib/gcc/mingw32/4.9.2/include/c++\iostream **** 
  36:C:/Program Files (x86)/CodeBlocks/MinGW/lib/gcc/mingw32/4.9.2/include/c++\iostream **** #pragma GCC system_header
  37:C:/Program Files (x86)/CodeBlocks/MinGW/lib/gcc/mingw32/4.9.2/include/c++\iostream **** 
  38:C:/Program Files (x86)/CodeBlocks/MinGW/lib/gcc/mingw32/4.9.2/include/c++\iostream **** #include <bits/c++config.h>
  39:C:/Program Files (x86)/CodeBlocks/MinGW/lib/gcc/mingw32/4.9.2/include/c++\iostream **** #include <ostream>
  40:C:/Program Files (x86)/CodeBlocks/MinGW/lib/gcc/mingw32/4.9.2/include/c++\iostream **** #include <istream>
  41:C:/Program Files (x86)/CodeBlocks/MinGW/lib/gcc/mingw32/4.9.2/include/c++\iostream **** 
  42:C:/Program Files (x86)/CodeBlocks/MinGW/lib/gcc/mingw32/4.9.2/include/c++\iostream **** namespace std _GLIBCXX_VISIBILITY(default)
  43:C:/Program Files (x86)/CodeBlocks/MinGW/lib/gcc/mingw32/4.9.2/include/c++\iostream **** {
  44:C:/Program Files (x86)/CodeBlocks/MinGW/lib/gcc/mingw32/4.9.2/include/c++\iostream **** _GLIBCXX_BEGIN_NAMESPACE_VERSION
  45:C:/Program Files (x86)/CodeBlocks/MinGW/lib/gcc/mingw32/4.9.2/include/c++\iostream **** 
  46:C:/Program Files (x86)/CodeBlocks/MinGW/lib/gcc/mingw32/4.9.2/include/c++\iostream ****   /**
  47:C:/Program Files (x86)/CodeBlocks/MinGW/lib/gcc/mingw32/4.9.2/include/c++\iostream ****    *  @name Standard Stream Objects
  48:C:/Program Files (x86)/CodeBlocks/MinGW/lib/gcc/mingw32/4.9.2/include/c++\iostream ****    *
  49:C:/Program Files (x86)/CodeBlocks/MinGW/lib/gcc/mingw32/4.9.2/include/c++\iostream ****    *  The &lt;iostream&gt; header declares the eight <em>standard stream
  50:C:/Program Files (x86)/CodeBlocks/MinGW/lib/gcc/mingw32/4.9.2/include/c++\iostream ****    *  objects</em>.  For other declarations, see
  51:C:/Program Files (x86)/CodeBlocks/MinGW/lib/gcc/mingw32/4.9.2/include/c++\iostream ****    *  http://gcc.gnu.org/onlinedocs/libstdc++/manual/io.html
  52:C:/Program Files (x86)/CodeBlocks/MinGW/lib/gcc/mingw32/4.9.2/include/c++\iostream ****    *  and the @link iosfwd I/O forward declarations @endlink
  53:C:/Program Files (x86)/CodeBlocks/MinGW/lib/gcc/mingw32/4.9.2/include/c++\iostream ****    *
  54:C:/Program Files (x86)/CodeBlocks/MinGW/lib/gcc/mingw32/4.9.2/include/c++\iostream ****    *  They are required by default to cooperate with the global C
  55:C:/Program Files (x86)/CodeBlocks/MinGW/lib/gcc/mingw32/4.9.2/include/c++\iostream ****    *  library's @c FILE streams, and to be available during program
  56:C:/Program Files (x86)/CodeBlocks/MinGW/lib/gcc/mingw32/4.9.2/include/c++\iostream ****    *  startup and termination. For more information, see the section of the
  57:C:/Program Files (x86)/CodeBlocks/MinGW/lib/gcc/mingw32/4.9.2/include/c++\iostream ****    *  manual linked to above.
  58:C:/Program Files (x86)/CodeBlocks/MinGW/lib/gcc/mingw32/4.9.2/include/c++\iostream ****   */
  59:C:/Program Files (x86)/CodeBlocks/MinGW/lib/gcc/mingw32/4.9.2/include/c++\iostream ****   //@{
  60:C:/Program Files (x86)/CodeBlocks/MinGW/lib/gcc/mingw32/4.9.2/include/c++\iostream ****   extern istream cin;		/// Linked to standard input
  61:C:/Program Files (x86)/CodeBlocks/MinGW/lib/gcc/mingw32/4.9.2/include/c++\iostream ****   extern ostream cout;		/// Linked to standard output
  62:C:/Program Files (x86)/CodeBlocks/MinGW/lib/gcc/mingw32/4.9.2/include/c++\iostream ****   extern ostream cerr;		/// Linked to standard error (unbuffered)
  63:C:/Program Files (x86)/CodeBlocks/MinGW/lib/gcc/mingw32/4.9.2/include/c++\iostream ****   extern ostream clog;		/// Linked to standard error (buffered)
GAS LISTING C:\Users\NJLLMR~1\AppData\Local\Temp\cce8JzPW.s 			page 66


  64:C:/Program Files (x86)/CodeBlocks/MinGW/lib/gcc/mingw32/4.9.2/include/c++\iostream **** 
  65:C:/Program Files (x86)/CodeBlocks/MinGW/lib/gcc/mingw32/4.9.2/include/c++\iostream **** #ifdef _GLIBCXX_USE_WCHAR_T
  66:C:/Program Files (x86)/CodeBlocks/MinGW/lib/gcc/mingw32/4.9.2/include/c++\iostream ****   extern wistream wcin;		/// Linked to standard input
  67:C:/Program Files (x86)/CodeBlocks/MinGW/lib/gcc/mingw32/4.9.2/include/c++\iostream ****   extern wostream wcout;	/// Linked to standard output
  68:C:/Program Files (x86)/CodeBlocks/MinGW/lib/gcc/mingw32/4.9.2/include/c++\iostream ****   extern wostream wcerr;	/// Linked to standard error (unbuffered)
  69:C:/Program Files (x86)/CodeBlocks/MinGW/lib/gcc/mingw32/4.9.2/include/c++\iostream ****   extern wostream wclog;	/// Linked to standard error (buffered)
  70:C:/Program Files (x86)/CodeBlocks/MinGW/lib/gcc/mingw32/4.9.2/include/c++\iostream **** #endif
  71:C:/Program Files (x86)/CodeBlocks/MinGW/lib/gcc/mingw32/4.9.2/include/c++\iostream ****   //@}
  72:C:/Program Files (x86)/CodeBlocks/MinGW/lib/gcc/mingw32/4.9.2/include/c++\iostream **** 
  73:C:/Program Files (x86)/CodeBlocks/MinGW/lib/gcc/mingw32/4.9.2/include/c++\iostream ****   // For construction of filebuffers for cout, cin, cerr, clog et. al.
  74:C:/Program Files (x86)/CodeBlocks/MinGW/lib/gcc/mingw32/4.9.2/include/c++\iostream ****   static ios_base::Init __ioinit;
 1410              		.loc 8 74 0
 1411              		.cfi_startproc
 1412 04b7 55       		pushl	%ebp
 1413              		.cfi_def_cfa_offset 8
 1414              		.cfi_offset 5, -8
 1415 04b8 89E5     		movl	%esp, %ebp
 1416              		.cfi_def_cfa_register 5
 1417 04ba 83EC08   		subl	$8, %esp
 1418              		.loc 8 74 0
 1419 04bd B9000000 		movl	$__ZStL8__ioinit, %ecx
 1419      00
 1420 04c2 E8000000 		call	__ZNSt8ios_base4InitD1Ev
 1420      00
 1421 04c7 C9       		leave
 1422              		.cfi_restore 5
 1423              		.cfi_def_cfa 4, 4
 1424 04c8 C3       		ret
 1425              		.cfi_endproc
 1426              	LFE1377:
 1428              	__Z41__static_initialization_and_destruction_0ii:
 1429              	LFB1376:
 1430              		.loc 1 44 0
 1431              		.cfi_startproc
 1432 04c9 55       		pushl	%ebp
 1433              		.cfi_def_cfa_offset 8
 1434              		.cfi_offset 5, -8
 1435 04ca 89E5     		movl	%esp, %ebp
 1436              		.cfi_def_cfa_register 5
 1437 04cc 83EC18   		subl	$24, %esp
 1438              		.loc 1 44 0
 1439 04cf 837D0801 		cmpl	$1, 8(%ebp)
 1440 04d3 751F     		jne	L79
 1441              		.loc 1 44 0 is_stmt 0 discriminator 1
 1442 04d5 817D0CFF 		cmpl	$65535, 12(%ebp)
 1442      FF0000
 1443 04dc 7516     		jne	L79
 1444              		.loc 8 74 0 is_stmt 1
 1445 04de B9000000 		movl	$__ZStL8__ioinit, %ecx
 1445      00
 1446 04e3 E8000000 		call	__ZNSt8ios_base4InitC1Ev
 1446      00
 1447 04e8 C70424B7 		movl	$___tcf_0, (%esp)
 1447      040000
 1448 04ef E8000000 		call	_atexit
 1448      00
 1449              	L79:
GAS LISTING C:\Users\NJLLMR~1\AppData\Local\Temp\cce8JzPW.s 			page 67


 1450              		.loc 1 44 0
 1451 04f4 C9       		leave
 1452              		.cfi_restore 5
 1453              		.cfi_def_cfa 4, 4
 1454 04f5 C3       		ret
 1455              		.cfi_endproc
 1456              	LFE1376:
 1458              	__GLOBAL__sub_I__ZN5PizzaC2Ev:
 1459              	LFB1378:
 1460              		.loc 1 44 0
 1461              		.cfi_startproc
 1462 04f6 55       		pushl	%ebp
 1463              		.cfi_def_cfa_offset 8
 1464              		.cfi_offset 5, -8
 1465 04f7 89E5     		movl	%esp, %ebp
 1466              		.cfi_def_cfa_register 5
 1467 04f9 83EC18   		subl	$24, %esp
 1468              		.loc 1 44 0
 1469 04fc C7442404 		movl	$65535, 4(%esp)
 1469      FFFF0000 
 1470 0504 C7042401 		movl	$1, (%esp)
 1470      000000
 1471 050b E8B9FFFF 		call	__Z41__static_initialization_and_destruction_0ii
 1471      FF
 1472 0510 C9       		leave
 1473              		.cfi_restore 5
 1474              		.cfi_def_cfa 4, 4
 1475 0511 C3       		ret
 1476              		.cfi_endproc
 1477              	LFE1378:
 1478              		.section	.ctors,"w"
 1479              		.align 4
 1480 0000 F6040000 		.long	__GLOBAL__sub_I__ZN5PizzaC2Ev
 1481              		.text
 1482              	Letext0:
 1483              		.file 9 "C:/Program Files (x86)/CodeBlocks/MinGW/lib/gcc/mingw32/4.9.2/include/stddef.h"
 1484              		.file 10 "C:/Program Files (x86)/CodeBlocks/MinGW/include/wctype.h"
 1485              		.file 11 "C:/Program Files (x86)/CodeBlocks/MinGW/include/wchar.h"
 1486              		.file 12 "C:/Program Files (x86)/CodeBlocks/MinGW/lib/gcc/mingw32/4.9.2/include/c++/cwchar"
 1487              		.file 13 "C:/Program Files (x86)/CodeBlocks/MinGW/lib/gcc/mingw32/4.9.2/include/c++/bits/char_trai
 1488              		.file 14 "C:/Program Files (x86)/CodeBlocks/MinGW/lib/gcc/mingw32/4.9.2/include/c++/mingw32/bits/c
 1489              		.file 15 "C:/Program Files (x86)/CodeBlocks/MinGW/lib/gcc/mingw32/4.9.2/include/c++/clocale"
 1490              		.file 16 "C:/Program Files (x86)/CodeBlocks/MinGW/lib/gcc/mingw32/4.9.2/include/c++/bits/basic_str
 1491              		.file 17 "C:/Program Files (x86)/CodeBlocks/MinGW/lib/gcc/mingw32/4.9.2/include/c++/bits/basic_str
 1492              		.file 18 "C:/Program Files (x86)/CodeBlocks/MinGW/lib/gcc/mingw32/4.9.2/include/c++/bits/stringfwd
 1493              		.file 19 "C:/Program Files (x86)/CodeBlocks/MinGW/lib/gcc/mingw32/4.9.2/include/c++/bits/ios_base.
 1494              		.file 20 "C:/Program Files (x86)/CodeBlocks/MinGW/lib/gcc/mingw32/4.9.2/include/c++/cwctype"
 1495              		.file 21 "C:/Program Files (x86)/CodeBlocks/MinGW/lib/gcc/mingw32/4.9.2/include/c++/bits/vector.tc
 1496              		.file 22 "<built-in>"
 1497              		.file 23 "C:/Program Files (x86)/CodeBlocks/MinGW/lib/gcc/mingw32/4.9.2/include/c++/debug/debug.h"
 1498              		.file 24 "C:/Program Files (x86)/CodeBlocks/MinGW/lib/gcc/mingw32/4.9.2/include/c++/bits/predefine
 1499              		.file 25 "C:/Program Files (x86)/CodeBlocks/MinGW/lib/gcc/mingw32/4.9.2/include/c++/ext/numeric_tr
 1500              		.file 26 "C:/Program Files (x86)/CodeBlocks/MinGW/include/locale.h"
 1501              		.file 27 "C:/Program Files (x86)/CodeBlocks/MinGW/lib/gcc/mingw32/4.9.2/include/c++/mingw32/bits/a
 1502              		.file 28 "C:/Program Files (x86)/CodeBlocks/MinGW/include/ctype.h"
 1503              		.file 29 "include/models/Toppings.h"
 1504              		.file 30 "include/models/Pizza.h"
GAS LISTING C:\Users\NJLLMR~1\AppData\Local\Temp\cce8JzPW.s 			page 68


 1505 0512 9090     		.section	.debug_info,"dr"
 1506              	Ldebug_info0:
 1507 0000 246E0000 		.long	0x6e24
 1508 0004 0400     		.word	0x4
 1509 0006 00000000 		.secrel32	Ldebug_abbrev0
 1510 000a 04       		.byte	0x4
 1511 000b 01       		.uleb128 0x1
 1512 000c 474E5520 		.ascii "GNU C++ 4.9.2 -mtune=generic -march=pentiumpro -g -fexceptions\0"
 1512      432B2B20 
 1512      342E392E 
 1512      32202D6D 
 1512      74756E65 
 1513 004b 04       		.byte	0x4
 1514 004c 433A5C55 		.ascii "C:\\Users\\Nj\341ll M\375rdal\\3viknanamskeid\\LitidVerk1\\Pizza2\\Stortverk\\src\\models\
 1514      73657273 
 1514      5C4E6AE1 
 1514      6C6C204D 
 1514      FD726461 
 1515 00a2 433A5C55 		.ascii "C:\\Users\\Nj\341ll M\375rdal\\3viknanamskeid\\LitidVerk1\\Pizza2\\Stortverk\0"
 1515      73657273 
 1515      5C4E6AE1 
 1515      6C6C204D 
 1515      FD726461 
 1516 00e3 00000000 		.secrel32	Ldebug_ranges0+0
 1517 00e7 00000000 		.long	0
 1518 00eb 00000000 		.secrel32	Ldebug_line0
 1519 00ef 02       		.uleb128 0x2
 1520 00f0 73697A65 		.ascii "size_t\0"
 1520      5F7400
 1521 00f7 09       		.byte	0x9
 1522 00f8 D4       		.byte	0xd4
 1523 00f9 FD000000 		.long	0xfd
 1524 00fd 03       		.uleb128 0x3
 1525 00fe 04       		.byte	0x4
 1526 00ff 07       		.byte	0x7
 1527 0100 756E7369 		.ascii "unsigned int\0"
 1527      676E6564 
 1527      20696E74 
 1527      00
 1528 010d 04       		.uleb128 0x4
 1529 010e 77696E74 		.ascii "wint_t\0"
 1529      5F7400
 1530 0115 09       		.byte	0x9
 1531 0116 6101     		.word	0x161
 1532 0118 1C010000 		.long	0x11c
 1533 011c 03       		.uleb128 0x3
 1534 011d 02       		.byte	0x2
 1535 011e 07       		.byte	0x7
 1536 011f 73686F72 		.ascii "short unsigned int\0"
 1536      7420756E 
 1536      7369676E 
 1536      65642069 
 1536      6E7400
 1537 0132 05       		.uleb128 0x5
 1538 0133 04       		.byte	0x4
 1539 0134 5F5F6275 		.ascii "__builtin_va_list\0"
 1539      696C7469 
GAS LISTING C:\Users\NJLLMR~1\AppData\Local\Temp\cce8JzPW.s 			page 69


 1539      6E5F7661 
 1539      5F6C6973 
 1539      7400
 1540 0146 4A010000 		.long	0x14a
 1541 014a 03       		.uleb128 0x3
 1542 014b 01       		.byte	0x1
 1543 014c 06       		.byte	0x6
 1544 014d 63686172 		.ascii "char\0"
 1544      00
 1545 0152 02       		.uleb128 0x2
 1546 0153 77637479 		.ascii "wctype_t\0"
 1546      70655F74 
 1546      00
 1547 015c 0A       		.byte	0xa
 1548 015d 3E       		.byte	0x3e
 1549 015e 62010000 		.long	0x162
 1550 0162 03       		.uleb128 0x3
 1551 0163 02       		.byte	0x2
 1552 0164 07       		.byte	0x7
 1553 0165 77636861 		.ascii "wchar_t\0"
 1553      725F7400 
 1554 016d 02       		.uleb128 0x2
 1555 016e 77637472 		.ascii "wctrans_t\0"
 1555      616E735F 
 1555      7400
 1556 0178 0A       		.byte	0xa
 1557 0179 94       		.byte	0x94
 1558 017a 62010000 		.long	0x162
 1559 017e 03       		.uleb128 0x3
 1560 017f 04       		.byte	0x4
 1561 0180 05       		.byte	0x5
 1562 0181 696E7400 		.ascii "int\0"
 1563 0185 03       		.uleb128 0x3
 1564 0186 04       		.byte	0x4
 1565 0187 05       		.byte	0x5
 1566 0188 6C6F6E67 		.ascii "long int\0"
 1566      20696E74 
 1566      00
 1567 0191 03       		.uleb128 0x3
 1568 0192 08       		.byte	0x8
 1569 0193 05       		.byte	0x5
 1570 0194 6C6F6E67 		.ascii "long long int\0"
 1570      206C6F6E 
 1570      6720696E 
 1570      7400
 1571 01a2 03       		.uleb128 0x3
 1572 01a3 02       		.byte	0x2
 1573 01a4 05       		.byte	0x5
 1574 01a5 73686F72 		.ascii "short int\0"
 1574      7420696E 
 1574      7400
 1575 01af 06       		.uleb128 0x6
 1576 01b0 5F696F62 		.ascii "_iobuf\0"
 1576      756600
 1577 01b7 20       		.byte	0x20
 1578 01b8 0B       		.byte	0xb
 1579 01b9 44       		.byte	0x44
GAS LISTING C:\Users\NJLLMR~1\AppData\Local\Temp\cce8JzPW.s 			page 70


 1580 01ba 36020000 		.long	0x236
 1581 01be 07       		.uleb128 0x7
 1582 01bf 5F707472 		.ascii "_ptr\0"
 1582      00
 1583 01c4 0B       		.byte	0xb
 1584 01c5 46       		.byte	0x46
 1585 01c6 36020000 		.long	0x236
 1586 01ca 00       		.byte	0
 1587 01cb 07       		.uleb128 0x7
 1588 01cc 5F636E74 		.ascii "_cnt\0"
 1588      00
 1589 01d1 0B       		.byte	0xb
 1590 01d2 47       		.byte	0x47
 1591 01d3 7E010000 		.long	0x17e
 1592 01d7 04       		.byte	0x4
 1593 01d8 07       		.uleb128 0x7
 1594 01d9 5F626173 		.ascii "_base\0"
 1594      6500
 1595 01df 0B       		.byte	0xb
 1596 01e0 48       		.byte	0x48
 1597 01e1 36020000 		.long	0x236
 1598 01e5 08       		.byte	0x8
 1599 01e6 07       		.uleb128 0x7
 1600 01e7 5F666C61 		.ascii "_flag\0"
 1600      6700
 1601 01ed 0B       		.byte	0xb
 1602 01ee 49       		.byte	0x49
 1603 01ef 7E010000 		.long	0x17e
 1604 01f3 0C       		.byte	0xc
 1605 01f4 07       		.uleb128 0x7
 1606 01f5 5F66696C 		.ascii "_file\0"
 1606      6500
 1607 01fb 0B       		.byte	0xb
 1608 01fc 4A       		.byte	0x4a
 1609 01fd 7E010000 		.long	0x17e
 1610 0201 10       		.byte	0x10
 1611 0202 07       		.uleb128 0x7
 1612 0203 5F636861 		.ascii "_charbuf\0"
 1612      72627566 
 1612      00
 1613 020c 0B       		.byte	0xb
 1614 020d 4B       		.byte	0x4b
 1615 020e 7E010000 		.long	0x17e
 1616 0212 14       		.byte	0x14
 1617 0213 07       		.uleb128 0x7
 1618 0214 5F627566 		.ascii "_bufsiz\0"
 1618      73697A00 
 1619 021c 0B       		.byte	0xb
 1620 021d 4C       		.byte	0x4c
 1621 021e 7E010000 		.long	0x17e
 1622 0222 18       		.byte	0x18
 1623 0223 07       		.uleb128 0x7
 1624 0224 5F746D70 		.ascii "_tmpfname\0"
 1624      666E616D 
 1624      6500
 1625 022e 0B       		.byte	0xb
 1626 022f 4D       		.byte	0x4d
GAS LISTING C:\Users\NJLLMR~1\AppData\Local\Temp\cce8JzPW.s 			page 71


 1627 0230 36020000 		.long	0x236
 1628 0234 1C       		.byte	0x1c
 1629 0235 00       		.byte	0
 1630 0236 08       		.uleb128 0x8
 1631 0237 04       		.byte	0x4
 1632 0238 4A010000 		.long	0x14a
 1633 023c 02       		.uleb128 0x2
 1634 023d 46494C45 		.ascii "FILE\0"
 1634      00
 1635 0242 0B       		.byte	0xb
 1636 0243 4E       		.byte	0x4e
 1637 0244 AF010000 		.long	0x1af
 1638 0248 06       		.uleb128 0x6
 1639 0249 746D00   		.ascii "tm\0"
 1640 024c 24       		.byte	0x24
 1641 024d 0B       		.byte	0xb
 1642 024e 57       		.byte	0x57
 1643 024f E2020000 		.long	0x2e2
 1644 0253 07       		.uleb128 0x7
 1645 0254 746D5F73 		.ascii "tm_sec\0"
 1645      656300
 1646 025b 0B       		.byte	0xb
 1647 025c 58       		.byte	0x58
 1648 025d 7E010000 		.long	0x17e
 1649 0261 00       		.byte	0
 1650 0262 07       		.uleb128 0x7
 1651 0263 746D5F6D 		.ascii "tm_min\0"
 1651      696E00
 1652 026a 0B       		.byte	0xb
 1653 026b 59       		.byte	0x59
 1654 026c 7E010000 		.long	0x17e
 1655 0270 04       		.byte	0x4
 1656 0271 07       		.uleb128 0x7
 1657 0272 746D5F68 		.ascii "tm_hour\0"
 1657      6F757200 
 1658 027a 0B       		.byte	0xb
 1659 027b 5A       		.byte	0x5a
 1660 027c 7E010000 		.long	0x17e
 1661 0280 08       		.byte	0x8
 1662 0281 07       		.uleb128 0x7
 1663 0282 746D5F6D 		.ascii "tm_mday\0"
 1663      64617900 
 1664 028a 0B       		.byte	0xb
 1665 028b 5B       		.byte	0x5b
 1666 028c 7E010000 		.long	0x17e
 1667 0290 0C       		.byte	0xc
 1668 0291 07       		.uleb128 0x7
 1669 0292 746D5F6D 		.ascii "tm_mon\0"
 1669      6F6E00
 1670 0299 0B       		.byte	0xb
 1671 029a 5C       		.byte	0x5c
 1672 029b 7E010000 		.long	0x17e
 1673 029f 10       		.byte	0x10
 1674 02a0 07       		.uleb128 0x7
 1675 02a1 746D5F79 		.ascii "tm_year\0"
 1675      65617200 
 1676 02a9 0B       		.byte	0xb
GAS LISTING C:\Users\NJLLMR~1\AppData\Local\Temp\cce8JzPW.s 			page 72


 1677 02aa 5D       		.byte	0x5d
 1678 02ab 7E010000 		.long	0x17e
 1679 02af 14       		.byte	0x14
 1680 02b0 07       		.uleb128 0x7
 1681 02b1 746D5F77 		.ascii "tm_wday\0"
 1681      64617900 
 1682 02b9 0B       		.byte	0xb
 1683 02ba 5E       		.byte	0x5e
 1684 02bb 7E010000 		.long	0x17e
 1685 02bf 18       		.byte	0x18
 1686 02c0 07       		.uleb128 0x7
 1687 02c1 746D5F79 		.ascii "tm_yday\0"
 1687      64617900 
 1688 02c9 0B       		.byte	0xb
 1689 02ca 5F       		.byte	0x5f
 1690 02cb 7E010000 		.long	0x17e
 1691 02cf 1C       		.byte	0x1c
 1692 02d0 07       		.uleb128 0x7
 1693 02d1 746D5F69 		.ascii "tm_isdst\0"
 1693      73647374 
 1693      00
 1694 02da 0B       		.byte	0xb
 1695 02db 60       		.byte	0x60
 1696 02dc 7E010000 		.long	0x17e
 1697 02e0 20       		.byte	0x20
 1698 02e1 00       		.byte	0
 1699 02e2 04       		.uleb128 0x4
 1700 02e3 6D627374 		.ascii "mbstate_t\0"
 1700      6174655F 
 1700      7400
 1701 02ed 0B       		.byte	0xb
 1702 02ee 2701     		.word	0x127
 1703 02f0 7E010000 		.long	0x17e
 1704 02f4 03       		.uleb128 0x3
 1705 02f5 04       		.byte	0x4
 1706 02f6 07       		.byte	0x7
 1707 02f7 6C6F6E67 		.ascii "long unsigned int\0"
 1707      20756E73 
 1707      69676E65 
 1707      6420696E 
 1707      7400
 1708 0309 03       		.uleb128 0x3
 1709 030a 04       		.byte	0x4
 1710 030b 07       		.byte	0x7
 1711 030c 73697A65 		.ascii "sizetype\0"
 1711      74797065 
 1711      00
 1712 0315 03       		.uleb128 0x3
 1713 0316 01       		.byte	0x1
 1714 0317 06       		.byte	0x6
 1715 0318 7369676E 		.ascii "signed char\0"
 1715      65642063 
 1715      68617200 
 1716 0324 03       		.uleb128 0x3
 1717 0325 01       		.byte	0x1
 1718 0326 08       		.byte	0x8
 1719 0327 756E7369 		.ascii "unsigned char\0"
GAS LISTING C:\Users\NJLLMR~1\AppData\Local\Temp\cce8JzPW.s 			page 73


 1719      676E6564 
 1719      20636861 
 1719      7200
 1720 0335 03       		.uleb128 0x3
 1721 0336 08       		.byte	0x8
 1722 0337 07       		.byte	0x7
 1723 0338 6C6F6E67 		.ascii "long long unsigned int\0"
 1723      206C6F6E 
 1723      6720756E 
 1723      7369676E 
 1723      65642069 
 1724 034f 09       		.uleb128 0x9
 1725 0350 73746400 		.ascii "std\0"
 1726 0354 16       		.byte	0x16
 1727 0355 00       		.byte	0
 1728 0356 3B4A0000 		.long	0x4a3b
 1729 035a 0A       		.uleb128 0xa
 1730 035b 0C       		.byte	0xc
 1731 035c 40       		.byte	0x40
 1732 035d E2020000 		.long	0x2e2
 1733 0361 0A       		.uleb128 0xa
 1734 0362 0C       		.byte	0xc
 1735 0363 8B       		.byte	0x8b
 1736 0364 0D010000 		.long	0x10d
 1737 0368 0A       		.uleb128 0xa
 1738 0369 0C       		.byte	0xc
 1739 036a 8D       		.byte	0x8d
 1740 036b 3B4A0000 		.long	0x4a3b
 1741 036f 0A       		.uleb128 0xa
 1742 0370 0C       		.byte	0xc
 1743 0371 8E       		.byte	0x8e
 1744 0372 534A0000 		.long	0x4a53
 1745 0376 0A       		.uleb128 0xa
 1746 0377 0C       		.byte	0xc
 1747 0378 8F       		.byte	0x8f
 1748 0379 714A0000 		.long	0x4a71
 1749 037d 0A       		.uleb128 0xa
 1750 037e 0C       		.byte	0xc
 1751 037f 90       		.byte	0x90
 1752 0380 994A0000 		.long	0x4a99
 1753 0384 0A       		.uleb128 0xa
 1754 0385 0C       		.byte	0xc
 1755 0386 91       		.byte	0x91
 1756 0387 B64A0000 		.long	0x4ab6
 1757 038b 0A       		.uleb128 0xa
 1758 038c 0C       		.byte	0xc
 1759 038d 92       		.byte	0x92
 1760 038e DE4A0000 		.long	0x4ade
 1761 0392 0A       		.uleb128 0xa
 1762 0393 0C       		.byte	0xc
 1763 0394 93       		.byte	0x93
 1764 0395 FB4A0000 		.long	0x4afb
 1765 0399 0A       		.uleb128 0xa
 1766 039a 0C       		.byte	0xc
 1767 039b 94       		.byte	0x94
 1768 039c 1B4B0000 		.long	0x4b1b
 1769 03a0 0A       		.uleb128 0xa
GAS LISTING C:\Users\NJLLMR~1\AppData\Local\Temp\cce8JzPW.s 			page 74


 1770 03a1 0C       		.byte	0xc
 1771 03a2 95       		.byte	0x95
 1772 03a3 3A4B0000 		.long	0x4b3a
 1773 03a7 0A       		.uleb128 0xa
 1774 03a8 0C       		.byte	0xc
 1775 03a9 96       		.byte	0x96
 1776 03aa 514B0000 		.long	0x4b51
 1777 03ae 0A       		.uleb128 0xa
 1778 03af 0C       		.byte	0xc
 1779 03b0 97       		.byte	0x97
 1780 03b1 614B0000 		.long	0x4b61
 1781 03b5 0A       		.uleb128 0xa
 1782 03b6 0C       		.byte	0xc
 1783 03b7 98       		.byte	0x98
 1784 03b8 954B0000 		.long	0x4b95
 1785 03bc 0A       		.uleb128 0xa
 1786 03bd 0C       		.byte	0xc
 1787 03be 99       		.byte	0x99
 1788 03bf BE4B0000 		.long	0x4bbe
 1789 03c3 0A       		.uleb128 0xa
 1790 03c4 0C       		.byte	0xc
 1791 03c5 9A       		.byte	0x9a
 1792 03c6 E34B0000 		.long	0x4be3
 1793 03ca 0A       		.uleb128 0xa
 1794 03cb 0C       		.byte	0xc
 1795 03cc 9B       		.byte	0x9b
 1796 03cd 144C0000 		.long	0x4c14
 1797 03d1 0A       		.uleb128 0xa
 1798 03d2 0C       		.byte	0xc
 1799 03d3 9C       		.byte	0x9c
 1800 03d4 304C0000 		.long	0x4c30
 1801 03d8 0A       		.uleb128 0xa
 1802 03d9 0C       		.byte	0xc
 1803 03da A0       		.byte	0xa0
 1804 03db 4A4C0000 		.long	0x4c4a
 1805 03df 0A       		.uleb128 0xa
 1806 03e0 0C       		.byte	0xc
 1807 03e1 A1       		.byte	0xa1
 1808 03e2 694C0000 		.long	0x4c69
 1809 03e6 0A       		.uleb128 0xa
 1810 03e7 0C       		.byte	0xc
 1811 03e8 A2       		.byte	0xa2
 1812 03e9 874C0000 		.long	0x4c87
 1813 03ed 0A       		.uleb128 0xa
 1814 03ee 0C       		.byte	0xc
 1815 03ef A4       		.byte	0xa4
 1816 03f0 AC4C0000 		.long	0x4cac
 1817 03f4 0A       		.uleb128 0xa
 1818 03f5 0C       		.byte	0xc
 1819 03f6 AA       		.byte	0xaa
 1820 03f7 D04C0000 		.long	0x4cd0
 1821 03fb 0A       		.uleb128 0xa
 1822 03fc 0C       		.byte	0xc
 1823 03fd AC       		.byte	0xac
 1824 03fe F44C0000 		.long	0x4cf4
 1825 0402 0A       		.uleb128 0xa
 1826 0403 0C       		.byte	0xc
GAS LISTING C:\Users\NJLLMR~1\AppData\Local\Temp\cce8JzPW.s 			page 75


 1827 0404 AE       		.byte	0xae
 1828 0405 134D0000 		.long	0x4d13
 1829 0409 0A       		.uleb128 0xa
 1830 040a 0C       		.byte	0xc
 1831 040b B0       		.byte	0xb0
 1832 040c 314D0000 		.long	0x4d31
 1833 0410 0A       		.uleb128 0xa
 1834 0411 0C       		.byte	0xc
 1835 0412 B1       		.byte	0xb1
 1836 0413 554D0000 		.long	0x4d55
 1837 0417 0A       		.uleb128 0xa
 1838 0418 0C       		.byte	0xc
 1839 0419 B2       		.byte	0xb2
 1840 041a 724D0000 		.long	0x4d72
 1841 041e 0A       		.uleb128 0xa
 1842 041f 0C       		.byte	0xc
 1843 0420 B3       		.byte	0xb3
 1844 0421 8F4D0000 		.long	0x4d8f
 1845 0425 0A       		.uleb128 0xa
 1846 0426 0C       		.byte	0xc
 1847 0427 B4       		.byte	0xb4
 1848 0428 AD4D0000 		.long	0x4dad
 1849 042c 0A       		.uleb128 0xa
 1850 042d 0C       		.byte	0xc
 1851 042e B5       		.byte	0xb5
 1852 042f CA4D0000 		.long	0x4dca
 1853 0433 0A       		.uleb128 0xa
 1854 0434 0C       		.byte	0xc
 1855 0435 B6       		.byte	0xb6
 1856 0436 E84D0000 		.long	0x4de8
 1857 043a 0A       		.uleb128 0xa
 1858 043b 0C       		.byte	0xc
 1859 043c B7       		.byte	0xb7
 1860 043d 1C4E0000 		.long	0x4e1c
 1861 0441 0A       		.uleb128 0xa
 1862 0442 0C       		.byte	0xc
 1863 0443 B8       		.byte	0xb8
 1864 0444 344E0000 		.long	0x4e34
 1865 0448 0A       		.uleb128 0xa
 1866 0449 0C       		.byte	0xc
 1867 044a B9       		.byte	0xb9
 1868 044b 574E0000 		.long	0x4e57
 1869 044f 0A       		.uleb128 0xa
 1870 0450 0C       		.byte	0xc
 1871 0451 BA       		.byte	0xba
 1872 0452 7A4E0000 		.long	0x4e7a
 1873 0456 0A       		.uleb128 0xa
 1874 0457 0C       		.byte	0xc
 1875 0458 BB       		.byte	0xbb
 1876 0459 9D4E0000 		.long	0x4e9d
 1877 045d 0A       		.uleb128 0xa
 1878 045e 0C       		.byte	0xc
 1879 045f BC       		.byte	0xbc
 1880 0460 CE4E0000 		.long	0x4ece
 1881 0464 0A       		.uleb128 0xa
 1882 0465 0C       		.byte	0xc
 1883 0466 BD       		.byte	0xbd
GAS LISTING C:\Users\NJLLMR~1\AppData\Local\Temp\cce8JzPW.s 			page 76


 1884 0467 EB4E0000 		.long	0x4eeb
 1885 046b 0A       		.uleb128 0xa
 1886 046c 0C       		.byte	0xc
 1887 046d BF       		.byte	0xbf
 1888 046e 184F0000 		.long	0x4f18
 1889 0472 0A       		.uleb128 0xa
 1890 0473 0C       		.byte	0xc
 1891 0474 C1       		.byte	0xc1
 1892 0475 3E4F0000 		.long	0x4f3e
 1893 0479 0A       		.uleb128 0xa
 1894 047a 0C       		.byte	0xc
 1895 047b C2       		.byte	0xc2
 1896 047c 5B4F0000 		.long	0x4f5b
 1897 0480 0A       		.uleb128 0xa
 1898 0481 0C       		.byte	0xc
 1899 0482 C3       		.byte	0xc3
 1900 0483 7D4F0000 		.long	0x4f7d
 1901 0487 0A       		.uleb128 0xa
 1902 0488 0C       		.byte	0xc
 1903 0489 C4       		.byte	0xc4
 1904 048a A04F0000 		.long	0x4fa0
 1905 048e 0A       		.uleb128 0xa
 1906 048f 0C       		.byte	0xc
 1907 0490 C5       		.byte	0xc5
 1908 0491 C34F0000 		.long	0x4fc3
 1909 0495 0A       		.uleb128 0xa
 1910 0496 0C       		.byte	0xc
 1911 0497 C6       		.byte	0xc6
 1912 0498 DB4F0000 		.long	0x4fdb
 1913 049c 0A       		.uleb128 0xa
 1914 049d 0C       		.byte	0xc
 1915 049e C7       		.byte	0xc7
 1916 049f FF4F0000 		.long	0x4fff
 1917 04a3 0A       		.uleb128 0xa
 1918 04a4 0C       		.byte	0xc
 1919 04a5 C8       		.byte	0xc8
 1920 04a6 23500000 		.long	0x5023
 1921 04aa 0A       		.uleb128 0xa
 1922 04ab 0C       		.byte	0xc
 1923 04ac C9       		.byte	0xc9
 1924 04ad 48500000 		.long	0x5048
 1925 04b1 0A       		.uleb128 0xa
 1926 04b2 0C       		.byte	0xc
 1927 04b3 CA       		.byte	0xca
 1928 04b4 6C500000 		.long	0x506c
 1929 04b8 0A       		.uleb128 0xa
 1930 04b9 0C       		.byte	0xc
 1931 04ba CB       		.byte	0xcb
 1932 04bb 86500000 		.long	0x5086
 1933 04bf 0A       		.uleb128 0xa
 1934 04c0 0C       		.byte	0xc
 1935 04c1 CC       		.byte	0xcc
 1936 04c2 9F500000 		.long	0x509f
 1937 04c6 0A       		.uleb128 0xa
 1938 04c7 0C       		.byte	0xc
 1939 04c8 CD       		.byte	0xcd
 1940 04c9 BC500000 		.long	0x50bc
GAS LISTING C:\Users\NJLLMR~1\AppData\Local\Temp\cce8JzPW.s 			page 77


 1941 04cd 0A       		.uleb128 0xa
 1942 04ce 0C       		.byte	0xc
 1943 04cf CE       		.byte	0xce
 1944 04d0 DA500000 		.long	0x50da
 1945 04d4 0A       		.uleb128 0xa
 1946 04d5 0C       		.byte	0xc
 1947 04d6 CF       		.byte	0xcf
 1948 04d7 F8500000 		.long	0x50f8
 1949 04db 0A       		.uleb128 0xa
 1950 04dc 0C       		.byte	0xc
 1951 04dd D0       		.byte	0xd0
 1952 04de 15510000 		.long	0x5115
 1953 04e2 0B       		.uleb128 0xb
 1954 04e3 0C       		.byte	0xc
 1955 04e4 0801     		.word	0x108
 1956 04e6 005D0000 		.long	0x5d00
 1957 04ea 0B       		.uleb128 0xb
 1958 04eb 0C       		.byte	0xc
 1959 04ec 0901     		.word	0x109
 1960 04ee 2D5D0000 		.long	0x5d2d
 1961 04f2 0B       		.uleb128 0xb
 1962 04f3 0C       		.byte	0xc
 1963 04f4 0A01     		.word	0x10a
 1964 04f6 515D0000 		.long	0x5d51
 1965 04fa 0C       		.uleb128 0xc
 1966 04fb 5F5F6465 		.ascii "__debug\0"
 1966      62756700 
 1967 0503 17       		.byte	0x17
 1968 0504 30       		.byte	0x30
 1969 0505 06       		.uleb128 0x6
 1970 0506 63686172 		.ascii "char_traits<char>\0"
 1970      5F747261 
 1970      6974733C 
 1970      63686172 
 1970      3E00
 1971 0518 01       		.byte	0x1
 1972 0519 0D       		.byte	0xd
 1973 051a E9       		.byte	0xe9
 1974 051b BC080000 		.long	0x8bc
 1975 051f 02       		.uleb128 0x2
 1976 0520 63686172 		.ascii "char_type\0"
 1976      5F747970 
 1976      6500
 1977 052a 0D       		.byte	0xd
 1978 052b EB       		.byte	0xeb
 1979 052c 4A010000 		.long	0x14a
 1980 0530 02       		.uleb128 0x2
 1981 0531 696E745F 		.ascii "int_type\0"
 1981      74797065 
 1981      00
 1982 053a 0D       		.byte	0xd
 1983 053b EC       		.byte	0xec
 1984 053c 7E010000 		.long	0x17e
 1985 0540 0D       		.uleb128 0xd
 1986 0541 F4000000 		.secrel32	LASF1
 1987 0545 0D       		.byte	0xd
 1988 0546 F2       		.byte	0xf2
GAS LISTING C:\Users\NJLLMR~1\AppData\Local\Temp\cce8JzPW.s 			page 78


 1989 0547 5F5A4E53 		.ascii "_ZNSt11char_traitsIcE6assignERcRKc\0"
 1989      74313163 
 1989      6861725F 
 1989      74726169 
 1989      74734963 
 1990 056a 79050000 		.long	0x579
 1991 056e 0E       		.uleb128 0xe
 1992 056f 915D0000 		.long	0x5d91
 1993 0573 0E       		.uleb128 0xe
 1994 0574 975D0000 		.long	0x5d97
 1995 0578 00       		.byte	0
 1996 0579 0F       		.uleb128 0xf
 1997 057a 1F050000 		.long	0x51f
 1998 057e 10       		.uleb128 0x10
 1999 057f 657100   		.ascii "eq\0"
 2000 0582 0D       		.byte	0xd
 2001 0583 F6       		.byte	0xf6
 2002 0584 5F5A4E53 		.ascii "_ZNSt11char_traitsIcE2eqERKcS2_\0"
 2002      74313163 
 2002      6861725F 
 2002      74726169 
 2002      74734963 
 2003 05a4 9D5D0000 		.long	0x5d9d
 2004 05a8 B7050000 		.long	0x5b7
 2005 05ac 0E       		.uleb128 0xe
 2006 05ad 975D0000 		.long	0x5d97
 2007 05b1 0E       		.uleb128 0xe
 2008 05b2 975D0000 		.long	0x5d97
 2009 05b6 00       		.byte	0
 2010 05b7 10       		.uleb128 0x10
 2011 05b8 6C7400   		.ascii "lt\0"
 2012 05bb 0D       		.byte	0xd
 2013 05bc FA       		.byte	0xfa
 2014 05bd 5F5A4E53 		.ascii "_ZNSt11char_traitsIcE2ltERKcS2_\0"
 2014      74313163 
 2014      6861725F 
 2014      74726169 
 2014      74734963 
 2015 05dd 9D5D0000 		.long	0x5d9d
 2016 05e1 F0050000 		.long	0x5f0
 2017 05e5 0E       		.uleb128 0xe
 2018 05e6 975D0000 		.long	0x5d97
 2019 05ea 0E       		.uleb128 0xe
 2020 05eb 975D0000 		.long	0x5d97
 2021 05ef 00       		.byte	0
 2022 05f0 11       		.uleb128 0x11
 2023 05f1 EF010000 		.secrel32	LASF0
 2024 05f5 0D       		.byte	0xd
 2025 05f6 0201     		.word	0x102
 2026 05f8 5F5A4E53 		.ascii "_ZNSt11char_traitsIcE7compareEPKcS2_j\0"
 2026      74313163 
 2026      6861725F 
 2026      74726169 
 2026      74734963 
 2027 061e 7E010000 		.long	0x17e
 2028 0622 36060000 		.long	0x636
 2029 0626 0E       		.uleb128 0xe
GAS LISTING C:\Users\NJLLMR~1\AppData\Local\Temp\cce8JzPW.s 			page 79


 2030 0627 A55D0000 		.long	0x5da5
 2031 062b 0E       		.uleb128 0xe
 2032 062c A55D0000 		.long	0x5da5
 2033 0630 0E       		.uleb128 0xe
 2034 0631 BC080000 		.long	0x8bc
 2035 0635 00       		.byte	0
 2036 0636 12       		.uleb128 0x12
 2037 0637 6C656E67 		.ascii "length\0"
 2037      746800
 2038 063e 0D       		.byte	0xd
 2039 063f 0601     		.word	0x106
 2040 0641 5F5A4E53 		.ascii "_ZNSt11char_traitsIcE6lengthEPKc\0"
 2040      74313163 
 2040      6861725F 
 2040      74726169 
 2040      74734963 
 2041 0662 BC080000 		.long	0x8bc
 2042 0666 70060000 		.long	0x670
 2043 066a 0E       		.uleb128 0xe
 2044 066b A55D0000 		.long	0x5da5
 2045 066f 00       		.byte	0
 2046 0670 12       		.uleb128 0x12
 2047 0671 66696E64 		.ascii "find\0"
 2047      00
 2048 0676 0D       		.byte	0xd
 2049 0677 0A01     		.word	0x10a
 2050 0679 5F5A4E53 		.ascii "_ZNSt11char_traitsIcE4findEPKcjRS1_\0"
 2050      74313163 
 2050      6861725F 
 2050      74726169 
 2050      74734963 
 2051 069d A55D0000 		.long	0x5da5
 2052 06a1 B5060000 		.long	0x6b5
 2053 06a5 0E       		.uleb128 0xe
 2054 06a6 A55D0000 		.long	0x5da5
 2055 06aa 0E       		.uleb128 0xe
 2056 06ab BC080000 		.long	0x8bc
 2057 06af 0E       		.uleb128 0xe
 2058 06b0 975D0000 		.long	0x5d97
 2059 06b4 00       		.byte	0
 2060 06b5 12       		.uleb128 0x12
 2061 06b6 6D6F7665 		.ascii "move\0"
 2061      00
 2062 06bb 0D       		.byte	0xd
 2063 06bc 0E01     		.word	0x10e
 2064 06be 5F5A4E53 		.ascii "_ZNSt11char_traitsIcE4moveEPcPKcj\0"
 2064      74313163 
 2064      6861725F 
 2064      74726169 
 2064      74734963 
 2065 06e0 AB5D0000 		.long	0x5dab
 2066 06e4 F8060000 		.long	0x6f8
 2067 06e8 0E       		.uleb128 0xe
 2068 06e9 AB5D0000 		.long	0x5dab
 2069 06ed 0E       		.uleb128 0xe
 2070 06ee A55D0000 		.long	0x5da5
 2071 06f2 0E       		.uleb128 0xe
GAS LISTING C:\Users\NJLLMR~1\AppData\Local\Temp\cce8JzPW.s 			page 80


 2072 06f3 BC080000 		.long	0x8bc
 2073 06f7 00       		.byte	0
 2074 06f8 12       		.uleb128 0x12
 2075 06f9 636F7079 		.ascii "copy\0"
 2075      00
 2076 06fe 0D       		.byte	0xd
 2077 06ff 1201     		.word	0x112
 2078 0701 5F5A4E53 		.ascii "_ZNSt11char_traitsIcE4copyEPcPKcj\0"
 2078      74313163 
 2078      6861725F 
 2078      74726169 
 2078      74734963 
 2079 0723 AB5D0000 		.long	0x5dab
 2080 0727 3B070000 		.long	0x73b
 2081 072b 0E       		.uleb128 0xe
 2082 072c AB5D0000 		.long	0x5dab
 2083 0730 0E       		.uleb128 0xe
 2084 0731 A55D0000 		.long	0x5da5
 2085 0735 0E       		.uleb128 0xe
 2086 0736 BC080000 		.long	0x8bc
 2087 073a 00       		.byte	0
 2088 073b 11       		.uleb128 0x11
 2089 073c F4000000 		.secrel32	LASF1
 2090 0740 0D       		.byte	0xd
 2091 0741 1601     		.word	0x116
 2092 0743 5F5A4E53 		.ascii "_ZNSt11char_traitsIcE6assignEPcjc\0"
 2092      74313163 
 2092      6861725F 
 2092      74726169 
 2092      74734963 
 2093 0765 AB5D0000 		.long	0x5dab
 2094 0769 7D070000 		.long	0x77d
 2095 076d 0E       		.uleb128 0xe
 2096 076e AB5D0000 		.long	0x5dab
 2097 0772 0E       		.uleb128 0xe
 2098 0773 BC080000 		.long	0x8bc
 2099 0777 0E       		.uleb128 0xe
 2100 0778 1F050000 		.long	0x51f
 2101 077c 00       		.byte	0
 2102 077d 12       		.uleb128 0x12
 2103 077e 746F5F63 		.ascii "to_char_type\0"
 2103      6861725F 
 2103      74797065 
 2103      00
 2104 078b 0D       		.byte	0xd
 2105 078c 1A01     		.word	0x11a
 2106 078e 5F5A4E53 		.ascii "_ZNSt11char_traitsIcE12to_char_typeERKi\0"
 2106      74313163 
 2106      6861725F 
 2106      74726169 
 2106      74734963 
 2107 07b6 1F050000 		.long	0x51f
 2108 07ba C4070000 		.long	0x7c4
 2109 07be 0E       		.uleb128 0xe
 2110 07bf B15D0000 		.long	0x5db1
 2111 07c3 00       		.byte	0
 2112 07c4 0F       		.uleb128 0xf
GAS LISTING C:\Users\NJLLMR~1\AppData\Local\Temp\cce8JzPW.s 			page 81


 2113 07c5 30050000 		.long	0x530
 2114 07c9 12       		.uleb128 0x12
 2115 07ca 746F5F69 		.ascii "to_int_type\0"
 2115      6E745F74 
 2115      79706500 
 2116 07d6 0D       		.byte	0xd
 2117 07d7 2001     		.word	0x120
 2118 07d9 5F5A4E53 		.ascii "_ZNSt11char_traitsIcE11to_int_typeERKc\0"
 2118      74313163 
 2118      6861725F 
 2118      74726169 
 2118      74734963 
 2119 0800 30050000 		.long	0x530
 2120 0804 0E080000 		.long	0x80e
 2121 0808 0E       		.uleb128 0xe
 2122 0809 975D0000 		.long	0x5d97
 2123 080d 00       		.byte	0
 2124 080e 12       		.uleb128 0x12
 2125 080f 65715F69 		.ascii "eq_int_type\0"
 2125      6E745F74 
 2125      79706500 
 2126 081b 0D       		.byte	0xd
 2127 081c 2401     		.word	0x124
 2128 081e 5F5A4E53 		.ascii "_ZNSt11char_traitsIcE11eq_int_typeERKiS2_\0"
 2128      74313163 
 2128      6861725F 
 2128      74726169 
 2128      74734963 
 2129 0848 9D5D0000 		.long	0x5d9d
 2130 084c 5B080000 		.long	0x85b
 2131 0850 0E       		.uleb128 0xe
 2132 0851 B15D0000 		.long	0x5db1
 2133 0855 0E       		.uleb128 0xe
 2134 0856 B15D0000 		.long	0x5db1
 2135 085a 00       		.byte	0
 2136 085b 13       		.uleb128 0x13
 2137 085c 656F6600 		.ascii "eof\0"
 2138 0860 0D       		.byte	0xd
 2139 0861 2801     		.word	0x128
 2140 0863 5F5A4E53 		.ascii "_ZNSt11char_traitsIcE3eofEv\0"
 2140      74313163 
 2140      6861725F 
 2140      74726169 
 2140      74734963 
 2141 087f 30050000 		.long	0x530
 2142 0883 14       		.uleb128 0x14
 2143 0884 6E6F745F 		.ascii "not_eof\0"
 2143      656F6600 
 2144 088c 0D       		.byte	0xd
 2145 088d 2C01     		.word	0x12c
 2146 088f 5F5A4E53 		.ascii "_ZNSt11char_traitsIcE7not_eofERKi\0"
 2146      74313163 
 2146      6861725F 
 2146      74726169 
 2146      74734963 
 2147 08b1 30050000 		.long	0x530
 2148 08b5 0E       		.uleb128 0xe
GAS LISTING C:\Users\NJLLMR~1\AppData\Local\Temp\cce8JzPW.s 			page 82


 2149 08b6 B15D0000 		.long	0x5db1
 2150 08ba 00       		.byte	0
 2151 08bb 00       		.byte	0
 2152 08bc 02       		.uleb128 0x2
 2153 08bd 73697A65 		.ascii "size_t\0"
 2153      5F7400
 2154 08c4 0E       		.byte	0xe
 2155 08c5 BC       		.byte	0xbc
 2156 08c6 FD000000 		.long	0xfd
 2157 08ca 0A       		.uleb128 0xa
 2158 08cb 0F       		.byte	0xf
 2159 08cc 35       		.byte	0x35
 2160 08cd B75D0000 		.long	0x5db7
 2161 08d1 0A       		.uleb128 0xa
 2162 08d2 0F       		.byte	0xf
 2163 08d3 36       		.byte	0x36
 2164 08d4 565F0000 		.long	0x5f56
 2165 08d8 0A       		.uleb128 0xa
 2166 08d9 0F       		.byte	0xf
 2167 08da 37       		.byte	0x37
 2168 08db 765F0000 		.long	0x5f76
 2169 08df 02       		.uleb128 0x2
 2170 08e0 70747264 		.ascii "ptrdiff_t\0"
 2170      6966665F 
 2170      7400
 2171 08ea 0E       		.byte	0xe
 2172 08eb BD       		.byte	0xbd
 2173 08ec 7E010000 		.long	0x17e
 2174 08f0 15       		.uleb128 0x15
 2175 08f1 616C6C6F 		.ascii "allocator<char>\0"
 2175      6361746F 
 2175      723C6368 
 2175      61723E00 
 2176 0901 01       		.byte	0x1
 2177 0902 04       		.byte	0x4
 2178 0903 5C       		.byte	0x5c
 2179 0904 7C090000 		.long	0x97c
 2180 0908 16       		.uleb128 0x16
 2181 0909 78510000 		.long	0x5178
 2182 090d 00       		.byte	0
 2183 090e 01       		.byte	0x1
 2184 090f 17       		.uleb128 0x17
 2185 0910 00000000 		.secrel32	LASF2
 2186 0914 04       		.byte	0x4
 2187 0915 5F       		.byte	0x5f
 2188 0916 BC080000 		.long	0x8bc
 2189 091a 01       		.byte	0x1
 2190 091b 17       		.uleb128 0x17
 2191 091c F7010000 		.secrel32	LASF3
 2192 0920 04       		.byte	0x4
 2193 0921 63       		.byte	0x63
 2194 0922 A95F0000 		.long	0x5fa9
 2195 0926 01       		.byte	0x1
 2196 0927 17       		.uleb128 0x17
 2197 0928 C0010000 		.secrel32	LASF4
 2198 092c 04       		.byte	0x4
 2199 092d 64       		.byte	0x64
GAS LISTING C:\Users\NJLLMR~1\AppData\Local\Temp\cce8JzPW.s 			page 83


 2200 092e AF5F0000 		.long	0x5faf
 2201 0932 01       		.byte	0x1
 2202 0933 18       		.uleb128 0x18
 2203 0934 2E000000 		.secrel32	LASF5
 2204 0938 04       		.byte	0x4
 2205 0939 71       		.byte	0x71
 2206 093a 01       		.byte	0x1
 2207 093b 43090000 		.long	0x943
 2208 093f 49090000 		.long	0x949
 2209 0943 19       		.uleb128 0x19
 2210 0944 C75F0000 		.long	0x5fc7
 2211 0948 00       		.byte	0
 2212 0949 18       		.uleb128 0x18
 2213 094a 2E000000 		.secrel32	LASF5
 2214 094e 04       		.byte	0x4
 2215 094f 73       		.byte	0x73
 2216 0950 01       		.byte	0x1
 2217 0951 59090000 		.long	0x959
 2218 0955 64090000 		.long	0x964
 2219 0959 19       		.uleb128 0x19
 2220 095a C75F0000 		.long	0x5fc7
 2221 095e 0E       		.uleb128 0xe
 2222 095f CD5F0000 		.long	0x5fcd
 2223 0963 00       		.byte	0
 2224 0964 1A       		.uleb128 0x1a
 2225 0965 D0010000 		.secrel32	LASF6
 2226 0969 04       		.byte	0x4
 2227 096a 79       		.byte	0x79
 2228 096b 01       		.byte	0x1
 2229 096c 70090000 		.long	0x970
 2230 0970 19       		.uleb128 0x19
 2231 0971 C75F0000 		.long	0x5fc7
 2232 0975 19       		.uleb128 0x19
 2233 0976 7E010000 		.long	0x17e
 2234 097a 00       		.byte	0
 2235 097b 00       		.byte	0
 2236 097c 0F       		.uleb128 0xf
 2237 097d F0080000 		.long	0x8f0
 2238 0981 15       		.uleb128 0x15
 2239 0982 62617369 		.ascii "basic_string<char, std::char_traits<char>, std::allocator<char> >\0"
 2239      635F7374 
 2239      72696E67 
 2239      3C636861 
 2239      722C2073 
 2240 09c4 04       		.byte	0x4
 2241 09c5 10       		.byte	0x10
 2242 09c6 70       		.byte	0x70
 2243 09c7 822C0000 		.long	0x2c82
 2244 09cb 1B       		.uleb128 0x1b
 2245 09cc 93010000 		.secrel32	LASF7
 2246 09d0 04       		.byte	0x4
 2247 09d1 10       		.byte	0x10
 2248 09d2 1001     		.word	0x110
 2249 09d4 090A0000 		.long	0xa09
 2250 09d8 1C       		.uleb128 0x1c
 2251 09d9 F0080000 		.long	0x8f0
 2252 09dd 00       		.byte	0
GAS LISTING C:\Users\NJLLMR~1\AppData\Local\Temp\cce8JzPW.s 			page 84


 2253 09de 1D       		.uleb128 0x1d
 2254 09df 5F4D5F70 		.ascii "_M_p\0"
 2254      00
 2255 09e4 10       		.byte	0x10
 2256 09e5 1501     		.word	0x115
 2257 09e7 36020000 		.long	0x236
 2258 09eb 00       		.byte	0
 2259 09ec 1E       		.uleb128 0x1e
 2260 09ed 93010000 		.secrel32	LASF7
 2261 09f1 10       		.byte	0x10
 2262 09f2 1201     		.word	0x112
 2263 09f4 F8090000 		.long	0x9f8
 2264 09f8 19       		.uleb128 0x19
 2265 09f9 DD5F0000 		.long	0x5fdd
 2266 09fd 0E       		.uleb128 0xe
 2267 09fe 36020000 		.long	0x236
 2268 0a02 0E       		.uleb128 0xe
 2269 0a03 CD5F0000 		.long	0x5fcd
 2270 0a07 00       		.byte	0
 2271 0a08 00       		.byte	0
 2272 0a09 17       		.uleb128 0x17
 2273 0a0a 00000000 		.secrel32	LASF2
 2274 0a0e 10       		.byte	0x10
 2275 0a0f 79       		.byte	0x79
 2276 0a10 0F090000 		.long	0x90f
 2277 0a14 01       		.byte	0x1
 2278 0a15 1F       		.uleb128 0x1f
 2279 0a16 6E706F73 		.ascii "npos\0"
 2279      00
 2280 0a1b 10       		.byte	0x10
 2281 0a1c 1D01     		.word	0x11d
 2282 0a1e 230A0000 		.long	0xa23
 2283 0a22 01       		.byte	0x1
 2284 0a23 0F       		.uleb128 0xf
 2285 0a24 090A0000 		.long	0xa09
 2286 0a28 1D       		.uleb128 0x1d
 2287 0a29 5F4D5F64 		.ascii "_M_dataplus\0"
 2287      61746170 
 2287      6C757300 
 2288 0a35 10       		.byte	0x10
 2289 0a36 2101     		.word	0x121
 2290 0a38 CB090000 		.long	0x9cb
 2291 0a3c 00       		.byte	0
 2292 0a3d 17       		.uleb128 0x17
 2293 0a3e 89020000 		.secrel32	LASF8
 2294 0a42 10       		.byte	0x10
 2295 0a43 78       		.byte	0x78
 2296 0a44 F0080000 		.long	0x8f0
 2297 0a48 01       		.byte	0x1
 2298 0a49 17       		.uleb128 0x17
 2299 0a4a F7010000 		.secrel32	LASF3
 2300 0a4e 10       		.byte	0x10
 2301 0a4f 7B       		.byte	0x7b
 2302 0a50 1B090000 		.long	0x91b
 2303 0a54 01       		.byte	0x1
 2304 0a55 17       		.uleb128 0x17
 2305 0a56 C0010000 		.secrel32	LASF4
GAS LISTING C:\Users\NJLLMR~1\AppData\Local\Temp\cce8JzPW.s 			page 85


 2306 0a5a 10       		.byte	0x10
 2307 0a5b 7C       		.byte	0x7c
 2308 0a5c 27090000 		.long	0x927
 2309 0a60 01       		.byte	0x1
 2310 0a61 17       		.uleb128 0x17
 2311 0a62 B7010000 		.secrel32	LASF9
 2312 0a66 10       		.byte	0x10
 2313 0a67 7F       		.byte	0x7f
 2314 0a68 9C540000 		.long	0x549c
 2315 0a6c 01       		.byte	0x1
 2316 0a6d 17       		.uleb128 0x17
 2317 0a6e 1F000000 		.secrel32	LASF10
 2318 0a72 10       		.byte	0x10
 2319 0a73 81       		.byte	0x81
 2320 0a74 FF540000 		.long	0x54ff
 2321 0a78 01       		.byte	0x1
 2322 0a79 17       		.uleb128 0x17
 2323 0a7a 2E020000 		.secrel32	LASF11
 2324 0a7e 10       		.byte	0x10
 2325 0a7f 82       		.byte	0x82
 2326 0a80 822C0000 		.long	0x2c82
 2327 0a84 01       		.byte	0x1
 2328 0a85 17       		.uleb128 0x17
 2329 0a86 A0010000 		.secrel32	LASF12
 2330 0a8a 10       		.byte	0x10
 2331 0a8b 83       		.byte	0x83
 2332 0a8c 092D0000 		.long	0x2d09
 2333 0a90 01       		.byte	0x1
 2334 0a91 06       		.uleb128 0x6
 2335 0a92 5F526570 		.ascii "_Rep_base\0"
 2335      5F626173 
 2335      6500
 2336 0a9c 0C       		.byte	0xc
 2337 0a9d 10       		.byte	0x10
 2338 0a9e 94       		.byte	0x94
 2339 0a9f DE0A0000 		.long	0xade
 2340 0aa3 07       		.uleb128 0x7
 2341 0aa4 5F4D5F6C 		.ascii "_M_length\0"
 2341      656E6774 
 2341      6800
 2342 0aae 10       		.byte	0x10
 2343 0aaf 96       		.byte	0x96
 2344 0ab0 090A0000 		.long	0xa09
 2345 0ab4 00       		.byte	0
 2346 0ab5 07       		.uleb128 0x7
 2347 0ab6 5F4D5F63 		.ascii "_M_capacity\0"
 2347      61706163 
 2347      69747900 
 2348 0ac2 10       		.byte	0x10
 2349 0ac3 97       		.byte	0x97
 2350 0ac4 090A0000 		.long	0xa09
 2351 0ac8 04       		.byte	0x4
 2352 0ac9 07       		.uleb128 0x7
 2353 0aca 5F4D5F72 		.ascii "_M_refcount\0"
 2353      6566636F 
 2353      756E7400 
 2354 0ad6 10       		.byte	0x10
GAS LISTING C:\Users\NJLLMR~1\AppData\Local\Temp\cce8JzPW.s 			page 86


 2355 0ad7 98       		.byte	0x98
 2356 0ad8 8E5F0000 		.long	0x5f8e
 2357 0adc 08       		.byte	0x8
 2358 0add 00       		.byte	0
 2359 0ade 06       		.uleb128 0x6
 2360 0adf 5F526570 		.ascii "_Rep\0"
 2360      00
 2361 0ae4 0C       		.byte	0xc
 2362 0ae5 10       		.byte	0x10
 2363 0ae6 9B       		.byte	0x9b
 2364 0ae7 6A0E0000 		.long	0xe6a
 2365 0aeb 1C       		.uleb128 0x1c
 2366 0aec 910A0000 		.long	0xa91
 2367 0af0 00       		.byte	0
 2368 0af1 20       		.uleb128 0x20
 2369 0af2 5F535F6D 		.ascii "_S_max_size\0"
 2369      61785F73 
 2369      697A6500 
 2370 0afe 11       		.byte	0x11
 2371 0aff 32       		.byte	0x32
 2372 0b00 230A0000 		.long	0xa23
 2373 0b04 20       		.uleb128 0x20
 2374 0b05 5F535F74 		.ascii "_S_terminal\0"
 2374      65726D69 
 2374      6E616C00 
 2375 0b11 11       		.byte	0x11
 2376 0b12 37       		.byte	0x37
 2377 0b13 8A4B0000 		.long	0x4b8a
 2378 0b17 20       		.uleb128 0x20
 2379 0b18 5F535F65 		.ascii "_S_empty_rep_storage\0"
 2379      6D707479 
 2379      5F726570 
 2379      5F73746F 
 2379      72616765 
 2380 0b2d 11       		.byte	0x11
 2381 0b2e 42       		.byte	0x42
 2382 0b2f 07600000 		.long	0x6007
 2383 0b33 21       		.uleb128 0x21
 2384 0b34 0A000000 		.secrel32	LASF13
 2385 0b38 10       		.byte	0x10
 2386 0b39 B5       		.byte	0xb5
 2387 0b3a 5F5A4E53 		.ascii "_ZNSs4_Rep12_S_empty_repEv\0"
 2387      73345F52 
 2387      65703132 
 2387      5F535F65 
 2387      6D707479 
 2388 0b55 F55F0000 		.long	0x5ff5
 2389 0b59 22       		.uleb128 0x22
 2390 0b5a 5F4D5F69 		.ascii "_M_is_leaked\0"
 2390      735F6C65 
 2390      616B6564 
 2390      00
 2391 0b67 10       		.byte	0x10
 2392 0b68 BF       		.byte	0xbf
 2393 0b69 5F5A4E4B 		.ascii "_ZNKSs4_Rep12_M_is_leakedEv\0"
 2393      5373345F 
 2393      52657031 
GAS LISTING C:\Users\NJLLMR~1\AppData\Local\Temp\cce8JzPW.s 			page 87


 2393      325F4D5F 
 2393      69735F6C 
 2394 0b85 9D5D0000 		.long	0x5d9d
 2395 0b89 910B0000 		.long	0xb91
 2396 0b8d 970B0000 		.long	0xb97
 2397 0b91 19       		.uleb128 0x19
 2398 0b92 12600000 		.long	0x6012
 2399 0b96 00       		.byte	0
 2400 0b97 22       		.uleb128 0x22
 2401 0b98 5F4D5F69 		.ascii "_M_is_shared\0"
 2401      735F7368 
 2401      61726564 
 2401      00
 2402 0ba5 10       		.byte	0x10
 2403 0ba6 C3       		.byte	0xc3
 2404 0ba7 5F5A4E4B 		.ascii "_ZNKSs4_Rep12_M_is_sharedEv\0"
 2404      5373345F 
 2404      52657031 
 2404      325F4D5F 
 2404      69735F73 
 2405 0bc3 9D5D0000 		.long	0x5d9d
 2406 0bc7 CF0B0000 		.long	0xbcf
 2407 0bcb D50B0000 		.long	0xbd5
 2408 0bcf 19       		.uleb128 0x19
 2409 0bd0 12600000 		.long	0x6012
 2410 0bd4 00       		.byte	0
 2411 0bd5 23       		.uleb128 0x23
 2412 0bd6 5F4D5F73 		.ascii "_M_set_leaked\0"
 2412      65745F6C 
 2412      65616B65 
 2412      6400
 2413 0be4 10       		.byte	0x10
 2414 0be5 C7       		.byte	0xc7
 2415 0be6 5F5A4E53 		.ascii "_ZNSs4_Rep13_M_set_leakedEv\0"
 2415      73345F52 
 2415      65703133 
 2415      5F4D5F73 
 2415      65745F6C 
 2416 0c02 0A0C0000 		.long	0xc0a
 2417 0c06 100C0000 		.long	0xc10
 2418 0c0a 19       		.uleb128 0x19
 2419 0c0b EF5F0000 		.long	0x5fef
 2420 0c0f 00       		.byte	0
 2421 0c10 23       		.uleb128 0x23
 2422 0c11 5F4D5F73 		.ascii "_M_set_sharable\0"
 2422      65745F73 
 2422      68617261 
 2422      626C6500 
 2423 0c21 10       		.byte	0x10
 2424 0c22 CB       		.byte	0xcb
 2425 0c23 5F5A4E53 		.ascii "_ZNSs4_Rep15_M_set_sharableEv\0"
 2425      73345F52 
 2425      65703135 
 2425      5F4D5F73 
 2425      65745F73 
 2426 0c41 490C0000 		.long	0xc49
 2427 0c45 4F0C0000 		.long	0xc4f
GAS LISTING C:\Users\NJLLMR~1\AppData\Local\Temp\cce8JzPW.s 			page 88


 2428 0c49 19       		.uleb128 0x19
 2429 0c4a EF5F0000 		.long	0x5fef
 2430 0c4e 00       		.byte	0
 2431 0c4f 23       		.uleb128 0x23
 2432 0c50 5F4D5F73 		.ascii "_M_set_length_and_sharable\0"
 2432      65745F6C 
 2432      656E6774 
 2432      685F616E 
 2432      645F7368 
 2433 0c6b 10       		.byte	0x10
 2434 0c6c CF       		.byte	0xcf
 2435 0c6d 5F5A4E53 		.ascii "_ZNSs4_Rep26_M_set_length_and_sharableEj\0"
 2435      73345F52 
 2435      65703236 
 2435      5F4D5F73 
 2435      65745F6C 
 2436 0c96 9E0C0000 		.long	0xc9e
 2437 0c9a A90C0000 		.long	0xca9
 2438 0c9e 19       		.uleb128 0x19
 2439 0c9f EF5F0000 		.long	0x5fef
 2440 0ca3 0E       		.uleb128 0xe
 2441 0ca4 090A0000 		.long	0xa09
 2442 0ca8 00       		.byte	0
 2443 0ca9 22       		.uleb128 0x22
 2444 0caa 5F4D5F72 		.ascii "_M_refdata\0"
 2444      65666461 
 2444      746100
 2445 0cb5 10       		.byte	0x10
 2446 0cb6 DE       		.byte	0xde
 2447 0cb7 5F5A4E53 		.ascii "_ZNSs4_Rep10_M_refdataEv\0"
 2447      73345F52 
 2447      65703130 
 2447      5F4D5F72 
 2447      65666461 
 2448 0cd0 36020000 		.long	0x236
 2449 0cd4 DC0C0000 		.long	0xcdc
 2450 0cd8 E20C0000 		.long	0xce2
 2451 0cdc 19       		.uleb128 0x19
 2452 0cdd EF5F0000 		.long	0x5fef
 2453 0ce1 00       		.byte	0
 2454 0ce2 22       		.uleb128 0x22
 2455 0ce3 5F4D5F67 		.ascii "_M_grab\0"
 2455      72616200 
 2456 0ceb 10       		.byte	0x10
 2457 0cec E2       		.byte	0xe2
 2458 0ced 5F5A4E53 		.ascii "_ZNSs4_Rep7_M_grabERKSaIcES2_\0"
 2458      73345F52 
 2458      6570375F 
 2458      4D5F6772 
 2458      61624552 
 2459 0d0b 36020000 		.long	0x236
 2460 0d0f 170D0000 		.long	0xd17
 2461 0d13 270D0000 		.long	0xd27
 2462 0d17 19       		.uleb128 0x19
 2463 0d18 EF5F0000 		.long	0x5fef
 2464 0d1c 0E       		.uleb128 0xe
 2465 0d1d CD5F0000 		.long	0x5fcd
GAS LISTING C:\Users\NJLLMR~1\AppData\Local\Temp\cce8JzPW.s 			page 89


 2466 0d21 0E       		.uleb128 0xe
 2467 0d22 CD5F0000 		.long	0x5fcd
 2468 0d26 00       		.byte	0
 2469 0d27 12       		.uleb128 0x12
 2470 0d28 5F535F63 		.ascii "_S_create\0"
 2470      72656174 
 2470      6500
 2471 0d32 11       		.byte	0x11
 2472 0d33 2102     		.word	0x221
 2473 0d35 5F5A4E53 		.ascii "_ZNSs4_Rep9_S_createEjjRKSaIcE\0"
 2473      73345F52 
 2473      6570395F 
 2473      535F6372 
 2473      65617465 
 2474 0d54 EF5F0000 		.long	0x5fef
 2475 0d58 6C0D0000 		.long	0xd6c
 2476 0d5c 0E       		.uleb128 0xe
 2477 0d5d 090A0000 		.long	0xa09
 2478 0d61 0E       		.uleb128 0xe
 2479 0d62 090A0000 		.long	0xa09
 2480 0d66 0E       		.uleb128 0xe
 2481 0d67 CD5F0000 		.long	0x5fcd
 2482 0d6b 00       		.byte	0
 2483 0d6c 23       		.uleb128 0x23
 2484 0d6d 5F4D5F64 		.ascii "_M_dispose\0"
 2484      6973706F 
 2484      736500
 2485 0d78 10       		.byte	0x10
 2486 0d79 ED       		.byte	0xed
 2487 0d7a 5F5A4E53 		.ascii "_ZNSs4_Rep10_M_disposeERKSaIcE\0"
 2487      73345F52 
 2487      65703130 
 2487      5F4D5F64 
 2487      6973706F 
 2488 0d99 A10D0000 		.long	0xda1
 2489 0d9d AC0D0000 		.long	0xdac
 2490 0da1 19       		.uleb128 0x19
 2491 0da2 EF5F0000 		.long	0x5fef
 2492 0da6 0E       		.uleb128 0xe
 2493 0da7 CD5F0000 		.long	0x5fcd
 2494 0dab 00       		.byte	0
 2495 0dac 24       		.uleb128 0x24
 2496 0dad 5F4D5F64 		.ascii "_M_destroy\0"
 2496      65737472 
 2496      6F7900
 2497 0db8 11       		.byte	0x11
 2498 0db9 BC01     		.word	0x1bc
 2499 0dbb 5F5A4E53 		.ascii "_ZNSs4_Rep10_M_destroyERKSaIcE\0"
 2499      73345F52 
 2499      65703130 
 2499      5F4D5F64 
 2499      65737472 
 2500 0dda E20D0000 		.long	0xde2
 2501 0dde ED0D0000 		.long	0xded
 2502 0de2 19       		.uleb128 0x19
 2503 0de3 EF5F0000 		.long	0x5fef
 2504 0de7 0E       		.uleb128 0xe
GAS LISTING C:\Users\NJLLMR~1\AppData\Local\Temp\cce8JzPW.s 			page 90


 2505 0de8 CD5F0000 		.long	0x5fcd
 2506 0dec 00       		.byte	0
 2507 0ded 25       		.uleb128 0x25
 2508 0dee 5F4D5F72 		.ascii "_M_refcopy\0"
 2508      6566636F 
 2508      707900
 2509 0df9 10       		.byte	0x10
 2510 0dfa 0201     		.word	0x102
 2511 0dfc 5F5A4E53 		.ascii "_ZNSs4_Rep10_M_refcopyEv\0"
 2511      73345F52 
 2511      65703130 
 2511      5F4D5F72 
 2511      6566636F 
 2512 0e15 36020000 		.long	0x236
 2513 0e19 210E0000 		.long	0xe21
 2514 0e1d 270E0000 		.long	0xe27
 2515 0e21 19       		.uleb128 0x19
 2516 0e22 EF5F0000 		.long	0x5fef
 2517 0e26 00       		.byte	0
 2518 0e27 26       		.uleb128 0x26
 2519 0e28 5F4D5F63 		.ascii "_M_clone\0"
 2519      6C6F6E65 
 2519      00
 2520 0e31 11       		.byte	0x11
 2521 0e32 6F02     		.word	0x26f
 2522 0e34 5F5A4E53 		.ascii "_ZNSs4_Rep8_M_cloneERKSaIcEj\0"
 2522      73345F52 
 2522      6570385F 
 2522      4D5F636C 
 2522      6F6E6545 
 2523 0e51 36020000 		.long	0x236
 2524 0e55 590E0000 		.long	0xe59
 2525 0e59 19       		.uleb128 0x19
 2526 0e5a EF5F0000 		.long	0x5fef
 2527 0e5e 0E       		.uleb128 0xe
 2528 0e5f CD5F0000 		.long	0x5fcd
 2529 0e63 0E       		.uleb128 0xe
 2530 0e64 090A0000 		.long	0xa09
 2531 0e68 00       		.byte	0
 2532 0e69 00       		.byte	0
 2533 0e6a 25       		.uleb128 0x25
 2534 0e6b 5F4D5F64 		.ascii "_M_data\0"
 2534      61746100 
 2535 0e73 10       		.byte	0x10
 2536 0e74 2401     		.word	0x124
 2537 0e76 5F5A4E4B 		.ascii "_ZNKSs7_M_dataEv\0"
 2537      5373375F 
 2537      4D5F6461 
 2537      74614576 
 2537      00
 2538 0e87 36020000 		.long	0x236
 2539 0e8b 930E0000 		.long	0xe93
 2540 0e8f 990E0000 		.long	0xe99
 2541 0e93 19       		.uleb128 0x19
 2542 0e94 E35F0000 		.long	0x5fe3
 2543 0e98 00       		.byte	0
 2544 0e99 25       		.uleb128 0x25
GAS LISTING C:\Users\NJLLMR~1\AppData\Local\Temp\cce8JzPW.s 			page 91


 2545 0e9a 5F4D5F64 		.ascii "_M_data\0"
 2545      61746100 
 2546 0ea2 10       		.byte	0x10
 2547 0ea3 2801     		.word	0x128
 2548 0ea5 5F5A4E53 		.ascii "_ZNSs7_M_dataEPc\0"
 2548      73375F4D 
 2548      5F646174 
 2548      61455063 
 2548      00
 2549 0eb6 36020000 		.long	0x236
 2550 0eba C20E0000 		.long	0xec2
 2551 0ebe CD0E0000 		.long	0xecd
 2552 0ec2 19       		.uleb128 0x19
 2553 0ec3 E95F0000 		.long	0x5fe9
 2554 0ec7 0E       		.uleb128 0xe
 2555 0ec8 36020000 		.long	0x236
 2556 0ecc 00       		.byte	0
 2557 0ecd 25       		.uleb128 0x25
 2558 0ece 5F4D5F72 		.ascii "_M_rep\0"
 2558      657000
 2559 0ed5 10       		.byte	0x10
 2560 0ed6 2C01     		.word	0x12c
 2561 0ed8 5F5A4E4B 		.ascii "_ZNKSs6_M_repEv\0"
 2561      5373365F 
 2561      4D5F7265 
 2561      70457600 
 2562 0ee8 EF5F0000 		.long	0x5fef
 2563 0eec F40E0000 		.long	0xef4
 2564 0ef0 FA0E0000 		.long	0xefa
 2565 0ef4 19       		.uleb128 0x19
 2566 0ef5 E35F0000 		.long	0x5fe3
 2567 0ef9 00       		.byte	0
 2568 0efa 25       		.uleb128 0x25
 2569 0efb 5F4D5F69 		.ascii "_M_ibegin\0"
 2569      62656769 
 2569      6E00
 2570 0f05 10       		.byte	0x10
 2571 0f06 3201     		.word	0x132
 2572 0f08 5F5A4E4B 		.ascii "_ZNKSs9_M_ibeginEv\0"
 2572      5373395F 
 2572      4D5F6962 
 2572      6567696E 
 2572      457600
 2573 0f1b 610A0000 		.long	0xa61
 2574 0f1f 270F0000 		.long	0xf27
 2575 0f23 2D0F0000 		.long	0xf2d
 2576 0f27 19       		.uleb128 0x19
 2577 0f28 E35F0000 		.long	0x5fe3
 2578 0f2c 00       		.byte	0
 2579 0f2d 25       		.uleb128 0x25
 2580 0f2e 5F4D5F69 		.ascii "_M_iend\0"
 2580      656E6400 
 2581 0f36 10       		.byte	0x10
 2582 0f37 3601     		.word	0x136
 2583 0f39 5F5A4E4B 		.ascii "_ZNKSs7_M_iendEv\0"
 2583      5373375F 
 2583      4D5F6965 
GAS LISTING C:\Users\NJLLMR~1\AppData\Local\Temp\cce8JzPW.s 			page 92


 2583      6E644576 
 2583      00
 2584 0f4a 610A0000 		.long	0xa61
 2585 0f4e 560F0000 		.long	0xf56
 2586 0f52 5C0F0000 		.long	0xf5c
 2587 0f56 19       		.uleb128 0x19
 2588 0f57 E35F0000 		.long	0x5fe3
 2589 0f5b 00       		.byte	0
 2590 0f5c 24       		.uleb128 0x24
 2591 0f5d 5F4D5F6C 		.ascii "_M_leak\0"
 2591      65616B00 
 2592 0f65 10       		.byte	0x10
 2593 0f66 3A01     		.word	0x13a
 2594 0f68 5F5A4E53 		.ascii "_ZNSs7_M_leakEv\0"
 2594      73375F4D 
 2594      5F6C6561 
 2594      6B457600 
 2595 0f78 800F0000 		.long	0xf80
 2596 0f7c 860F0000 		.long	0xf86
 2597 0f80 19       		.uleb128 0x19
 2598 0f81 E95F0000 		.long	0x5fe9
 2599 0f85 00       		.byte	0
 2600 0f86 25       		.uleb128 0x25
 2601 0f87 5F4D5F63 		.ascii "_M_check\0"
 2601      6865636B 
 2601      00
 2602 0f90 10       		.byte	0x10
 2603 0f91 4101     		.word	0x141
 2604 0f93 5F5A4E4B 		.ascii "_ZNKSs8_M_checkEjPKc\0"
 2604      5373385F 
 2604      4D5F6368 
 2604      65636B45 
 2604      6A504B63 
 2605 0fa8 090A0000 		.long	0xa09
 2606 0fac B40F0000 		.long	0xfb4
 2607 0fb0 C40F0000 		.long	0xfc4
 2608 0fb4 19       		.uleb128 0x19
 2609 0fb5 E35F0000 		.long	0x5fe3
 2610 0fb9 0E       		.uleb128 0xe
 2611 0fba 090A0000 		.long	0xa09
 2612 0fbe 0E       		.uleb128 0xe
 2613 0fbf 844B0000 		.long	0x4b84
 2614 0fc3 00       		.byte	0
 2615 0fc4 24       		.uleb128 0x24
 2616 0fc5 5F4D5F63 		.ascii "_M_check_length\0"
 2616      6865636B 
 2616      5F6C656E 
 2616      67746800 
 2617 0fd5 10       		.byte	0x10
 2618 0fd6 4B01     		.word	0x14b
 2619 0fd8 5F5A4E4B 		.ascii "_ZNKSs15_M_check_lengthEjjPKc\0"
 2619      53733135 
 2619      5F4D5F63 
 2619      6865636B 
 2619      5F6C656E 
 2620 0ff6 FE0F0000 		.long	0xffe
 2621 0ffa 13100000 		.long	0x1013
GAS LISTING C:\Users\NJLLMR~1\AppData\Local\Temp\cce8JzPW.s 			page 93


 2622 0ffe 19       		.uleb128 0x19
 2623 0fff E35F0000 		.long	0x5fe3
 2624 1003 0E       		.uleb128 0xe
 2625 1004 090A0000 		.long	0xa09
 2626 1008 0E       		.uleb128 0xe
 2627 1009 090A0000 		.long	0xa09
 2628 100d 0E       		.uleb128 0xe
 2629 100e 844B0000 		.long	0x4b84
 2630 1012 00       		.byte	0
 2631 1013 25       		.uleb128 0x25
 2632 1014 5F4D5F6C 		.ascii "_M_limit\0"
 2632      696D6974 
 2632      00
 2633 101d 10       		.byte	0x10
 2634 101e 5301     		.word	0x153
 2635 1020 5F5A4E4B 		.ascii "_ZNKSs8_M_limitEjj\0"
 2635      5373385F 
 2635      4D5F6C69 
 2635      6D697445 
 2635      6A6A00
 2636 1033 090A0000 		.long	0xa09
 2637 1037 3F100000 		.long	0x103f
 2638 103b 4F100000 		.long	0x104f
 2639 103f 19       		.uleb128 0x19
 2640 1040 E35F0000 		.long	0x5fe3
 2641 1044 0E       		.uleb128 0xe
 2642 1045 090A0000 		.long	0xa09
 2643 1049 0E       		.uleb128 0xe
 2644 104a 090A0000 		.long	0xa09
 2645 104e 00       		.byte	0
 2646 104f 25       		.uleb128 0x25
 2647 1050 5F4D5F64 		.ascii "_M_disjunct\0"
 2647      69736A75 
 2647      6E637400 
 2648 105c 10       		.byte	0x10
 2649 105d 5B01     		.word	0x15b
 2650 105f 5F5A4E4B 		.ascii "_ZNKSs11_M_disjunctEPKc\0"
 2650      53733131 
 2650      5F4D5F64 
 2650      69736A75 
 2650      6E637445 
 2651 1077 9D5D0000 		.long	0x5d9d
 2652 107b 83100000 		.long	0x1083
 2653 107f 8E100000 		.long	0x108e
 2654 1083 19       		.uleb128 0x19
 2655 1084 E35F0000 		.long	0x5fe3
 2656 1088 0E       		.uleb128 0xe
 2657 1089 844B0000 		.long	0x4b84
 2658 108d 00       		.byte	0
 2659 108e 27       		.uleb128 0x27
 2660 108f 5F4D5F63 		.ascii "_M_copy\0"
 2660      6F707900 
 2661 1097 10       		.byte	0x10
 2662 1098 6401     		.word	0x164
 2663 109a 5F5A4E53 		.ascii "_ZNSs7_M_copyEPcPKcj\0"
 2663      73375F4D 
 2663      5F636F70 
GAS LISTING C:\Users\NJLLMR~1\AppData\Local\Temp\cce8JzPW.s 			page 94


 2663      79455063 
 2663      504B636A 
 2664 10af C3100000 		.long	0x10c3
 2665 10b3 0E       		.uleb128 0xe
 2666 10b4 36020000 		.long	0x236
 2667 10b8 0E       		.uleb128 0xe
 2668 10b9 844B0000 		.long	0x4b84
 2669 10bd 0E       		.uleb128 0xe
 2670 10be 090A0000 		.long	0xa09
 2671 10c2 00       		.byte	0
 2672 10c3 27       		.uleb128 0x27
 2673 10c4 5F4D5F6D 		.ascii "_M_move\0"
 2673      6F766500 
 2674 10cc 10       		.byte	0x10
 2675 10cd 6D01     		.word	0x16d
 2676 10cf 5F5A4E53 		.ascii "_ZNSs7_M_moveEPcPKcj\0"
 2676      73375F4D 
 2676      5F6D6F76 
 2676      65455063 
 2676      504B636A 
 2677 10e4 F8100000 		.long	0x10f8
 2678 10e8 0E       		.uleb128 0xe
 2679 10e9 36020000 		.long	0x236
 2680 10ed 0E       		.uleb128 0xe
 2681 10ee 844B0000 		.long	0x4b84
 2682 10f2 0E       		.uleb128 0xe
 2683 10f3 090A0000 		.long	0xa09
 2684 10f7 00       		.byte	0
 2685 10f8 27       		.uleb128 0x27
 2686 10f9 5F4D5F61 		.ascii "_M_assign\0"
 2686      73736967 
 2686      6E00
 2687 1103 10       		.byte	0x10
 2688 1104 7601     		.word	0x176
 2689 1106 5F5A4E53 		.ascii "_ZNSs9_M_assignEPcjc\0"
 2689      73395F4D 
 2689      5F617373 
 2689      69676E45 
 2689      50636A63 
 2690 111b 2F110000 		.long	0x112f
 2691 111f 0E       		.uleb128 0xe
 2692 1120 36020000 		.long	0x236
 2693 1124 0E       		.uleb128 0xe
 2694 1125 090A0000 		.long	0xa09
 2695 1129 0E       		.uleb128 0xe
 2696 112a 4A010000 		.long	0x14a
 2697 112e 00       		.byte	0
 2698 112f 28       		.uleb128 0x28
 2699 1130 7F010000 		.secrel32	LASF14
 2700 1134 10       		.byte	0x10
 2701 1135 8A01     		.word	0x18a
 2702 1137 5F5A4E53 		.ascii "_ZNSs13_S_copy_charsEPcN9__gnu_cxx17__normal_iteratorIS_SsEES2_\0"
 2702      7331335F 
 2702      535F636F 
 2702      70795F63 
 2702      68617273 
 2703 1177 8B110000 		.long	0x118b
GAS LISTING C:\Users\NJLLMR~1\AppData\Local\Temp\cce8JzPW.s 			page 95


 2704 117b 0E       		.uleb128 0xe
 2705 117c 36020000 		.long	0x236
 2706 1180 0E       		.uleb128 0xe
 2707 1181 610A0000 		.long	0xa61
 2708 1185 0E       		.uleb128 0xe
 2709 1186 610A0000 		.long	0xa61
 2710 118a 00       		.byte	0
 2711 118b 28       		.uleb128 0x28
 2712 118c 7F010000 		.secrel32	LASF14
 2713 1190 10       		.byte	0x10
 2714 1191 8E01     		.word	0x18e
 2715 1193 5F5A4E53 		.ascii "_ZNSs13_S_copy_charsEPcN9__gnu_cxx17__normal_iteratorIPKcSsEES4_\0"
 2715      7331335F 
 2715      535F636F 
 2715      70795F63 
 2715      68617273 
 2716 11d4 E8110000 		.long	0x11e8
 2717 11d8 0E       		.uleb128 0xe
 2718 11d9 36020000 		.long	0x236
 2719 11dd 0E       		.uleb128 0xe
 2720 11de 6D0A0000 		.long	0xa6d
 2721 11e2 0E       		.uleb128 0xe
 2722 11e3 6D0A0000 		.long	0xa6d
 2723 11e7 00       		.byte	0
 2724 11e8 28       		.uleb128 0x28
 2725 11e9 7F010000 		.secrel32	LASF14
 2726 11ed 10       		.byte	0x10
 2727 11ee 9301     		.word	0x193
 2728 11f0 5F5A4E53 		.ascii "_ZNSs13_S_copy_charsEPcS_S_\0"
 2728      7331335F 
 2728      535F636F 
 2728      70795F63 
 2728      68617273 
 2729 120c 20120000 		.long	0x1220
 2730 1210 0E       		.uleb128 0xe
 2731 1211 36020000 		.long	0x236
 2732 1215 0E       		.uleb128 0xe
 2733 1216 36020000 		.long	0x236
 2734 121a 0E       		.uleb128 0xe
 2735 121b 36020000 		.long	0x236
 2736 121f 00       		.byte	0
 2737 1220 28       		.uleb128 0x28
 2738 1221 7F010000 		.secrel32	LASF14
 2739 1225 10       		.byte	0x10
 2740 1226 9701     		.word	0x197
 2741 1228 5F5A4E53 		.ascii "_ZNSs13_S_copy_charsEPcPKcS1_\0"
 2741      7331335F 
 2741      535F636F 
 2741      70795F63 
 2741      68617273 
 2742 1246 5A120000 		.long	0x125a
 2743 124a 0E       		.uleb128 0xe
 2744 124b 36020000 		.long	0x236
 2745 124f 0E       		.uleb128 0xe
 2746 1250 844B0000 		.long	0x4b84
 2747 1254 0E       		.uleb128 0xe
 2748 1255 844B0000 		.long	0x4b84
GAS LISTING C:\Users\NJLLMR~1\AppData\Local\Temp\cce8JzPW.s 			page 96


 2749 1259 00       		.byte	0
 2750 125a 12       		.uleb128 0x12
 2751 125b 5F535F63 		.ascii "_S_compare\0"
 2751      6F6D7061 
 2751      726500
 2752 1266 10       		.byte	0x10
 2753 1267 9C01     		.word	0x19c
 2754 1269 5F5A4E53 		.ascii "_ZNSs10_S_compareEjj\0"
 2754      7331305F 
 2754      535F636F 
 2754      6D706172 
 2754      65456A6A 
 2755 127e 7E010000 		.long	0x17e
 2756 1282 91120000 		.long	0x1291
 2757 1286 0E       		.uleb128 0xe
 2758 1287 090A0000 		.long	0xa09
 2759 128b 0E       		.uleb128 0xe
 2760 128c 090A0000 		.long	0xa09
 2761 1290 00       		.byte	0
 2762 1291 24       		.uleb128 0x24
 2763 1292 5F4D5F6D 		.ascii "_M_mutate\0"
 2763      75746174 
 2763      6500
 2764 129c 11       		.byte	0x11
 2765 129d D401     		.word	0x1d4
 2766 129f 5F5A4E53 		.ascii "_ZNSs9_M_mutateEjjj\0"
 2766      73395F4D 
 2766      5F6D7574 
 2766      61746545 
 2766      6A6A6A00 
 2767 12b3 BB120000 		.long	0x12bb
 2768 12b7 D0120000 		.long	0x12d0
 2769 12bb 19       		.uleb128 0x19
 2770 12bc E95F0000 		.long	0x5fe9
 2771 12c0 0E       		.uleb128 0xe
 2772 12c1 090A0000 		.long	0xa09
 2773 12c5 0E       		.uleb128 0xe
 2774 12c6 090A0000 		.long	0xa09
 2775 12ca 0E       		.uleb128 0xe
 2776 12cb 090A0000 		.long	0xa09
 2777 12cf 00       		.byte	0
 2778 12d0 24       		.uleb128 0x24
 2779 12d1 5F4D5F6C 		.ascii "_M_leak_hard\0"
 2779      65616B5F 
 2779      68617264 
 2779      00
 2780 12de 11       		.byte	0x11
 2781 12df C601     		.word	0x1c6
 2782 12e1 5F5A4E53 		.ascii "_ZNSs12_M_leak_hardEv\0"
 2782      7331325F 
 2782      4D5F6C65 
 2782      616B5F68 
 2782      61726445 
 2783 12f7 FF120000 		.long	0x12ff
 2784 12fb 05130000 		.long	0x1305
 2785 12ff 19       		.uleb128 0x19
 2786 1300 E95F0000 		.long	0x5fe9
GAS LISTING C:\Users\NJLLMR~1\AppData\Local\Temp\cce8JzPW.s 			page 97


 2787 1304 00       		.byte	0
 2788 1305 29       		.uleb128 0x29
 2789 1306 0A000000 		.secrel32	LASF13
 2790 130a 10       		.byte	0x10
 2791 130b AF01     		.word	0x1af
 2792 130d 5F5A4E53 		.ascii "_ZNSs12_S_empty_repEv\0"
 2792      7331325F 
 2792      535F656D 
 2792      7074795F 
 2792      72657045 
 2793 1323 F55F0000 		.long	0x5ff5
 2794 1327 2A       		.uleb128 0x2a
 2795 1328 0F020000 		.secrel32	LASF15
 2796 132c 10       		.byte	0x10
 2797 132d BA01     		.word	0x1ba
 2798 132f 01       		.byte	0x1
 2799 1330 38130000 		.long	0x1338
 2800 1334 3E130000 		.long	0x133e
 2801 1338 19       		.uleb128 0x19
 2802 1339 E95F0000 		.long	0x5fe9
 2803 133d 00       		.byte	0
 2804 133e 2B       		.uleb128 0x2b
 2805 133f 0F020000 		.secrel32	LASF15
 2806 1343 11       		.byte	0x11
 2807 1344 B1       		.byte	0xb1
 2808 1345 01       		.byte	0x1
 2809 1346 4E130000 		.long	0x134e
 2810 134a 59130000 		.long	0x1359
 2811 134e 19       		.uleb128 0x19
 2812 134f E95F0000 		.long	0x5fe9
 2813 1353 0E       		.uleb128 0xe
 2814 1354 CD5F0000 		.long	0x5fcd
 2815 1358 00       		.byte	0
 2816 1359 18       		.uleb128 0x18
 2817 135a 0F020000 		.secrel32	LASF15
 2818 135e 11       		.byte	0x11
 2819 135f A9       		.byte	0xa9
 2820 1360 01       		.byte	0x1
 2821 1361 69130000 		.long	0x1369
 2822 1365 74130000 		.long	0x1374
 2823 1369 19       		.uleb128 0x19
 2824 136a E95F0000 		.long	0x5fe9
 2825 136e 0E       		.uleb128 0xe
 2826 136f FB5F0000 		.long	0x5ffb
 2827 1373 00       		.byte	0
 2828 1374 18       		.uleb128 0x18
 2829 1375 0F020000 		.secrel32	LASF15
 2830 1379 11       		.byte	0x11
 2831 137a B7       		.byte	0xb7
 2832 137b 01       		.byte	0x1
 2833 137c 84130000 		.long	0x1384
 2834 1380 99130000 		.long	0x1399
 2835 1384 19       		.uleb128 0x19
 2836 1385 E95F0000 		.long	0x5fe9
 2837 1389 0E       		.uleb128 0xe
 2838 138a FB5F0000 		.long	0x5ffb
 2839 138e 0E       		.uleb128 0xe
GAS LISTING C:\Users\NJLLMR~1\AppData\Local\Temp\cce8JzPW.s 			page 98


 2840 138f 090A0000 		.long	0xa09
 2841 1393 0E       		.uleb128 0xe
 2842 1394 090A0000 		.long	0xa09
 2843 1398 00       		.byte	0
 2844 1399 18       		.uleb128 0x18
 2845 139a 0F020000 		.secrel32	LASF15
 2846 139e 11       		.byte	0x11
 2847 139f C1       		.byte	0xc1
 2848 13a0 01       		.byte	0x1
 2849 13a1 A9130000 		.long	0x13a9
 2850 13a5 C3130000 		.long	0x13c3
 2851 13a9 19       		.uleb128 0x19
 2852 13aa E95F0000 		.long	0x5fe9
 2853 13ae 0E       		.uleb128 0xe
 2854 13af FB5F0000 		.long	0x5ffb
 2855 13b3 0E       		.uleb128 0xe
 2856 13b4 090A0000 		.long	0xa09
 2857 13b8 0E       		.uleb128 0xe
 2858 13b9 090A0000 		.long	0xa09
 2859 13bd 0E       		.uleb128 0xe
 2860 13be CD5F0000 		.long	0x5fcd
 2861 13c2 00       		.byte	0
 2862 13c3 18       		.uleb128 0x18
 2863 13c4 0F020000 		.secrel32	LASF15
 2864 13c8 11       		.byte	0x11
 2865 13c9 CD       		.byte	0xcd
 2866 13ca 01       		.byte	0x1
 2867 13cb D3130000 		.long	0x13d3
 2868 13cf E8130000 		.long	0x13e8
 2869 13d3 19       		.uleb128 0x19
 2870 13d4 E95F0000 		.long	0x5fe9
 2871 13d8 0E       		.uleb128 0xe
 2872 13d9 844B0000 		.long	0x4b84
 2873 13dd 0E       		.uleb128 0xe
 2874 13de 090A0000 		.long	0xa09
 2875 13e2 0E       		.uleb128 0xe
 2876 13e3 CD5F0000 		.long	0x5fcd
 2877 13e7 00       		.byte	0
 2878 13e8 18       		.uleb128 0x18
 2879 13e9 0F020000 		.secrel32	LASF15
 2880 13ed 11       		.byte	0x11
 2881 13ee D4       		.byte	0xd4
 2882 13ef 01       		.byte	0x1
 2883 13f0 F8130000 		.long	0x13f8
 2884 13f4 08140000 		.long	0x1408
 2885 13f8 19       		.uleb128 0x19
 2886 13f9 E95F0000 		.long	0x5fe9
 2887 13fd 0E       		.uleb128 0xe
 2888 13fe 844B0000 		.long	0x4b84
 2889 1402 0E       		.uleb128 0xe
 2890 1403 CD5F0000 		.long	0x5fcd
 2891 1407 00       		.byte	0
 2892 1408 18       		.uleb128 0x18
 2893 1409 0F020000 		.secrel32	LASF15
 2894 140d 11       		.byte	0x11
 2895 140e DB       		.byte	0xdb
 2896 140f 01       		.byte	0x1
GAS LISTING C:\Users\NJLLMR~1\AppData\Local\Temp\cce8JzPW.s 			page 99


 2897 1410 18140000 		.long	0x1418
 2898 1414 2D140000 		.long	0x142d
 2899 1418 19       		.uleb128 0x19
 2900 1419 E95F0000 		.long	0x5fe9
 2901 141d 0E       		.uleb128 0xe
 2902 141e 090A0000 		.long	0xa09
 2903 1422 0E       		.uleb128 0xe
 2904 1423 4A010000 		.long	0x14a
 2905 1427 0E       		.uleb128 0xe
 2906 1428 CD5F0000 		.long	0x5fcd
 2907 142c 00       		.byte	0
 2908 142d 2C       		.uleb128 0x2c
 2909 142e 7E626173 		.ascii "~basic_string\0"
 2909      69635F73 
 2909      7472696E 
 2909      6700
 2910 143c 10       		.byte	0x10
 2911 143d 2202     		.word	0x222
 2912 143f 01       		.byte	0x1
 2913 1440 48140000 		.long	0x1448
 2914 1444 53140000 		.long	0x1453
 2915 1448 19       		.uleb128 0x19
 2916 1449 E95F0000 		.long	0x5fe9
 2917 144d 19       		.uleb128 0x19
 2918 144e 7E010000 		.long	0x17e
 2919 1452 00       		.byte	0
 2920 1453 2D       		.uleb128 0x2d
 2921 1454 D9000000 		.secrel32	LASF16
 2922 1458 10       		.byte	0x10
 2923 1459 2A02     		.word	0x22a
 2924 145b 5F5A4E53 		.ascii "_ZNSsaSERKSs\0"
 2924      73615345 
 2924      524B5373 
 2924      00
 2925 1468 01600000 		.long	0x6001
 2926 146c 01       		.byte	0x1
 2927 146d 75140000 		.long	0x1475
 2928 1471 80140000 		.long	0x1480
 2929 1475 19       		.uleb128 0x19
 2930 1476 E95F0000 		.long	0x5fe9
 2931 147a 0E       		.uleb128 0xe
 2932 147b FB5F0000 		.long	0x5ffb
 2933 147f 00       		.byte	0
 2934 1480 2D       		.uleb128 0x2d
 2935 1481 D9000000 		.secrel32	LASF16
 2936 1485 10       		.byte	0x10
 2937 1486 3202     		.word	0x232
 2938 1488 5F5A4E53 		.ascii "_ZNSsaSEPKc\0"
 2938      73615345 
 2938      504B6300 
 2939 1494 01600000 		.long	0x6001
 2940 1498 01       		.byte	0x1
 2941 1499 A1140000 		.long	0x14a1
 2942 149d AC140000 		.long	0x14ac
 2943 14a1 19       		.uleb128 0x19
 2944 14a2 E95F0000 		.long	0x5fe9
 2945 14a6 0E       		.uleb128 0xe
GAS LISTING C:\Users\NJLLMR~1\AppData\Local\Temp\cce8JzPW.s 			page 100


 2946 14a7 844B0000 		.long	0x4b84
 2947 14ab 00       		.byte	0
 2948 14ac 2D       		.uleb128 0x2d
 2949 14ad D9000000 		.secrel32	LASF16
 2950 14b1 10       		.byte	0x10
 2951 14b2 3D02     		.word	0x23d
 2952 14b4 5F5A4E53 		.ascii "_ZNSsaSEc\0"
 2952      73615345 
 2952      6300
 2953 14be 01600000 		.long	0x6001
 2954 14c2 01       		.byte	0x1
 2955 14c3 CB140000 		.long	0x14cb
 2956 14c7 D6140000 		.long	0x14d6
 2957 14cb 19       		.uleb128 0x19
 2958 14cc E95F0000 		.long	0x5fe9
 2959 14d0 0E       		.uleb128 0xe
 2960 14d1 4A010000 		.long	0x14a
 2961 14d5 00       		.byte	0
 2962 14d6 2D       		.uleb128 0x2d
 2963 14d7 B1010000 		.secrel32	LASF17
 2964 14db 10       		.byte	0x10
 2965 14dc 6602     		.word	0x266
 2966 14de 5F5A4E53 		.ascii "_ZNSs5beginEv\0"
 2966      73356265 
 2966      67696E45 
 2966      7600
 2967 14ec 610A0000 		.long	0xa61
 2968 14f0 01       		.byte	0x1
 2969 14f1 F9140000 		.long	0x14f9
 2970 14f5 FF140000 		.long	0x14ff
 2971 14f9 19       		.uleb128 0x19
 2972 14fa E95F0000 		.long	0x5fe9
 2973 14fe 00       		.byte	0
 2974 14ff 2D       		.uleb128 0x2d
 2975 1500 B1010000 		.secrel32	LASF17
 2976 1504 10       		.byte	0x10
 2977 1505 7102     		.word	0x271
 2978 1507 5F5A4E4B 		.ascii "_ZNKSs5beginEv\0"
 2978      53733562 
 2978      6567696E 
 2978      457600
 2979 1516 6D0A0000 		.long	0xa6d
 2980 151a 01       		.byte	0x1
 2981 151b 23150000 		.long	0x1523
 2982 151f 29150000 		.long	0x1529
 2983 1523 19       		.uleb128 0x19
 2984 1524 E35F0000 		.long	0x5fe3
 2985 1528 00       		.byte	0
 2986 1529 2E       		.uleb128 0x2e
 2987 152a 656E6400 		.ascii "end\0"
 2988 152e 10       		.byte	0x10
 2989 152f 7902     		.word	0x279
 2990 1531 5F5A4E53 		.ascii "_ZNSs3endEv\0"
 2990      7333656E 
 2990      64457600 
 2991 153d 610A0000 		.long	0xa61
 2992 1541 01       		.byte	0x1
GAS LISTING C:\Users\NJLLMR~1\AppData\Local\Temp\cce8JzPW.s 			page 101


 2993 1542 4A150000 		.long	0x154a
 2994 1546 50150000 		.long	0x1550
 2995 154a 19       		.uleb128 0x19
 2996 154b E95F0000 		.long	0x5fe9
 2997 154f 00       		.byte	0
 2998 1550 2E       		.uleb128 0x2e
 2999 1551 656E6400 		.ascii "end\0"
 3000 1555 10       		.byte	0x10
 3001 1556 8402     		.word	0x284
 3002 1558 5F5A4E4B 		.ascii "_ZNKSs3endEv\0"
 3002      53733365 
 3002      6E644576 
 3002      00
 3003 1565 6D0A0000 		.long	0xa6d
 3004 1569 01       		.byte	0x1
 3005 156a 72150000 		.long	0x1572
 3006 156e 78150000 		.long	0x1578
 3007 1572 19       		.uleb128 0x19
 3008 1573 E35F0000 		.long	0x5fe3
 3009 1577 00       		.byte	0
 3010 1578 2D       		.uleb128 0x2d
 3011 1579 4C000000 		.secrel32	LASF18
 3012 157d 10       		.byte	0x10
 3013 157e 8D02     		.word	0x28d
 3014 1580 5F5A4E53 		.ascii "_ZNSs6rbeginEv\0"
 3014      73367262 
 3014      6567696E 
 3014      457600
 3015 158f 850A0000 		.long	0xa85
 3016 1593 01       		.byte	0x1
 3017 1594 9C150000 		.long	0x159c
 3018 1598 A2150000 		.long	0x15a2
 3019 159c 19       		.uleb128 0x19
 3020 159d E95F0000 		.long	0x5fe9
 3021 15a1 00       		.byte	0
 3022 15a2 2D       		.uleb128 0x2d
 3023 15a3 4C000000 		.secrel32	LASF18
 3024 15a7 10       		.byte	0x10
 3025 15a8 9602     		.word	0x296
 3026 15aa 5F5A4E4B 		.ascii "_ZNKSs6rbeginEv\0"
 3026      53733672 
 3026      62656769 
 3026      6E457600 
 3027 15ba 790A0000 		.long	0xa79
 3028 15be 01       		.byte	0x1
 3029 15bf C7150000 		.long	0x15c7
 3030 15c3 CD150000 		.long	0x15cd
 3031 15c7 19       		.uleb128 0x19
 3032 15c8 E35F0000 		.long	0x5fe3
 3033 15cc 00       		.byte	0
 3034 15cd 2E       		.uleb128 0x2e
 3035 15ce 72656E64 		.ascii "rend\0"
 3035      00
 3036 15d3 10       		.byte	0x10
 3037 15d4 9F02     		.word	0x29f
 3038 15d6 5F5A4E53 		.ascii "_ZNSs4rendEv\0"
 3038      73347265 
GAS LISTING C:\Users\NJLLMR~1\AppData\Local\Temp\cce8JzPW.s 			page 102


 3038      6E644576 
 3038      00
 3039 15e3 850A0000 		.long	0xa85
 3040 15e7 01       		.byte	0x1
 3041 15e8 F0150000 		.long	0x15f0
 3042 15ec F6150000 		.long	0x15f6
 3043 15f0 19       		.uleb128 0x19
 3044 15f1 E95F0000 		.long	0x5fe9
 3045 15f5 00       		.byte	0
 3046 15f6 2E       		.uleb128 0x2e
 3047 15f7 72656E64 		.ascii "rend\0"
 3047      00
 3048 15fc 10       		.byte	0x10
 3049 15fd A802     		.word	0x2a8
 3050 15ff 5F5A4E4B 		.ascii "_ZNKSs4rendEv\0"
 3050      53733472 
 3050      656E6445 
 3050      7600
 3051 160d 790A0000 		.long	0xa79
 3052 1611 01       		.byte	0x1
 3053 1612 1A160000 		.long	0x161a
 3054 1616 20160000 		.long	0x1620
 3055 161a 19       		.uleb128 0x19
 3056 161b E35F0000 		.long	0x5fe3
 3057 161f 00       		.byte	0
 3058 1620 2E       		.uleb128 0x2e
 3059 1621 73697A65 		.ascii "size\0"
 3059      00
 3060 1626 10       		.byte	0x10
 3061 1627 D402     		.word	0x2d4
 3062 1629 5F5A4E4B 		.ascii "_ZNKSs4sizeEv\0"
 3062      53733473 
 3062      697A6545 
 3062      7600
 3063 1637 090A0000 		.long	0xa09
 3064 163b 01       		.byte	0x1
 3065 163c 44160000 		.long	0x1644
 3066 1640 4A160000 		.long	0x164a
 3067 1644 19       		.uleb128 0x19
 3068 1645 E35F0000 		.long	0x5fe3
 3069 1649 00       		.byte	0
 3070 164a 2E       		.uleb128 0x2e
 3071 164b 6C656E67 		.ascii "length\0"
 3071      746800
 3072 1652 10       		.byte	0x10
 3073 1653 DA02     		.word	0x2da
 3074 1655 5F5A4E4B 		.ascii "_ZNKSs6lengthEv\0"
 3074      5373366C 
 3074      656E6774 
 3074      68457600 
 3075 1665 090A0000 		.long	0xa09
 3076 1669 01       		.byte	0x1
 3077 166a 72160000 		.long	0x1672
 3078 166e 78160000 		.long	0x1678
 3079 1672 19       		.uleb128 0x19
 3080 1673 E35F0000 		.long	0x5fe3
 3081 1677 00       		.byte	0
GAS LISTING C:\Users\NJLLMR~1\AppData\Local\Temp\cce8JzPW.s 			page 103


 3082 1678 2D       		.uleb128 0x2d
 3083 1679 45020000 		.secrel32	LASF19
 3084 167d 10       		.byte	0x10
 3085 167e DF02     		.word	0x2df
 3086 1680 5F5A4E4B 		.ascii "_ZNKSs8max_sizeEv\0"
 3086      5373386D 
 3086      61785F73 
 3086      697A6545 
 3086      7600
 3087 1692 090A0000 		.long	0xa09
 3088 1696 01       		.byte	0x1
 3089 1697 9F160000 		.long	0x169f
 3090 169b A5160000 		.long	0x16a5
 3091 169f 19       		.uleb128 0x19
 3092 16a0 E35F0000 		.long	0x5fe3
 3093 16a4 00       		.byte	0
 3094 16a5 2F       		.uleb128 0x2f
 3095 16a6 38000000 		.secrel32	LASF20
 3096 16aa 11       		.byte	0x11
 3097 16ab 7F02     		.word	0x27f
 3098 16ad 5F5A4E53 		.ascii "_ZNSs6resizeEjc\0"
 3098      73367265 
 3098      73697A65 
 3098      456A6300 
 3099 16bd 01       		.byte	0x1
 3100 16be C6160000 		.long	0x16c6
 3101 16c2 D6160000 		.long	0x16d6
 3102 16c6 19       		.uleb128 0x19
 3103 16c7 E95F0000 		.long	0x5fe9
 3104 16cb 0E       		.uleb128 0xe
 3105 16cc 090A0000 		.long	0xa09
 3106 16d0 0E       		.uleb128 0xe
 3107 16d1 4A010000 		.long	0x14a
 3108 16d5 00       		.byte	0
 3109 16d6 2F       		.uleb128 0x2f
 3110 16d7 38000000 		.secrel32	LASF20
 3111 16db 10       		.byte	0x10
 3112 16dc FA02     		.word	0x2fa
 3113 16de 5F5A4E53 		.ascii "_ZNSs6resizeEj\0"
 3113      73367265 
 3113      73697A65 
 3113      456A00
 3114 16ed 01       		.byte	0x1
 3115 16ee F6160000 		.long	0x16f6
 3116 16f2 01170000 		.long	0x1701
 3117 16f6 19       		.uleb128 0x19
 3118 16f7 E95F0000 		.long	0x5fe9
 3119 16fb 0E       		.uleb128 0xe
 3120 16fc 090A0000 		.long	0xa09
 3121 1700 00       		.byte	0
 3122 1701 2D       		.uleb128 0x2d
 3123 1702 E3000000 		.secrel32	LASF21
 3124 1706 10       		.byte	0x10
 3125 1707 1103     		.word	0x311
 3126 1709 5F5A4E4B 		.ascii "_ZNKSs8capacityEv\0"
 3126      53733863 
 3126      61706163 
GAS LISTING C:\Users\NJLLMR~1\AppData\Local\Temp\cce8JzPW.s 			page 104


 3126      69747945 
 3126      7600
 3127 171b 090A0000 		.long	0xa09
 3128 171f 01       		.byte	0x1
 3129 1720 28170000 		.long	0x1728
 3130 1724 2E170000 		.long	0x172e
 3131 1728 19       		.uleb128 0x19
 3132 1729 E35F0000 		.long	0x5fe3
 3133 172d 00       		.byte	0
 3134 172e 30       		.uleb128 0x30
 3135 172f 72657365 		.ascii "reserve\0"
 3135      72766500 
 3136 1737 11       		.byte	0x11
 3137 1738 F501     		.word	0x1f5
 3138 173a 5F5A4E53 		.ascii "_ZNSs7reserveEj\0"
 3138      73377265 
 3138      73657276 
 3138      65456A00 
 3139 174a 01       		.byte	0x1
 3140 174b 53170000 		.long	0x1753
 3141 174f 5E170000 		.long	0x175e
 3142 1753 19       		.uleb128 0x19
 3143 1754 E95F0000 		.long	0x5fe9
 3144 1758 0E       		.uleb128 0xe
 3145 1759 090A0000 		.long	0xa09
 3146 175d 00       		.byte	0
 3147 175e 30       		.uleb128 0x30
 3148 175f 636C6561 		.ascii "clear\0"
 3148      7200
 3149 1765 10       		.byte	0x10
 3150 1766 2D03     		.word	0x32d
 3151 1768 5F5A4E53 		.ascii "_ZNSs5clearEv\0"
 3151      7335636C 
 3151      65617245 
 3151      7600
 3152 1776 01       		.byte	0x1
 3153 1777 7F170000 		.long	0x177f
 3154 177b 85170000 		.long	0x1785
 3155 177f 19       		.uleb128 0x19
 3156 1780 E95F0000 		.long	0x5fe9
 3157 1784 00       		.byte	0
 3158 1785 2E       		.uleb128 0x2e
 3159 1786 656D7074 		.ascii "empty\0"
 3159      7900
 3160 178c 10       		.byte	0x10
 3161 178d 3503     		.word	0x335
 3162 178f 5F5A4E4B 		.ascii "_ZNKSs5emptyEv\0"
 3162      53733565 
 3162      6D707479 
 3162      457600
 3163 179e 9D5D0000 		.long	0x5d9d
 3164 17a2 01       		.byte	0x1
 3165 17a3 AB170000 		.long	0x17ab
 3166 17a7 B1170000 		.long	0x17b1
 3167 17ab 19       		.uleb128 0x19
 3168 17ac E35F0000 		.long	0x5fe3
 3169 17b0 00       		.byte	0
GAS LISTING C:\Users\NJLLMR~1\AppData\Local\Temp\cce8JzPW.s 			page 105


 3170 17b1 2D       		.uleb128 0x2d
 3171 17b2 45010000 		.secrel32	LASF22
 3172 17b6 10       		.byte	0x10
 3173 17b7 4403     		.word	0x344
 3174 17b9 5F5A4E4B 		.ascii "_ZNKSsixEj\0"
 3174      53736978 
 3174      456A00
 3175 17c4 550A0000 		.long	0xa55
 3176 17c8 01       		.byte	0x1
 3177 17c9 D1170000 		.long	0x17d1
 3178 17cd DC170000 		.long	0x17dc
 3179 17d1 19       		.uleb128 0x19
 3180 17d2 E35F0000 		.long	0x5fe3
 3181 17d6 0E       		.uleb128 0xe
 3182 17d7 090A0000 		.long	0xa09
 3183 17db 00       		.byte	0
 3184 17dc 2D       		.uleb128 0x2d
 3185 17dd 45010000 		.secrel32	LASF22
 3186 17e1 10       		.byte	0x10
 3187 17e2 5503     		.word	0x355
 3188 17e4 5F5A4E53 		.ascii "_ZNSsixEj\0"
 3188      73697845 
 3188      6A00
 3189 17ee 490A0000 		.long	0xa49
 3190 17f2 01       		.byte	0x1
 3191 17f3 FB170000 		.long	0x17fb
 3192 17f7 06180000 		.long	0x1806
 3193 17fb 19       		.uleb128 0x19
 3194 17fc E95F0000 		.long	0x5fe9
 3195 1800 0E       		.uleb128 0xe
 3196 1801 090A0000 		.long	0xa09
 3197 1805 00       		.byte	0
 3198 1806 2E       		.uleb128 0x2e
 3199 1807 617400   		.ascii "at\0"
 3200 180a 10       		.byte	0x10
 3201 180b 6B03     		.word	0x36b
 3202 180d 5F5A4E4B 		.ascii "_ZNKSs2atEj\0"
 3202      53733261 
 3202      74456A00 
 3203 1819 550A0000 		.long	0xa55
 3204 181d 01       		.byte	0x1
 3205 181e 26180000 		.long	0x1826
 3206 1822 31180000 		.long	0x1831
 3207 1826 19       		.uleb128 0x19
 3208 1827 E35F0000 		.long	0x5fe3
 3209 182b 0E       		.uleb128 0xe
 3210 182c 090A0000 		.long	0xa09
 3211 1830 00       		.byte	0
 3212 1831 2E       		.uleb128 0x2e
 3213 1832 617400   		.ascii "at\0"
 3214 1835 10       		.byte	0x10
 3215 1836 8103     		.word	0x381
 3216 1838 5F5A4E53 		.ascii "_ZNSs2atEj\0"
 3216      73326174 
 3216      456A00
 3217 1843 490A0000 		.long	0xa49
 3218 1847 01       		.byte	0x1
GAS LISTING C:\Users\NJLLMR~1\AppData\Local\Temp\cce8JzPW.s 			page 106


 3219 1848 50180000 		.long	0x1850
 3220 184c 5B180000 		.long	0x185b
 3221 1850 19       		.uleb128 0x19
 3222 1851 E95F0000 		.long	0x5fe9
 3223 1855 0E       		.uleb128 0xe
 3224 1856 090A0000 		.long	0xa09
 3225 185a 00       		.byte	0
 3226 185b 2D       		.uleb128 0x2d
 3227 185c 74010000 		.secrel32	LASF23
 3228 1860 10       		.byte	0x10
 3229 1861 B503     		.word	0x3b5
 3230 1863 5F5A4E53 		.ascii "_ZNSspLERKSs\0"
 3230      73704C45 
 3230      524B5373 
 3230      00
 3231 1870 01600000 		.long	0x6001
 3232 1874 01       		.byte	0x1
 3233 1875 7D180000 		.long	0x187d
 3234 1879 88180000 		.long	0x1888
 3235 187d 19       		.uleb128 0x19
 3236 187e E95F0000 		.long	0x5fe9
 3237 1882 0E       		.uleb128 0xe
 3238 1883 FB5F0000 		.long	0x5ffb
 3239 1887 00       		.byte	0
 3240 1888 2D       		.uleb128 0x2d
 3241 1889 74010000 		.secrel32	LASF23
 3242 188d 10       		.byte	0x10
 3243 188e BE03     		.word	0x3be
 3244 1890 5F5A4E53 		.ascii "_ZNSspLEPKc\0"
 3244      73704C45 
 3244      504B6300 
 3245 189c 01600000 		.long	0x6001
 3246 18a0 01       		.byte	0x1
 3247 18a1 A9180000 		.long	0x18a9
 3248 18a5 B4180000 		.long	0x18b4
 3249 18a9 19       		.uleb128 0x19
 3250 18aa E95F0000 		.long	0x5fe9
 3251 18ae 0E       		.uleb128 0xe
 3252 18af 844B0000 		.long	0x4b84
 3253 18b3 00       		.byte	0
 3254 18b4 2D       		.uleb128 0x2d
 3255 18b5 74010000 		.secrel32	LASF23
 3256 18b9 10       		.byte	0x10
 3257 18ba C703     		.word	0x3c7
 3258 18bc 5F5A4E53 		.ascii "_ZNSspLEc\0"
 3258      73704C45 
 3258      6300
 3259 18c6 01600000 		.long	0x6001
 3260 18ca 01       		.byte	0x1
 3261 18cb D3180000 		.long	0x18d3
 3262 18cf DE180000 		.long	0x18de
 3263 18d3 19       		.uleb128 0x19
 3264 18d4 E95F0000 		.long	0x5fe9
 3265 18d8 0E       		.uleb128 0xe
 3266 18d9 4A010000 		.long	0x14a
 3267 18dd 00       		.byte	0
 3268 18de 2D       		.uleb128 0x2d
GAS LISTING C:\Users\NJLLMR~1\AppData\Local\Temp\cce8JzPW.s 			page 107


 3269 18df 50010000 		.secrel32	LASF24
 3270 18e3 11       		.byte	0x11
 3271 18e4 4401     		.word	0x144
 3272 18e6 5F5A4E53 		.ascii "_ZNSs6appendERKSs\0"
 3272      73366170 
 3272      70656E64 
 3272      45524B53 
 3272      7300
 3273 18f8 01600000 		.long	0x6001
 3274 18fc 01       		.byte	0x1
 3275 18fd 05190000 		.long	0x1905
 3276 1901 10190000 		.long	0x1910
 3277 1905 19       		.uleb128 0x19
 3278 1906 E95F0000 		.long	0x5fe9
 3279 190a 0E       		.uleb128 0xe
 3280 190b FB5F0000 		.long	0x5ffb
 3281 190f 00       		.byte	0
 3282 1910 2D       		.uleb128 0x2d
 3283 1911 50010000 		.secrel32	LASF24
 3284 1915 11       		.byte	0x11
 3285 1916 5501     		.word	0x155
 3286 1918 5F5A4E53 		.ascii "_ZNSs6appendERKSsjj\0"
 3286      73366170 
 3286      70656E64 
 3286      45524B53 
 3286      736A6A00 
 3287 192c 01600000 		.long	0x6001
 3288 1930 01       		.byte	0x1
 3289 1931 39190000 		.long	0x1939
 3290 1935 4E190000 		.long	0x194e
 3291 1939 19       		.uleb128 0x19
 3292 193a E95F0000 		.long	0x5fe9
 3293 193e 0E       		.uleb128 0xe
 3294 193f FB5F0000 		.long	0x5ffb
 3295 1943 0E       		.uleb128 0xe
 3296 1944 090A0000 		.long	0xa09
 3297 1948 0E       		.uleb128 0xe
 3298 1949 090A0000 		.long	0xa09
 3299 194d 00       		.byte	0
 3300 194e 2D       		.uleb128 0x2d
 3301 194f 50010000 		.secrel32	LASF24
 3302 1953 11       		.byte	0x11
 3303 1954 2901     		.word	0x129
 3304 1956 5F5A4E53 		.ascii "_ZNSs6appendEPKcj\0"
 3304      73366170 
 3304      70656E64 
 3304      45504B63 
 3304      6A00
 3305 1968 01600000 		.long	0x6001
 3306 196c 01       		.byte	0x1
 3307 196d 75190000 		.long	0x1975
 3308 1971 85190000 		.long	0x1985
 3309 1975 19       		.uleb128 0x19
 3310 1976 E95F0000 		.long	0x5fe9
 3311 197a 0E       		.uleb128 0xe
 3312 197b 844B0000 		.long	0x4b84
 3313 197f 0E       		.uleb128 0xe
GAS LISTING C:\Users\NJLLMR~1\AppData\Local\Temp\cce8JzPW.s 			page 108


 3314 1980 090A0000 		.long	0xa09
 3315 1984 00       		.byte	0
 3316 1985 2D       		.uleb128 0x2d
 3317 1986 50010000 		.secrel32	LASF24
 3318 198a 10       		.byte	0x10
 3319 198b FF03     		.word	0x3ff
 3320 198d 5F5A4E53 		.ascii "_ZNSs6appendEPKc\0"
 3320      73366170 
 3320      70656E64 
 3320      45504B63 
 3320      00
 3321 199e 01600000 		.long	0x6001
 3322 19a2 01       		.byte	0x1
 3323 19a3 AB190000 		.long	0x19ab
 3324 19a7 B6190000 		.long	0x19b6
 3325 19ab 19       		.uleb128 0x19
 3326 19ac E95F0000 		.long	0x5fe9
 3327 19b0 0E       		.uleb128 0xe
 3328 19b1 844B0000 		.long	0x4b84
 3329 19b5 00       		.byte	0
 3330 19b6 2D       		.uleb128 0x2d
 3331 19b7 50010000 		.secrel32	LASF24
 3332 19bb 11       		.byte	0x11
 3333 19bc 1801     		.word	0x118
 3334 19be 5F5A4E53 		.ascii "_ZNSs6appendEjc\0"
 3334      73366170 
 3334      70656E64 
 3334      456A6300 
 3335 19ce 01600000 		.long	0x6001
 3336 19d2 01       		.byte	0x1
 3337 19d3 DB190000 		.long	0x19db
 3338 19d7 EB190000 		.long	0x19eb
 3339 19db 19       		.uleb128 0x19
 3340 19dc E95F0000 		.long	0x5fe9
 3341 19e0 0E       		.uleb128 0xe
 3342 19e1 090A0000 		.long	0xa09
 3343 19e5 0E       		.uleb128 0xe
 3344 19e6 4A010000 		.long	0x14a
 3345 19ea 00       		.byte	0
 3346 19eb 2F       		.uleb128 0x2f
 3347 19ec BC000000 		.secrel32	LASF25
 3348 19f0 10       		.byte	0x10
 3349 19f1 2D04     		.word	0x42d
 3350 19f3 5F5A4E53 		.ascii "_ZNSs9push_backEc\0"
 3350      73397075 
 3350      73685F62 
 3350      61636B45 
 3350      6300
 3351 1a05 01       		.byte	0x1
 3352 1a06 0E1A0000 		.long	0x1a0e
 3353 1a0a 191A0000 		.long	0x1a19
 3354 1a0e 19       		.uleb128 0x19
 3355 1a0f E95F0000 		.long	0x5fe9
 3356 1a13 0E       		.uleb128 0xe
 3357 1a14 4A010000 		.long	0x14a
 3358 1a18 00       		.byte	0
 3359 1a19 31       		.uleb128 0x31
GAS LISTING C:\Users\NJLLMR~1\AppData\Local\Temp\cce8JzPW.s 			page 109


 3360 1a1a F4000000 		.secrel32	LASF1
 3361 1a1e 11       		.byte	0x11
 3362 1a1f F2       		.byte	0xf2
 3363 1a20 5F5A4E53 		.ascii "_ZNSs6assignERKSs\0"
 3363      73366173 
 3363      7369676E 
 3363      45524B53 
 3363      7300
 3364 1a32 01600000 		.long	0x6001
 3365 1a36 01       		.byte	0x1
 3366 1a37 3F1A0000 		.long	0x1a3f
 3367 1a3b 4A1A0000 		.long	0x1a4a
 3368 1a3f 19       		.uleb128 0x19
 3369 1a40 E95F0000 		.long	0x5fe9
 3370 1a44 0E       		.uleb128 0xe
 3371 1a45 FB5F0000 		.long	0x5ffb
 3372 1a49 00       		.byte	0
 3373 1a4a 2D       		.uleb128 0x2d
 3374 1a4b F4000000 		.secrel32	LASF1
 3375 1a4f 10       		.byte	0x10
 3376 1a50 5E04     		.word	0x45e
 3377 1a52 5F5A4E53 		.ascii "_ZNSs6assignERKSsjj\0"
 3377      73366173 
 3377      7369676E 
 3377      45524B53 
 3377      736A6A00 
 3378 1a66 01600000 		.long	0x6001
 3379 1a6a 01       		.byte	0x1
 3380 1a6b 731A0000 		.long	0x1a73
 3381 1a6f 881A0000 		.long	0x1a88
 3382 1a73 19       		.uleb128 0x19
 3383 1a74 E95F0000 		.long	0x5fe9
 3384 1a78 0E       		.uleb128 0xe
 3385 1a79 FB5F0000 		.long	0x5ffb
 3386 1a7d 0E       		.uleb128 0xe
 3387 1a7e 090A0000 		.long	0xa09
 3388 1a82 0E       		.uleb128 0xe
 3389 1a83 090A0000 		.long	0xa09
 3390 1a87 00       		.byte	0
 3391 1a88 2D       		.uleb128 0x2d
 3392 1a89 F4000000 		.secrel32	LASF1
 3393 1a8d 11       		.byte	0x11
 3394 1a8e 0201     		.word	0x102
 3395 1a90 5F5A4E53 		.ascii "_ZNSs6assignEPKcj\0"
 3395      73366173 
 3395      7369676E 
 3395      45504B63 
 3395      6A00
 3396 1aa2 01600000 		.long	0x6001
 3397 1aa6 01       		.byte	0x1
 3398 1aa7 AF1A0000 		.long	0x1aaf
 3399 1aab BF1A0000 		.long	0x1abf
 3400 1aaf 19       		.uleb128 0x19
 3401 1ab0 E95F0000 		.long	0x5fe9
 3402 1ab4 0E       		.uleb128 0xe
 3403 1ab5 844B0000 		.long	0x4b84
 3404 1ab9 0E       		.uleb128 0xe
GAS LISTING C:\Users\NJLLMR~1\AppData\Local\Temp\cce8JzPW.s 			page 110


 3405 1aba 090A0000 		.long	0xa09
 3406 1abe 00       		.byte	0
 3407 1abf 2D       		.uleb128 0x2d
 3408 1ac0 F4000000 		.secrel32	LASF1
 3409 1ac4 10       		.byte	0x10
 3410 1ac5 7A04     		.word	0x47a
 3411 1ac7 5F5A4E53 		.ascii "_ZNSs6assignEPKc\0"
 3411      73366173 
 3411      7369676E 
 3411      45504B63 
 3411      00
 3412 1ad8 01600000 		.long	0x6001
 3413 1adc 01       		.byte	0x1
 3414 1add E51A0000 		.long	0x1ae5
 3415 1ae1 F01A0000 		.long	0x1af0
 3416 1ae5 19       		.uleb128 0x19
 3417 1ae6 E95F0000 		.long	0x5fe9
 3418 1aea 0E       		.uleb128 0xe
 3419 1aeb 844B0000 		.long	0x4b84
 3420 1aef 00       		.byte	0
 3421 1af0 2D       		.uleb128 0x2d
 3422 1af1 F4000000 		.secrel32	LASF1
 3423 1af5 10       		.byte	0x10
 3424 1af6 8A04     		.word	0x48a
 3425 1af8 5F5A4E53 		.ascii "_ZNSs6assignEjc\0"
 3425      73366173 
 3425      7369676E 
 3425      456A6300 
 3426 1b08 01600000 		.long	0x6001
 3427 1b0c 01       		.byte	0x1
 3428 1b0d 151B0000 		.long	0x1b15
 3429 1b11 251B0000 		.long	0x1b25
 3430 1b15 19       		.uleb128 0x19
 3431 1b16 E95F0000 		.long	0x5fe9
 3432 1b1a 0E       		.uleb128 0xe
 3433 1b1b 090A0000 		.long	0xa09
 3434 1b1f 0E       		.uleb128 0xe
 3435 1b20 4A010000 		.long	0x14a
 3436 1b24 00       		.byte	0
 3437 1b25 2F       		.uleb128 0x2f
 3438 1b26 61010000 		.secrel32	LASF26
 3439 1b2a 10       		.byte	0x10
 3440 1b2b B304     		.word	0x4b3
 3441 1b2d 5F5A4E53 		.ascii "_ZNSs6insertEN9__gnu_cxx17__normal_iteratorIPcSsEEjc\0"
 3441      7336696E 
 3441      73657274 
 3441      454E395F 
 3441      5F676E75 
 3442 1b62 01       		.byte	0x1
 3443 1b63 6B1B0000 		.long	0x1b6b
 3444 1b67 801B0000 		.long	0x1b80
 3445 1b6b 19       		.uleb128 0x19
 3446 1b6c E95F0000 		.long	0x5fe9
 3447 1b70 0E       		.uleb128 0xe
 3448 1b71 610A0000 		.long	0xa61
 3449 1b75 0E       		.uleb128 0xe
 3450 1b76 090A0000 		.long	0xa09
GAS LISTING C:\Users\NJLLMR~1\AppData\Local\Temp\cce8JzPW.s 			page 111


 3451 1b7a 0E       		.uleb128 0xe
 3452 1b7b 4A010000 		.long	0x14a
 3453 1b7f 00       		.byte	0
 3454 1b80 2D       		.uleb128 0x2d
 3455 1b81 61010000 		.secrel32	LASF26
 3456 1b85 10       		.byte	0x10
 3457 1b86 E304     		.word	0x4e3
 3458 1b88 5F5A4E53 		.ascii "_ZNSs6insertEjRKSs\0"
 3458      7336696E 
 3458      73657274 
 3458      456A524B 
 3458      537300
 3459 1b9b 01600000 		.long	0x6001
 3460 1b9f 01       		.byte	0x1
 3461 1ba0 A81B0000 		.long	0x1ba8
 3462 1ba4 B81B0000 		.long	0x1bb8
 3463 1ba8 19       		.uleb128 0x19
 3464 1ba9 E95F0000 		.long	0x5fe9
 3465 1bad 0E       		.uleb128 0xe
 3466 1bae 090A0000 		.long	0xa09
 3467 1bb2 0E       		.uleb128 0xe
 3468 1bb3 FB5F0000 		.long	0x5ffb
 3469 1bb7 00       		.byte	0
 3470 1bb8 2D       		.uleb128 0x2d
 3471 1bb9 61010000 		.secrel32	LASF26
 3472 1bbd 10       		.byte	0x10
 3473 1bbe F904     		.word	0x4f9
 3474 1bc0 5F5A4E53 		.ascii "_ZNSs6insertEjRKSsjj\0"
 3474      7336696E 
 3474      73657274 
 3474      456A524B 
 3474      53736A6A 
 3475 1bd5 01600000 		.long	0x6001
 3476 1bd9 01       		.byte	0x1
 3477 1bda E21B0000 		.long	0x1be2
 3478 1bde FC1B0000 		.long	0x1bfc
 3479 1be2 19       		.uleb128 0x19
 3480 1be3 E95F0000 		.long	0x5fe9
 3481 1be7 0E       		.uleb128 0xe
 3482 1be8 090A0000 		.long	0xa09
 3483 1bec 0E       		.uleb128 0xe
 3484 1bed FB5F0000 		.long	0x5ffb
 3485 1bf1 0E       		.uleb128 0xe
 3486 1bf2 090A0000 		.long	0xa09
 3487 1bf6 0E       		.uleb128 0xe
 3488 1bf7 090A0000 		.long	0xa09
 3489 1bfb 00       		.byte	0
 3490 1bfc 2D       		.uleb128 0x2d
 3491 1bfd 61010000 		.secrel32	LASF26
 3492 1c01 11       		.byte	0x11
 3493 1c02 6701     		.word	0x167
 3494 1c04 5F5A4E53 		.ascii "_ZNSs6insertEjPKcj\0"
 3494      7336696E 
 3494      73657274 
 3494      456A504B 
 3494      636A00
 3495 1c17 01600000 		.long	0x6001
GAS LISTING C:\Users\NJLLMR~1\AppData\Local\Temp\cce8JzPW.s 			page 112


 3496 1c1b 01       		.byte	0x1
 3497 1c1c 241C0000 		.long	0x1c24
 3498 1c20 391C0000 		.long	0x1c39
 3499 1c24 19       		.uleb128 0x19
 3500 1c25 E95F0000 		.long	0x5fe9
 3501 1c29 0E       		.uleb128 0xe
 3502 1c2a 090A0000 		.long	0xa09
 3503 1c2e 0E       		.uleb128 0xe
 3504 1c2f 844B0000 		.long	0x4b84
 3505 1c33 0E       		.uleb128 0xe
 3506 1c34 090A0000 		.long	0xa09
 3507 1c38 00       		.byte	0
 3508 1c39 2D       		.uleb128 0x2d
 3509 1c3a 61010000 		.secrel32	LASF26
 3510 1c3e 10       		.byte	0x10
 3511 1c3f 2205     		.word	0x522
 3512 1c41 5F5A4E53 		.ascii "_ZNSs6insertEjPKc\0"
 3512      7336696E 
 3512      73657274 
 3512      456A504B 
 3512      6300
 3513 1c53 01600000 		.long	0x6001
 3514 1c57 01       		.byte	0x1
 3515 1c58 601C0000 		.long	0x1c60
 3516 1c5c 701C0000 		.long	0x1c70
 3517 1c60 19       		.uleb128 0x19
 3518 1c61 E95F0000 		.long	0x5fe9
 3519 1c65 0E       		.uleb128 0xe
 3520 1c66 090A0000 		.long	0xa09
 3521 1c6a 0E       		.uleb128 0xe
 3522 1c6b 844B0000 		.long	0x4b84
 3523 1c6f 00       		.byte	0
 3524 1c70 2D       		.uleb128 0x2d
 3525 1c71 61010000 		.secrel32	LASF26
 3526 1c75 10       		.byte	0x10
 3527 1c76 3905     		.word	0x539
 3528 1c78 5F5A4E53 		.ascii "_ZNSs6insertEjjc\0"
 3528      7336696E 
 3528      73657274 
 3528      456A6A63 
 3528      00
 3529 1c89 01600000 		.long	0x6001
 3530 1c8d 01       		.byte	0x1
 3531 1c8e 961C0000 		.long	0x1c96
 3532 1c92 AB1C0000 		.long	0x1cab
 3533 1c96 19       		.uleb128 0x19
 3534 1c97 E95F0000 		.long	0x5fe9
 3535 1c9b 0E       		.uleb128 0xe
 3536 1c9c 090A0000 		.long	0xa09
 3537 1ca0 0E       		.uleb128 0xe
 3538 1ca1 090A0000 		.long	0xa09
 3539 1ca5 0E       		.uleb128 0xe
 3540 1ca6 4A010000 		.long	0x14a
 3541 1caa 00       		.byte	0
 3542 1cab 2D       		.uleb128 0x2d
 3543 1cac 61010000 		.secrel32	LASF26
 3544 1cb0 10       		.byte	0x10
GAS LISTING C:\Users\NJLLMR~1\AppData\Local\Temp\cce8JzPW.s 			page 113


 3545 1cb1 4B05     		.word	0x54b
 3546 1cb3 5F5A4E53 		.ascii "_ZNSs6insertEN9__gnu_cxx17__normal_iteratorIPcSsEEc\0"
 3546      7336696E 
 3546      73657274 
 3546      454E395F 
 3546      5F676E75 
 3547 1ce7 610A0000 		.long	0xa61
 3548 1ceb 01       		.byte	0x1
 3549 1cec F41C0000 		.long	0x1cf4
 3550 1cf0 041D0000 		.long	0x1d04
 3551 1cf4 19       		.uleb128 0x19
 3552 1cf5 E95F0000 		.long	0x5fe9
 3553 1cf9 0E       		.uleb128 0xe
 3554 1cfa 610A0000 		.long	0xa61
 3555 1cfe 0E       		.uleb128 0xe
 3556 1cff 4A010000 		.long	0x14a
 3557 1d03 00       		.byte	0
 3558 1d04 2D       		.uleb128 0x2d
 3559 1d05 3F000000 		.secrel32	LASF27
 3560 1d09 10       		.byte	0x10
 3561 1d0a 6405     		.word	0x564
 3562 1d0c 5F5A4E53 		.ascii "_ZNSs5eraseEjj\0"
 3562      73356572 
 3562      61736545 
 3562      6A6A00
 3563 1d1b 01600000 		.long	0x6001
 3564 1d1f 01       		.byte	0x1
 3565 1d20 281D0000 		.long	0x1d28
 3566 1d24 381D0000 		.long	0x1d38
 3567 1d28 19       		.uleb128 0x19
 3568 1d29 E95F0000 		.long	0x5fe9
 3569 1d2d 0E       		.uleb128 0xe
 3570 1d2e 090A0000 		.long	0xa09
 3571 1d32 0E       		.uleb128 0xe
 3572 1d33 090A0000 		.long	0xa09
 3573 1d37 00       		.byte	0
 3574 1d38 2D       		.uleb128 0x2d
 3575 1d39 3F000000 		.secrel32	LASF27
 3576 1d3d 10       		.byte	0x10
 3577 1d3e 7405     		.word	0x574
 3578 1d40 5F5A4E53 		.ascii "_ZNSs5eraseEN9__gnu_cxx17__normal_iteratorIPcSsEE\0"
 3578      73356572 
 3578      61736545 
 3578      4E395F5F 
 3578      676E755F 
 3579 1d72 610A0000 		.long	0xa61
 3580 1d76 01       		.byte	0x1
 3581 1d77 7F1D0000 		.long	0x1d7f
 3582 1d7b 8A1D0000 		.long	0x1d8a
 3583 1d7f 19       		.uleb128 0x19
 3584 1d80 E95F0000 		.long	0x5fe9
 3585 1d84 0E       		.uleb128 0xe
 3586 1d85 610A0000 		.long	0xa61
 3587 1d89 00       		.byte	0
 3588 1d8a 2D       		.uleb128 0x2d
 3589 1d8b 3F000000 		.secrel32	LASF27
 3590 1d8f 11       		.byte	0x11
GAS LISTING C:\Users\NJLLMR~1\AppData\Local\Temp\cce8JzPW.s 			page 114


 3591 1d90 8601     		.word	0x186
 3592 1d92 5F5A4E53 		.ascii "_ZNSs5eraseEN9__gnu_cxx17__normal_iteratorIPcSsEES2_\0"
 3592      73356572 
 3592      61736545 
 3592      4E395F5F 
 3592      676E755F 
 3593 1dc7 610A0000 		.long	0xa61
 3594 1dcb 01       		.byte	0x1
 3595 1dcc D41D0000 		.long	0x1dd4
 3596 1dd0 E41D0000 		.long	0x1de4
 3597 1dd4 19       		.uleb128 0x19
 3598 1dd5 E95F0000 		.long	0x5fe9
 3599 1dd9 0E       		.uleb128 0xe
 3600 1dda 610A0000 		.long	0xa61
 3601 1dde 0E       		.uleb128 0xe
 3602 1ddf 610A0000 		.long	0xa61
 3603 1de3 00       		.byte	0
 3604 1de4 2D       		.uleb128 0x2d
 3605 1de5 17000000 		.secrel32	LASF28
 3606 1de9 10       		.byte	0x10
 3607 1dea A705     		.word	0x5a7
 3608 1dec 5F5A4E53 		.ascii "_ZNSs7replaceEjjRKSs\0"
 3608      73377265 
 3608      706C6163 
 3608      65456A6A 
 3608      524B5373 
 3609 1e01 01600000 		.long	0x6001
 3610 1e05 01       		.byte	0x1
 3611 1e06 0E1E0000 		.long	0x1e0e
 3612 1e0a 231E0000 		.long	0x1e23
 3613 1e0e 19       		.uleb128 0x19
 3614 1e0f E95F0000 		.long	0x5fe9
 3615 1e13 0E       		.uleb128 0xe
 3616 1e14 090A0000 		.long	0xa09
 3617 1e18 0E       		.uleb128 0xe
 3618 1e19 090A0000 		.long	0xa09
 3619 1e1d 0E       		.uleb128 0xe
 3620 1e1e FB5F0000 		.long	0x5ffb
 3621 1e22 00       		.byte	0
 3622 1e23 2D       		.uleb128 0x2d
 3623 1e24 17000000 		.secrel32	LASF28
 3624 1e28 10       		.byte	0x10
 3625 1e29 BD05     		.word	0x5bd
 3626 1e2b 5F5A4E53 		.ascii "_ZNSs7replaceEjjRKSsjj\0"
 3626      73377265 
 3626      706C6163 
 3626      65456A6A 
 3626      524B5373 
 3627 1e42 01600000 		.long	0x6001
 3628 1e46 01       		.byte	0x1
 3629 1e47 4F1E0000 		.long	0x1e4f
 3630 1e4b 6E1E0000 		.long	0x1e6e
 3631 1e4f 19       		.uleb128 0x19
 3632 1e50 E95F0000 		.long	0x5fe9
 3633 1e54 0E       		.uleb128 0xe
 3634 1e55 090A0000 		.long	0xa09
 3635 1e59 0E       		.uleb128 0xe
GAS LISTING C:\Users\NJLLMR~1\AppData\Local\Temp\cce8JzPW.s 			page 115


 3636 1e5a 090A0000 		.long	0xa09
 3637 1e5e 0E       		.uleb128 0xe
 3638 1e5f FB5F0000 		.long	0x5ffb
 3639 1e63 0E       		.uleb128 0xe
 3640 1e64 090A0000 		.long	0xa09
 3641 1e68 0E       		.uleb128 0xe
 3642 1e69 090A0000 		.long	0xa09
 3643 1e6d 00       		.byte	0
 3644 1e6e 2D       		.uleb128 0x2d
 3645 1e6f 17000000 		.secrel32	LASF28
 3646 1e73 11       		.byte	0x11
 3647 1e74 9D01     		.word	0x19d
 3648 1e76 5F5A4E53 		.ascii "_ZNSs7replaceEjjPKcj\0"
 3648      73377265 
 3648      706C6163 
 3648      65456A6A 
 3648      504B636A 
 3649 1e8b 01600000 		.long	0x6001
 3650 1e8f 01       		.byte	0x1
 3651 1e90 981E0000 		.long	0x1e98
 3652 1e94 B21E0000 		.long	0x1eb2
 3653 1e98 19       		.uleb128 0x19
 3654 1e99 E95F0000 		.long	0x5fe9
 3655 1e9d 0E       		.uleb128 0xe
 3656 1e9e 090A0000 		.long	0xa09
 3657 1ea2 0E       		.uleb128 0xe
 3658 1ea3 090A0000 		.long	0xa09
 3659 1ea7 0E       		.uleb128 0xe
 3660 1ea8 844B0000 		.long	0x4b84
 3661 1eac 0E       		.uleb128 0xe
 3662 1ead 090A0000 		.long	0xa09
 3663 1eb1 00       		.byte	0
 3664 1eb2 2D       		.uleb128 0x2d
 3665 1eb3 17000000 		.secrel32	LASF28
 3666 1eb7 10       		.byte	0x10
 3667 1eb8 EA05     		.word	0x5ea
 3668 1eba 5F5A4E53 		.ascii "_ZNSs7replaceEjjPKc\0"
 3668      73377265 
 3668      706C6163 
 3668      65456A6A 
 3668      504B6300 
 3669 1ece 01600000 		.long	0x6001
 3670 1ed2 01       		.byte	0x1
 3671 1ed3 DB1E0000 		.long	0x1edb
 3672 1ed7 F01E0000 		.long	0x1ef0
 3673 1edb 19       		.uleb128 0x19
 3674 1edc E95F0000 		.long	0x5fe9
 3675 1ee0 0E       		.uleb128 0xe
 3676 1ee1 090A0000 		.long	0xa09
 3677 1ee5 0E       		.uleb128 0xe
 3678 1ee6 090A0000 		.long	0xa09
 3679 1eea 0E       		.uleb128 0xe
 3680 1eeb 844B0000 		.long	0x4b84
 3681 1eef 00       		.byte	0
 3682 1ef0 2D       		.uleb128 0x2d
 3683 1ef1 17000000 		.secrel32	LASF28
 3684 1ef5 10       		.byte	0x10
GAS LISTING C:\Users\NJLLMR~1\AppData\Local\Temp\cce8JzPW.s 			page 116


 3685 1ef6 0206     		.word	0x602
 3686 1ef8 5F5A4E53 		.ascii "_ZNSs7replaceEjjjc\0"
 3686      73377265 
 3686      706C6163 
 3686      65456A6A 
 3686      6A6300
 3687 1f0b 01600000 		.long	0x6001
 3688 1f0f 01       		.byte	0x1
 3689 1f10 181F0000 		.long	0x1f18
 3690 1f14 321F0000 		.long	0x1f32
 3691 1f18 19       		.uleb128 0x19
 3692 1f19 E95F0000 		.long	0x5fe9
 3693 1f1d 0E       		.uleb128 0xe
 3694 1f1e 090A0000 		.long	0xa09
 3695 1f22 0E       		.uleb128 0xe
 3696 1f23 090A0000 		.long	0xa09
 3697 1f27 0E       		.uleb128 0xe
 3698 1f28 090A0000 		.long	0xa09
 3699 1f2c 0E       		.uleb128 0xe
 3700 1f2d 4A010000 		.long	0x14a
 3701 1f31 00       		.byte	0
 3702 1f32 2D       		.uleb128 0x2d
 3703 1f33 17000000 		.secrel32	LASF28
 3704 1f37 10       		.byte	0x10
 3705 1f38 1406     		.word	0x614
 3706 1f3a 5F5A4E53 		.ascii "_ZNSs7replaceEN9__gnu_cxx17__normal_iteratorIPcSsEES2_RKSs\0"
 3706      73377265 
 3706      706C6163 
 3706      65454E39 
 3706      5F5F676E 
 3707 1f75 01600000 		.long	0x6001
 3708 1f79 01       		.byte	0x1
 3709 1f7a 821F0000 		.long	0x1f82
 3710 1f7e 971F0000 		.long	0x1f97
 3711 1f82 19       		.uleb128 0x19
 3712 1f83 E95F0000 		.long	0x5fe9
 3713 1f87 0E       		.uleb128 0xe
 3714 1f88 610A0000 		.long	0xa61
 3715 1f8c 0E       		.uleb128 0xe
 3716 1f8d 610A0000 		.long	0xa61
 3717 1f91 0E       		.uleb128 0xe
 3718 1f92 FB5F0000 		.long	0x5ffb
 3719 1f96 00       		.byte	0
 3720 1f97 2D       		.uleb128 0x2d
 3721 1f98 17000000 		.secrel32	LASF28
 3722 1f9c 10       		.byte	0x10
 3723 1f9d 2706     		.word	0x627
 3724 1f9f 5F5A4E53 		.ascii "_ZNSs7replaceEN9__gnu_cxx17__normal_iteratorIPcSsEES2_PKcj\0"
 3724      73377265 
 3724      706C6163 
 3724      65454E39 
 3724      5F5F676E 
 3725 1fda 01600000 		.long	0x6001
 3726 1fde 01       		.byte	0x1
 3727 1fdf E71F0000 		.long	0x1fe7
 3728 1fe3 01200000 		.long	0x2001
 3729 1fe7 19       		.uleb128 0x19
GAS LISTING C:\Users\NJLLMR~1\AppData\Local\Temp\cce8JzPW.s 			page 117


 3730 1fe8 E95F0000 		.long	0x5fe9
 3731 1fec 0E       		.uleb128 0xe
 3732 1fed 610A0000 		.long	0xa61
 3733 1ff1 0E       		.uleb128 0xe
 3734 1ff2 610A0000 		.long	0xa61
 3735 1ff6 0E       		.uleb128 0xe
 3736 1ff7 844B0000 		.long	0x4b84
 3737 1ffb 0E       		.uleb128 0xe
 3738 1ffc 090A0000 		.long	0xa09
 3739 2000 00       		.byte	0
 3740 2001 2D       		.uleb128 0x2d
 3741 2002 17000000 		.secrel32	LASF28
 3742 2006 10       		.byte	0x10
 3743 2007 3C06     		.word	0x63c
 3744 2009 5F5A4E53 		.ascii "_ZNSs7replaceEN9__gnu_cxx17__normal_iteratorIPcSsEES2_PKc\0"
 3744      73377265 
 3744      706C6163 
 3744      65454E39 
 3744      5F5F676E 
 3745 2043 01600000 		.long	0x6001
 3746 2047 01       		.byte	0x1
 3747 2048 50200000 		.long	0x2050
 3748 204c 65200000 		.long	0x2065
 3749 2050 19       		.uleb128 0x19
 3750 2051 E95F0000 		.long	0x5fe9
 3751 2055 0E       		.uleb128 0xe
 3752 2056 610A0000 		.long	0xa61
 3753 205a 0E       		.uleb128 0xe
 3754 205b 610A0000 		.long	0xa61
 3755 205f 0E       		.uleb128 0xe
 3756 2060 844B0000 		.long	0x4b84
 3757 2064 00       		.byte	0
 3758 2065 2D       		.uleb128 0x2d
 3759 2066 17000000 		.secrel32	LASF28
 3760 206a 10       		.byte	0x10
 3761 206b 5106     		.word	0x651
 3762 206d 5F5A4E53 		.ascii "_ZNSs7replaceEN9__gnu_cxx17__normal_iteratorIPcSsEES2_jc\0"
 3762      73377265 
 3762      706C6163 
 3762      65454E39 
 3762      5F5F676E 
 3763 20a6 01600000 		.long	0x6001
 3764 20aa 01       		.byte	0x1
 3765 20ab B3200000 		.long	0x20b3
 3766 20af CD200000 		.long	0x20cd
 3767 20b3 19       		.uleb128 0x19
 3768 20b4 E95F0000 		.long	0x5fe9
 3769 20b8 0E       		.uleb128 0xe
 3770 20b9 610A0000 		.long	0xa61
 3771 20bd 0E       		.uleb128 0xe
 3772 20be 610A0000 		.long	0xa61
 3773 20c2 0E       		.uleb128 0xe
 3774 20c3 090A0000 		.long	0xa09
 3775 20c7 0E       		.uleb128 0xe
 3776 20c8 4A010000 		.long	0x14a
 3777 20cc 00       		.byte	0
 3778 20cd 2D       		.uleb128 0x2d
GAS LISTING C:\Users\NJLLMR~1\AppData\Local\Temp\cce8JzPW.s 			page 118


 3779 20ce 17000000 		.secrel32	LASF28
 3780 20d2 10       		.byte	0x10
 3781 20d3 7606     		.word	0x676
 3782 20d5 5F5A4E53 		.ascii "_ZNSs7replaceEN9__gnu_cxx17__normal_iteratorIPcSsEES2_S1_S1_\0"
 3782      73377265 
 3782      706C6163 
 3782      65454E39 
 3782      5F5F676E 
 3783 2112 01600000 		.long	0x6001
 3784 2116 01       		.byte	0x1
 3785 2117 1F210000 		.long	0x211f
 3786 211b 39210000 		.long	0x2139
 3787 211f 19       		.uleb128 0x19
 3788 2120 E95F0000 		.long	0x5fe9
 3789 2124 0E       		.uleb128 0xe
 3790 2125 610A0000 		.long	0xa61
 3791 2129 0E       		.uleb128 0xe
 3792 212a 610A0000 		.long	0xa61
 3793 212e 0E       		.uleb128 0xe
 3794 212f 36020000 		.long	0x236
 3795 2133 0E       		.uleb128 0xe
 3796 2134 36020000 		.long	0x236
 3797 2138 00       		.byte	0
 3798 2139 2D       		.uleb128 0x2d
 3799 213a 17000000 		.secrel32	LASF28
 3800 213e 10       		.byte	0x10
 3801 213f 8006     		.word	0x680
 3802 2141 5F5A4E53 		.ascii "_ZNSs7replaceEN9__gnu_cxx17__normal_iteratorIPcSsEES2_PKcS4_\0"
 3802      73377265 
 3802      706C6163 
 3802      65454E39 
 3802      5F5F676E 
 3803 217e 01600000 		.long	0x6001
 3804 2182 01       		.byte	0x1
 3805 2183 8B210000 		.long	0x218b
 3806 2187 A5210000 		.long	0x21a5
 3807 218b 19       		.uleb128 0x19
 3808 218c E95F0000 		.long	0x5fe9
 3809 2190 0E       		.uleb128 0xe
 3810 2191 610A0000 		.long	0xa61
 3811 2195 0E       		.uleb128 0xe
 3812 2196 610A0000 		.long	0xa61
 3813 219a 0E       		.uleb128 0xe
 3814 219b 844B0000 		.long	0x4b84
 3815 219f 0E       		.uleb128 0xe
 3816 21a0 844B0000 		.long	0x4b84
 3817 21a4 00       		.byte	0
 3818 21a5 2D       		.uleb128 0x2d
 3819 21a6 17000000 		.secrel32	LASF28
 3820 21aa 10       		.byte	0x10
 3821 21ab 8B06     		.word	0x68b
 3822 21ad 5F5A4E53 		.ascii "_ZNSs7replaceEN9__gnu_cxx17__normal_iteratorIPcSsEES2_S2_S2_\0"
 3822      73377265 
 3822      706C6163 
 3822      65454E39 
 3822      5F5F676E 
 3823 21ea 01600000 		.long	0x6001
GAS LISTING C:\Users\NJLLMR~1\AppData\Local\Temp\cce8JzPW.s 			page 119


 3824 21ee 01       		.byte	0x1
 3825 21ef F7210000 		.long	0x21f7
 3826 21f3 11220000 		.long	0x2211
 3827 21f7 19       		.uleb128 0x19
 3828 21f8 E95F0000 		.long	0x5fe9
 3829 21fc 0E       		.uleb128 0xe
 3830 21fd 610A0000 		.long	0xa61
 3831 2201 0E       		.uleb128 0xe
 3832 2202 610A0000 		.long	0xa61
 3833 2206 0E       		.uleb128 0xe
 3834 2207 610A0000 		.long	0xa61
 3835 220b 0E       		.uleb128 0xe
 3836 220c 610A0000 		.long	0xa61
 3837 2210 00       		.byte	0
 3838 2211 2D       		.uleb128 0x2d
 3839 2212 17000000 		.secrel32	LASF28
 3840 2216 10       		.byte	0x10
 3841 2217 9506     		.word	0x695
 3842 2219 5F5A4E53 		.ascii "_ZNSs7replaceEN9__gnu_cxx17__normal_iteratorIPcSsEES2_NS0_IPKcSsEES5_\0"
 3842      73377265 
 3842      706C6163 
 3842      65454E39 
 3842      5F5F676E 
 3843 225f 01600000 		.long	0x6001
 3844 2263 01       		.byte	0x1
 3845 2264 6C220000 		.long	0x226c
 3846 2268 86220000 		.long	0x2286
 3847 226c 19       		.uleb128 0x19
 3848 226d E95F0000 		.long	0x5fe9
 3849 2271 0E       		.uleb128 0xe
 3850 2272 610A0000 		.long	0xa61
 3851 2276 0E       		.uleb128 0xe
 3852 2277 610A0000 		.long	0xa61
 3853 227b 0E       		.uleb128 0xe
 3854 227c 6D0A0000 		.long	0xa6d
 3855 2280 0E       		.uleb128 0xe
 3856 2281 6D0A0000 		.long	0xa6d
 3857 2285 00       		.byte	0
 3858 2286 25       		.uleb128 0x25
 3859 2287 5F4D5F72 		.ascii "_M_replace_aux\0"
 3859      65706C61 
 3859      63655F61 
 3859      757800
 3860 2296 11       		.byte	0x11
 3861 2297 9B02     		.word	0x29b
 3862 2299 5F5A4E53 		.ascii "_ZNSs14_M_replace_auxEjjjc\0"
 3862      7331345F 
 3862      4D5F7265 
 3862      706C6163 
 3862      655F6175 
 3863 22b4 01600000 		.long	0x6001
 3864 22b8 C0220000 		.long	0x22c0
 3865 22bc DA220000 		.long	0x22da
 3866 22c0 19       		.uleb128 0x19
 3867 22c1 E95F0000 		.long	0x5fe9
 3868 22c5 0E       		.uleb128 0xe
 3869 22c6 090A0000 		.long	0xa09
GAS LISTING C:\Users\NJLLMR~1\AppData\Local\Temp\cce8JzPW.s 			page 120


 3870 22ca 0E       		.uleb128 0xe
 3871 22cb 090A0000 		.long	0xa09
 3872 22cf 0E       		.uleb128 0xe
 3873 22d0 090A0000 		.long	0xa09
 3874 22d4 0E       		.uleb128 0xe
 3875 22d5 4A010000 		.long	0x14a
 3876 22d9 00       		.byte	0
 3877 22da 25       		.uleb128 0x25
 3878 22db 5F4D5F72 		.ascii "_M_replace_safe\0"
 3878      65706C61 
 3878      63655F73 
 3878      61666500 
 3879 22eb 11       		.byte	0x11
 3880 22ec A802     		.word	0x2a8
 3881 22ee 5F5A4E53 		.ascii "_ZNSs15_M_replace_safeEjjPKcj\0"
 3881      7331355F 
 3881      4D5F7265 
 3881      706C6163 
 3881      655F7361 
 3882 230c 01600000 		.long	0x6001
 3883 2310 18230000 		.long	0x2318
 3884 2314 32230000 		.long	0x2332
 3885 2318 19       		.uleb128 0x19
 3886 2319 E95F0000 		.long	0x5fe9
 3887 231d 0E       		.uleb128 0xe
 3888 231e 090A0000 		.long	0xa09
 3889 2322 0E       		.uleb128 0xe
 3890 2323 090A0000 		.long	0xa09
 3891 2327 0E       		.uleb128 0xe
 3892 2328 844B0000 		.long	0x4b84
 3893 232c 0E       		.uleb128 0xe
 3894 232d 090A0000 		.long	0xa09
 3895 2331 00       		.byte	0
 3896 2332 12       		.uleb128 0x12
 3897 2333 5F535F63 		.ascii "_S_construct_aux_2\0"
 3897      6F6E7374 
 3897      72756374 
 3897      5F617578 
 3897      5F3200
 3898 2346 10       		.byte	0x10
 3899 2347 DC06     		.word	0x6dc
 3900 2349 5F5A4E53 		.ascii "_ZNSs18_S_construct_aux_2EjcRKSaIcE\0"
 3900      7331385F 
 3900      535F636F 
 3900      6E737472 
 3900      7563745F 
 3901 236d 36020000 		.long	0x236
 3902 2371 85230000 		.long	0x2385
 3903 2375 0E       		.uleb128 0xe
 3904 2376 090A0000 		.long	0xa09
 3905 237a 0E       		.uleb128 0xe
 3906 237b 4A010000 		.long	0x14a
 3907 237f 0E       		.uleb128 0xe
 3908 2380 CD5F0000 		.long	0x5fcd
 3909 2384 00       		.byte	0
 3910 2385 10       		.uleb128 0x10
 3911 2386 5F535F63 		.ascii "_S_construct\0"
GAS LISTING C:\Users\NJLLMR~1\AppData\Local\Temp\cce8JzPW.s 			page 121


 3911      6F6E7374 
 3911      72756374 
 3911      00
 3912 2393 11       		.byte	0x11
 3913 2394 98       		.byte	0x98
 3914 2395 5F5A4E53 		.ascii "_ZNSs12_S_constructEjcRKSaIcE\0"
 3914      7331325F 
 3914      535F636F 
 3914      6E737472 
 3914      75637445 
 3915 23b3 36020000 		.long	0x236
 3916 23b7 CB230000 		.long	0x23cb
 3917 23bb 0E       		.uleb128 0xe
 3918 23bc 090A0000 		.long	0xa09
 3919 23c0 0E       		.uleb128 0xe
 3920 23c1 4A010000 		.long	0x14a
 3921 23c5 0E       		.uleb128 0xe
 3922 23c6 CD5F0000 		.long	0x5fcd
 3923 23ca 00       		.byte	0
 3924 23cb 2E       		.uleb128 0x2e
 3925 23cc 636F7079 		.ascii "copy\0"
 3925      00
 3926 23d1 11       		.byte	0x11
 3927 23d2 D202     		.word	0x2d2
 3928 23d4 5F5A4E4B 		.ascii "_ZNKSs4copyEPcjj\0"
 3928      53733463 
 3928      6F707945 
 3928      50636A6A 
 3928      00
 3929 23e5 090A0000 		.long	0xa09
 3930 23e9 01       		.byte	0x1
 3931 23ea F2230000 		.long	0x23f2
 3932 23ee 07240000 		.long	0x2407
 3933 23f2 19       		.uleb128 0x19
 3934 23f3 E35F0000 		.long	0x5fe3
 3935 23f7 0E       		.uleb128 0xe
 3936 23f8 36020000 		.long	0x236
 3937 23fc 0E       		.uleb128 0xe
 3938 23fd 090A0000 		.long	0xa09
 3939 2401 0E       		.uleb128 0xe
 3940 2402 090A0000 		.long	0xa09
 3941 2406 00       		.byte	0
 3942 2407 30       		.uleb128 0x30
 3943 2408 73776170 		.ascii "swap\0"
 3943      00
 3944 240d 11       		.byte	0x11
 3945 240e 0602     		.word	0x206
 3946 2410 5F5A4E53 		.ascii "_ZNSs4swapERSs\0"
 3946      73347377 
 3946      61704552 
 3946      537300
 3947 241f 01       		.byte	0x1
 3948 2420 28240000 		.long	0x2428
 3949 2424 33240000 		.long	0x2433
 3950 2428 19       		.uleb128 0x19
 3951 2429 E95F0000 		.long	0x5fe9
 3952 242d 0E       		.uleb128 0xe
GAS LISTING C:\Users\NJLLMR~1\AppData\Local\Temp\cce8JzPW.s 			page 122


 3953 242e 01600000 		.long	0x6001
 3954 2432 00       		.byte	0
 3955 2433 2E       		.uleb128 0x2e
 3956 2434 635F7374 		.ascii "c_str\0"
 3956      7200
 3957 243a 10       		.byte	0x10
 3958 243b 1B07     		.word	0x71b
 3959 243d 5F5A4E4B 		.ascii "_ZNKSs5c_strEv\0"
 3959      53733563 
 3959      5F737472 
 3959      457600
 3960 244c 844B0000 		.long	0x4b84
 3961 2450 01       		.byte	0x1
 3962 2451 59240000 		.long	0x2459
 3963 2455 5F240000 		.long	0x245f
 3964 2459 19       		.uleb128 0x19
 3965 245a E35F0000 		.long	0x5fe3
 3966 245e 00       		.byte	0
 3967 245f 2E       		.uleb128 0x2e
 3968 2460 64617461 		.ascii "data\0"
 3968      00
 3969 2465 10       		.byte	0x10
 3970 2466 2507     		.word	0x725
 3971 2468 5F5A4E4B 		.ascii "_ZNKSs4dataEv\0"
 3971      53733464 
 3971      61746145 
 3971      7600
 3972 2476 844B0000 		.long	0x4b84
 3973 247a 01       		.byte	0x1
 3974 247b 83240000 		.long	0x2483
 3975 247f 89240000 		.long	0x2489
 3976 2483 19       		.uleb128 0x19
 3977 2484 E35F0000 		.long	0x5fe3
 3978 2488 00       		.byte	0
 3979 2489 2D       		.uleb128 0x2d
 3980 248a AE000000 		.secrel32	LASF29
 3981 248e 10       		.byte	0x10
 3982 248f 2C07     		.word	0x72c
 3983 2491 5F5A4E4B 		.ascii "_ZNKSs13get_allocatorEv\0"
 3983      53733133 
 3983      6765745F 
 3983      616C6C6F 
 3983      6361746F 
 3984 24a9 3D0A0000 		.long	0xa3d
 3985 24ad 01       		.byte	0x1
 3986 24ae B6240000 		.long	0x24b6
 3987 24b2 BC240000 		.long	0x24bc
 3988 24b6 19       		.uleb128 0x19
 3989 24b7 E35F0000 		.long	0x5fe3
 3990 24bb 00       		.byte	0
 3991 24bc 2E       		.uleb128 0x2e
 3992 24bd 66696E64 		.ascii "find\0"
 3992      00
 3993 24c2 11       		.byte	0x11
 3994 24c3 E002     		.word	0x2e0
 3995 24c5 5F5A4E4B 		.ascii "_ZNKSs4findEPKcjj\0"
 3995      53733466 
GAS LISTING C:\Users\NJLLMR~1\AppData\Local\Temp\cce8JzPW.s 			page 123


 3995      696E6445 
 3995      504B636A 
 3995      6A00
 3996 24d7 090A0000 		.long	0xa09
 3997 24db 01       		.byte	0x1
 3998 24dc E4240000 		.long	0x24e4
 3999 24e0 F9240000 		.long	0x24f9
 4000 24e4 19       		.uleb128 0x19
 4001 24e5 E35F0000 		.long	0x5fe3
 4002 24e9 0E       		.uleb128 0xe
 4003 24ea 844B0000 		.long	0x4b84
 4004 24ee 0E       		.uleb128 0xe
 4005 24ef 090A0000 		.long	0xa09
 4006 24f3 0E       		.uleb128 0xe
 4007 24f4 090A0000 		.long	0xa09
 4008 24f8 00       		.byte	0
 4009 24f9 2E       		.uleb128 0x2e
 4010 24fa 66696E64 		.ascii "find\0"
 4010      00
 4011 24ff 10       		.byte	0x10
 4012 2500 4907     		.word	0x749
 4013 2502 5F5A4E4B 		.ascii "_ZNKSs4findERKSsj\0"
 4013      53733466 
 4013      696E6445 
 4013      524B5373 
 4013      6A00
 4014 2514 090A0000 		.long	0xa09
 4015 2518 01       		.byte	0x1
 4016 2519 21250000 		.long	0x2521
 4017 251d 31250000 		.long	0x2531
 4018 2521 19       		.uleb128 0x19
 4019 2522 E35F0000 		.long	0x5fe3
 4020 2526 0E       		.uleb128 0xe
 4021 2527 FB5F0000 		.long	0x5ffb
 4022 252b 0E       		.uleb128 0xe
 4023 252c 090A0000 		.long	0xa09
 4024 2530 00       		.byte	0
 4025 2531 2E       		.uleb128 0x2e
 4026 2532 66696E64 		.ascii "find\0"
 4026      00
 4027 2537 10       		.byte	0x10
 4028 2538 5807     		.word	0x758
 4029 253a 5F5A4E4B 		.ascii "_ZNKSs4findEPKcj\0"
 4029      53733466 
 4029      696E6445 
 4029      504B636A 
 4029      00
 4030 254b 090A0000 		.long	0xa09
 4031 254f 01       		.byte	0x1
 4032 2550 58250000 		.long	0x2558
 4033 2554 68250000 		.long	0x2568
 4034 2558 19       		.uleb128 0x19
 4035 2559 E35F0000 		.long	0x5fe3
 4036 255d 0E       		.uleb128 0xe
 4037 255e 844B0000 		.long	0x4b84
 4038 2562 0E       		.uleb128 0xe
 4039 2563 090A0000 		.long	0xa09
GAS LISTING C:\Users\NJLLMR~1\AppData\Local\Temp\cce8JzPW.s 			page 124


 4040 2567 00       		.byte	0
 4041 2568 2E       		.uleb128 0x2e
 4042 2569 66696E64 		.ascii "find\0"
 4042      00
 4043 256e 11       		.byte	0x11
 4044 256f F702     		.word	0x2f7
 4045 2571 5F5A4E4B 		.ascii "_ZNKSs4findEcj\0"
 4045      53733466 
 4045      696E6445 
 4045      636A00
 4046 2580 090A0000 		.long	0xa09
 4047 2584 01       		.byte	0x1
 4048 2585 8D250000 		.long	0x258d
 4049 2589 9D250000 		.long	0x259d
 4050 258d 19       		.uleb128 0x19
 4051 258e E35F0000 		.long	0x5fe3
 4052 2592 0E       		.uleb128 0xe
 4053 2593 4A010000 		.long	0x14a
 4054 2597 0E       		.uleb128 0xe
 4055 2598 090A0000 		.long	0xa09
 4056 259c 00       		.byte	0
 4057 259d 2D       		.uleb128 0x2d
 4058 259e 17010000 		.secrel32	LASF30
 4059 25a2 10       		.byte	0x10
 4060 25a3 7607     		.word	0x776
 4061 25a5 5F5A4E4B 		.ascii "_ZNKSs5rfindERKSsj\0"
 4061      53733572 
 4061      66696E64 
 4061      45524B53 
 4061      736A00
 4062 25b8 090A0000 		.long	0xa09
 4063 25bc 01       		.byte	0x1
 4064 25bd C5250000 		.long	0x25c5
 4065 25c1 D5250000 		.long	0x25d5
 4066 25c5 19       		.uleb128 0x19
 4067 25c6 E35F0000 		.long	0x5fe3
 4068 25ca 0E       		.uleb128 0xe
 4069 25cb FB5F0000 		.long	0x5ffb
 4070 25cf 0E       		.uleb128 0xe
 4071 25d0 090A0000 		.long	0xa09
 4072 25d4 00       		.byte	0
 4073 25d5 2D       		.uleb128 0x2d
 4074 25d6 17010000 		.secrel32	LASF30
 4075 25da 11       		.byte	0x11
 4076 25db 0903     		.word	0x309
 4077 25dd 5F5A4E4B 		.ascii "_ZNKSs5rfindEPKcjj\0"
 4077      53733572 
 4077      66696E64 
 4077      45504B63 
 4077      6A6A00
 4078 25f0 090A0000 		.long	0xa09
 4079 25f4 01       		.byte	0x1
 4080 25f5 FD250000 		.long	0x25fd
 4081 25f9 12260000 		.long	0x2612
 4082 25fd 19       		.uleb128 0x19
 4083 25fe E35F0000 		.long	0x5fe3
 4084 2602 0E       		.uleb128 0xe
GAS LISTING C:\Users\NJLLMR~1\AppData\Local\Temp\cce8JzPW.s 			page 125


 4085 2603 844B0000 		.long	0x4b84
 4086 2607 0E       		.uleb128 0xe
 4087 2608 090A0000 		.long	0xa09
 4088 260c 0E       		.uleb128 0xe
 4089 260d 090A0000 		.long	0xa09
 4090 2611 00       		.byte	0
 4091 2612 2D       		.uleb128 0x2d
 4092 2613 17010000 		.secrel32	LASF30
 4093 2617 10       		.byte	0x10
 4094 2618 9407     		.word	0x794
 4095 261a 5F5A4E4B 		.ascii "_ZNKSs5rfindEPKcj\0"
 4095      53733572 
 4095      66696E64 
 4095      45504B63 
 4095      6A00
 4096 262c 090A0000 		.long	0xa09
 4097 2630 01       		.byte	0x1
 4098 2631 39260000 		.long	0x2639
 4099 2635 49260000 		.long	0x2649
 4100 2639 19       		.uleb128 0x19
 4101 263a E35F0000 		.long	0x5fe3
 4102 263e 0E       		.uleb128 0xe
 4103 263f 844B0000 		.long	0x4b84
 4104 2643 0E       		.uleb128 0xe
 4105 2644 090A0000 		.long	0xa09
 4106 2648 00       		.byte	0
 4107 2649 2D       		.uleb128 0x2d
 4108 264a 17010000 		.secrel32	LASF30
 4109 264e 11       		.byte	0x11
 4110 264f 1E03     		.word	0x31e
 4111 2651 5F5A4E4B 		.ascii "_ZNKSs5rfindEcj\0"
 4111      53733572 
 4111      66696E64 
 4111      45636A00 
 4112 2661 090A0000 		.long	0xa09
 4113 2665 01       		.byte	0x1
 4114 2666 6E260000 		.long	0x266e
 4115 266a 7E260000 		.long	0x267e
 4116 266e 19       		.uleb128 0x19
 4117 266f E35F0000 		.long	0x5fe3
 4118 2673 0E       		.uleb128 0xe
 4119 2674 4A010000 		.long	0x14a
 4120 2678 0E       		.uleb128 0xe
 4121 2679 090A0000 		.long	0xa09
 4122 267d 00       		.byte	0
 4123 267e 2D       		.uleb128 0x2d
 4124 267f 09010000 		.secrel32	LASF31
 4125 2683 10       		.byte	0x10
 4126 2684 B307     		.word	0x7b3
 4127 2686 5F5A4E4B 		.ascii "_ZNKSs13find_first_ofERKSsj\0"
 4127      53733133 
 4127      66696E64 
 4127      5F666972 
 4127      73745F6F 
 4128 26a2 090A0000 		.long	0xa09
 4129 26a6 01       		.byte	0x1
 4130 26a7 AF260000 		.long	0x26af
GAS LISTING C:\Users\NJLLMR~1\AppData\Local\Temp\cce8JzPW.s 			page 126


 4131 26ab BF260000 		.long	0x26bf
 4132 26af 19       		.uleb128 0x19
 4133 26b0 E35F0000 		.long	0x5fe3
 4134 26b4 0E       		.uleb128 0xe
 4135 26b5 FB5F0000 		.long	0x5ffb
 4136 26b9 0E       		.uleb128 0xe
 4137 26ba 090A0000 		.long	0xa09
 4138 26be 00       		.byte	0
 4139 26bf 2D       		.uleb128 0x2d
 4140 26c0 09010000 		.secrel32	LASF31
 4141 26c4 11       		.byte	0x11
 4142 26c5 2F03     		.word	0x32f
 4143 26c7 5F5A4E4B 		.ascii "_ZNKSs13find_first_ofEPKcjj\0"
 4143      53733133 
 4143      66696E64 
 4143      5F666972 
 4143      73745F6F 
 4144 26e3 090A0000 		.long	0xa09
 4145 26e7 01       		.byte	0x1
 4146 26e8 F0260000 		.long	0x26f0
 4147 26ec 05270000 		.long	0x2705
 4148 26f0 19       		.uleb128 0x19
 4149 26f1 E35F0000 		.long	0x5fe3
 4150 26f5 0E       		.uleb128 0xe
 4151 26f6 844B0000 		.long	0x4b84
 4152 26fa 0E       		.uleb128 0xe
 4153 26fb 090A0000 		.long	0xa09
 4154 26ff 0E       		.uleb128 0xe
 4155 2700 090A0000 		.long	0xa09
 4156 2704 00       		.byte	0
 4157 2705 2D       		.uleb128 0x2d
 4158 2706 09010000 		.secrel32	LASF31
 4159 270a 10       		.byte	0x10
 4160 270b D107     		.word	0x7d1
 4161 270d 5F5A4E4B 		.ascii "_ZNKSs13find_first_ofEPKcj\0"
 4161      53733133 
 4161      66696E64 
 4161      5F666972 
 4161      73745F6F 
 4162 2728 090A0000 		.long	0xa09
 4163 272c 01       		.byte	0x1
 4164 272d 35270000 		.long	0x2735
 4165 2731 45270000 		.long	0x2745
 4166 2735 19       		.uleb128 0x19
 4167 2736 E35F0000 		.long	0x5fe3
 4168 273a 0E       		.uleb128 0xe
 4169 273b 844B0000 		.long	0x4b84
 4170 273f 0E       		.uleb128 0xe
 4171 2740 090A0000 		.long	0xa09
 4172 2744 00       		.byte	0
 4173 2745 2D       		.uleb128 0x2d
 4174 2746 09010000 		.secrel32	LASF31
 4175 274a 10       		.byte	0x10
 4176 274b E407     		.word	0x7e4
 4177 274d 5F5A4E4B 		.ascii "_ZNKSs13find_first_ofEcj\0"
 4177      53733133 
 4177      66696E64 
GAS LISTING C:\Users\NJLLMR~1\AppData\Local\Temp\cce8JzPW.s 			page 127


 4177      5F666972 
 4177      73745F6F 
 4178 2766 090A0000 		.long	0xa09
 4179 276a 01       		.byte	0x1
 4180 276b 73270000 		.long	0x2773
 4181 276f 83270000 		.long	0x2783
 4182 2773 19       		.uleb128 0x19
 4183 2774 E35F0000 		.long	0x5fe3
 4184 2778 0E       		.uleb128 0xe
 4185 2779 4A010000 		.long	0x14a
 4186 277d 0E       		.uleb128 0xe
 4187 277e 090A0000 		.long	0xa09
 4188 2782 00       		.byte	0
 4189 2783 2D       		.uleb128 0x2d
 4190 2784 62020000 		.secrel32	LASF32
 4191 2788 10       		.byte	0x10
 4192 2789 F307     		.word	0x7f3
 4193 278b 5F5A4E4B 		.ascii "_ZNKSs12find_last_ofERKSsj\0"
 4193      53733132 
 4193      66696E64 
 4193      5F6C6173 
 4193      745F6F66 
 4194 27a6 090A0000 		.long	0xa09
 4195 27aa 01       		.byte	0x1
 4196 27ab B3270000 		.long	0x27b3
 4197 27af C3270000 		.long	0x27c3
 4198 27b3 19       		.uleb128 0x19
 4199 27b4 E35F0000 		.long	0x5fe3
 4200 27b8 0E       		.uleb128 0xe
 4201 27b9 FB5F0000 		.long	0x5ffb
 4202 27bd 0E       		.uleb128 0xe
 4203 27be 090A0000 		.long	0xa09
 4204 27c2 00       		.byte	0
 4205 27c3 2D       		.uleb128 0x2d
 4206 27c4 62020000 		.secrel32	LASF32
 4207 27c8 11       		.byte	0x11
 4208 27c9 3E03     		.word	0x33e
 4209 27cb 5F5A4E4B 		.ascii "_ZNKSs12find_last_ofEPKcjj\0"
 4209      53733132 
 4209      66696E64 
 4209      5F6C6173 
 4209      745F6F66 
 4210 27e6 090A0000 		.long	0xa09
 4211 27ea 01       		.byte	0x1
 4212 27eb F3270000 		.long	0x27f3
 4213 27ef 08280000 		.long	0x2808
 4214 27f3 19       		.uleb128 0x19
 4215 27f4 E35F0000 		.long	0x5fe3
 4216 27f8 0E       		.uleb128 0xe
 4217 27f9 844B0000 		.long	0x4b84
 4218 27fd 0E       		.uleb128 0xe
 4219 27fe 090A0000 		.long	0xa09
 4220 2802 0E       		.uleb128 0xe
 4221 2803 090A0000 		.long	0xa09
 4222 2807 00       		.byte	0
 4223 2808 2D       		.uleb128 0x2d
 4224 2809 62020000 		.secrel32	LASF32
GAS LISTING C:\Users\NJLLMR~1\AppData\Local\Temp\cce8JzPW.s 			page 128


 4225 280d 10       		.byte	0x10
 4226 280e 1108     		.word	0x811
 4227 2810 5F5A4E4B 		.ascii "_ZNKSs12find_last_ofEPKcj\0"
 4227      53733132 
 4227      66696E64 
 4227      5F6C6173 
 4227      745F6F66 
 4228 282a 090A0000 		.long	0xa09
 4229 282e 01       		.byte	0x1
 4230 282f 37280000 		.long	0x2837
 4231 2833 47280000 		.long	0x2847
 4232 2837 19       		.uleb128 0x19
 4233 2838 E35F0000 		.long	0x5fe3
 4234 283c 0E       		.uleb128 0xe
 4235 283d 844B0000 		.long	0x4b84
 4236 2841 0E       		.uleb128 0xe
 4237 2842 090A0000 		.long	0xa09
 4238 2846 00       		.byte	0
 4239 2847 2D       		.uleb128 0x2d
 4240 2848 62020000 		.secrel32	LASF32
 4241 284c 10       		.byte	0x10
 4242 284d 2408     		.word	0x824
 4243 284f 5F5A4E4B 		.ascii "_ZNKSs12find_last_ofEcj\0"
 4243      53733132 
 4243      66696E64 
 4243      5F6C6173 
 4243      745F6F66 
 4244 2867 090A0000 		.long	0xa09
 4245 286b 01       		.byte	0x1
 4246 286c 74280000 		.long	0x2874
 4247 2870 84280000 		.long	0x2884
 4248 2874 19       		.uleb128 0x19
 4249 2875 E35F0000 		.long	0x5fe3
 4250 2879 0E       		.uleb128 0xe
 4251 287a 4A010000 		.long	0x14a
 4252 287e 0E       		.uleb128 0xe
 4253 287f 090A0000 		.long	0xa09
 4254 2883 00       		.byte	0
 4255 2884 2D       		.uleb128 0x2d
 4256 2885 1C020000 		.secrel32	LASF33
 4257 2889 10       		.byte	0x10
 4258 288a 3208     		.word	0x832
 4259 288c 5F5A4E4B 		.ascii "_ZNKSs17find_first_not_ofERKSsj\0"
 4259      53733137 
 4259      66696E64 
 4259      5F666972 
 4259      73745F6E 
 4260 28ac 090A0000 		.long	0xa09
 4261 28b0 01       		.byte	0x1
 4262 28b1 B9280000 		.long	0x28b9
 4263 28b5 C9280000 		.long	0x28c9
 4264 28b9 19       		.uleb128 0x19
 4265 28ba E35F0000 		.long	0x5fe3
 4266 28be 0E       		.uleb128 0xe
 4267 28bf FB5F0000 		.long	0x5ffb
 4268 28c3 0E       		.uleb128 0xe
 4269 28c4 090A0000 		.long	0xa09
GAS LISTING C:\Users\NJLLMR~1\AppData\Local\Temp\cce8JzPW.s 			page 129


 4270 28c8 00       		.byte	0
 4271 28c9 2D       		.uleb128 0x2d
 4272 28ca 1C020000 		.secrel32	LASF33
 4273 28ce 11       		.byte	0x11
 4274 28cf 5303     		.word	0x353
 4275 28d1 5F5A4E4B 		.ascii "_ZNKSs17find_first_not_ofEPKcjj\0"
 4275      53733137 
 4275      66696E64 
 4275      5F666972 
 4275      73745F6E 
 4276 28f1 090A0000 		.long	0xa09
 4277 28f5 01       		.byte	0x1
 4278 28f6 FE280000 		.long	0x28fe
 4279 28fa 13290000 		.long	0x2913
 4280 28fe 19       		.uleb128 0x19
 4281 28ff E35F0000 		.long	0x5fe3
 4282 2903 0E       		.uleb128 0xe
 4283 2904 844B0000 		.long	0x4b84
 4284 2908 0E       		.uleb128 0xe
 4285 2909 090A0000 		.long	0xa09
 4286 290d 0E       		.uleb128 0xe
 4287 290e 090A0000 		.long	0xa09
 4288 2912 00       		.byte	0
 4289 2913 2D       		.uleb128 0x2d
 4290 2914 1C020000 		.secrel32	LASF33
 4291 2918 10       		.byte	0x10
 4292 2919 5108     		.word	0x851
 4293 291b 5F5A4E4B 		.ascii "_ZNKSs17find_first_not_ofEPKcj\0"
 4293      53733137 
 4293      66696E64 
 4293      5F666972 
 4293      73745F6E 
 4294 293a 090A0000 		.long	0xa09
 4295 293e 01       		.byte	0x1
 4296 293f 47290000 		.long	0x2947
 4297 2943 57290000 		.long	0x2957
 4298 2947 19       		.uleb128 0x19
 4299 2948 E35F0000 		.long	0x5fe3
 4300 294c 0E       		.uleb128 0xe
 4301 294d 844B0000 		.long	0x4b84
 4302 2951 0E       		.uleb128 0xe
 4303 2952 090A0000 		.long	0xa09
 4304 2956 00       		.byte	0
 4305 2957 2D       		.uleb128 0x2d
 4306 2958 1C020000 		.secrel32	LASF33
 4307 295c 11       		.byte	0x11
 4308 295d 5F03     		.word	0x35f
 4309 295f 5F5A4E4B 		.ascii "_ZNKSs17find_first_not_ofEcj\0"
 4309      53733137 
 4309      66696E64 
 4309      5F666972 
 4309      73745F6E 
 4310 297c 090A0000 		.long	0xa09
 4311 2980 01       		.byte	0x1
 4312 2981 89290000 		.long	0x2989
 4313 2985 99290000 		.long	0x2999
 4314 2989 19       		.uleb128 0x19
GAS LISTING C:\Users\NJLLMR~1\AppData\Local\Temp\cce8JzPW.s 			page 130


 4315 298a E35F0000 		.long	0x5fe3
 4316 298e 0E       		.uleb128 0xe
 4317 298f 4A010000 		.long	0x14a
 4318 2993 0E       		.uleb128 0xe
 4319 2994 090A0000 		.long	0xa09
 4320 2998 00       		.byte	0
 4321 2999 2D       		.uleb128 0x2d
 4322 299a 62000000 		.secrel32	LASF34
 4323 299e 10       		.byte	0x10
 4324 299f 7108     		.word	0x871
 4325 29a1 5F5A4E4B 		.ascii "_ZNKSs16find_last_not_ofERKSsj\0"
 4325      53733136 
 4325      66696E64 
 4325      5F6C6173 
 4325      745F6E6F 
 4326 29c0 090A0000 		.long	0xa09
 4327 29c4 01       		.byte	0x1
 4328 29c5 CD290000 		.long	0x29cd
 4329 29c9 DD290000 		.long	0x29dd
 4330 29cd 19       		.uleb128 0x19
 4331 29ce E35F0000 		.long	0x5fe3
 4332 29d2 0E       		.uleb128 0xe
 4333 29d3 FB5F0000 		.long	0x5ffb
 4334 29d7 0E       		.uleb128 0xe
 4335 29d8 090A0000 		.long	0xa09
 4336 29dc 00       		.byte	0
 4337 29dd 2D       		.uleb128 0x2d
 4338 29de 62000000 		.secrel32	LASF34
 4339 29e2 11       		.byte	0x11
 4340 29e3 6A03     		.word	0x36a
 4341 29e5 5F5A4E4B 		.ascii "_ZNKSs16find_last_not_ofEPKcjj\0"
 4341      53733136 
 4341      66696E64 
 4341      5F6C6173 
 4341      745F6E6F 
 4342 2a04 090A0000 		.long	0xa09
 4343 2a08 01       		.byte	0x1
 4344 2a09 112A0000 		.long	0x2a11
 4345 2a0d 262A0000 		.long	0x2a26
 4346 2a11 19       		.uleb128 0x19
 4347 2a12 E35F0000 		.long	0x5fe3
 4348 2a16 0E       		.uleb128 0xe
 4349 2a17 844B0000 		.long	0x4b84
 4350 2a1b 0E       		.uleb128 0xe
 4351 2a1c 090A0000 		.long	0xa09
 4352 2a20 0E       		.uleb128 0xe
 4353 2a21 090A0000 		.long	0xa09
 4354 2a25 00       		.byte	0
 4355 2a26 2D       		.uleb128 0x2d
 4356 2a27 62000000 		.secrel32	LASF34
 4357 2a2b 10       		.byte	0x10
 4358 2a2c 9008     		.word	0x890
 4359 2a2e 5F5A4E4B 		.ascii "_ZNKSs16find_last_not_ofEPKcj\0"
 4359      53733136 
 4359      66696E64 
 4359      5F6C6173 
 4359      745F6E6F 
GAS LISTING C:\Users\NJLLMR~1\AppData\Local\Temp\cce8JzPW.s 			page 131


 4360 2a4c 090A0000 		.long	0xa09
 4361 2a50 01       		.byte	0x1
 4362 2a51 592A0000 		.long	0x2a59
 4363 2a55 692A0000 		.long	0x2a69
 4364 2a59 19       		.uleb128 0x19
 4365 2a5a E35F0000 		.long	0x5fe3
 4366 2a5e 0E       		.uleb128 0xe
 4367 2a5f 844B0000 		.long	0x4b84
 4368 2a63 0E       		.uleb128 0xe
 4369 2a64 090A0000 		.long	0xa09
 4370 2a68 00       		.byte	0
 4371 2a69 2D       		.uleb128 0x2d
 4372 2a6a 62000000 		.secrel32	LASF34
 4373 2a6e 11       		.byte	0x11
 4374 2a6f 7F03     		.word	0x37f
 4375 2a71 5F5A4E4B 		.ascii "_ZNKSs16find_last_not_ofEcj\0"
 4375      53733136 
 4375      66696E64 
 4375      5F6C6173 
 4375      745F6E6F 
 4376 2a8d 090A0000 		.long	0xa09
 4377 2a91 01       		.byte	0x1
 4378 2a92 9A2A0000 		.long	0x2a9a
 4379 2a96 AA2A0000 		.long	0x2aaa
 4380 2a9a 19       		.uleb128 0x19
 4381 2a9b E35F0000 		.long	0x5fe3
 4382 2a9f 0E       		.uleb128 0xe
 4383 2aa0 4A010000 		.long	0x14a
 4384 2aa4 0E       		.uleb128 0xe
 4385 2aa5 090A0000 		.long	0xa09
 4386 2aa9 00       		.byte	0
 4387 2aaa 2E       		.uleb128 0x2e
 4388 2aab 73756273 		.ascii "substr\0"
 4388      747200
 4389 2ab2 10       		.byte	0x10
 4390 2ab3 B108     		.word	0x8b1
 4391 2ab5 5F5A4E4B 		.ascii "_ZNKSs6substrEjj\0"
 4391      53733673 
 4391      75627374 
 4391      72456A6A 
 4391      00
 4392 2ac6 81090000 		.long	0x981
 4393 2aca 01       		.byte	0x1
 4394 2acb D32A0000 		.long	0x2ad3
 4395 2acf E32A0000 		.long	0x2ae3
 4396 2ad3 19       		.uleb128 0x19
 4397 2ad4 E35F0000 		.long	0x5fe3
 4398 2ad8 0E       		.uleb128 0xe
 4399 2ad9 090A0000 		.long	0xa09
 4400 2add 0E       		.uleb128 0xe
 4401 2ade 090A0000 		.long	0xa09
 4402 2ae2 00       		.byte	0
 4403 2ae3 2D       		.uleb128 0x2d
 4404 2ae4 EF010000 		.secrel32	LASF0
 4405 2ae8 10       		.byte	0x10
 4406 2ae9 C408     		.word	0x8c4
 4407 2aeb 5F5A4E4B 		.ascii "_ZNKSs7compareERKSs\0"
GAS LISTING C:\Users\NJLLMR~1\AppData\Local\Temp\cce8JzPW.s 			page 132


 4407      53733763 
 4407      6F6D7061 
 4407      72654552 
 4407      4B537300 
 4408 2aff 7E010000 		.long	0x17e
 4409 2b03 01       		.byte	0x1
 4410 2b04 0C2B0000 		.long	0x2b0c
 4411 2b08 172B0000 		.long	0x2b17
 4412 2b0c 19       		.uleb128 0x19
 4413 2b0d E35F0000 		.long	0x5fe3
 4414 2b11 0E       		.uleb128 0xe
 4415 2b12 FB5F0000 		.long	0x5ffb
 4416 2b16 00       		.byte	0
 4417 2b17 2D       		.uleb128 0x2d
 4418 2b18 EF010000 		.secrel32	LASF0
 4419 2b1c 11       		.byte	0x11
 4420 2b1d 9303     		.word	0x393
 4421 2b1f 5F5A4E4B 		.ascii "_ZNKSs7compareEjjRKSs\0"
 4421      53733763 
 4421      6F6D7061 
 4421      7265456A 
 4421      6A524B53 
 4422 2b35 7E010000 		.long	0x17e
 4423 2b39 01       		.byte	0x1
 4424 2b3a 422B0000 		.long	0x2b42
 4425 2b3e 572B0000 		.long	0x2b57
 4426 2b42 19       		.uleb128 0x19
 4427 2b43 E35F0000 		.long	0x5fe3
 4428 2b47 0E       		.uleb128 0xe
 4429 2b48 090A0000 		.long	0xa09
 4430 2b4c 0E       		.uleb128 0xe
 4431 2b4d 090A0000 		.long	0xa09
 4432 2b51 0E       		.uleb128 0xe
 4433 2b52 FB5F0000 		.long	0x5ffb
 4434 2b56 00       		.byte	0
 4435 2b57 2D       		.uleb128 0x2d
 4436 2b58 EF010000 		.secrel32	LASF0
 4437 2b5c 11       		.byte	0x11
 4438 2b5d A203     		.word	0x3a2
 4439 2b5f 5F5A4E4B 		.ascii "_ZNKSs7compareEjjRKSsjj\0"
 4439      53733763 
 4439      6F6D7061 
 4439      7265456A 
 4439      6A524B53 
 4440 2b77 7E010000 		.long	0x17e
 4441 2b7b 01       		.byte	0x1
 4442 2b7c 842B0000 		.long	0x2b84
 4443 2b80 A32B0000 		.long	0x2ba3
 4444 2b84 19       		.uleb128 0x19
 4445 2b85 E35F0000 		.long	0x5fe3
 4446 2b89 0E       		.uleb128 0xe
 4447 2b8a 090A0000 		.long	0xa09
 4448 2b8e 0E       		.uleb128 0xe
 4449 2b8f 090A0000 		.long	0xa09
 4450 2b93 0E       		.uleb128 0xe
 4451 2b94 FB5F0000 		.long	0x5ffb
 4452 2b98 0E       		.uleb128 0xe
GAS LISTING C:\Users\NJLLMR~1\AppData\Local\Temp\cce8JzPW.s 			page 133


 4453 2b99 090A0000 		.long	0xa09
 4454 2b9d 0E       		.uleb128 0xe
 4455 2b9e 090A0000 		.long	0xa09
 4456 2ba2 00       		.byte	0
 4457 2ba3 2D       		.uleb128 0x2d
 4458 2ba4 EF010000 		.secrel32	LASF0
 4459 2ba8 11       		.byte	0x11
 4460 2ba9 B403     		.word	0x3b4
 4461 2bab 5F5A4E4B 		.ascii "_ZNKSs7compareEPKc\0"
 4461      53733763 
 4461      6F6D7061 
 4461      72654550 
 4461      4B6300
 4462 2bbe 7E010000 		.long	0x17e
 4463 2bc2 01       		.byte	0x1
 4464 2bc3 CB2B0000 		.long	0x2bcb
 4465 2bc7 D62B0000 		.long	0x2bd6
 4466 2bcb 19       		.uleb128 0x19
 4467 2bcc E35F0000 		.long	0x5fe3
 4468 2bd0 0E       		.uleb128 0xe
 4469 2bd1 844B0000 		.long	0x4b84
 4470 2bd5 00       		.byte	0
 4471 2bd6 2D       		.uleb128 0x2d
 4472 2bd7 EF010000 		.secrel32	LASF0
 4473 2bdb 11       		.byte	0x11
 4474 2bdc C303     		.word	0x3c3
 4475 2bde 5F5A4E4B 		.ascii "_ZNKSs7compareEjjPKc\0"
 4475      53733763 
 4475      6F6D7061 
 4475      7265456A 
 4475      6A504B63 
 4476 2bf3 7E010000 		.long	0x17e
 4477 2bf7 01       		.byte	0x1
 4478 2bf8 002C0000 		.long	0x2c00
 4479 2bfc 152C0000 		.long	0x2c15
 4480 2c00 19       		.uleb128 0x19
 4481 2c01 E35F0000 		.long	0x5fe3
 4482 2c05 0E       		.uleb128 0xe
 4483 2c06 090A0000 		.long	0xa09
 4484 2c0a 0E       		.uleb128 0xe
 4485 2c0b 090A0000 		.long	0xa09
 4486 2c0f 0E       		.uleb128 0xe
 4487 2c10 844B0000 		.long	0x4b84
 4488 2c14 00       		.byte	0
 4489 2c15 2D       		.uleb128 0x2d
 4490 2c16 EF010000 		.secrel32	LASF0
 4491 2c1a 11       		.byte	0x11
 4492 2c1b D303     		.word	0x3d3
 4493 2c1d 5F5A4E4B 		.ascii "_ZNKSs7compareEjjPKcj\0"
 4493      53733763 
 4493      6F6D7061 
 4493      7265456A 
 4493      6A504B63 
 4494 2c33 7E010000 		.long	0x17e
 4495 2c37 01       		.byte	0x1
 4496 2c38 402C0000 		.long	0x2c40
 4497 2c3c 5A2C0000 		.long	0x2c5a
GAS LISTING C:\Users\NJLLMR~1\AppData\Local\Temp\cce8JzPW.s 			page 134


 4498 2c40 19       		.uleb128 0x19
 4499 2c41 E35F0000 		.long	0x5fe3
 4500 2c45 0E       		.uleb128 0xe
 4501 2c46 090A0000 		.long	0xa09
 4502 2c4a 0E       		.uleb128 0xe
 4503 2c4b 090A0000 		.long	0xa09
 4504 2c4f 0E       		.uleb128 0xe
 4505 2c50 844B0000 		.long	0x4b84
 4506 2c54 0E       		.uleb128 0xe
 4507 2c55 090A0000 		.long	0xa09
 4508 2c59 00       		.byte	0
 4509 2c5a 0F       		.uleb128 0xf
 4510 2c5b DE0A0000 		.long	0xade
 4511 2c5f 32       		.uleb128 0x32
 4512 2c60 5F436861 		.ascii "_CharT\0"
 4512      725400
 4513 2c67 4A010000 		.long	0x14a
 4514 2c6b 33       		.uleb128 0x33
 4515 2c6c 5F547261 		.ascii "_Traits\0"
 4515      69747300 
 4516 2c74 05050000 		.long	0x505
 4517 2c78 34       		.uleb128 0x34
 4518 2c79 6D010000 		.secrel32	LASF35
 4519 2c7d F0080000 		.long	0x8f0
 4520 2c81 00       		.byte	0
 4521 2c82 35       		.uleb128 0x35
 4522 2c83 72657665 		.ascii "reverse_iterator<__gnu_cxx::__normal_iterator<char const*, std::basic_string<char, std::ch
 4522      7273655F 
 4522      69746572 
 4522      61746F72 
 4522      3C5F5F67 
 4523 2d09 35       		.uleb128 0x35
 4524 2d0a 72657665 		.ascii "reverse_iterator<__gnu_cxx::__normal_iterator<char*, std::basic_string<char, std::char_tra
 4524      7273655F 
 4524      69746572 
 4524      61746F72 
 4524      3C5F5F67 
 4525 2d8a 0F       		.uleb128 0xf
 4526 2d8b 81090000 		.long	0x981
 4527 2d8f 02       		.uleb128 0x2
 4528 2d90 73747269 		.ascii "string\0"
 4528      6E6700
 4529 2d97 12       		.byte	0x12
 4530 2d98 3E       		.byte	0x3e
 4531 2d99 81090000 		.long	0x981
 4532 2d9d 36       		.uleb128 0x36
 4533 2d9e 5F496F73 		.ascii "_Ios_Fmtflags\0"
 4533      5F466D74 
 4533      666C6167 
 4533      7300
 4534 2dac 04       		.byte	0x4
 4535 2dad 13       		.byte	0x13
 4536 2dae 33       		.byte	0x33
 4537 2daf C42E0000 		.long	0x2ec4
 4538 2db3 37       		.uleb128 0x37
 4539 2db4 5F535F62 		.ascii "_S_boolalpha\0"
 4539      6F6F6C61 
GAS LISTING C:\Users\NJLLMR~1\AppData\Local\Temp\cce8JzPW.s 			page 135


 4539      6C706861 
 4539      00
 4540 2dc1 01       		.sleb128 1
 4541 2dc2 37       		.uleb128 0x37
 4542 2dc3 5F535F64 		.ascii "_S_dec\0"
 4542      656300
 4543 2dca 02       		.sleb128 2
 4544 2dcb 37       		.uleb128 0x37
 4545 2dcc 5F535F66 		.ascii "_S_fixed\0"
 4545      69786564 
 4545      00
 4546 2dd5 04       		.sleb128 4
 4547 2dd6 37       		.uleb128 0x37
 4548 2dd7 5F535F68 		.ascii "_S_hex\0"
 4548      657800
 4549 2dde 08       		.sleb128 8
 4550 2ddf 37       		.uleb128 0x37
 4551 2de0 5F535F69 		.ascii "_S_internal\0"
 4551      6E746572 
 4551      6E616C00 
 4552 2dec 10       		.sleb128 16
 4553 2ded 37       		.uleb128 0x37
 4554 2dee 5F535F6C 		.ascii "_S_left\0"
 4554      65667400 
 4555 2df6 20       		.sleb128 32
 4556 2df7 37       		.uleb128 0x37
 4557 2df8 5F535F6F 		.ascii "_S_oct\0"
 4557      637400
 4558 2dff C000     		.sleb128 64
 4559 2e01 37       		.uleb128 0x37
 4560 2e02 5F535F72 		.ascii "_S_right\0"
 4560      69676874 
 4560      00
 4561 2e0b 8001     		.sleb128 128
 4562 2e0d 37       		.uleb128 0x37
 4563 2e0e 5F535F73 		.ascii "_S_scientific\0"
 4563      6369656E 
 4563      74696669 
 4563      6300
 4564 2e1c 8002     		.sleb128 256
 4565 2e1e 37       		.uleb128 0x37
 4566 2e1f 5F535F73 		.ascii "_S_showbase\0"
 4566      686F7762 
 4566      61736500 
 4567 2e2b 8004     		.sleb128 512
 4568 2e2d 37       		.uleb128 0x37
 4569 2e2e 5F535F73 		.ascii "_S_showpoint\0"
 4569      686F7770 
 4569      6F696E74 
 4569      00
 4570 2e3b 8008     		.sleb128 1024
 4571 2e3d 37       		.uleb128 0x37
 4572 2e3e 5F535F73 		.ascii "_S_showpos\0"
 4572      686F7770 
 4572      6F7300
 4573 2e49 8010     		.sleb128 2048
 4574 2e4b 37       		.uleb128 0x37
GAS LISTING C:\Users\NJLLMR~1\AppData\Local\Temp\cce8JzPW.s 			page 136


 4575 2e4c 5F535F73 		.ascii "_S_skipws\0"
 4575      6B697077 
 4575      7300
 4576 2e56 8020     		.sleb128 4096
 4577 2e58 37       		.uleb128 0x37
 4578 2e59 5F535F75 		.ascii "_S_unitbuf\0"
 4578      6E697462 
 4578      756600
 4579 2e64 80C000   		.sleb128 8192
 4580 2e67 37       		.uleb128 0x37
 4581 2e68 5F535F75 		.ascii "_S_uppercase\0"
 4581      70706572 
 4581      63617365 
 4581      00
 4582 2e75 808001   		.sleb128 16384
 4583 2e78 37       		.uleb128 0x37
 4584 2e79 5F535F61 		.ascii "_S_adjustfield\0"
 4584      646A7573 
 4584      74666965 
 4584      6C6400
 4585 2e88 B001     		.sleb128 176
 4586 2e8a 37       		.uleb128 0x37
 4587 2e8b 5F535F62 		.ascii "_S_basefield\0"
 4587      61736566 
 4587      69656C64 
 4587      00
 4588 2e98 CA00     		.sleb128 74
 4589 2e9a 37       		.uleb128 0x37
 4590 2e9b 5F535F66 		.ascii "_S_floatfield\0"
 4590      6C6F6174 
 4590      6669656C 
 4590      6400
 4591 2ea9 8402     		.sleb128 260
 4592 2eab 37       		.uleb128 0x37
 4593 2eac 5F535F69 		.ascii "_S_ios_fmtflags_end\0"
 4593      6F735F66 
 4593      6D74666C 
 4593      6167735F 
 4593      656E6400 
 4594 2ec0 808004   		.sleb128 65536
 4595 2ec3 00       		.byte	0
 4596 2ec4 36       		.uleb128 0x36
 4597 2ec5 5F496F73 		.ascii "_Ios_Openmode\0"
 4597      5F4F7065 
 4597      6E6D6F64 
 4597      6500
 4598 2ed3 04       		.byte	0x4
 4599 2ed4 13       		.byte	0x13
 4600 2ed5 67       		.byte	0x67
 4601 2ed6 2A2F0000 		.long	0x2f2a
 4602 2eda 37       		.uleb128 0x37
 4603 2edb 5F535F61 		.ascii "_S_app\0"
 4603      707000
 4604 2ee2 01       		.sleb128 1
 4605 2ee3 37       		.uleb128 0x37
 4606 2ee4 5F535F61 		.ascii "_S_ate\0"
 4606      746500
GAS LISTING C:\Users\NJLLMR~1\AppData\Local\Temp\cce8JzPW.s 			page 137


 4607 2eeb 02       		.sleb128 2
 4608 2eec 37       		.uleb128 0x37
 4609 2eed 5F535F62 		.ascii "_S_bin\0"
 4609      696E00
 4610 2ef4 04       		.sleb128 4
 4611 2ef5 37       		.uleb128 0x37
 4612 2ef6 5F535F69 		.ascii "_S_in\0"
 4612      6E00
 4613 2efc 08       		.sleb128 8
 4614 2efd 37       		.uleb128 0x37
 4615 2efe 5F535F6F 		.ascii "_S_out\0"
 4615      757400
 4616 2f05 10       		.sleb128 16
 4617 2f06 37       		.uleb128 0x37
 4618 2f07 5F535F74 		.ascii "_S_trunc\0"
 4618      72756E63 
 4618      00
 4619 2f10 20       		.sleb128 32
 4620 2f11 37       		.uleb128 0x37
 4621 2f12 5F535F69 		.ascii "_S_ios_openmode_end\0"
 4621      6F735F6F 
 4621      70656E6D 
 4621      6F64655F 
 4621      656E6400 
 4622 2f26 808004   		.sleb128 65536
 4623 2f29 00       		.byte	0
 4624 2f2a 36       		.uleb128 0x36
 4625 2f2b 5F496F73 		.ascii "_Ios_Iostate\0"
 4625      5F496F73 
 4625      74617465 
 4625      00
 4626 2f38 04       		.byte	0x4
 4627 2f39 13       		.byte	0x13
 4628 2f3a 8F       		.byte	0x8f
 4629 2f3b 892F0000 		.long	0x2f89
 4630 2f3f 37       		.uleb128 0x37
 4631 2f40 5F535F67 		.ascii "_S_goodbit\0"
 4631      6F6F6462 
 4631      697400
 4632 2f4b 00       		.sleb128 0
 4633 2f4c 37       		.uleb128 0x37
 4634 2f4d 5F535F62 		.ascii "_S_badbit\0"
 4634      61646269 
 4634      7400
 4635 2f57 01       		.sleb128 1
 4636 2f58 37       		.uleb128 0x37
 4637 2f59 5F535F65 		.ascii "_S_eofbit\0"
 4637      6F666269 
 4637      7400
 4638 2f63 02       		.sleb128 2
 4639 2f64 37       		.uleb128 0x37
 4640 2f65 5F535F66 		.ascii "_S_failbit\0"
 4640      61696C62 
 4640      697400
 4641 2f70 04       		.sleb128 4
 4642 2f71 37       		.uleb128 0x37
 4643 2f72 5F535F69 		.ascii "_S_ios_iostate_end\0"
GAS LISTING C:\Users\NJLLMR~1\AppData\Local\Temp\cce8JzPW.s 			page 138


 4643      6F735F69 
 4643      6F737461 
 4643      74655F65 
 4643      6E6400
 4644 2f85 808004   		.sleb128 65536
 4645 2f88 00       		.byte	0
 4646 2f89 36       		.uleb128 0x36
 4647 2f8a 5F496F73 		.ascii "_Ios_Seekdir\0"
 4647      5F536565 
 4647      6B646972 
 4647      00
 4648 2f97 04       		.byte	0x4
 4649 2f98 13       		.byte	0x13
 4650 2f99 B5       		.byte	0xb5
 4651 2f9a D12F0000 		.long	0x2fd1
 4652 2f9e 37       		.uleb128 0x37
 4653 2f9f 5F535F62 		.ascii "_S_beg\0"
 4653      656700
 4654 2fa6 00       		.sleb128 0
 4655 2fa7 37       		.uleb128 0x37
 4656 2fa8 5F535F63 		.ascii "_S_cur\0"
 4656      757200
 4657 2faf 01       		.sleb128 1
 4658 2fb0 37       		.uleb128 0x37
 4659 2fb1 5F535F65 		.ascii "_S_end\0"
 4659      6E6400
 4660 2fb8 02       		.sleb128 2
 4661 2fb9 37       		.uleb128 0x37
 4662 2fba 5F535F69 		.ascii "_S_ios_seekdir_end\0"
 4662      6F735F73 
 4662      65656B64 
 4662      69725F65 
 4662      6E6400
 4663 2fcd 808004   		.sleb128 65536
 4664 2fd0 00       		.byte	0
 4665 2fd1 38       		.uleb128 0x38
 4666 2fd2 696F735F 		.ascii "ios_base\0"
 4666      62617365 
 4666      00
 4667 2fdb C0320000 		.long	0x32c0
 4668 2fdf 39       		.uleb128 0x39
 4669 2fe0 496E6974 		.ascii "Init\0"
 4669      00
 4670 2fe5 01       		.byte	0x1
 4671 2fe6 13       		.byte	0x13
 4672 2fe7 1502     		.word	0x215
 4673 2fe9 01       		.byte	0x1
 4674 2fea 52300000 		.long	0x3052
 4675 2fee 3A       		.uleb128 0x3a
 4676 2fef 5F535F72 		.ascii "_S_refcount\0"
 4676      6566636F 
 4676      756E7400 
 4677 2ffb 13       		.byte	0x13
 4678 2ffc 1D02     		.word	0x21d
 4679 2ffe 8E5F0000 		.long	0x5f8e
 4680 3002 3A       		.uleb128 0x3a
 4681 3003 5F535F73 		.ascii "_S_synced_with_stdio\0"
GAS LISTING C:\Users\NJLLMR~1\AppData\Local\Temp\cce8JzPW.s 			page 139


 4681      796E6365 
 4681      645F7769 
 4681      74685F73 
 4681      7464696F 
 4682 3018 13       		.byte	0x13
 4683 3019 1E02     		.word	0x21e
 4684 301b 9D5D0000 		.long	0x5d9d
 4685 301f 2C       		.uleb128 0x2c
 4686 3020 496E6974 		.ascii "Init\0"
 4686      00
 4687 3025 13       		.byte	0x13
 4688 3026 1902     		.word	0x219
 4689 3028 01       		.byte	0x1
 4690 3029 31300000 		.long	0x3031
 4691 302d 37300000 		.long	0x3037
 4692 3031 19       		.uleb128 0x19
 4693 3032 1D600000 		.long	0x601d
 4694 3036 00       		.byte	0
 4695 3037 3B       		.uleb128 0x3b
 4696 3038 7E496E69 		.ascii "~Init\0"
 4696      7400
 4697 303e 13       		.byte	0x13
 4698 303f 1A02     		.word	0x21a
 4699 3041 01       		.byte	0x1
 4700 3042 46300000 		.long	0x3046
 4701 3046 19       		.uleb128 0x19
 4702 3047 1D600000 		.long	0x601d
 4703 304b 19       		.uleb128 0x19
 4704 304c 7E010000 		.long	0x17e
 4705 3050 00       		.byte	0
 4706 3051 00       		.byte	0
 4707 3052 3C       		.uleb128 0x3c
 4708 3053 666D7466 		.ascii "fmtflags\0"
 4708      6C616773 
 4708      00
 4709 305c 13       		.byte	0x13
 4710 305d FF       		.byte	0xff
 4711 305e 9D2D0000 		.long	0x2d9d
 4712 3062 01       		.byte	0x1
 4713 3063 3D       		.uleb128 0x3d
 4714 3064 626F6F6C 		.ascii "boolalpha\0"
 4714      616C7068 
 4714      6100
 4715 306e 13       		.byte	0x13
 4716 306f 0201     		.word	0x102
 4717 3071 77300000 		.long	0x3077
 4718 3075 01       		.byte	0x1
 4719 3076 01       		.byte	0x1
 4720 3077 0F       		.uleb128 0xf
 4721 3078 52300000 		.long	0x3052
 4722 307c 3D       		.uleb128 0x3d
 4723 307d 64656300 		.ascii "dec\0"
 4724 3081 13       		.byte	0x13
 4725 3082 0501     		.word	0x105
 4726 3084 77300000 		.long	0x3077
 4727 3088 01       		.byte	0x1
 4728 3089 02       		.byte	0x2
GAS LISTING C:\Users\NJLLMR~1\AppData\Local\Temp\cce8JzPW.s 			page 140


 4729 308a 3D       		.uleb128 0x3d
 4730 308b 66697865 		.ascii "fixed\0"
 4730      6400
 4731 3091 13       		.byte	0x13
 4732 3092 0801     		.word	0x108
 4733 3094 77300000 		.long	0x3077
 4734 3098 01       		.byte	0x1
 4735 3099 04       		.byte	0x4
 4736 309a 3D       		.uleb128 0x3d
 4737 309b 68657800 		.ascii "hex\0"
 4738 309f 13       		.byte	0x13
 4739 30a0 0B01     		.word	0x10b
 4740 30a2 77300000 		.long	0x3077
 4741 30a6 01       		.byte	0x1
 4742 30a7 08       		.byte	0x8
 4743 30a8 3D       		.uleb128 0x3d
 4744 30a9 696E7465 		.ascii "internal\0"
 4744      726E616C 
 4744      00
 4745 30b2 13       		.byte	0x13
 4746 30b3 1001     		.word	0x110
 4747 30b5 77300000 		.long	0x3077
 4748 30b9 01       		.byte	0x1
 4749 30ba 10       		.byte	0x10
 4750 30bb 3D       		.uleb128 0x3d
 4751 30bc 6C656674 		.ascii "left\0"
 4751      00
 4752 30c1 13       		.byte	0x13
 4753 30c2 1401     		.word	0x114
 4754 30c4 77300000 		.long	0x3077
 4755 30c8 01       		.byte	0x1
 4756 30c9 20       		.byte	0x20
 4757 30ca 3D       		.uleb128 0x3d
 4758 30cb 6F637400 		.ascii "oct\0"
 4759 30cf 13       		.byte	0x13
 4760 30d0 1701     		.word	0x117
 4761 30d2 77300000 		.long	0x3077
 4762 30d6 01       		.byte	0x1
 4763 30d7 40       		.byte	0x40
 4764 30d8 3D       		.uleb128 0x3d
 4765 30d9 72696768 		.ascii "right\0"
 4765      7400
 4766 30df 13       		.byte	0x13
 4767 30e0 1B01     		.word	0x11b
 4768 30e2 77300000 		.long	0x3077
 4769 30e6 01       		.byte	0x1
 4770 30e7 80       		.byte	0x80
 4771 30e8 3E       		.uleb128 0x3e
 4772 30e9 73636965 		.ascii "scientific\0"
 4772      6E746966 
 4772      696300
 4773 30f4 13       		.byte	0x13
 4774 30f5 1E01     		.word	0x11e
 4775 30f7 77300000 		.long	0x3077
 4776 30fb 01       		.byte	0x1
 4777 30fc 0001     		.word	0x100
 4778 30fe 3E       		.uleb128 0x3e
GAS LISTING C:\Users\NJLLMR~1\AppData\Local\Temp\cce8JzPW.s 			page 141


 4779 30ff 73686F77 		.ascii "showbase\0"
 4779      62617365 
 4779      00
 4780 3108 13       		.byte	0x13
 4781 3109 2201     		.word	0x122
 4782 310b 77300000 		.long	0x3077
 4783 310f 01       		.byte	0x1
 4784 3110 0002     		.word	0x200
 4785 3112 3E       		.uleb128 0x3e
 4786 3113 73686F77 		.ascii "showpoint\0"
 4786      706F696E 
 4786      7400
 4787 311d 13       		.byte	0x13
 4788 311e 2601     		.word	0x126
 4789 3120 77300000 		.long	0x3077
 4790 3124 01       		.byte	0x1
 4791 3125 0004     		.word	0x400
 4792 3127 3E       		.uleb128 0x3e
 4793 3128 73686F77 		.ascii "showpos\0"
 4793      706F7300 
 4794 3130 13       		.byte	0x13
 4795 3131 2901     		.word	0x129
 4796 3133 77300000 		.long	0x3077
 4797 3137 01       		.byte	0x1
 4798 3138 0008     		.word	0x800
 4799 313a 3E       		.uleb128 0x3e
 4800 313b 736B6970 		.ascii "skipws\0"
 4800      777300
 4801 3142 13       		.byte	0x13
 4802 3143 2C01     		.word	0x12c
 4803 3145 77300000 		.long	0x3077
 4804 3149 01       		.byte	0x1
 4805 314a 0010     		.word	0x1000
 4806 314c 3E       		.uleb128 0x3e
 4807 314d 756E6974 		.ascii "unitbuf\0"
 4807      62756600 
 4808 3155 13       		.byte	0x13
 4809 3156 2F01     		.word	0x12f
 4810 3158 77300000 		.long	0x3077
 4811 315c 01       		.byte	0x1
 4812 315d 0020     		.word	0x2000
 4813 315f 3E       		.uleb128 0x3e
 4814 3160 75707065 		.ascii "uppercase\0"
 4814      72636173 
 4814      6500
 4815 316a 13       		.byte	0x13
 4816 316b 3301     		.word	0x133
 4817 316d 77300000 		.long	0x3077
 4818 3171 01       		.byte	0x1
 4819 3172 0040     		.word	0x4000
 4820 3174 3D       		.uleb128 0x3d
 4821 3175 61646A75 		.ascii "adjustfield\0"
 4821      73746669 
 4821      656C6400 
 4822 3181 13       		.byte	0x13
 4823 3182 3601     		.word	0x136
 4824 3184 77300000 		.long	0x3077
GAS LISTING C:\Users\NJLLMR~1\AppData\Local\Temp\cce8JzPW.s 			page 142


 4825 3188 01       		.byte	0x1
 4826 3189 B0       		.byte	0xb0
 4827 318a 3D       		.uleb128 0x3d
 4828 318b 62617365 		.ascii "basefield\0"
 4828      6669656C 
 4828      6400
 4829 3195 13       		.byte	0x13
 4830 3196 3901     		.word	0x139
 4831 3198 77300000 		.long	0x3077
 4832 319c 01       		.byte	0x1
 4833 319d 4A       		.byte	0x4a
 4834 319e 3E       		.uleb128 0x3e
 4835 319f 666C6F61 		.ascii "floatfield\0"
 4835      74666965 
 4835      6C6400
 4836 31aa 13       		.byte	0x13
 4837 31ab 3C01     		.word	0x13c
 4838 31ad 77300000 		.long	0x3077
 4839 31b1 01       		.byte	0x1
 4840 31b2 0401     		.word	0x104
 4841 31b4 3F       		.uleb128 0x3f
 4842 31b5 696F7374 		.ascii "iostate\0"
 4842      61746500 
 4843 31bd 13       		.byte	0x13
 4844 31be 4A01     		.word	0x14a
 4845 31c0 2A2F0000 		.long	0x2f2a
 4846 31c4 01       		.byte	0x1
 4847 31c5 3D       		.uleb128 0x3d
 4848 31c6 62616462 		.ascii "badbit\0"
 4848      697400
 4849 31cd 13       		.byte	0x13
 4850 31ce 4E01     		.word	0x14e
 4851 31d0 D6310000 		.long	0x31d6
 4852 31d4 01       		.byte	0x1
 4853 31d5 01       		.byte	0x1
 4854 31d6 0F       		.uleb128 0xf
 4855 31d7 B4310000 		.long	0x31b4
 4856 31db 3D       		.uleb128 0x3d
 4857 31dc 656F6662 		.ascii "eofbit\0"
 4857      697400
 4858 31e3 13       		.byte	0x13
 4859 31e4 5101     		.word	0x151
 4860 31e6 D6310000 		.long	0x31d6
 4861 31ea 01       		.byte	0x1
 4862 31eb 02       		.byte	0x2
 4863 31ec 3D       		.uleb128 0x3d
 4864 31ed 6661696C 		.ascii "failbit\0"
 4864      62697400 
 4865 31f5 13       		.byte	0x13
 4866 31f6 5601     		.word	0x156
 4867 31f8 D6310000 		.long	0x31d6
 4868 31fc 01       		.byte	0x1
 4869 31fd 04       		.byte	0x4
 4870 31fe 3D       		.uleb128 0x3d
 4871 31ff 676F6F64 		.ascii "goodbit\0"
 4871      62697400 
 4872 3207 13       		.byte	0x13
GAS LISTING C:\Users\NJLLMR~1\AppData\Local\Temp\cce8JzPW.s 			page 143


 4873 3208 5901     		.word	0x159
 4874 320a D6310000 		.long	0x31d6
 4875 320e 01       		.byte	0x1
 4876 320f 00       		.byte	0
 4877 3210 3F       		.uleb128 0x3f
 4878 3211 6F70656E 		.ascii "openmode\0"
 4878      6D6F6465 
 4878      00
 4879 321a 13       		.byte	0x13
 4880 321b 6901     		.word	0x169
 4881 321d C42E0000 		.long	0x2ec4
 4882 3221 01       		.byte	0x1
 4883 3222 3D       		.uleb128 0x3d
 4884 3223 61707000 		.ascii "app\0"
 4885 3227 13       		.byte	0x13
 4886 3228 6C01     		.word	0x16c
 4887 322a 30320000 		.long	0x3230
 4888 322e 01       		.byte	0x1
 4889 322f 01       		.byte	0x1
 4890 3230 0F       		.uleb128 0xf
 4891 3231 10320000 		.long	0x3210
 4892 3235 3D       		.uleb128 0x3d
 4893 3236 61746500 		.ascii "ate\0"
 4894 323a 13       		.byte	0x13
 4895 323b 6F01     		.word	0x16f
 4896 323d 30320000 		.long	0x3230
 4897 3241 01       		.byte	0x1
 4898 3242 02       		.byte	0x2
 4899 3243 3D       		.uleb128 0x3d
 4900 3244 62696E61 		.ascii "binary\0"
 4900      727900
 4901 324b 13       		.byte	0x13
 4902 324c 7401     		.word	0x174
 4903 324e 30320000 		.long	0x3230
 4904 3252 01       		.byte	0x1
 4905 3253 04       		.byte	0x4
 4906 3254 3D       		.uleb128 0x3d
 4907 3255 696E00   		.ascii "in\0"
 4908 3258 13       		.byte	0x13
 4909 3259 7701     		.word	0x177
 4910 325b 30320000 		.long	0x3230
 4911 325f 01       		.byte	0x1
 4912 3260 08       		.byte	0x8
 4913 3261 3D       		.uleb128 0x3d
 4914 3262 6F757400 		.ascii "out\0"
 4915 3266 13       		.byte	0x13
 4916 3267 7A01     		.word	0x17a
 4917 3269 30320000 		.long	0x3230
 4918 326d 01       		.byte	0x1
 4919 326e 10       		.byte	0x10
 4920 326f 3D       		.uleb128 0x3d
 4921 3270 7472756E 		.ascii "trunc\0"
 4921      6300
 4922 3276 13       		.byte	0x13
 4923 3277 7D01     		.word	0x17d
 4924 3279 30320000 		.long	0x3230
 4925 327d 01       		.byte	0x1
GAS LISTING C:\Users\NJLLMR~1\AppData\Local\Temp\cce8JzPW.s 			page 144


 4926 327e 20       		.byte	0x20
 4927 327f 3F       		.uleb128 0x3f
 4928 3280 7365656B 		.ascii "seekdir\0"
 4928      64697200 
 4929 3288 13       		.byte	0x13
 4930 3289 8901     		.word	0x189
 4931 328b 892F0000 		.long	0x2f89
 4932 328f 01       		.byte	0x1
 4933 3290 3D       		.uleb128 0x3d
 4934 3291 62656700 		.ascii "beg\0"
 4935 3295 13       		.byte	0x13
 4936 3296 8C01     		.word	0x18c
 4937 3298 9E320000 		.long	0x329e
 4938 329c 01       		.byte	0x1
 4939 329d 00       		.byte	0
 4940 329e 0F       		.uleb128 0xf
 4941 329f 7F320000 		.long	0x327f
 4942 32a3 3D       		.uleb128 0x3d
 4943 32a4 63757200 		.ascii "cur\0"
 4944 32a8 13       		.byte	0x13
 4945 32a9 8F01     		.word	0x18f
 4946 32ab 9E320000 		.long	0x329e
 4947 32af 01       		.byte	0x1
 4948 32b0 01       		.byte	0x1
 4949 32b1 3D       		.uleb128 0x3d
 4950 32b2 656E6400 		.ascii "end\0"
 4951 32b6 13       		.byte	0x13
 4952 32b7 9201     		.word	0x192
 4953 32b9 9E320000 		.long	0x329e
 4954 32bd 01       		.byte	0x1
 4955 32be 02       		.byte	0x2
 4956 32bf 00       		.byte	0
 4957 32c0 0A       		.uleb128 0xa
 4958 32c1 14       		.byte	0x14
 4959 32c2 52       		.byte	0x52
 4960 32c3 6D010000 		.long	0x16d
 4961 32c7 0A       		.uleb128 0xa
 4962 32c8 14       		.byte	0x14
 4963 32c9 53       		.byte	0x53
 4964 32ca 52010000 		.long	0x152
 4965 32ce 0A       		.uleb128 0xa
 4966 32cf 14       		.byte	0x14
 4967 32d0 54       		.byte	0x54
 4968 32d1 0D010000 		.long	0x10d
 4969 32d5 0A       		.uleb128 0xa
 4970 32d6 14       		.byte	0x14
 4971 32d7 5C       		.byte	0x5c
 4972 32d8 23600000 		.long	0x6023
 4973 32dc 0A       		.uleb128 0xa
 4974 32dd 14       		.byte	0x14
 4975 32de 65       		.byte	0x65
 4976 32df 42600000 		.long	0x6042
 4977 32e3 0A       		.uleb128 0xa
 4978 32e4 14       		.byte	0x14
 4979 32e5 68       		.byte	0x68
 4980 32e6 62600000 		.long	0x6062
 4981 32ea 0A       		.uleb128 0xa
GAS LISTING C:\Users\NJLLMR~1\AppData\Local\Temp\cce8JzPW.s 			page 145


 4982 32eb 14       		.byte	0x14
 4983 32ec 69       		.byte	0x69
 4984 32ed 7B600000 		.long	0x607b
 4985 32f1 15       		.uleb128 0x15
 4986 32f2 616C6C6F 		.ascii "allocator<Toppings>\0"
 4986      6361746F 
 4986      723C546F 
 4986      7070696E 
 4986      67733E00 
 4987 3306 01       		.byte	0x1
 4988 3307 04       		.byte	0x4
 4989 3308 5C       		.byte	0x5c
 4990 3309 BE330000 		.long	0x33be
 4991 330d 16       		.uleb128 0x16
 4992 330e 91560000 		.long	0x5691
 4993 3312 00       		.byte	0
 4994 3313 01       		.byte	0x1
 4995 3314 17       		.uleb128 0x17
 4996 3315 00000000 		.secrel32	LASF2
 4997 3319 04       		.byte	0x4
 4998 331a 5F       		.byte	0x5f
 4999 331b BC080000 		.long	0x8bc
 5000 331f 01       		.byte	0x1
 5001 3320 17       		.uleb128 0x17
 5002 3321 07020000 		.secrel32	LASF36
 5003 3325 04       		.byte	0x4
 5004 3326 61       		.byte	0x61
 5005 3327 9F600000 		.long	0x609f
 5006 332b 01       		.byte	0x1
 5007 332c 17       		.uleb128 0x17
 5008 332d 37010000 		.secrel32	LASF37
 5009 3331 04       		.byte	0x4
 5010 3332 62       		.byte	0x62
 5011 3333 AF600000 		.long	0x60af
 5012 3337 01       		.byte	0x1
 5013 3338 17       		.uleb128 0x17
 5014 3339 F7010000 		.secrel32	LASF3
 5015 333d 04       		.byte	0x4
 5016 333e 63       		.byte	0x63
 5017 333f BA600000 		.long	0x60ba
 5018 3343 01       		.byte	0x1
 5019 3344 17       		.uleb128 0x17
 5020 3345 C0010000 		.secrel32	LASF4
 5021 3349 04       		.byte	0x4
 5022 334a 64       		.byte	0x64
 5023 334b C0600000 		.long	0x60c0
 5024 334f 01       		.byte	0x1
 5025 3350 18       		.uleb128 0x18
 5026 3351 2E000000 		.secrel32	LASF5
 5027 3355 04       		.byte	0x4
 5028 3356 71       		.byte	0x71
 5029 3357 01       		.byte	0x1
 5030 3358 60330000 		.long	0x3360
 5031 335c 66330000 		.long	0x3366
 5032 3360 19       		.uleb128 0x19
 5033 3361 D8600000 		.long	0x60d8
 5034 3365 00       		.byte	0
GAS LISTING C:\Users\NJLLMR~1\AppData\Local\Temp\cce8JzPW.s 			page 146


 5035 3366 18       		.uleb128 0x18
 5036 3367 2E000000 		.secrel32	LASF5
 5037 336b 04       		.byte	0x4
 5038 336c 73       		.byte	0x73
 5039 336d 01       		.byte	0x1
 5040 336e 76330000 		.long	0x3376
 5041 3372 81330000 		.long	0x3381
 5042 3376 19       		.uleb128 0x19
 5043 3377 D8600000 		.long	0x60d8
 5044 337b 0E       		.uleb128 0xe
 5045 337c DE600000 		.long	0x60de
 5046 3380 00       		.byte	0
 5047 3381 18       		.uleb128 0x18
 5048 3382 D0010000 		.secrel32	LASF6
 5049 3386 04       		.byte	0x4
 5050 3387 79       		.byte	0x79
 5051 3388 01       		.byte	0x1
 5052 3389 91330000 		.long	0x3391
 5053 338d 9C330000 		.long	0x339c
 5054 3391 19       		.uleb128 0x19
 5055 3392 D8600000 		.long	0x60d8
 5056 3396 19       		.uleb128 0x19
 5057 3397 7E010000 		.long	0x17e
 5058 339b 00       		.byte	0
 5059 339c 40       		.uleb128 0x40
 5060 339d 1D010000 		.secrel32	LASF38
 5061 33a1 01       		.byte	0x1
 5062 33a2 04       		.byte	0x4
 5063 33a3 68       		.byte	0x68
 5064 33a4 01       		.byte	0x1
 5065 33a5 02       		.uleb128 0x2
 5066 33a6 6F746865 		.ascii "other\0"
 5066      7200
 5067 33ac 04       		.byte	0x4
 5068 33ad 69       		.byte	0x69
 5069 33ae F1320000 		.long	0x32f1
 5070 33b2 32       		.uleb128 0x32
 5071 33b3 5F547031 		.ascii "_Tp1\0"
 5071      00
 5072 33b8 A5600000 		.long	0x60a5
 5073 33bc 00       		.byte	0
 5074 33bd 00       		.byte	0
 5075 33be 0F       		.uleb128 0xf
 5076 33bf F1320000 		.long	0x32f1
 5077 33c3 06       		.uleb128 0x6
 5078 33c4 5F566563 		.ascii "_Vector_base<Toppings, std::allocator<Toppings> >\0"
 5078      746F725F 
 5078      62617365 
 5078      3C546F70 
 5078      70696E67 
 5079 33f6 0C       		.byte	0xc
 5080 33f7 02       		.byte	0x2
 5081 33f8 48       		.byte	0x48
 5082 33f9 0A380000 		.long	0x380a
 5083 33fd 41       		.uleb128 0x41
 5084 33fe 4E020000 		.secrel32	LASF39
 5085 3402 0C       		.byte	0xc
GAS LISTING C:\Users\NJLLMR~1\AppData\Local\Temp\cce8JzPW.s 			page 147


 5086 3403 02       		.byte	0x2
 5087 3404 4F       		.byte	0x4f
 5088 3405 04350000 		.long	0x3504
 5089 3409 1C       		.uleb128 0x1c
 5090 340a F1320000 		.long	0x32f1
 5091 340e 00       		.byte	0
 5092 340f 07       		.uleb128 0x7
 5093 3410 5F4D5F73 		.ascii "_M_start\0"
 5093      74617274 
 5093      00
 5094 3419 02       		.byte	0x2
 5095 341a 52       		.byte	0x52
 5096 341b 04350000 		.long	0x3504
 5097 341f 00       		.byte	0
 5098 3420 07       		.uleb128 0x7
 5099 3421 5F4D5F66 		.ascii "_M_finish\0"
 5099      696E6973 
 5099      6800
 5100 342b 02       		.byte	0x2
 5101 342c 53       		.byte	0x53
 5102 342d 04350000 		.long	0x3504
 5103 3431 04       		.byte	0x4
 5104 3432 07       		.uleb128 0x7
 5105 3433 5F4D5F65 		.ascii "_M_end_of_storage\0"
 5105      6E645F6F 
 5105      665F7374 
 5105      6F726167 
 5105      6500
 5106 3445 02       		.byte	0x2
 5107 3446 54       		.byte	0x54
 5108 3447 04350000 		.long	0x3504
 5109 344b 08       		.byte	0x8
 5110 344c 42       		.uleb128 0x42
 5111 344d 4E020000 		.secrel32	LASF39
 5112 3451 02       		.byte	0x2
 5113 3452 56       		.byte	0x56
 5114 3453 5B340000 		.long	0x345b
 5115 3457 61340000 		.long	0x3461
 5116 345b 19       		.uleb128 0x19
 5117 345c EA600000 		.long	0x60ea
 5118 3460 00       		.byte	0
 5119 3461 42       		.uleb128 0x42
 5120 3462 4E020000 		.secrel32	LASF39
 5121 3466 02       		.byte	0x2
 5122 3467 5A       		.byte	0x5a
 5123 3468 70340000 		.long	0x3470
 5124 346c 7B340000 		.long	0x347b
 5125 3470 19       		.uleb128 0x19
 5126 3471 EA600000 		.long	0x60ea
 5127 3475 0E       		.uleb128 0xe
 5128 3476 F0600000 		.long	0x60f0
 5129 347a 00       		.byte	0
 5130 347b 23       		.uleb128 0x23
 5131 347c 5F4D5F73 		.ascii "_M_swap_data\0"
 5131      7761705F 
 5131      64617461 
 5131      00
GAS LISTING C:\Users\NJLLMR~1\AppData\Local\Temp\cce8JzPW.s 			page 148


 5132 3489 02       		.byte	0x2
 5133 348a 65       		.byte	0x65
 5134 348b 5F5A4E53 		.ascii "_ZNSt12_Vector_baseI8ToppingsSaIS0_EE12_Vector_impl12_M_swap_dataERS3_\0"
 5134      7431325F 
 5134      56656374 
 5134      6F725F62 
 5134      61736549 
 5135 34d2 DA340000 		.long	0x34da
 5136 34d6 E5340000 		.long	0x34e5
 5137 34da 19       		.uleb128 0x19
 5138 34db EA600000 		.long	0x60ea
 5139 34df 0E       		.uleb128 0xe
 5140 34e0 F6600000 		.long	0x60f6
 5141 34e4 00       		.byte	0
 5142 34e5 43       		.uleb128 0x43
 5143 34e6 7E5F5665 		.ascii "~_Vector_impl\0"
 5143      63746F72 
 5143      5F696D70 
 5143      6C00
 5144 34f4 F8340000 		.long	0x34f8
 5145 34f8 19       		.uleb128 0x19
 5146 34f9 EA600000 		.long	0x60ea
 5147 34fd 19       		.uleb128 0x19
 5148 34fe 7E010000 		.long	0x17e
 5149 3502 00       		.byte	0
 5150 3503 00       		.byte	0
 5151 3504 44       		.uleb128 0x44
 5152 3505 07020000 		.secrel32	LASF36
 5153 3509 02       		.byte	0x2
 5154 350a 4D       		.byte	0x4d
 5155 350b D3590000 		.long	0x59d3
 5156 350f 0F       		.uleb128 0xf
 5157 3510 14350000 		.long	0x3514
 5158 3514 02       		.uleb128 0x2
 5159 3515 5F54705F 		.ascii "_Tp_alloc_type\0"
 5159      616C6C6F 
 5159      635F7479 
 5159      706500
 5160 3524 02       		.byte	0x2
 5161 3525 4B       		.byte	0x4b
 5162 3526 365C0000 		.long	0x5c36
 5163 352a 07       		.uleb128 0x7
 5164 352b 5F4D5F69 		.ascii "_M_impl\0"
 5164      6D706C00 
 5165 3533 02       		.byte	0x2
 5166 3534 A4       		.byte	0xa4
 5167 3535 FD330000 		.long	0x33fd
 5168 3539 00       		.byte	0
 5169 353a 44       		.uleb128 0x44
 5170 353b 89020000 		.secrel32	LASF8
 5171 353f 02       		.byte	0x2
 5172 3540 6E       		.byte	0x6e
 5173 3541 F1320000 		.long	0x32f1
 5174 3545 45       		.uleb128 0x45
 5175 3546 DB010000 		.secrel32	LASF40
 5176 354a 02       		.byte	0x2
 5177 354b 71       		.byte	0x71
GAS LISTING C:\Users\NJLLMR~1\AppData\Local\Temp\cce8JzPW.s 			page 149


 5178 354c 5F5A4E53 		.ascii "_ZNSt12_Vector_baseI8ToppingsSaIS0_EE19_M_get_Tp_allocatorEv\0"
 5178      7431325F 
 5178      56656374 
 5178      6F725F62 
 5178      61736549 
 5179 3589 FC600000 		.long	0x60fc
 5180 358d 95350000 		.long	0x3595
 5181 3591 9B350000 		.long	0x359b
 5182 3595 19       		.uleb128 0x19
 5183 3596 02610000 		.long	0x6102
 5184 359a 00       		.byte	0
 5185 359b 45       		.uleb128 0x45
 5186 359c DB010000 		.secrel32	LASF40
 5187 35a0 02       		.byte	0x2
 5188 35a1 75       		.byte	0x75
 5189 35a2 5F5A4E4B 		.ascii "_ZNKSt12_Vector_baseI8ToppingsSaIS0_EE19_M_get_Tp_allocatorEv\0"
 5189      53743132 
 5189      5F566563 
 5189      746F725F 
 5189      62617365 
 5190 35e0 F0600000 		.long	0x60f0
 5191 35e4 EC350000 		.long	0x35ec
 5192 35e8 F2350000 		.long	0x35f2
 5193 35ec 19       		.uleb128 0x19
 5194 35ed 08610000 		.long	0x6108
 5195 35f1 00       		.byte	0
 5196 35f2 45       		.uleb128 0x45
 5197 35f3 AE000000 		.secrel32	LASF29
 5198 35f7 02       		.byte	0x2
 5199 35f8 79       		.byte	0x79
 5200 35f9 5F5A4E4B 		.ascii "_ZNKSt12_Vector_baseI8ToppingsSaIS0_EE13get_allocatorEv\0"
 5200      53743132 
 5200      5F566563 
 5200      746F725F 
 5200      62617365 
 5201 3631 3A350000 		.long	0x353a
 5202 3635 3D360000 		.long	0x363d
 5203 3639 43360000 		.long	0x3643
 5204 363d 19       		.uleb128 0x19
 5205 363e 08610000 		.long	0x6108
 5206 3642 00       		.byte	0
 5207 3643 42       		.uleb128 0x42
 5208 3644 73000000 		.secrel32	LASF41
 5209 3648 02       		.byte	0x2
 5210 3649 7C       		.byte	0x7c
 5211 364a 52360000 		.long	0x3652
 5212 364e 58360000 		.long	0x3658
 5213 3652 19       		.uleb128 0x19
 5214 3653 02610000 		.long	0x6102
 5215 3657 00       		.byte	0
 5216 3658 42       		.uleb128 0x42
 5217 3659 73000000 		.secrel32	LASF41
 5218 365d 02       		.byte	0x2
 5219 365e 7F       		.byte	0x7f
 5220 365f 67360000 		.long	0x3667
 5221 3663 72360000 		.long	0x3672
 5222 3667 19       		.uleb128 0x19
GAS LISTING C:\Users\NJLLMR~1\AppData\Local\Temp\cce8JzPW.s 			page 150


 5223 3668 02610000 		.long	0x6102
 5224 366c 0E       		.uleb128 0xe
 5225 366d 0E610000 		.long	0x610e
 5226 3671 00       		.byte	0
 5227 3672 0F       		.uleb128 0xf
 5228 3673 3A350000 		.long	0x353a
 5229 3677 42       		.uleb128 0x42
 5230 3678 73000000 		.secrel32	LASF41
 5231 367c 02       		.byte	0x2
 5232 367d 82       		.byte	0x82
 5233 367e 86360000 		.long	0x3686
 5234 3682 91360000 		.long	0x3691
 5235 3686 19       		.uleb128 0x19
 5236 3687 02610000 		.long	0x6102
 5237 368b 0E       		.uleb128 0xe
 5238 368c BC080000 		.long	0x8bc
 5239 3690 00       		.byte	0
 5240 3691 42       		.uleb128 0x42
 5241 3692 73000000 		.secrel32	LASF41
 5242 3696 02       		.byte	0x2
 5243 3697 86       		.byte	0x86
 5244 3698 A0360000 		.long	0x36a0
 5245 369c B0360000 		.long	0x36b0
 5246 36a0 19       		.uleb128 0x19
 5247 36a1 02610000 		.long	0x6102
 5248 36a5 0E       		.uleb128 0xe
 5249 36a6 BC080000 		.long	0x8bc
 5250 36aa 0E       		.uleb128 0xe
 5251 36ab 0E610000 		.long	0x610e
 5252 36af 00       		.byte	0
 5253 36b0 46       		.uleb128 0x46
 5254 36b1 7E5F5665 		.ascii "~_Vector_base\0"
 5254      63746F72 
 5254      5F626173 
 5254      6500
 5255 36bf 02       		.byte	0x2
 5256 36c0 9F       		.byte	0x9f
 5257 36c1 C9360000 		.long	0x36c9
 5258 36c5 D4360000 		.long	0x36d4
 5259 36c9 19       		.uleb128 0x19
 5260 36ca 02610000 		.long	0x6102
 5261 36ce 19       		.uleb128 0x19
 5262 36cf 7E010000 		.long	0x17e
 5263 36d3 00       		.byte	0
 5264 36d4 22       		.uleb128 0x22
 5265 36d5 5F4D5F61 		.ascii "_M_allocate\0"
 5265      6C6C6F63 
 5265      61746500 
 5266 36e1 02       		.byte	0x2
 5267 36e2 A7       		.byte	0xa7
 5268 36e3 5F5A4E53 		.ascii "_ZNSt12_Vector_baseI8ToppingsSaIS0_EE11_M_allocateEj\0"
 5268      7431325F 
 5268      56656374 
 5268      6F725F62 
 5268      61736549 
 5269 3718 04350000 		.long	0x3504
 5270 371c 24370000 		.long	0x3724
GAS LISTING C:\Users\NJLLMR~1\AppData\Local\Temp\cce8JzPW.s 			page 151


 5271 3720 2F370000 		.long	0x372f
 5272 3724 19       		.uleb128 0x19
 5273 3725 02610000 		.long	0x6102
 5274 3729 0E       		.uleb128 0xe
 5275 372a BC080000 		.long	0x8bc
 5276 372e 00       		.byte	0
 5277 372f 23       		.uleb128 0x23
 5278 3730 5F4D5F64 		.ascii "_M_deallocate\0"
 5278      65616C6C 
 5278      6F636174 
 5278      6500
 5279 373e 02       		.byte	0x2
 5280 373f AE       		.byte	0xae
 5281 3740 5F5A4E53 		.ascii "_ZNSt12_Vector_baseI8ToppingsSaIS0_EE13_M_deallocateEPS0_j\0"
 5281      7431325F 
 5281      56656374 
 5281      6F725F62 
 5281      61736549 
 5282 377b 83370000 		.long	0x3783
 5283 377f 93370000 		.long	0x3793
 5284 3783 19       		.uleb128 0x19
 5285 3784 02610000 		.long	0x6102
 5286 3788 0E       		.uleb128 0xe
 5287 3789 04350000 		.long	0x3504
 5288 378d 0E       		.uleb128 0xe
 5289 378e BC080000 		.long	0x8bc
 5290 3792 00       		.byte	0
 5291 3793 47       		.uleb128 0x47
 5292 3794 5F4D5F63 		.ascii "_M_create_storage\0"
 5292      72656174 
 5292      655F7374 
 5292      6F726167 
 5292      6500
 5293 37a6 02       		.byte	0x2
 5294 37a7 B7       		.byte	0xb7
 5295 37a8 5F5A4E53 		.ascii "_ZNSt12_Vector_baseI8ToppingsSaIS0_EE17_M_create_storageEj\0"
 5295      7431325F 
 5295      56656374 
 5295      6F725F62 
 5295      61736549 
 5296 37e3 03       		.byte	0x3
 5297 37e4 EC370000 		.long	0x37ec
 5298 37e8 F7370000 		.long	0x37f7
 5299 37ec 19       		.uleb128 0x19
 5300 37ed 02610000 		.long	0x6102
 5301 37f1 0E       		.uleb128 0xe
 5302 37f2 BC080000 		.long	0x8bc
 5303 37f6 00       		.byte	0
 5304 37f7 32       		.uleb128 0x32
 5305 37f8 5F547000 		.ascii "_Tp\0"
 5306 37fc A5600000 		.long	0x60a5
 5307 3800 48       		.uleb128 0x48
 5308 3801 6D010000 		.secrel32	LASF35
 5309 3805 F1320000 		.long	0x32f1
 5310 3809 00       		.byte	0
 5311 380a 0F       		.uleb128 0xf
 5312 380b C3330000 		.long	0x33c3
GAS LISTING C:\Users\NJLLMR~1\AppData\Local\Temp\cce8JzPW.s 			page 152


 5313 380f 15       		.uleb128 0x15
 5314 3810 76656374 		.ascii "vector<Toppings, std::allocator<Toppings> >\0"
 5314      6F723C54 
 5314      6F707069 
 5314      6E67732C 
 5314      20737464 
 5315 383c 0C       		.byte	0xc
 5316 383d 02       		.byte	0x2
 5317 383e D6       		.byte	0xd6
 5318 383f 66470000 		.long	0x4766
 5319 3843 0A       		.uleb128 0xa
 5320 3844 02       		.byte	0x2
 5321 3845 D6       		.byte	0xd6
 5322 3846 D4360000 		.long	0x36d4
 5323 384a 0A       		.uleb128 0xa
 5324 384b 02       		.byte	0x2
 5325 384c D6       		.byte	0xd6
 5326 384d 2F370000 		.long	0x372f
 5327 3851 0A       		.uleb128 0xa
 5328 3852 02       		.byte	0x2
 5329 3853 D6       		.byte	0xd6
 5330 3854 2A350000 		.long	0x352a
 5331 3858 0A       		.uleb128 0xa
 5332 3859 02       		.byte	0x2
 5333 385a D6       		.byte	0xd6
 5334 385b 9B350000 		.long	0x359b
 5335 385f 0A       		.uleb128 0xa
 5336 3860 02       		.byte	0x2
 5337 3861 D6       		.byte	0xd6
 5338 3862 F2350000 		.long	0x35f2
 5339 3866 16       		.uleb128 0x16
 5340 3867 C3330000 		.long	0x33c3
 5341 386b 00       		.byte	0
 5342 386c 02       		.byte	0x2
 5343 386d 3C       		.uleb128 0x3c
 5344 386e 76616C75 		.ascii "value_type\0"
 5344      655F7479 
 5344      706500
 5345 3879 02       		.byte	0x2
 5346 387a E2       		.byte	0xe2
 5347 387b A5600000 		.long	0x60a5
 5348 387f 01       		.byte	0x1
 5349 3880 17       		.uleb128 0x17
 5350 3881 07020000 		.secrel32	LASF36
 5351 3885 02       		.byte	0x2
 5352 3886 E3       		.byte	0xe3
 5353 3887 04350000 		.long	0x3504
 5354 388b 01       		.byte	0x1
 5355 388c 17       		.uleb128 0x17
 5356 388d 37010000 		.secrel32	LASF37
 5357 3891 02       		.byte	0x2
 5358 3892 E4       		.byte	0xe4
 5359 3893 DE590000 		.long	0x59de
 5360 3897 01       		.byte	0x1
 5361 3898 17       		.uleb128 0x17
 5362 3899 F7010000 		.secrel32	LASF3
 5363 389d 02       		.byte	0x2
GAS LISTING C:\Users\NJLLMR~1\AppData\Local\Temp\cce8JzPW.s 			page 153


 5364 389e E5       		.byte	0xe5
 5365 389f E9590000 		.long	0x59e9
 5366 38a3 01       		.byte	0x1
 5367 38a4 17       		.uleb128 0x17
 5368 38a5 C0010000 		.secrel32	LASF4
 5369 38a9 02       		.byte	0x2
 5370 38aa E6       		.byte	0xe6
 5371 38ab F4590000 		.long	0x59f4
 5372 38af 01       		.byte	0x1
 5373 38b0 17       		.uleb128 0x17
 5374 38b1 B7010000 		.secrel32	LASF9
 5375 38b5 02       		.byte	0x2
 5376 38b6 E7       		.byte	0xe7
 5377 38b7 575C0000 		.long	0x5c57
 5378 38bb 01       		.byte	0x1
 5379 38bc 17       		.uleb128 0x17
 5380 38bd 1F000000 		.secrel32	LASF10
 5381 38c1 02       		.byte	0x2
 5382 38c2 E9       		.byte	0xe9
 5383 38c3 A85C0000 		.long	0x5ca8
 5384 38c7 01       		.byte	0x1
 5385 38c8 17       		.uleb128 0x17
 5386 38c9 2E020000 		.secrel32	LASF11
 5387 38cd 02       		.byte	0x2
 5388 38ce EA       		.byte	0xea
 5389 38cf 66470000 		.long	0x4766
 5390 38d3 01       		.byte	0x1
 5391 38d4 17       		.uleb128 0x17
 5392 38d5 A0010000 		.secrel32	LASF12
 5393 38d9 02       		.byte	0x2
 5394 38da EB       		.byte	0xeb
 5395 38db DB470000 		.long	0x47db
 5396 38df 01       		.byte	0x1
 5397 38e0 17       		.uleb128 0x17
 5398 38e1 00000000 		.secrel32	LASF2
 5399 38e5 02       		.byte	0x2
 5400 38e6 EC       		.byte	0xec
 5401 38e7 BC080000 		.long	0x8bc
 5402 38eb 01       		.byte	0x1
 5403 38ec 17       		.uleb128 0x17
 5404 38ed 89020000 		.secrel32	LASF8
 5405 38f1 02       		.byte	0x2
 5406 38f2 EE       		.byte	0xee
 5407 38f3 F1320000 		.long	0x32f1
 5408 38f7 01       		.byte	0x1
 5409 38f8 18       		.uleb128 0x18
 5410 38f9 80000000 		.secrel32	LASF42
 5411 38fd 02       		.byte	0x2
 5412 38fe FD       		.byte	0xfd
 5413 38ff 01       		.byte	0x1
 5414 3900 08390000 		.long	0x3908
 5415 3904 0E390000 		.long	0x390e
 5416 3908 19       		.uleb128 0x19
 5417 3909 14610000 		.long	0x6114
 5418 390d 00       		.byte	0
 5419 390e 49       		.uleb128 0x49
 5420 390f 80000000 		.secrel32	LASF42
GAS LISTING C:\Users\NJLLMR~1\AppData\Local\Temp\cce8JzPW.s 			page 154


 5421 3913 02       		.byte	0x2
 5422 3914 0801     		.word	0x108
 5423 3916 01       		.byte	0x1
 5424 3917 1F390000 		.long	0x391f
 5425 391b 2A390000 		.long	0x392a
 5426 391f 19       		.uleb128 0x19
 5427 3920 14610000 		.long	0x6114
 5428 3924 0E       		.uleb128 0xe
 5429 3925 1A610000 		.long	0x611a
 5430 3929 00       		.byte	0
 5431 392a 0F       		.uleb128 0xf
 5432 392b EC380000 		.long	0x38ec
 5433 392f 49       		.uleb128 0x49
 5434 3930 80000000 		.secrel32	LASF42
 5435 3934 02       		.byte	0x2
 5436 3935 2F01     		.word	0x12f
 5437 3937 01       		.byte	0x1
 5438 3938 40390000 		.long	0x3940
 5439 393c 55390000 		.long	0x3955
 5440 3940 19       		.uleb128 0x19
 5441 3941 14610000 		.long	0x6114
 5442 3945 0E       		.uleb128 0xe
 5443 3946 E0380000 		.long	0x38e0
 5444 394a 0E       		.uleb128 0xe
 5445 394b 20610000 		.long	0x6120
 5446 394f 0E       		.uleb128 0xe
 5447 3950 1A610000 		.long	0x611a
 5448 3954 00       		.byte	0
 5449 3955 0F       		.uleb128 0xf
 5450 3956 6D380000 		.long	0x386d
 5451 395a 2A       		.uleb128 0x2a
 5452 395b 80000000 		.secrel32	LASF42
 5453 395f 02       		.byte	0x2
 5454 3960 3E01     		.word	0x13e
 5455 3962 01       		.byte	0x1
 5456 3963 6B390000 		.long	0x396b
 5457 3967 76390000 		.long	0x3976
 5458 396b 19       		.uleb128 0x19
 5459 396c 14610000 		.long	0x6114
 5460 3970 0E       		.uleb128 0xe
 5461 3971 26610000 		.long	0x6126
 5462 3975 00       		.byte	0
 5463 3976 2C       		.uleb128 0x2c
 5464 3977 7E766563 		.ascii "~vector\0"
 5464      746F7200 
 5465 397f 02       		.byte	0x2
 5466 3980 A701     		.word	0x1a7
 5467 3982 01       		.byte	0x1
 5468 3983 8B390000 		.long	0x398b
 5469 3987 96390000 		.long	0x3996
 5470 398b 19       		.uleb128 0x19
 5471 398c 14610000 		.long	0x6114
 5472 3990 19       		.uleb128 0x19
 5473 3991 7E010000 		.long	0x17e
 5474 3995 00       		.byte	0
 5475 3996 31       		.uleb128 0x31
 5476 3997 D9000000 		.secrel32	LASF16
GAS LISTING C:\Users\NJLLMR~1\AppData\Local\Temp\cce8JzPW.s 			page 155


 5477 399b 15       		.byte	0x15
 5478 399c A7       		.byte	0xa7
 5479 399d 5F5A4E53 		.ascii "_ZNSt6vectorI8ToppingsSaIS0_EEaSERKS2_\0"
 5479      74367665 
 5479      63746F72 
 5479      4938546F 
 5479      7070696E 
 5480 39c4 2C610000 		.long	0x612c
 5481 39c8 01       		.byte	0x1
 5482 39c9 D1390000 		.long	0x39d1
 5483 39cd DC390000 		.long	0x39dc
 5484 39d1 19       		.uleb128 0x19
 5485 39d2 14610000 		.long	0x6114
 5486 39d6 0E       		.uleb128 0xe
 5487 39d7 26610000 		.long	0x6126
 5488 39db 00       		.byte	0
 5489 39dc 2F       		.uleb128 0x2f
 5490 39dd F4000000 		.secrel32	LASF1
 5491 39e1 02       		.byte	0x2
 5492 39e2 E801     		.word	0x1e8
 5493 39e4 5F5A4E53 		.ascii "_ZNSt6vectorI8ToppingsSaIS0_EE6assignEjRKS0_\0"
 5493      74367665 
 5493      63746F72 
 5493      4938546F 
 5493      7070696E 
 5494 3a11 01       		.byte	0x1
 5495 3a12 1A3A0000 		.long	0x3a1a
 5496 3a16 2A3A0000 		.long	0x3a2a
 5497 3a1a 19       		.uleb128 0x19
 5498 3a1b 14610000 		.long	0x6114
 5499 3a1f 0E       		.uleb128 0xe
 5500 3a20 E0380000 		.long	0x38e0
 5501 3a24 0E       		.uleb128 0xe
 5502 3a25 20610000 		.long	0x6120
 5503 3a29 00       		.byte	0
 5504 3a2a 2D       		.uleb128 0x2d
 5505 3a2b B1010000 		.secrel32	LASF17
 5506 3a2f 02       		.byte	0x2
 5507 3a30 2302     		.word	0x223
 5508 3a32 5F5A4E53 		.ascii "_ZNSt6vectorI8ToppingsSaIS0_EE5beginEv\0"
 5508      74367665 
 5508      63746F72 
 5508      4938546F 
 5508      7070696E 
 5509 3a59 B0380000 		.long	0x38b0
 5510 3a5d 01       		.byte	0x1
 5511 3a5e 663A0000 		.long	0x3a66
 5512 3a62 6C3A0000 		.long	0x3a6c
 5513 3a66 19       		.uleb128 0x19
 5514 3a67 14610000 		.long	0x6114
 5515 3a6b 00       		.byte	0
 5516 3a6c 2D       		.uleb128 0x2d
 5517 3a6d B1010000 		.secrel32	LASF17
 5518 3a71 02       		.byte	0x2
 5519 3a72 2C02     		.word	0x22c
 5520 3a74 5F5A4E4B 		.ascii "_ZNKSt6vectorI8ToppingsSaIS0_EE5beginEv\0"
 5520      53743676 
GAS LISTING C:\Users\NJLLMR~1\AppData\Local\Temp\cce8JzPW.s 			page 156


 5520      6563746F 
 5520      72493854 
 5520      6F707069 
 5521 3a9c BC380000 		.long	0x38bc
 5522 3aa0 01       		.byte	0x1
 5523 3aa1 A93A0000 		.long	0x3aa9
 5524 3aa5 AF3A0000 		.long	0x3aaf
 5525 3aa9 19       		.uleb128 0x19
 5526 3aaa 32610000 		.long	0x6132
 5527 3aae 00       		.byte	0
 5528 3aaf 2E       		.uleb128 0x2e
 5529 3ab0 656E6400 		.ascii "end\0"
 5530 3ab4 02       		.byte	0x2
 5531 3ab5 3502     		.word	0x235
 5532 3ab7 5F5A4E53 		.ascii "_ZNSt6vectorI8ToppingsSaIS0_EE3endEv\0"
 5532      74367665 
 5532      63746F72 
 5532      4938546F 
 5532      7070696E 
 5533 3adc B0380000 		.long	0x38b0
 5534 3ae0 01       		.byte	0x1
 5535 3ae1 E93A0000 		.long	0x3ae9
 5536 3ae5 EF3A0000 		.long	0x3aef
 5537 3ae9 19       		.uleb128 0x19
 5538 3aea 14610000 		.long	0x6114
 5539 3aee 00       		.byte	0
 5540 3aef 2E       		.uleb128 0x2e
 5541 3af0 656E6400 		.ascii "end\0"
 5542 3af4 02       		.byte	0x2
 5543 3af5 3E02     		.word	0x23e
 5544 3af7 5F5A4E4B 		.ascii "_ZNKSt6vectorI8ToppingsSaIS0_EE3endEv\0"
 5544      53743676 
 5544      6563746F 
 5544      72493854 
 5544      6F707069 
 5545 3b1d BC380000 		.long	0x38bc
 5546 3b21 01       		.byte	0x1
 5547 3b22 2A3B0000 		.long	0x3b2a
 5548 3b26 303B0000 		.long	0x3b30
 5549 3b2a 19       		.uleb128 0x19
 5550 3b2b 32610000 		.long	0x6132
 5551 3b2f 00       		.byte	0
 5552 3b30 2D       		.uleb128 0x2d
 5553 3b31 4C000000 		.secrel32	LASF18
 5554 3b35 02       		.byte	0x2
 5555 3b36 4702     		.word	0x247
 5556 3b38 5F5A4E53 		.ascii "_ZNSt6vectorI8ToppingsSaIS0_EE6rbeginEv\0"
 5556      74367665 
 5556      63746F72 
 5556      4938546F 
 5556      7070696E 
 5557 3b60 D4380000 		.long	0x38d4
 5558 3b64 01       		.byte	0x1
 5559 3b65 6D3B0000 		.long	0x3b6d
 5560 3b69 733B0000 		.long	0x3b73
 5561 3b6d 19       		.uleb128 0x19
 5562 3b6e 14610000 		.long	0x6114
GAS LISTING C:\Users\NJLLMR~1\AppData\Local\Temp\cce8JzPW.s 			page 157


 5563 3b72 00       		.byte	0
 5564 3b73 2D       		.uleb128 0x2d
 5565 3b74 4C000000 		.secrel32	LASF18
 5566 3b78 02       		.byte	0x2
 5567 3b79 5002     		.word	0x250
 5568 3b7b 5F5A4E4B 		.ascii "_ZNKSt6vectorI8ToppingsSaIS0_EE6rbeginEv\0"
 5568      53743676 
 5568      6563746F 
 5568      72493854 
 5568      6F707069 
 5569 3ba4 C8380000 		.long	0x38c8
 5570 3ba8 01       		.byte	0x1
 5571 3ba9 B13B0000 		.long	0x3bb1
 5572 3bad B73B0000 		.long	0x3bb7
 5573 3bb1 19       		.uleb128 0x19
 5574 3bb2 32610000 		.long	0x6132
 5575 3bb6 00       		.byte	0
 5576 3bb7 2E       		.uleb128 0x2e
 5577 3bb8 72656E64 		.ascii "rend\0"
 5577      00
 5578 3bbd 02       		.byte	0x2
 5579 3bbe 5902     		.word	0x259
 5580 3bc0 5F5A4E53 		.ascii "_ZNSt6vectorI8ToppingsSaIS0_EE4rendEv\0"
 5580      74367665 
 5580      63746F72 
 5580      4938546F 
 5580      7070696E 
 5581 3be6 D4380000 		.long	0x38d4
 5582 3bea 01       		.byte	0x1
 5583 3beb F33B0000 		.long	0x3bf3
 5584 3bef F93B0000 		.long	0x3bf9
 5585 3bf3 19       		.uleb128 0x19
 5586 3bf4 14610000 		.long	0x6114
 5587 3bf8 00       		.byte	0
 5588 3bf9 2E       		.uleb128 0x2e
 5589 3bfa 72656E64 		.ascii "rend\0"
 5589      00
 5590 3bff 02       		.byte	0x2
 5591 3c00 6202     		.word	0x262
 5592 3c02 5F5A4E4B 		.ascii "_ZNKSt6vectorI8ToppingsSaIS0_EE4rendEv\0"
 5592      53743676 
 5592      6563746F 
 5592      72493854 
 5592      6F707069 
 5593 3c29 C8380000 		.long	0x38c8
 5594 3c2d 01       		.byte	0x1
 5595 3c2e 363C0000 		.long	0x3c36
 5596 3c32 3C3C0000 		.long	0x3c3c
 5597 3c36 19       		.uleb128 0x19
 5598 3c37 32610000 		.long	0x6132
 5599 3c3b 00       		.byte	0
 5600 3c3c 2E       		.uleb128 0x2e
 5601 3c3d 73697A65 		.ascii "size\0"
 5601      00
 5602 3c42 02       		.byte	0x2
 5603 3c43 8E02     		.word	0x28e
 5604 3c45 5F5A4E4B 		.ascii "_ZNKSt6vectorI8ToppingsSaIS0_EE4sizeEv\0"
GAS LISTING C:\Users\NJLLMR~1\AppData\Local\Temp\cce8JzPW.s 			page 158


 5604      53743676 
 5604      6563746F 
 5604      72493854 
 5604      6F707069 
 5605 3c6c E0380000 		.long	0x38e0
 5606 3c70 01       		.byte	0x1
 5607 3c71 793C0000 		.long	0x3c79
 5608 3c75 7F3C0000 		.long	0x3c7f
 5609 3c79 19       		.uleb128 0x19
 5610 3c7a 32610000 		.long	0x6132
 5611 3c7e 00       		.byte	0
 5612 3c7f 2D       		.uleb128 0x2d
 5613 3c80 45020000 		.secrel32	LASF19
 5614 3c84 02       		.byte	0x2
 5615 3c85 9302     		.word	0x293
 5616 3c87 5F5A4E4B 		.ascii "_ZNKSt6vectorI8ToppingsSaIS0_EE8max_sizeEv\0"
 5616      53743676 
 5616      6563746F 
 5616      72493854 
 5616      6F707069 
 5617 3cb2 E0380000 		.long	0x38e0
 5618 3cb6 01       		.byte	0x1
 5619 3cb7 BF3C0000 		.long	0x3cbf
 5620 3cbb C53C0000 		.long	0x3cc5
 5621 3cbf 19       		.uleb128 0x19
 5622 3cc0 32610000 		.long	0x6132
 5623 3cc4 00       		.byte	0
 5624 3cc5 2F       		.uleb128 0x2f
 5625 3cc6 38000000 		.secrel32	LASF20
 5626 3cca 02       		.byte	0x2
 5627 3ccb C902     		.word	0x2c9
 5628 3ccd 5F5A4E53 		.ascii "_ZNSt6vectorI8ToppingsSaIS0_EE6resizeEjS0_\0"
 5628      74367665 
 5628      63746F72 
 5628      4938546F 
 5628      7070696E 
 5629 3cf8 01       		.byte	0x1
 5630 3cf9 013D0000 		.long	0x3d01
 5631 3cfd 113D0000 		.long	0x3d11
 5632 3d01 19       		.uleb128 0x19
 5633 3d02 14610000 		.long	0x6114
 5634 3d06 0E       		.uleb128 0xe
 5635 3d07 E0380000 		.long	0x38e0
 5636 3d0b 0E       		.uleb128 0xe
 5637 3d0c 6D380000 		.long	0x386d
 5638 3d10 00       		.byte	0
 5639 3d11 2D       		.uleb128 0x2d
 5640 3d12 E3000000 		.secrel32	LASF21
 5641 3d16 02       		.byte	0x2
 5642 3d17 DE02     		.word	0x2de
 5643 3d19 5F5A4E4B 		.ascii "_ZNKSt6vectorI8ToppingsSaIS0_EE8capacityEv\0"
 5643      53743676 
 5643      6563746F 
 5643      72493854 
 5643      6F707069 
 5644 3d44 E0380000 		.long	0x38e0
 5645 3d48 01       		.byte	0x1
GAS LISTING C:\Users\NJLLMR~1\AppData\Local\Temp\cce8JzPW.s 			page 159


 5646 3d49 513D0000 		.long	0x3d51
 5647 3d4d 573D0000 		.long	0x3d57
 5648 3d51 19       		.uleb128 0x19
 5649 3d52 32610000 		.long	0x6132
 5650 3d56 00       		.byte	0
 5651 3d57 2E       		.uleb128 0x2e
 5652 3d58 656D7074 		.ascii "empty\0"
 5652      7900
 5653 3d5e 02       		.byte	0x2
 5654 3d5f E702     		.word	0x2e7
 5655 3d61 5F5A4E4B 		.ascii "_ZNKSt6vectorI8ToppingsSaIS0_EE5emptyEv\0"
 5655      53743676 
 5655      6563746F 
 5655      72493854 
 5655      6F707069 
 5656 3d89 9D5D0000 		.long	0x5d9d
 5657 3d8d 01       		.byte	0x1
 5658 3d8e 963D0000 		.long	0x3d96
 5659 3d92 9C3D0000 		.long	0x3d9c
 5660 3d96 19       		.uleb128 0x19
 5661 3d97 32610000 		.long	0x6132
 5662 3d9b 00       		.byte	0
 5663 3d9c 47       		.uleb128 0x47
 5664 3d9d 72657365 		.ascii "reserve\0"
 5664      72766500 
 5665 3da5 15       		.byte	0x15
 5666 3da6 41       		.byte	0x41
 5667 3da7 5F5A4E53 		.ascii "_ZNSt6vectorI8ToppingsSaIS0_EE7reserveEj\0"
 5667      74367665 
 5667      63746F72 
 5667      4938546F 
 5667      7070696E 
 5668 3dd0 01       		.byte	0x1
 5669 3dd1 D93D0000 		.long	0x3dd9
 5670 3dd5 E43D0000 		.long	0x3de4
 5671 3dd9 19       		.uleb128 0x19
 5672 3dda 14610000 		.long	0x6114
 5673 3dde 0E       		.uleb128 0xe
 5674 3ddf E0380000 		.long	0x38e0
 5675 3de3 00       		.byte	0
 5676 3de4 2D       		.uleb128 0x2d
 5677 3de5 45010000 		.secrel32	LASF22
 5678 3de9 02       		.byte	0x2
 5679 3dea 0B03     		.word	0x30b
 5680 3dec 5F5A4E53 		.ascii "_ZNSt6vectorI8ToppingsSaIS0_EEixEj\0"
 5680      74367665 
 5680      63746F72 
 5680      4938546F 
 5680      7070696E 
 5681 3e0f 98380000 		.long	0x3898
 5682 3e13 01       		.byte	0x1
 5683 3e14 1C3E0000 		.long	0x3e1c
 5684 3e18 273E0000 		.long	0x3e27
 5685 3e1c 19       		.uleb128 0x19
 5686 3e1d 14610000 		.long	0x6114
 5687 3e21 0E       		.uleb128 0xe
 5688 3e22 E0380000 		.long	0x38e0
GAS LISTING C:\Users\NJLLMR~1\AppData\Local\Temp\cce8JzPW.s 			page 160


 5689 3e26 00       		.byte	0
 5690 3e27 2D       		.uleb128 0x2d
 5691 3e28 45010000 		.secrel32	LASF22
 5692 3e2c 02       		.byte	0x2
 5693 3e2d 1A03     		.word	0x31a
 5694 3e2f 5F5A4E4B 		.ascii "_ZNKSt6vectorI8ToppingsSaIS0_EEixEj\0"
 5694      53743676 
 5694      6563746F 
 5694      72493854 
 5694      6F707069 
 5695 3e53 A4380000 		.long	0x38a4
 5696 3e57 01       		.byte	0x1
 5697 3e58 603E0000 		.long	0x3e60
 5698 3e5c 6B3E0000 		.long	0x3e6b
 5699 3e60 19       		.uleb128 0x19
 5700 3e61 32610000 		.long	0x6132
 5701 3e65 0E       		.uleb128 0xe
 5702 3e66 E0380000 		.long	0x38e0
 5703 3e6a 00       		.byte	0
 5704 3e6b 30       		.uleb128 0x30
 5705 3e6c 5F4D5F72 		.ascii "_M_range_check\0"
 5705      616E6765 
 5705      5F636865 
 5705      636B00
 5706 3e7b 02       		.byte	0x2
 5707 3e7c 2003     		.word	0x320
 5708 3e7e 5F5A4E4B 		.ascii "_ZNKSt6vectorI8ToppingsSaIS0_EE14_M_range_checkEj\0"
 5708      53743676 
 5708      6563746F 
 5708      72493854 
 5708      6F707069 
 5709 3eb0 02       		.byte	0x2
 5710 3eb1 B93E0000 		.long	0x3eb9
 5711 3eb5 C43E0000 		.long	0x3ec4
 5712 3eb9 19       		.uleb128 0x19
 5713 3eba 32610000 		.long	0x6132
 5714 3ebe 0E       		.uleb128 0xe
 5715 3ebf E0380000 		.long	0x38e0
 5716 3ec3 00       		.byte	0
 5717 3ec4 2E       		.uleb128 0x2e
 5718 3ec5 617400   		.ascii "at\0"
 5719 3ec8 02       		.byte	0x2
 5720 3ec9 3603     		.word	0x336
 5721 3ecb 5F5A4E53 		.ascii "_ZNSt6vectorI8ToppingsSaIS0_EE2atEj\0"
 5721      74367665 
 5721      63746F72 
 5721      4938546F 
 5721      7070696E 
 5722 3eef 98380000 		.long	0x3898
 5723 3ef3 01       		.byte	0x1
 5724 3ef4 FC3E0000 		.long	0x3efc
 5725 3ef8 073F0000 		.long	0x3f07
 5726 3efc 19       		.uleb128 0x19
 5727 3efd 14610000 		.long	0x6114
 5728 3f01 0E       		.uleb128 0xe
 5729 3f02 E0380000 		.long	0x38e0
 5730 3f06 00       		.byte	0
GAS LISTING C:\Users\NJLLMR~1\AppData\Local\Temp\cce8JzPW.s 			page 161


 5731 3f07 2E       		.uleb128 0x2e
 5732 3f08 617400   		.ascii "at\0"
 5733 3f0b 02       		.byte	0x2
 5734 3f0c 4803     		.word	0x348
 5735 3f0e 5F5A4E4B 		.ascii "_ZNKSt6vectorI8ToppingsSaIS0_EE2atEj\0"
 5735      53743676 
 5735      6563746F 
 5735      72493854 
 5735      6F707069 
 5736 3f33 A4380000 		.long	0x38a4
 5737 3f37 01       		.byte	0x1
 5738 3f38 403F0000 		.long	0x3f40
 5739 3f3c 4B3F0000 		.long	0x3f4b
 5740 3f40 19       		.uleb128 0x19
 5741 3f41 32610000 		.long	0x6132
 5742 3f45 0E       		.uleb128 0xe
 5743 3f46 E0380000 		.long	0x38e0
 5744 3f4a 00       		.byte	0
 5745 3f4b 2E       		.uleb128 0x2e
 5746 3f4c 66726F6E 		.ascii "front\0"
 5746      7400
 5747 3f52 02       		.byte	0x2
 5748 3f53 5303     		.word	0x353
 5749 3f55 5F5A4E53 		.ascii "_ZNSt6vectorI8ToppingsSaIS0_EE5frontEv\0"
 5749      74367665 
 5749      63746F72 
 5749      4938546F 
 5749      7070696E 
 5750 3f7c 98380000 		.long	0x3898
 5751 3f80 01       		.byte	0x1
 5752 3f81 893F0000 		.long	0x3f89
 5753 3f85 8F3F0000 		.long	0x3f8f
 5754 3f89 19       		.uleb128 0x19
 5755 3f8a 14610000 		.long	0x6114
 5756 3f8e 00       		.byte	0
 5757 3f8f 2E       		.uleb128 0x2e
 5758 3f90 66726F6E 		.ascii "front\0"
 5758      7400
 5759 3f96 02       		.byte	0x2
 5760 3f97 5B03     		.word	0x35b
 5761 3f99 5F5A4E4B 		.ascii "_ZNKSt6vectorI8ToppingsSaIS0_EE5frontEv\0"
 5761      53743676 
 5761      6563746F 
 5761      72493854 
 5761      6F707069 
 5762 3fc1 A4380000 		.long	0x38a4
 5763 3fc5 01       		.byte	0x1
 5764 3fc6 CE3F0000 		.long	0x3fce
 5765 3fca D43F0000 		.long	0x3fd4
 5766 3fce 19       		.uleb128 0x19
 5767 3fcf 32610000 		.long	0x6132
 5768 3fd3 00       		.byte	0
 5769 3fd4 2E       		.uleb128 0x2e
 5770 3fd5 6261636B 		.ascii "back\0"
 5770      00
 5771 3fda 02       		.byte	0x2
 5772 3fdb 6303     		.word	0x363
GAS LISTING C:\Users\NJLLMR~1\AppData\Local\Temp\cce8JzPW.s 			page 162


 5773 3fdd 5F5A4E53 		.ascii "_ZNSt6vectorI8ToppingsSaIS0_EE4backEv\0"
 5773      74367665 
 5773      63746F72 
 5773      4938546F 
 5773      7070696E 
 5774 4003 98380000 		.long	0x3898
 5775 4007 01       		.byte	0x1
 5776 4008 10400000 		.long	0x4010
 5777 400c 16400000 		.long	0x4016
 5778 4010 19       		.uleb128 0x19
 5779 4011 14610000 		.long	0x6114
 5780 4015 00       		.byte	0
 5781 4016 2E       		.uleb128 0x2e
 5782 4017 6261636B 		.ascii "back\0"
 5782      00
 5783 401c 02       		.byte	0x2
 5784 401d 6B03     		.word	0x36b
 5785 401f 5F5A4E4B 		.ascii "_ZNKSt6vectorI8ToppingsSaIS0_EE4backEv\0"
 5785      53743676 
 5785      6563746F 
 5785      72493854 
 5785      6F707069 
 5786 4046 A4380000 		.long	0x38a4
 5787 404a 01       		.byte	0x1
 5788 404b 53400000 		.long	0x4053
 5789 404f 59400000 		.long	0x4059
 5790 4053 19       		.uleb128 0x19
 5791 4054 32610000 		.long	0x6132
 5792 4058 00       		.byte	0
 5793 4059 2E       		.uleb128 0x2e
 5794 405a 64617461 		.ascii "data\0"
 5794      00
 5795 405f 02       		.byte	0x2
 5796 4060 7A03     		.word	0x37a
 5797 4062 5F5A4E53 		.ascii "_ZNSt6vectorI8ToppingsSaIS0_EE4dataEv\0"
 5797      74367665 
 5797      63746F72 
 5797      4938546F 
 5797      7070696E 
 5798 4088 80380000 		.long	0x3880
 5799 408c 01       		.byte	0x1
 5800 408d 95400000 		.long	0x4095
 5801 4091 9B400000 		.long	0x409b
 5802 4095 19       		.uleb128 0x19
 5803 4096 14610000 		.long	0x6114
 5804 409a 00       		.byte	0
 5805 409b 2E       		.uleb128 0x2e
 5806 409c 64617461 		.ascii "data\0"
 5806      00
 5807 40a1 02       		.byte	0x2
 5808 40a2 8203     		.word	0x382
 5809 40a4 5F5A4E4B 		.ascii "_ZNKSt6vectorI8ToppingsSaIS0_EE4dataEv\0"
 5809      53743676 
 5809      6563746F 
 5809      72493854 
 5809      6F707069 
 5810 40cb 8C380000 		.long	0x388c
GAS LISTING C:\Users\NJLLMR~1\AppData\Local\Temp\cce8JzPW.s 			page 163


 5811 40cf 01       		.byte	0x1
 5812 40d0 D8400000 		.long	0x40d8
 5813 40d4 DE400000 		.long	0x40de
 5814 40d8 19       		.uleb128 0x19
 5815 40d9 32610000 		.long	0x6132
 5816 40dd 00       		.byte	0
 5817 40de 2F       		.uleb128 0x2f
 5818 40df BC000000 		.secrel32	LASF25
 5819 40e3 02       		.byte	0x2
 5820 40e4 9103     		.word	0x391
 5821 40e6 5F5A4E53 		.ascii "_ZNSt6vectorI8ToppingsSaIS0_EE9push_backERKS0_\0"
 5821      74367665 
 5821      63746F72 
 5821      4938546F 
 5821      7070696E 
 5822 4115 01       		.byte	0x1
 5823 4116 1E410000 		.long	0x411e
 5824 411a 29410000 		.long	0x4129
 5825 411e 19       		.uleb128 0x19
 5826 411f 14610000 		.long	0x6114
 5827 4123 0E       		.uleb128 0xe
 5828 4124 20610000 		.long	0x6120
 5829 4128 00       		.byte	0
 5830 4129 30       		.uleb128 0x30
 5831 412a 706F705F 		.ascii "pop_back\0"
 5831      6261636B 
 5831      00
 5832 4133 02       		.byte	0x2
 5833 4134 B503     		.word	0x3b5
 5834 4136 5F5A4E53 		.ascii "_ZNSt6vectorI8ToppingsSaIS0_EE8pop_backEv\0"
 5834      74367665 
 5834      63746F72 
 5834      4938546F 
 5834      7070696E 
 5835 4160 01       		.byte	0x1
 5836 4161 69410000 		.long	0x4169
 5837 4165 6F410000 		.long	0x416f
 5838 4169 19       		.uleb128 0x19
 5839 416a 14610000 		.long	0x6114
 5840 416e 00       		.byte	0
 5841 416f 31       		.uleb128 0x31
 5842 4170 61010000 		.secrel32	LASF26
 5843 4174 15       		.byte	0x15
 5844 4175 6B       		.byte	0x6b
 5845 4176 5F5A4E53 		.ascii "_ZNSt6vectorI8ToppingsSaIS0_EE6insertEN9__gnu_cxx17__normal_iteratorIPS0_S2_EERKS0_\0"
 5845      74367665 
 5845      63746F72 
 5845      4938546F 
 5845      7070696E 
 5846 41ca B0380000 		.long	0x38b0
 5847 41ce 01       		.byte	0x1
 5848 41cf D7410000 		.long	0x41d7
 5849 41d3 E7410000 		.long	0x41e7
 5850 41d7 19       		.uleb128 0x19
 5851 41d8 14610000 		.long	0x6114
 5852 41dc 0E       		.uleb128 0xe
 5853 41dd B0380000 		.long	0x38b0
GAS LISTING C:\Users\NJLLMR~1\AppData\Local\Temp\cce8JzPW.s 			page 164


 5854 41e1 0E       		.uleb128 0xe
 5855 41e2 20610000 		.long	0x6120
 5856 41e6 00       		.byte	0
 5857 41e7 2F       		.uleb128 0x2f
 5858 41e8 61010000 		.secrel32	LASF26
 5859 41ec 02       		.byte	0x2
 5860 41ed 3004     		.word	0x430
 5861 41ef 5F5A4E53 		.ascii "_ZNSt6vectorI8ToppingsSaIS0_EE6insertEN9__gnu_cxx17__normal_iteratorIPS0_S2_EEjRKS0_\0"
 5861      74367665 
 5861      63746F72 
 5861      4938546F 
 5861      7070696E 
 5862 4244 01       		.byte	0x1
 5863 4245 4D420000 		.long	0x424d
 5864 4249 62420000 		.long	0x4262
 5865 424d 19       		.uleb128 0x19
 5866 424e 14610000 		.long	0x6114
 5867 4252 0E       		.uleb128 0xe
 5868 4253 B0380000 		.long	0x38b0
 5869 4257 0E       		.uleb128 0xe
 5870 4258 E0380000 		.long	0x38e0
 5871 425c 0E       		.uleb128 0xe
 5872 425d 20610000 		.long	0x6120
 5873 4261 00       		.byte	0
 5874 4262 2D       		.uleb128 0x2d
 5875 4263 3F000000 		.secrel32	LASF27
 5876 4267 02       		.byte	0x2
 5877 4268 7D04     		.word	0x47d
 5878 426a 5F5A4E53 		.ascii "_ZNSt6vectorI8ToppingsSaIS0_EE5eraseEN9__gnu_cxx17__normal_iteratorIPS0_S2_EE\0"
 5878      74367665 
 5878      63746F72 
 5878      4938546F 
 5878      7070696E 
 5879 42b8 B0380000 		.long	0x38b0
 5880 42bc 01       		.byte	0x1
 5881 42bd C5420000 		.long	0x42c5
 5882 42c1 D0420000 		.long	0x42d0
 5883 42c5 19       		.uleb128 0x19
 5884 42c6 14610000 		.long	0x6114
 5885 42ca 0E       		.uleb128 0xe
 5886 42cb B0380000 		.long	0x38b0
 5887 42cf 00       		.byte	0
 5888 42d0 2D       		.uleb128 0x2d
 5889 42d1 3F000000 		.secrel32	LASF27
 5890 42d5 02       		.byte	0x2
 5891 42d6 9C04     		.word	0x49c
 5892 42d8 5F5A4E53 		.ascii "_ZNSt6vectorI8ToppingsSaIS0_EE5eraseEN9__gnu_cxx17__normal_iteratorIPS0_S2_EES6_\0"
 5892      74367665 
 5892      63746F72 
 5892      4938546F 
 5892      7070696E 
 5893 4329 B0380000 		.long	0x38b0
 5894 432d 01       		.byte	0x1
 5895 432e 36430000 		.long	0x4336
 5896 4332 46430000 		.long	0x4346
 5897 4336 19       		.uleb128 0x19
 5898 4337 14610000 		.long	0x6114
GAS LISTING C:\Users\NJLLMR~1\AppData\Local\Temp\cce8JzPW.s 			page 165


 5899 433b 0E       		.uleb128 0xe
 5900 433c B0380000 		.long	0x38b0
 5901 4340 0E       		.uleb128 0xe
 5902 4341 B0380000 		.long	0x38b0
 5903 4345 00       		.byte	0
 5904 4346 30       		.uleb128 0x30
 5905 4347 73776170 		.ascii "swap\0"
 5905      00
 5906 434c 02       		.byte	0x2
 5907 434d AA04     		.word	0x4aa
 5908 434f 5F5A4E53 		.ascii "_ZNSt6vectorI8ToppingsSaIS0_EE4swapERS2_\0"
 5908      74367665 
 5908      63746F72 
 5908      4938546F 
 5908      7070696E 
 5909 4378 01       		.byte	0x1
 5910 4379 81430000 		.long	0x4381
 5911 437d 8C430000 		.long	0x438c
 5912 4381 19       		.uleb128 0x19
 5913 4382 14610000 		.long	0x6114
 5914 4386 0E       		.uleb128 0xe
 5915 4387 2C610000 		.long	0x612c
 5916 438b 00       		.byte	0
 5917 438c 30       		.uleb128 0x30
 5918 438d 636C6561 		.ascii "clear\0"
 5918      7200
 5919 4393 02       		.byte	0x2
 5920 4394 BB04     		.word	0x4bb
 5921 4396 5F5A4E53 		.ascii "_ZNSt6vectorI8ToppingsSaIS0_EE5clearEv\0"
 5921      74367665 
 5921      63746F72 
 5921      4938546F 
 5921      7070696E 
 5922 43bd 01       		.byte	0x1
 5923 43be C6430000 		.long	0x43c6
 5924 43c2 CC430000 		.long	0x43cc
 5925 43c6 19       		.uleb128 0x19
 5926 43c7 14610000 		.long	0x6114
 5927 43cb 00       		.byte	0
 5928 43cc 30       		.uleb128 0x30
 5929 43cd 5F4D5F66 		.ascii "_M_fill_initialize\0"
 5929      696C6C5F 
 5929      696E6974 
 5929      69616C69 
 5929      7A6500
 5930 43e0 02       		.byte	0x2
 5931 43e1 1205     		.word	0x512
 5932 43e3 5F5A4E53 		.ascii "_ZNSt6vectorI8ToppingsSaIS0_EE18_M_fill_initializeEjRKS0_\0"
 5932      74367665 
 5932      63746F72 
 5932      4938546F 
 5932      7070696E 
 5933 441d 02       		.byte	0x2
 5934 441e 26440000 		.long	0x4426
 5935 4422 36440000 		.long	0x4436
 5936 4426 19       		.uleb128 0x19
 5937 4427 14610000 		.long	0x6114
GAS LISTING C:\Users\NJLLMR~1\AppData\Local\Temp\cce8JzPW.s 			page 166


 5938 442b 0E       		.uleb128 0xe
 5939 442c E0380000 		.long	0x38e0
 5940 4430 0E       		.uleb128 0xe
 5941 4431 20610000 		.long	0x6120
 5942 4435 00       		.byte	0
 5943 4436 47       		.uleb128 0x47
 5944 4437 5F4D5F66 		.ascii "_M_fill_assign\0"
 5944      696C6C5F 
 5944      61737369 
 5944      676E00
 5945 4446 15       		.byte	0x15
 5946 4447 E1       		.byte	0xe1
 5947 4448 5F5A4E53 		.ascii "_ZNSt6vectorI8ToppingsSaIS0_EE14_M_fill_assignEjRKS0_\0"
 5947      74367665 
 5947      63746F72 
 5947      4938546F 
 5947      7070696E 
 5948 447e 02       		.byte	0x2
 5949 447f 87440000 		.long	0x4487
 5950 4483 97440000 		.long	0x4497
 5951 4487 19       		.uleb128 0x19
 5952 4488 14610000 		.long	0x6114
 5953 448c 0E       		.uleb128 0xe
 5954 448d BC080000 		.long	0x8bc
 5955 4491 0E       		.uleb128 0xe
 5956 4492 20610000 		.long	0x6120
 5957 4496 00       		.byte	0
 5958 4497 30       		.uleb128 0x30
 5959 4498 5F4D5F66 		.ascii "_M_fill_insert\0"
 5959      696C6C5F 
 5959      696E7365 
 5959      727400
 5960 44a7 15       		.byte	0x15
 5961 44a8 C101     		.word	0x1c1
 5962 44aa 5F5A4E53 		.ascii "_ZNSt6vectorI8ToppingsSaIS0_EE14_M_fill_insertEN9__gnu_cxx17__normal_iteratorIPS0_S2_EEjRK
 5962      74367665 
 5962      63746F72 
 5962      4938546F 
 5962      7070696E 
 5963 4508 02       		.byte	0x2
 5964 4509 11450000 		.long	0x4511
 5965 450d 26450000 		.long	0x4526
 5966 4511 19       		.uleb128 0x19
 5967 4512 14610000 		.long	0x6114
 5968 4516 0E       		.uleb128 0xe
 5969 4517 B0380000 		.long	0x38b0
 5970 451b 0E       		.uleb128 0xe
 5971 451c E0380000 		.long	0x38e0
 5972 4520 0E       		.uleb128 0xe
 5973 4521 20610000 		.long	0x6120
 5974 4525 00       		.byte	0
 5975 4526 30       		.uleb128 0x30
 5976 4527 5F4D5F69 		.ascii "_M_insert_aux\0"
 5976      6E736572 
 5976      745F6175 
 5976      7800
 5977 4535 15       		.byte	0x15
GAS LISTING C:\Users\NJLLMR~1\AppData\Local\Temp\cce8JzPW.s 			page 167


 5978 4536 4601     		.word	0x146
 5979 4538 5F5A4E53 		.ascii "_ZNSt6vectorI8ToppingsSaIS0_EE13_M_insert_auxEN9__gnu_cxx17__normal_iteratorIPS0_S2_EERKS0
 5979      74367665 
 5979      63746F72 
 5979      4938546F 
 5979      7070696E 
 5980 4594 02       		.byte	0x2
 5981 4595 9D450000 		.long	0x459d
 5982 4599 AD450000 		.long	0x45ad
 5983 459d 19       		.uleb128 0x19
 5984 459e 14610000 		.long	0x6114
 5985 45a2 0E       		.uleb128 0xe
 5986 45a3 B0380000 		.long	0x38b0
 5987 45a7 0E       		.uleb128 0xe
 5988 45a8 C0600000 		.long	0x60c0
 5989 45ac 00       		.byte	0
 5990 45ad 2E       		.uleb128 0x2e
 5991 45ae 5F4D5F63 		.ascii "_M_check_len\0"
 5991      6865636B 
 5991      5F6C656E 
 5991      00
 5992 45bb 02       		.byte	0x2
 5993 45bc 8E05     		.word	0x58e
 5994 45be 5F5A4E4B 		.ascii "_ZNKSt6vectorI8ToppingsSaIS0_EE12_M_check_lenEjPKc\0"
 5994      53743676 
 5994      6563746F 
 5994      72493854 
 5994      6F707069 
 5995 45f1 E0380000 		.long	0x38e0
 5996 45f5 02       		.byte	0x2
 5997 45f6 FE450000 		.long	0x45fe
 5998 45fa 0E460000 		.long	0x460e
 5999 45fe 19       		.uleb128 0x19
 6000 45ff 32610000 		.long	0x6132
 6001 4603 0E       		.uleb128 0xe
 6002 4604 E0380000 		.long	0x38e0
 6003 4608 0E       		.uleb128 0xe
 6004 4609 844B0000 		.long	0x4b84
 6005 460d 00       		.byte	0
 6006 460e 30       		.uleb128 0x30
 6007 460f 5F4D5F65 		.ascii "_M_erase_at_end\0"
 6007      72617365 
 6007      5F61745F 
 6007      656E6400 
 6008 461f 02       		.byte	0x2
 6009 4620 9C05     		.word	0x59c
 6010 4622 5F5A4E53 		.ascii "_ZNSt6vectorI8ToppingsSaIS0_EE15_M_erase_at_endEPS0_\0"
 6010      74367665 
 6010      63746F72 
 6010      4938546F 
 6010      7070696E 
 6011 4657 02       		.byte	0x2
 6012 4658 60460000 		.long	0x4660
 6013 465c 6B460000 		.long	0x466b
 6014 4660 19       		.uleb128 0x19
 6015 4661 14610000 		.long	0x6114
 6016 4665 0E       		.uleb128 0xe
GAS LISTING C:\Users\NJLLMR~1\AppData\Local\Temp\cce8JzPW.s 			page 168


 6017 4666 80380000 		.long	0x3880
 6018 466a 00       		.byte	0
 6019 466b 31       		.uleb128 0x31
 6020 466c 87000000 		.secrel32	LASF43
 6021 4670 15       		.byte	0x15
 6022 4671 8D       		.byte	0x8d
 6023 4672 5F5A4E53 		.ascii "_ZNSt6vectorI8ToppingsSaIS0_EE8_M_eraseEN9__gnu_cxx17__normal_iteratorIPS0_S2_EE\0"
 6023      74367665 
 6023      63746F72 
 6023      4938546F 
 6023      7070696E 
 6024 46c3 B0380000 		.long	0x38b0
 6025 46c7 02       		.byte	0x2
 6026 46c8 D0460000 		.long	0x46d0
 6027 46cc DB460000 		.long	0x46db
 6028 46d0 19       		.uleb128 0x19
 6029 46d1 14610000 		.long	0x6114
 6030 46d5 0E       		.uleb128 0xe
 6031 46d6 B0380000 		.long	0x38b0
 6032 46da 00       		.byte	0
 6033 46db 31       		.uleb128 0x31
 6034 46dc 87000000 		.secrel32	LASF43
 6035 46e0 15       		.byte	0x15
 6036 46e1 99       		.byte	0x99
 6037 46e2 5F5A4E53 		.ascii "_ZNSt6vectorI8ToppingsSaIS0_EE8_M_eraseEN9__gnu_cxx17__normal_iteratorIPS0_S2_EES6_\0"
 6037      74367665 
 6037      63746F72 
 6037      4938546F 
 6037      7070696E 
 6038 4736 B0380000 		.long	0x38b0
 6039 473a 02       		.byte	0x2
 6040 473b 43470000 		.long	0x4743
 6041 473f 53470000 		.long	0x4753
 6042 4743 19       		.uleb128 0x19
 6043 4744 14610000 		.long	0x6114
 6044 4748 0E       		.uleb128 0xe
 6045 4749 B0380000 		.long	0x38b0
 6046 474d 0E       		.uleb128 0xe
 6047 474e B0380000 		.long	0x38b0
 6048 4752 00       		.byte	0
 6049 4753 32       		.uleb128 0x32
 6050 4754 5F547000 		.ascii "_Tp\0"
 6051 4758 A5600000 		.long	0x60a5
 6052 475c 34       		.uleb128 0x34
 6053 475d 6D010000 		.secrel32	LASF35
 6054 4761 F1320000 		.long	0x32f1
 6055 4765 00       		.byte	0
 6056 4766 35       		.uleb128 0x35
 6057 4767 72657665 		.ascii "reverse_iterator<__gnu_cxx::__normal_iterator<const Toppings*, std::vector<Toppings, std::
 6057      7273655F 
 6057      69746572 
 6057      61746F72 
 6057      3C5F5F67 
 6058 47db 35       		.uleb128 0x35
 6059 47dc 72657665 		.ascii "reverse_iterator<__gnu_cxx::__normal_iterator<Toppings*, std::vector<Toppings, std::alloca
 6059      7273655F 
 6059      69746572 
GAS LISTING C:\Users\NJLLMR~1\AppData\Local\Temp\cce8JzPW.s 			page 169


 6059      61746F72 
 6059      3C5F5F67 
 6060 484a 0F       		.uleb128 0xf
 6061 484b 0F380000 		.long	0x380f
 6062 484f 06       		.uleb128 0x6
 6063 4850 5F446573 		.ascii "_Destroy_aux<false>\0"
 6063      74726F79 
 6063      5F617578 
 6063      3C66616C 
 6063      73653E00 
 6064 4864 01       		.byte	0x1
 6065 4865 03       		.byte	0x3
 6066 4866 60       		.byte	0x60
 6067 4867 CF480000 		.long	0x48cf
 6068 486b 4A       		.uleb128 0x4a
 6069 486c 5F5F6465 		.ascii "__destroy<Toppings*>\0"
 6069      7374726F 
 6069      793C546F 
 6069      7070696E 
 6069      67732A3E 
 6070 4881 03       		.byte	0x3
 6071 4882 64       		.byte	0x64
 6072 4883 5F5A4E53 		.ascii "_ZNSt12_Destroy_auxILb0EE9__destroyIP8ToppingsEEvT_S4_\0"
 6072      7431325F 
 6072      44657374 
 6072      726F795F 
 6072      61757849 
 6073 48ba 48       		.uleb128 0x48
 6074 48bb 6F020000 		.secrel32	LASF44
 6075 48bf 9F600000 		.long	0x609f
 6076 48c3 0E       		.uleb128 0xe
 6077 48c4 9F600000 		.long	0x609f
 6078 48c8 0E       		.uleb128 0xe
 6079 48c9 9F600000 		.long	0x609f
 6080 48cd 00       		.byte	0
 6081 48ce 00       		.byte	0
 6082 48cf 4B       		.uleb128 0x4b
 6083 48d0 5F446573 		.ascii "_Destroy<Toppings*, Toppings>\0"
 6083      74726F79 
 6083      3C546F70 
 6083      70696E67 
 6083      732A2C20 
 6084 48ee 03       		.byte	0x3
 6085 48ef 94       		.byte	0x94
 6086 48f0 5F5A5374 		.ascii "_ZSt8_DestroyIP8ToppingsS0_EvT_S2_RSaIT0_E\0"
 6086      385F4465 
 6086      7374726F 
 6086      79495038 
 6086      546F7070 
 6087 491b 41490000 		.long	0x4941
 6088 491f 48       		.uleb128 0x48
 6089 4920 6F020000 		.secrel32	LASF44
 6090 4924 9F600000 		.long	0x609f
 6091 4928 32       		.uleb128 0x32
 6092 4929 5F547000 		.ascii "_Tp\0"
 6093 492d A5600000 		.long	0x60a5
 6094 4931 0E       		.uleb128 0xe
GAS LISTING C:\Users\NJLLMR~1\AppData\Local\Temp\cce8JzPW.s 			page 170


 6095 4932 9F600000 		.long	0x609f
 6096 4936 0E       		.uleb128 0xe
 6097 4937 9F600000 		.long	0x609f
 6098 493b 0E       		.uleb128 0xe
 6099 493c E4600000 		.long	0x60e4
 6100 4940 00       		.byte	0
 6101 4941 4B       		.uleb128 0x4b
 6102 4942 5F446573 		.ascii "_Destroy<Toppings*>\0"
 6102      74726F79 
 6102      3C546F70 
 6102      70696E67 
 6102      732A3E00 
 6103 4956 03       		.byte	0x3
 6104 4957 7A       		.byte	0x7a
 6105 4958 5F5A5374 		.ascii "_ZSt8_DestroyIP8ToppingsEvT_S2_\0"
 6105      385F4465 
 6105      7374726F 
 6105      79495038 
 6105      546F7070 
 6106 4978 90490000 		.long	0x4990
 6107 497c 48       		.uleb128 0x48
 6108 497d 6F020000 		.secrel32	LASF44
 6109 4981 9F600000 		.long	0x609f
 6110 4985 0E       		.uleb128 0xe
 6111 4986 9F600000 		.long	0x609f
 6112 498a 0E       		.uleb128 0xe
 6113 498b 9F600000 		.long	0x609f
 6114 498f 00       		.byte	0
 6115 4990 10       		.uleb128 0x10
 6116 4991 5F5F6164 		.ascii "__addressof<Toppings>\0"
 6116      64726573 
 6116      736F663C 
 6116      546F7070 
 6116      696E6773 
 6117 49a7 07       		.byte	0x7
 6118 49a8 2F       		.byte	0x2f
 6119 49a9 5F5A5374 		.ascii "_ZSt11__addressofI8ToppingsEPT_RS1_\0"
 6119      31315F5F 
 6119      61646472 
 6119      6573736F 
 6119      66493854 
 6120 49cd 9F600000 		.long	0x609f
 6121 49d1 E4490000 		.long	0x49e4
 6122 49d5 32       		.uleb128 0x32
 6123 49d6 5F547000 		.ascii "_Tp\0"
 6124 49da A5600000 		.long	0x60a5
 6125 49de 0E       		.uleb128 0xe
 6126 49df BA600000 		.long	0x60ba
 6127 49e3 00       		.byte	0
 6128 49e4 4B       		.uleb128 0x4b
 6129 49e5 5F446573 		.ascii "_Destroy<Toppings>\0"
 6129      74726F79 
 6129      3C546F70 
 6129      70696E67 
 6129      733E00
 6130 49f8 03       		.byte	0x3
 6131 49f9 5C       		.byte	0x5c
GAS LISTING C:\Users\NJLLMR~1\AppData\Local\Temp\cce8JzPW.s 			page 171


 6132 49fa 5F5A5374 		.ascii "_ZSt8_DestroyI8ToppingsEvPT_\0"
 6132      385F4465 
 6132      7374726F 
 6132      79493854 
 6132      6F707069 
 6133 4a17 2A4A0000 		.long	0x4a2a
 6134 4a1b 32       		.uleb128 0x32
 6135 4a1c 5F547000 		.ascii "_Tp\0"
 6136 4a20 A5600000 		.long	0x60a5
 6137 4a24 0E       		.uleb128 0xe
 6138 4a25 9F600000 		.long	0x609f
 6139 4a29 00       		.byte	0
 6140 4a2a 4C       		.uleb128 0x4c
 6141 4a2b 5F5F696F 		.ascii "__ioinit\0"
 6141      696E6974 
 6141      00
 6142 4a34 08       		.byte	0x8
 6143 4a35 4A       		.byte	0x4a
 6144 4a36 DF2F0000 		.long	0x2fdf
 6145 4a3a 00       		.byte	0
 6146 4a3b 4D       		.uleb128 0x4d
 6147 4a3c 62746F77 		.ascii "btowc\0"
 6147      6300
 6148 4a42 0B       		.byte	0xb
 6149 4a43 2901     		.word	0x129
 6150 4a45 0D010000 		.long	0x10d
 6151 4a49 534A0000 		.long	0x4a53
 6152 4a4d 0E       		.uleb128 0xe
 6153 4a4e 7E010000 		.long	0x17e
 6154 4a52 00       		.byte	0
 6155 4a53 4E       		.uleb128 0x4e
 6156 4a54 66676574 		.ascii "fgetwc\0"
 6156      776300
 6157 4a5b 0B       		.byte	0xb
 6158 4a5c 70       		.byte	0x70
 6159 4a5d 0D010000 		.long	0x10d
 6160 4a61 6B4A0000 		.long	0x4a6b
 6161 4a65 0E       		.uleb128 0xe
 6162 4a66 6B4A0000 		.long	0x4a6b
 6163 4a6a 00       		.byte	0
 6164 4a6b 08       		.uleb128 0x8
 6165 4a6c 04       		.byte	0x4
 6166 4a6d 3C020000 		.long	0x23c
 6167 4a71 4E       		.uleb128 0x4e
 6168 4a72 66676574 		.ascii "fgetws\0"
 6168      777300
 6169 4a79 0B       		.byte	0xb
 6170 4a7a 7B       		.byte	0x7b
 6171 4a7b 934A0000 		.long	0x4a93
 6172 4a7f 934A0000 		.long	0x4a93
 6173 4a83 0E       		.uleb128 0xe
 6174 4a84 934A0000 		.long	0x4a93
 6175 4a88 0E       		.uleb128 0xe
 6176 4a89 7E010000 		.long	0x17e
 6177 4a8d 0E       		.uleb128 0xe
 6178 4a8e 6B4A0000 		.long	0x4a6b
 6179 4a92 00       		.byte	0
GAS LISTING C:\Users\NJLLMR~1\AppData\Local\Temp\cce8JzPW.s 			page 172


 6180 4a93 08       		.uleb128 0x8
 6181 4a94 04       		.byte	0x4
 6182 4a95 62010000 		.long	0x162
 6183 4a99 4E       		.uleb128 0x4e
 6184 4a9a 66707574 		.ascii "fputwc\0"
 6184      776300
 6185 4aa1 0B       		.byte	0xb
 6186 4aa2 71       		.byte	0x71
 6187 4aa3 0D010000 		.long	0x10d
 6188 4aa7 B64A0000 		.long	0x4ab6
 6189 4aab 0E       		.uleb128 0xe
 6190 4aac 62010000 		.long	0x162
 6191 4ab0 0E       		.uleb128 0xe
 6192 4ab1 6B4A0000 		.long	0x4a6b
 6193 4ab5 00       		.byte	0
 6194 4ab6 4E       		.uleb128 0x4e
 6195 4ab7 66707574 		.ascii "fputws\0"
 6195      777300
 6196 4abe 0B       		.byte	0xb
 6197 4abf 7C       		.byte	0x7c
 6198 4ac0 7E010000 		.long	0x17e
 6199 4ac4 D34A0000 		.long	0x4ad3
 6200 4ac8 0E       		.uleb128 0xe
 6201 4ac9 D34A0000 		.long	0x4ad3
 6202 4acd 0E       		.uleb128 0xe
 6203 4ace 6B4A0000 		.long	0x4a6b
 6204 4ad2 00       		.byte	0
 6205 4ad3 08       		.uleb128 0x8
 6206 4ad4 04       		.byte	0x4
 6207 4ad5 D94A0000 		.long	0x4ad9
 6208 4ad9 0F       		.uleb128 0xf
 6209 4ada 62010000 		.long	0x162
 6210 4ade 4D       		.uleb128 0x4d
 6211 4adf 66776964 		.ascii "fwide\0"
 6211      6500
 6212 4ae5 0B       		.byte	0xb
 6213 4ae6 3701     		.word	0x137
 6214 4ae8 7E010000 		.long	0x17e
 6215 4aec FB4A0000 		.long	0x4afb
 6216 4af0 0E       		.uleb128 0xe
 6217 4af1 6B4A0000 		.long	0x4a6b
 6218 4af5 0E       		.uleb128 0xe
 6219 4af6 7E010000 		.long	0x17e
 6220 4afa 00       		.byte	0
 6221 4afb 4E       		.uleb128 0x4e
 6222 4afc 66777072 		.ascii "fwprintf\0"
 6222      696E7466 
 6222      00
 6223 4b05 0B       		.byte	0xb
 6224 4b06 67       		.byte	0x67
 6225 4b07 7E010000 		.long	0x17e
 6226 4b0b 1B4B0000 		.long	0x4b1b
 6227 4b0f 0E       		.uleb128 0xe
 6228 4b10 6B4A0000 		.long	0x4a6b
 6229 4b14 0E       		.uleb128 0xe
 6230 4b15 D34A0000 		.long	0x4ad3
 6231 4b19 4F       		.uleb128 0x4f
GAS LISTING C:\Users\NJLLMR~1\AppData\Local\Temp\cce8JzPW.s 			page 173


 6232 4b1a 00       		.byte	0
 6233 4b1b 4E       		.uleb128 0x4e
 6234 4b1c 66777363 		.ascii "fwscanf\0"
 6234      616E6600 
 6235 4b24 0B       		.byte	0xb
 6236 4b25 6D       		.byte	0x6d
 6237 4b26 7E010000 		.long	0x17e
 6238 4b2a 3A4B0000 		.long	0x4b3a
 6239 4b2e 0E       		.uleb128 0xe
 6240 4b2f 6B4A0000 		.long	0x4a6b
 6241 4b33 0E       		.uleb128 0xe
 6242 4b34 D34A0000 		.long	0x4ad3
 6243 4b38 4F       		.uleb128 0x4f
 6244 4b39 00       		.byte	0
 6245 4b3a 4E       		.uleb128 0x4e
 6246 4b3b 67657477 		.ascii "getwc\0"
 6246      6300
 6247 4b41 0B       		.byte	0xb
 6248 4b42 7D       		.byte	0x7d
 6249 4b43 0D010000 		.long	0x10d
 6250 4b47 514B0000 		.long	0x4b51
 6251 4b4b 0E       		.uleb128 0xe
 6252 4b4c 6B4A0000 		.long	0x4a6b
 6253 4b50 00       		.byte	0
 6254 4b51 50       		.uleb128 0x50
 6255 4b52 67657477 		.ascii "getwchar\0"
 6255      63686172 
 6255      00
 6256 4b5b 0B       		.byte	0xb
 6257 4b5c 7E       		.byte	0x7e
 6258 4b5d 0D010000 		.long	0x10d
 6259 4b61 4D       		.uleb128 0x4d
 6260 4b62 6D62726C 		.ascii "mbrlen\0"
 6260      656E00
 6261 4b69 0B       		.byte	0xb
 6262 4b6a 2A01     		.word	0x12a
 6263 4b6c EF000000 		.long	0xef
 6264 4b70 844B0000 		.long	0x4b84
 6265 4b74 0E       		.uleb128 0xe
 6266 4b75 844B0000 		.long	0x4b84
 6267 4b79 0E       		.uleb128 0xe
 6268 4b7a EF000000 		.long	0xef
 6269 4b7e 0E       		.uleb128 0xe
 6270 4b7f 8F4B0000 		.long	0x4b8f
 6271 4b83 00       		.byte	0
 6272 4b84 08       		.uleb128 0x8
 6273 4b85 04       		.byte	0x4
 6274 4b86 8A4B0000 		.long	0x4b8a
 6275 4b8a 0F       		.uleb128 0xf
 6276 4b8b 4A010000 		.long	0x14a
 6277 4b8f 08       		.uleb128 0x8
 6278 4b90 04       		.byte	0x4
 6279 4b91 E2020000 		.long	0x2e2
 6280 4b95 4D       		.uleb128 0x4d
 6281 4b96 6D627274 		.ascii "mbrtowc\0"
 6281      6F776300 
 6282 4b9e 0B       		.byte	0xb
GAS LISTING C:\Users\NJLLMR~1\AppData\Local\Temp\cce8JzPW.s 			page 174


 6283 4b9f 2C01     		.word	0x12c
 6284 4ba1 EF000000 		.long	0xef
 6285 4ba5 BE4B0000 		.long	0x4bbe
 6286 4ba9 0E       		.uleb128 0xe
 6287 4baa 934A0000 		.long	0x4a93
 6288 4bae 0E       		.uleb128 0xe
 6289 4baf 844B0000 		.long	0x4b84
 6290 4bb3 0E       		.uleb128 0xe
 6291 4bb4 EF000000 		.long	0xef
 6292 4bb8 0E       		.uleb128 0xe
 6293 4bb9 8F4B0000 		.long	0x4b8f
 6294 4bbd 00       		.byte	0
 6295 4bbe 4D       		.uleb128 0x4d
 6296 4bbf 6D627369 		.ascii "mbsinit\0"
 6296      6E697400 
 6297 4bc7 0B       		.byte	0xb
 6298 4bc8 3801     		.word	0x138
 6299 4bca 7E010000 		.long	0x17e
 6300 4bce D84B0000 		.long	0x4bd8
 6301 4bd2 0E       		.uleb128 0xe
 6302 4bd3 D84B0000 		.long	0x4bd8
 6303 4bd7 00       		.byte	0
 6304 4bd8 08       		.uleb128 0x8
 6305 4bd9 04       		.byte	0x4
 6306 4bda DE4B0000 		.long	0x4bde
 6307 4bde 0F       		.uleb128 0xf
 6308 4bdf E2020000 		.long	0x2e2
 6309 4be3 4D       		.uleb128 0x4d
 6310 4be4 6D627372 		.ascii "mbsrtowcs\0"
 6310      746F7763 
 6310      7300
 6311 4bee 0B       		.byte	0xb
 6312 4bef 2E01     		.word	0x12e
 6313 4bf1 EF000000 		.long	0xef
 6314 4bf5 0E4C0000 		.long	0x4c0e
 6315 4bf9 0E       		.uleb128 0xe
 6316 4bfa 934A0000 		.long	0x4a93
 6317 4bfe 0E       		.uleb128 0xe
 6318 4bff 0E4C0000 		.long	0x4c0e
 6319 4c03 0E       		.uleb128 0xe
 6320 4c04 EF000000 		.long	0xef
 6321 4c08 0E       		.uleb128 0xe
 6322 4c09 8F4B0000 		.long	0x4b8f
 6323 4c0d 00       		.byte	0
 6324 4c0e 08       		.uleb128 0x8
 6325 4c0f 04       		.byte	0x4
 6326 4c10 844B0000 		.long	0x4b84
 6327 4c14 4E       		.uleb128 0x4e
 6328 4c15 70757477 		.ascii "putwc\0"
 6328      6300
 6329 4c1b 0B       		.byte	0xb
 6330 4c1c 7F       		.byte	0x7f
 6331 4c1d 0D010000 		.long	0x10d
 6332 4c21 304C0000 		.long	0x4c30
 6333 4c25 0E       		.uleb128 0xe
 6334 4c26 0D010000 		.long	0x10d
 6335 4c2a 0E       		.uleb128 0xe
GAS LISTING C:\Users\NJLLMR~1\AppData\Local\Temp\cce8JzPW.s 			page 175


 6336 4c2b 6B4A0000 		.long	0x4a6b
 6337 4c2f 00       		.byte	0
 6338 4c30 4E       		.uleb128 0x4e
 6339 4c31 70757477 		.ascii "putwchar\0"
 6339      63686172 
 6339      00
 6340 4c3a 0B       		.byte	0xb
 6341 4c3b 80       		.byte	0x80
 6342 4c3c 0D010000 		.long	0x10d
 6343 4c40 4A4C0000 		.long	0x4c4a
 6344 4c44 0E       		.uleb128 0xe
 6345 4c45 0D010000 		.long	0x10d
 6346 4c49 00       		.byte	0
 6347 4c4a 4E       		.uleb128 0x4e
 6348 4c4b 73777363 		.ascii "swscanf\0"
 6348      616E6600 
 6349 4c53 0B       		.byte	0xb
 6350 4c54 6F       		.byte	0x6f
 6351 4c55 7E010000 		.long	0x17e
 6352 4c59 694C0000 		.long	0x4c69
 6353 4c5d 0E       		.uleb128 0xe
 6354 4c5e D34A0000 		.long	0x4ad3
 6355 4c62 0E       		.uleb128 0xe
 6356 4c63 D34A0000 		.long	0x4ad3
 6357 4c67 4F       		.uleb128 0x4f
 6358 4c68 00       		.byte	0
 6359 4c69 4E       		.uleb128 0x4e
 6360 4c6a 756E6765 		.ascii "ungetwc\0"
 6360      74776300 
 6361 4c72 0B       		.byte	0xb
 6362 4c73 72       		.byte	0x72
 6363 4c74 0D010000 		.long	0x10d
 6364 4c78 874C0000 		.long	0x4c87
 6365 4c7c 0E       		.uleb128 0xe
 6366 4c7d 62010000 		.long	0x162
 6367 4c81 0E       		.uleb128 0xe
 6368 4c82 6B4A0000 		.long	0x4a6b
 6369 4c86 00       		.byte	0
 6370 4c87 4E       		.uleb128 0x4e
 6371 4c88 76667770 		.ascii "vfwprintf\0"
 6371      72696E74 
 6371      6600
 6372 4c92 0B       		.byte	0xb
 6373 4c93 6A       		.byte	0x6a
 6374 4c94 7E010000 		.long	0x17e
 6375 4c98 AC4C0000 		.long	0x4cac
 6376 4c9c 0E       		.uleb128 0xe
 6377 4c9d 6B4A0000 		.long	0x4a6b
 6378 4ca1 0E       		.uleb128 0xe
 6379 4ca2 D34A0000 		.long	0x4ad3
 6380 4ca6 0E       		.uleb128 0xe
 6381 4ca7 32010000 		.long	0x132
 6382 4cab 00       		.byte	0
 6383 4cac 4E       		.uleb128 0x4e
 6384 4cad 76667773 		.ascii "vfwscanf\0"
 6384      63616E66 
 6384      00
GAS LISTING C:\Users\NJLLMR~1\AppData\Local\Temp\cce8JzPW.s 			page 176


 6385 4cb6 0B       		.byte	0xb
 6386 4cb7 9A       		.byte	0x9a
 6387 4cb8 7E010000 		.long	0x17e
 6388 4cbc D04C0000 		.long	0x4cd0
 6389 4cc0 0E       		.uleb128 0xe
 6390 4cc1 6B4A0000 		.long	0x4a6b
 6391 4cc5 0E       		.uleb128 0xe
 6392 4cc6 D34A0000 		.long	0x4ad3
 6393 4cca 0E       		.uleb128 0xe
 6394 4ccb 32010000 		.long	0x132
 6395 4ccf 00       		.byte	0
 6396 4cd0 4E       		.uleb128 0x4e
 6397 4cd1 76737773 		.ascii "vswscanf\0"
 6397      63616E66 
 6397      00
 6398 4cda 0B       		.byte	0xb
 6399 4cdb 9C       		.byte	0x9c
 6400 4cdc 7E010000 		.long	0x17e
 6401 4ce0 F44C0000 		.long	0x4cf4
 6402 4ce4 0E       		.uleb128 0xe
 6403 4ce5 D34A0000 		.long	0x4ad3
 6404 4ce9 0E       		.uleb128 0xe
 6405 4cea D34A0000 		.long	0x4ad3
 6406 4cee 0E       		.uleb128 0xe
 6407 4cef 32010000 		.long	0x132
 6408 4cf3 00       		.byte	0
 6409 4cf4 4E       		.uleb128 0x4e
 6410 4cf5 76777072 		.ascii "vwprintf\0"
 6410      696E7466 
 6410      00
 6411 4cfe 0B       		.byte	0xb
 6412 4cff 6B       		.byte	0x6b
 6413 4d00 7E010000 		.long	0x17e
 6414 4d04 134D0000 		.long	0x4d13
 6415 4d08 0E       		.uleb128 0xe
 6416 4d09 D34A0000 		.long	0x4ad3
 6417 4d0d 0E       		.uleb128 0xe
 6418 4d0e 32010000 		.long	0x132
 6419 4d12 00       		.byte	0
 6420 4d13 4E       		.uleb128 0x4e
 6421 4d14 76777363 		.ascii "vwscanf\0"
 6421      616E6600 
 6422 4d1c 0B       		.byte	0xb
 6423 4d1d 99       		.byte	0x99
 6424 4d1e 7E010000 		.long	0x17e
 6425 4d22 314D0000 		.long	0x4d31
 6426 4d26 0E       		.uleb128 0xe
 6427 4d27 D34A0000 		.long	0x4ad3
 6428 4d2b 0E       		.uleb128 0xe
 6429 4d2c 32010000 		.long	0x132
 6430 4d30 00       		.byte	0
 6431 4d31 4D       		.uleb128 0x4d
 6432 4d32 77637274 		.ascii "wcrtomb\0"
 6432      6F6D6200 
 6433 4d3a 0B       		.byte	0xb
 6434 4d3b 3001     		.word	0x130
 6435 4d3d EF000000 		.long	0xef
GAS LISTING C:\Users\NJLLMR~1\AppData\Local\Temp\cce8JzPW.s 			page 177


 6436 4d41 554D0000 		.long	0x4d55
 6437 4d45 0E       		.uleb128 0xe
 6438 4d46 36020000 		.long	0x236
 6439 4d4a 0E       		.uleb128 0xe
 6440 4d4b 62010000 		.long	0x162
 6441 4d4f 0E       		.uleb128 0xe
 6442 4d50 8F4B0000 		.long	0x4b8f
 6443 4d54 00       		.byte	0
 6444 4d55 4E       		.uleb128 0x4e
 6445 4d56 77637363 		.ascii "wcscat\0"
 6445      617400
 6446 4d5d 0B       		.byte	0xb
 6447 4d5e D9       		.byte	0xd9
 6448 4d5f 934A0000 		.long	0x4a93
 6449 4d63 724D0000 		.long	0x4d72
 6450 4d67 0E       		.uleb128 0xe
 6451 4d68 934A0000 		.long	0x4a93
 6452 4d6c 0E       		.uleb128 0xe
 6453 4d6d D34A0000 		.long	0x4ad3
 6454 4d71 00       		.byte	0
 6455 4d72 4E       		.uleb128 0x4e
 6456 4d73 77637363 		.ascii "wcscmp\0"
 6456      6D7000
 6457 4d7a 0B       		.byte	0xb
 6458 4d7b DB       		.byte	0xdb
 6459 4d7c 7E010000 		.long	0x17e
 6460 4d80 8F4D0000 		.long	0x4d8f
 6461 4d84 0E       		.uleb128 0xe
 6462 4d85 D34A0000 		.long	0x4ad3
 6463 4d89 0E       		.uleb128 0xe
 6464 4d8a D34A0000 		.long	0x4ad3
 6465 4d8e 00       		.byte	0
 6466 4d8f 4E       		.uleb128 0x4e
 6467 4d90 77637363 		.ascii "wcscoll\0"
 6467      6F6C6C00 
 6468 4d98 0B       		.byte	0xb
 6469 4d99 DC       		.byte	0xdc
 6470 4d9a 7E010000 		.long	0x17e
 6471 4d9e AD4D0000 		.long	0x4dad
 6472 4da2 0E       		.uleb128 0xe
 6473 4da3 D34A0000 		.long	0x4ad3
 6474 4da7 0E       		.uleb128 0xe
 6475 4da8 D34A0000 		.long	0x4ad3
 6476 4dac 00       		.byte	0
 6477 4dad 4E       		.uleb128 0x4e
 6478 4dae 77637363 		.ascii "wcscpy\0"
 6478      707900
 6479 4db5 0B       		.byte	0xb
 6480 4db6 DD       		.byte	0xdd
 6481 4db7 934A0000 		.long	0x4a93
 6482 4dbb CA4D0000 		.long	0x4dca
 6483 4dbf 0E       		.uleb128 0xe
 6484 4dc0 934A0000 		.long	0x4a93
 6485 4dc4 0E       		.uleb128 0xe
 6486 4dc5 D34A0000 		.long	0x4ad3
 6487 4dc9 00       		.byte	0
 6488 4dca 4E       		.uleb128 0x4e
GAS LISTING C:\Users\NJLLMR~1\AppData\Local\Temp\cce8JzPW.s 			page 178


 6489 4dcb 77637363 		.ascii "wcscspn\0"
 6489      73706E00 
 6490 4dd3 0B       		.byte	0xb
 6491 4dd4 DE       		.byte	0xde
 6492 4dd5 EF000000 		.long	0xef
 6493 4dd9 E84D0000 		.long	0x4de8
 6494 4ddd 0E       		.uleb128 0xe
 6495 4dde D34A0000 		.long	0x4ad3
 6496 4de2 0E       		.uleb128 0xe
 6497 4de3 D34A0000 		.long	0x4ad3
 6498 4de7 00       		.byte	0
 6499 4de8 4E       		.uleb128 0x4e
 6500 4de9 77637366 		.ascii "wcsftime\0"
 6500      74696D65 
 6500      00
 6501 4df2 0B       		.byte	0xb
 6502 4df3 CF       		.byte	0xcf
 6503 4df4 EF000000 		.long	0xef
 6504 4df8 114E0000 		.long	0x4e11
 6505 4dfc 0E       		.uleb128 0xe
 6506 4dfd 934A0000 		.long	0x4a93
 6507 4e01 0E       		.uleb128 0xe
 6508 4e02 EF000000 		.long	0xef
 6509 4e06 0E       		.uleb128 0xe
 6510 4e07 D34A0000 		.long	0x4ad3
 6511 4e0b 0E       		.uleb128 0xe
 6512 4e0c 114E0000 		.long	0x4e11
 6513 4e10 00       		.byte	0
 6514 4e11 08       		.uleb128 0x8
 6515 4e12 04       		.byte	0x4
 6516 4e13 174E0000 		.long	0x4e17
 6517 4e17 0F       		.uleb128 0xf
 6518 4e18 48020000 		.long	0x248
 6519 4e1c 4E       		.uleb128 0x4e
 6520 4e1d 7763736C 		.ascii "wcslen\0"
 6520      656E00
 6521 4e24 0B       		.byte	0xb
 6522 4e25 E0       		.byte	0xe0
 6523 4e26 EF000000 		.long	0xef
 6524 4e2a 344E0000 		.long	0x4e34
 6525 4e2e 0E       		.uleb128 0xe
 6526 4e2f D34A0000 		.long	0x4ad3
 6527 4e33 00       		.byte	0
 6528 4e34 4E       		.uleb128 0x4e
 6529 4e35 7763736E 		.ascii "wcsncat\0"
 6529      63617400 
 6530 4e3d 0B       		.byte	0xb
 6531 4e3e E1       		.byte	0xe1
 6532 4e3f 934A0000 		.long	0x4a93
 6533 4e43 574E0000 		.long	0x4e57
 6534 4e47 0E       		.uleb128 0xe
 6535 4e48 934A0000 		.long	0x4a93
 6536 4e4c 0E       		.uleb128 0xe
 6537 4e4d D34A0000 		.long	0x4ad3
 6538 4e51 0E       		.uleb128 0xe
 6539 4e52 EF000000 		.long	0xef
 6540 4e56 00       		.byte	0
GAS LISTING C:\Users\NJLLMR~1\AppData\Local\Temp\cce8JzPW.s 			page 179


 6541 4e57 4E       		.uleb128 0x4e
 6542 4e58 7763736E 		.ascii "wcsncmp\0"
 6542      636D7000 
 6543 4e60 0B       		.byte	0xb
 6544 4e61 E2       		.byte	0xe2
 6545 4e62 7E010000 		.long	0x17e
 6546 4e66 7A4E0000 		.long	0x4e7a
 6547 4e6a 0E       		.uleb128 0xe
 6548 4e6b D34A0000 		.long	0x4ad3
 6549 4e6f 0E       		.uleb128 0xe
 6550 4e70 D34A0000 		.long	0x4ad3
 6551 4e74 0E       		.uleb128 0xe
 6552 4e75 EF000000 		.long	0xef
 6553 4e79 00       		.byte	0
 6554 4e7a 4E       		.uleb128 0x4e
 6555 4e7b 7763736E 		.ascii "wcsncpy\0"
 6555      63707900 
 6556 4e83 0B       		.byte	0xb
 6557 4e84 E3       		.byte	0xe3
 6558 4e85 934A0000 		.long	0x4a93
 6559 4e89 9D4E0000 		.long	0x4e9d
 6560 4e8d 0E       		.uleb128 0xe
 6561 4e8e 934A0000 		.long	0x4a93
 6562 4e92 0E       		.uleb128 0xe
 6563 4e93 D34A0000 		.long	0x4ad3
 6564 4e97 0E       		.uleb128 0xe
 6565 4e98 EF000000 		.long	0xef
 6566 4e9c 00       		.byte	0
 6567 4e9d 4D       		.uleb128 0x4d
 6568 4e9e 77637372 		.ascii "wcsrtombs\0"
 6568      746F6D62 
 6568      7300
 6569 4ea8 0B       		.byte	0xb
 6570 4ea9 3201     		.word	0x132
 6571 4eab EF000000 		.long	0xef
 6572 4eaf C84E0000 		.long	0x4ec8
 6573 4eb3 0E       		.uleb128 0xe
 6574 4eb4 36020000 		.long	0x236
 6575 4eb8 0E       		.uleb128 0xe
 6576 4eb9 C84E0000 		.long	0x4ec8
 6577 4ebd 0E       		.uleb128 0xe
 6578 4ebe EF000000 		.long	0xef
 6579 4ec2 0E       		.uleb128 0xe
 6580 4ec3 8F4B0000 		.long	0x4b8f
 6581 4ec7 00       		.byte	0
 6582 4ec8 08       		.uleb128 0x8
 6583 4ec9 04       		.byte	0x4
 6584 4eca D34A0000 		.long	0x4ad3
 6585 4ece 4E       		.uleb128 0x4e
 6586 4ecf 77637373 		.ascii "wcsspn\0"
 6586      706E00
 6587 4ed6 0B       		.byte	0xb
 6588 4ed7 E6       		.byte	0xe6
 6589 4ed8 EF000000 		.long	0xef
 6590 4edc EB4E0000 		.long	0x4eeb
 6591 4ee0 0E       		.uleb128 0xe
 6592 4ee1 D34A0000 		.long	0x4ad3
GAS LISTING C:\Users\NJLLMR~1\AppData\Local\Temp\cce8JzPW.s 			page 180


 6593 4ee5 0E       		.uleb128 0xe
 6594 4ee6 D34A0000 		.long	0x4ad3
 6595 4eea 00       		.byte	0
 6596 4eeb 4E       		.uleb128 0x4e
 6597 4eec 77637374 		.ascii "wcstod\0"
 6597      6F6400
 6598 4ef3 0B       		.byte	0xb
 6599 4ef4 A6       		.byte	0xa6
 6600 4ef5 084F0000 		.long	0x4f08
 6601 4ef9 084F0000 		.long	0x4f08
 6602 4efd 0E       		.uleb128 0xe
 6603 4efe D34A0000 		.long	0x4ad3
 6604 4f02 0E       		.uleb128 0xe
 6605 4f03 124F0000 		.long	0x4f12
 6606 4f07 00       		.byte	0
 6607 4f08 03       		.uleb128 0x3
 6608 4f09 08       		.byte	0x8
 6609 4f0a 04       		.byte	0x4
 6610 4f0b 646F7562 		.ascii "double\0"
 6610      6C6500
 6611 4f12 08       		.uleb128 0x8
 6612 4f13 04       		.byte	0x4
 6613 4f14 934A0000 		.long	0x4a93
 6614 4f18 4E       		.uleb128 0x4e
 6615 4f19 77637374 		.ascii "wcstof\0"
 6615      6F6600
 6616 4f20 0B       		.byte	0xb
 6617 4f21 A8       		.byte	0xa8
 6618 4f22 354F0000 		.long	0x4f35
 6619 4f26 354F0000 		.long	0x4f35
 6620 4f2a 0E       		.uleb128 0xe
 6621 4f2b D34A0000 		.long	0x4ad3
 6622 4f2f 0E       		.uleb128 0xe
 6623 4f30 124F0000 		.long	0x4f12
 6624 4f34 00       		.byte	0
 6625 4f35 03       		.uleb128 0x3
 6626 4f36 04       		.byte	0x4
 6627 4f37 04       		.byte	0x4
 6628 4f38 666C6F61 		.ascii "float\0"
 6628      7400
 6629 4f3e 4E       		.uleb128 0x4e
 6630 4f3f 77637374 		.ascii "wcstok\0"
 6630      6F6B00
 6631 4f46 0B       		.byte	0xb
 6632 4f47 E8       		.byte	0xe8
 6633 4f48 934A0000 		.long	0x4a93
 6634 4f4c 5B4F0000 		.long	0x4f5b
 6635 4f50 0E       		.uleb128 0xe
 6636 4f51 934A0000 		.long	0x4a93
 6637 4f55 0E       		.uleb128 0xe
 6638 4f56 D34A0000 		.long	0x4ad3
 6639 4f5a 00       		.byte	0
 6640 4f5b 4E       		.uleb128 0x4e
 6641 4f5c 77637374 		.ascii "wcstol\0"
 6641      6F6C00
 6642 4f63 0B       		.byte	0xb
 6643 4f64 A4       		.byte	0xa4
GAS LISTING C:\Users\NJLLMR~1\AppData\Local\Temp\cce8JzPW.s 			page 181


 6644 4f65 85010000 		.long	0x185
 6645 4f69 7D4F0000 		.long	0x4f7d
 6646 4f6d 0E       		.uleb128 0xe
 6647 4f6e D34A0000 		.long	0x4ad3
 6648 4f72 0E       		.uleb128 0xe
 6649 4f73 124F0000 		.long	0x4f12
 6650 4f77 0E       		.uleb128 0xe
 6651 4f78 7E010000 		.long	0x17e
 6652 4f7c 00       		.byte	0
 6653 4f7d 4E       		.uleb128 0x4e
 6654 4f7e 77637374 		.ascii "wcstoul\0"
 6654      6F756C00 
 6655 4f86 0B       		.byte	0xb
 6656 4f87 A5       		.byte	0xa5
 6657 4f88 F4020000 		.long	0x2f4
 6658 4f8c A04F0000 		.long	0x4fa0
 6659 4f90 0E       		.uleb128 0xe
 6660 4f91 D34A0000 		.long	0x4ad3
 6661 4f95 0E       		.uleb128 0xe
 6662 4f96 124F0000 		.long	0x4f12
 6663 4f9a 0E       		.uleb128 0xe
 6664 4f9b 7E010000 		.long	0x17e
 6665 4f9f 00       		.byte	0
 6666 4fa0 4E       		.uleb128 0x4e
 6667 4fa1 77637378 		.ascii "wcsxfrm\0"
 6667      66726D00 
 6668 4fa9 0B       		.byte	0xb
 6669 4faa E9       		.byte	0xe9
 6670 4fab EF000000 		.long	0xef
 6671 4faf C34F0000 		.long	0x4fc3
 6672 4fb3 0E       		.uleb128 0xe
 6673 4fb4 934A0000 		.long	0x4a93
 6674 4fb8 0E       		.uleb128 0xe
 6675 4fb9 D34A0000 		.long	0x4ad3
 6676 4fbd 0E       		.uleb128 0xe
 6677 4fbe EF000000 		.long	0xef
 6678 4fc2 00       		.byte	0
 6679 4fc3 4D       		.uleb128 0x4d
 6680 4fc4 7763746F 		.ascii "wctob\0"
 6680      6200
 6681 4fca 0B       		.byte	0xb
 6682 4fcb 3401     		.word	0x134
 6683 4fcd 7E010000 		.long	0x17e
 6684 4fd1 DB4F0000 		.long	0x4fdb
 6685 4fd5 0E       		.uleb128 0xe
 6686 4fd6 0D010000 		.long	0x10d
 6687 4fda 00       		.byte	0
 6688 4fdb 4D       		.uleb128 0x4d
 6689 4fdc 776D656D 		.ascii "wmemcmp\0"
 6689      636D7000 
 6690 4fe4 0B       		.byte	0xb
 6691 4fe5 4201     		.word	0x142
 6692 4fe7 7E010000 		.long	0x17e
 6693 4feb FF4F0000 		.long	0x4fff
 6694 4fef 0E       		.uleb128 0xe
 6695 4ff0 D34A0000 		.long	0x4ad3
 6696 4ff4 0E       		.uleb128 0xe
GAS LISTING C:\Users\NJLLMR~1\AppData\Local\Temp\cce8JzPW.s 			page 182


 6697 4ff5 D34A0000 		.long	0x4ad3
 6698 4ff9 0E       		.uleb128 0xe
 6699 4ffa EF000000 		.long	0xef
 6700 4ffe 00       		.byte	0
 6701 4fff 4D       		.uleb128 0x4d
 6702 5000 776D656D 		.ascii "wmemcpy\0"
 6702      63707900 
 6703 5008 0B       		.byte	0xb
 6704 5009 4301     		.word	0x143
 6705 500b 934A0000 		.long	0x4a93
 6706 500f 23500000 		.long	0x5023
 6707 5013 0E       		.uleb128 0xe
 6708 5014 934A0000 		.long	0x4a93
 6709 5018 0E       		.uleb128 0xe
 6710 5019 D34A0000 		.long	0x4ad3
 6711 501d 0E       		.uleb128 0xe
 6712 501e EF000000 		.long	0xef
 6713 5022 00       		.byte	0
 6714 5023 4D       		.uleb128 0x4d
 6715 5024 776D656D 		.ascii "wmemmove\0"
 6715      6D6F7665 
 6715      00
 6716 502d 0B       		.byte	0xb
 6717 502e 4601     		.word	0x146
 6718 5030 934A0000 		.long	0x4a93
 6719 5034 48500000 		.long	0x5048
 6720 5038 0E       		.uleb128 0xe
 6721 5039 934A0000 		.long	0x4a93
 6722 503d 0E       		.uleb128 0xe
 6723 503e D34A0000 		.long	0x4ad3
 6724 5042 0E       		.uleb128 0xe
 6725 5043 EF000000 		.long	0xef
 6726 5047 00       		.byte	0
 6727 5048 4D       		.uleb128 0x4d
 6728 5049 776D656D 		.ascii "wmemset\0"
 6728      73657400 
 6729 5051 0B       		.byte	0xb
 6730 5052 4001     		.word	0x140
 6731 5054 934A0000 		.long	0x4a93
 6732 5058 6C500000 		.long	0x506c
 6733 505c 0E       		.uleb128 0xe
 6734 505d 934A0000 		.long	0x4a93
 6735 5061 0E       		.uleb128 0xe
 6736 5062 62010000 		.long	0x162
 6737 5066 0E       		.uleb128 0xe
 6738 5067 EF000000 		.long	0xef
 6739 506b 00       		.byte	0
 6740 506c 4E       		.uleb128 0x4e
 6741 506d 77707269 		.ascii "wprintf\0"
 6741      6E746600 
 6742 5075 0B       		.byte	0xb
 6743 5076 68       		.byte	0x68
 6744 5077 7E010000 		.long	0x17e
 6745 507b 86500000 		.long	0x5086
 6746 507f 0E       		.uleb128 0xe
 6747 5080 D34A0000 		.long	0x4ad3
 6748 5084 4F       		.uleb128 0x4f
GAS LISTING C:\Users\NJLLMR~1\AppData\Local\Temp\cce8JzPW.s 			page 183


 6749 5085 00       		.byte	0
 6750 5086 4E       		.uleb128 0x4e
 6751 5087 77736361 		.ascii "wscanf\0"
 6751      6E6600
 6752 508e 0B       		.byte	0xb
 6753 508f 6E       		.byte	0x6e
 6754 5090 7E010000 		.long	0x17e
 6755 5094 9F500000 		.long	0x509f
 6756 5098 0E       		.uleb128 0xe
 6757 5099 D34A0000 		.long	0x4ad3
 6758 509d 4F       		.uleb128 0x4f
 6759 509e 00       		.byte	0
 6760 509f 4E       		.uleb128 0x4e
 6761 50a0 77637363 		.ascii "wcschr\0"
 6761      687200
 6762 50a7 0B       		.byte	0xb
 6763 50a8 DA       		.byte	0xda
 6764 50a9 934A0000 		.long	0x4a93
 6765 50ad BC500000 		.long	0x50bc
 6766 50b1 0E       		.uleb128 0xe
 6767 50b2 D34A0000 		.long	0x4ad3
 6768 50b6 0E       		.uleb128 0xe
 6769 50b7 62010000 		.long	0x162
 6770 50bb 00       		.byte	0
 6771 50bc 4E       		.uleb128 0x4e
 6772 50bd 77637370 		.ascii "wcspbrk\0"
 6772      62726B00 
 6773 50c5 0B       		.byte	0xb
 6774 50c6 E4       		.byte	0xe4
 6775 50c7 934A0000 		.long	0x4a93
 6776 50cb DA500000 		.long	0x50da
 6777 50cf 0E       		.uleb128 0xe
 6778 50d0 D34A0000 		.long	0x4ad3
 6779 50d4 0E       		.uleb128 0xe
 6780 50d5 D34A0000 		.long	0x4ad3
 6781 50d9 00       		.byte	0
 6782 50da 4E       		.uleb128 0x4e
 6783 50db 77637372 		.ascii "wcsrchr\0"
 6783      63687200 
 6784 50e3 0B       		.byte	0xb
 6785 50e4 E5       		.byte	0xe5
 6786 50e5 934A0000 		.long	0x4a93
 6787 50e9 F8500000 		.long	0x50f8
 6788 50ed 0E       		.uleb128 0xe
 6789 50ee D34A0000 		.long	0x4ad3
 6790 50f2 0E       		.uleb128 0xe
 6791 50f3 62010000 		.long	0x162
 6792 50f7 00       		.byte	0
 6793 50f8 4E       		.uleb128 0x4e
 6794 50f9 77637373 		.ascii "wcsstr\0"
 6794      747200
 6795 5100 0B       		.byte	0xb
 6796 5101 E7       		.byte	0xe7
 6797 5102 934A0000 		.long	0x4a93
 6798 5106 15510000 		.long	0x5115
 6799 510a 0E       		.uleb128 0xe
 6800 510b D34A0000 		.long	0x4ad3
GAS LISTING C:\Users\NJLLMR~1\AppData\Local\Temp\cce8JzPW.s 			page 184


 6801 510f 0E       		.uleb128 0xe
 6802 5110 D34A0000 		.long	0x4ad3
 6803 5114 00       		.byte	0
 6804 5115 4D       		.uleb128 0x4d
 6805 5116 776D656D 		.ascii "wmemchr\0"
 6805      63687200 
 6806 511e 0B       		.byte	0xb
 6807 511f 4101     		.word	0x141
 6808 5121 934A0000 		.long	0x4a93
 6809 5125 39510000 		.long	0x5139
 6810 5129 0E       		.uleb128 0xe
 6811 512a D34A0000 		.long	0x4ad3
 6812 512e 0E       		.uleb128 0xe
 6813 512f 62010000 		.long	0x162
 6814 5133 0E       		.uleb128 0xe
 6815 5134 EF000000 		.long	0xef
 6816 5138 00       		.byte	0
 6817 5139 09       		.uleb128 0x9
 6818 513a 5F5F676E 		.ascii "__gnu_cxx\0"
 6818      755F6378 
 6818      7800
 6819 5144 0C       		.byte	0xc
 6820 5145 F2       		.byte	0xf2
 6821 5146 005D0000 		.long	0x5d00
 6822 514a 0A       		.uleb128 0xa
 6823 514b 0C       		.byte	0xc
 6824 514c F8       		.byte	0xf8
 6825 514d 005D0000 		.long	0x5d00
 6826 5151 0B       		.uleb128 0xb
 6827 5152 0C       		.byte	0xc
 6828 5153 0101     		.word	0x101
 6829 5155 2D5D0000 		.long	0x5d2d
 6830 5159 0B       		.uleb128 0xb
 6831 515a 0C       		.byte	0xc
 6832 515b 0201     		.word	0x102
 6833 515d 515D0000 		.long	0x5d51
 6834 5161 0C       		.uleb128 0xc
 6835 5162 5F5F6F70 		.ascii "__ops\0"
 6835      7300
 6836 5168 18       		.byte	0x18
 6837 5169 24       		.byte	0x24
 6838 516a 0A       		.uleb128 0xa
 6839 516b 05       		.byte	0x5
 6840 516c 2C       		.byte	0x2c
 6841 516d BC080000 		.long	0x8bc
 6842 5171 0A       		.uleb128 0xa
 6843 5172 05       		.byte	0x5
 6844 5173 2D       		.byte	0x2d
 6845 5174 DF080000 		.long	0x8df
 6846 5178 15       		.uleb128 0x15
 6847 5179 6E65775F 		.ascii "new_allocator<char>\0"
 6847      616C6C6F 
 6847      6361746F 
 6847      723C6368 
 6847      61723E00 
 6848 518d 01       		.byte	0x1
 6849 518e 05       		.byte	0x5
GAS LISTING C:\Users\NJLLMR~1\AppData\Local\Temp\cce8JzPW.s 			page 185


 6850 518f 3A       		.byte	0x3a
 6851 5190 3B540000 		.long	0x543b
 6852 5194 17       		.uleb128 0x17
 6853 5195 00000000 		.secrel32	LASF2
 6854 5199 05       		.byte	0x5
 6855 519a 3D       		.byte	0x3d
 6856 519b BC080000 		.long	0x8bc
 6857 519f 01       		.byte	0x1
 6858 51a0 17       		.uleb128 0x17
 6859 51a1 07020000 		.secrel32	LASF36
 6860 51a5 05       		.byte	0x5
 6861 51a6 3F       		.byte	0x3f
 6862 51a7 36020000 		.long	0x236
 6863 51ab 01       		.byte	0x1
 6864 51ac 17       		.uleb128 0x17
 6865 51ad 37010000 		.secrel32	LASF37
 6866 51b1 05       		.byte	0x5
 6867 51b2 40       		.byte	0x40
 6868 51b3 844B0000 		.long	0x4b84
 6869 51b7 01       		.byte	0x1
 6870 51b8 17       		.uleb128 0x17
 6871 51b9 F7010000 		.secrel32	LASF3
 6872 51bd 05       		.byte	0x5
 6873 51be 41       		.byte	0x41
 6874 51bf A95F0000 		.long	0x5fa9
 6875 51c3 01       		.byte	0x1
 6876 51c4 17       		.uleb128 0x17
 6877 51c5 C0010000 		.secrel32	LASF4
 6878 51c9 05       		.byte	0x5
 6879 51ca 42       		.byte	0x42
 6880 51cb AF5F0000 		.long	0x5faf
 6881 51cf 01       		.byte	0x1
 6882 51d0 18       		.uleb128 0x18
 6883 51d1 FB000000 		.secrel32	LASF45
 6884 51d5 05       		.byte	0x5
 6885 51d6 4F       		.byte	0x4f
 6886 51d7 01       		.byte	0x1
 6887 51d8 E0510000 		.long	0x51e0
 6888 51dc E6510000 		.long	0x51e6
 6889 51e0 19       		.uleb128 0x19
 6890 51e1 B55F0000 		.long	0x5fb5
 6891 51e5 00       		.byte	0
 6892 51e6 18       		.uleb128 0x18
 6893 51e7 FB000000 		.secrel32	LASF45
 6894 51eb 05       		.byte	0x5
 6895 51ec 51       		.byte	0x51
 6896 51ed 01       		.byte	0x1
 6897 51ee F6510000 		.long	0x51f6
 6898 51f2 01520000 		.long	0x5201
 6899 51f6 19       		.uleb128 0x19
 6900 51f7 B55F0000 		.long	0x5fb5
 6901 51fb 0E       		.uleb128 0xe
 6902 51fc BB5F0000 		.long	0x5fbb
 6903 5200 00       		.byte	0
 6904 5201 18       		.uleb128 0x18
 6905 5202 53000000 		.secrel32	LASF46
 6906 5206 05       		.byte	0x5
GAS LISTING C:\Users\NJLLMR~1\AppData\Local\Temp\cce8JzPW.s 			page 186


 6907 5207 56       		.byte	0x56
 6908 5208 01       		.byte	0x1
 6909 5209 11520000 		.long	0x5211
 6910 520d 1C520000 		.long	0x521c
 6911 5211 19       		.uleb128 0x19
 6912 5212 B55F0000 		.long	0x5fb5
 6913 5216 19       		.uleb128 0x19
 6914 5217 7E010000 		.long	0x17e
 6915 521b 00       		.byte	0
 6916 521c 31       		.uleb128 0x31
 6917 521d EC000000 		.secrel32	LASF47
 6918 5221 05       		.byte	0x5
 6919 5222 59       		.byte	0x59
 6920 5223 5F5A4E4B 		.ascii "_ZNK9__gnu_cxx13new_allocatorIcE7addressERc\0"
 6920      395F5F67 
 6920      6E755F63 
 6920      78783133 
 6920      6E65775F 
 6921 524f A0510000 		.long	0x51a0
 6922 5253 01       		.byte	0x1
 6923 5254 5C520000 		.long	0x525c
 6924 5258 67520000 		.long	0x5267
 6925 525c 19       		.uleb128 0x19
 6926 525d C15F0000 		.long	0x5fc1
 6927 5261 0E       		.uleb128 0xe
 6928 5262 B8510000 		.long	0x51b8
 6929 5266 00       		.byte	0
 6930 5267 31       		.uleb128 0x31
 6931 5268 EC000000 		.secrel32	LASF47
 6932 526c 05       		.byte	0x5
 6933 526d 5D       		.byte	0x5d
 6934 526e 5F5A4E4B 		.ascii "_ZNK9__gnu_cxx13new_allocatorIcE7addressERKc\0"
 6934      395F5F67 
 6934      6E755F63 
 6934      78783133 
 6934      6E65775F 
 6935 529b AC510000 		.long	0x51ac
 6936 529f 01       		.byte	0x1
 6937 52a0 A8520000 		.long	0x52a8
 6938 52a4 B3520000 		.long	0x52b3
 6939 52a8 19       		.uleb128 0x19
 6940 52a9 C15F0000 		.long	0x5fc1
 6941 52ad 0E       		.uleb128 0xe
 6942 52ae C4510000 		.long	0x51c4
 6943 52b2 00       		.byte	0
 6944 52b3 31       		.uleb128 0x31
 6945 52b4 2E010000 		.secrel32	LASF48
 6946 52b8 05       		.byte	0x5
 6947 52b9 63       		.byte	0x63
 6948 52ba 5F5A4E39 		.ascii "_ZN9__gnu_cxx13new_allocatorIcE8allocateEjPKv\0"
 6948      5F5F676E 
 6948      755F6378 
 6948      7831336E 
 6948      65775F61 
 6949 52e8 A0510000 		.long	0x51a0
 6950 52ec 01       		.byte	0x1
 6951 52ed F5520000 		.long	0x52f5
GAS LISTING C:\Users\NJLLMR~1\AppData\Local\Temp\cce8JzPW.s 			page 187


 6952 52f1 05530000 		.long	0x5305
 6953 52f5 19       		.uleb128 0x19
 6954 52f6 B55F0000 		.long	0x5fb5
 6955 52fa 0E       		.uleb128 0xe
 6956 52fb 94510000 		.long	0x5194
 6957 52ff 0E       		.uleb128 0xe
 6958 5300 A25F0000 		.long	0x5fa2
 6959 5304 00       		.byte	0
 6960 5305 51       		.uleb128 0x51
 6961 5306 C6000000 		.secrel32	LASF49
 6962 530a 05       		.byte	0x5
 6963 530b 6D       		.byte	0x6d
 6964 530c 5F5A4E39 		.ascii "_ZN9__gnu_cxx13new_allocatorIcE10deallocateEPcj\0"
 6964      5F5F676E 
 6964      755F6378 
 6964      7831336E 
 6964      65775F61 
 6965 533c 01       		.byte	0x1
 6966 533d 45530000 		.long	0x5345
 6967 5341 55530000 		.long	0x5355
 6968 5345 19       		.uleb128 0x19
 6969 5346 B55F0000 		.long	0x5fb5
 6970 534a 0E       		.uleb128 0xe
 6971 534b A0510000 		.long	0x51a0
 6972 534f 0E       		.uleb128 0xe
 6973 5350 94510000 		.long	0x5194
 6974 5354 00       		.byte	0
 6975 5355 31       		.uleb128 0x31
 6976 5356 45020000 		.secrel32	LASF19
 6977 535a 05       		.byte	0x5
 6978 535b 71       		.byte	0x71
 6979 535c 5F5A4E4B 		.ascii "_ZNK9__gnu_cxx13new_allocatorIcE8max_sizeEv\0"
 6979      395F5F67 
 6979      6E755F63 
 6979      78783133 
 6979      6E65775F 
 6980 5388 94510000 		.long	0x5194
 6981 538c 01       		.byte	0x1
 6982 538d 95530000 		.long	0x5395
 6983 5391 9B530000 		.long	0x539b
 6984 5395 19       		.uleb128 0x19
 6985 5396 C15F0000 		.long	0x5fc1
 6986 539a 00       		.byte	0
 6987 539b 51       		.uleb128 0x51
 6988 539c 90000000 		.secrel32	LASF50
 6989 53a0 05       		.byte	0x5
 6990 53a1 81       		.byte	0x81
 6991 53a2 5F5A4E39 		.ascii "_ZN9__gnu_cxx13new_allocatorIcE9constructEPcRKc\0"
 6991      5F5F676E 
 6991      755F6378 
 6991      7831336E 
 6991      65775F61 
 6992 53d2 01       		.byte	0x1
 6993 53d3 DB530000 		.long	0x53db
 6994 53d7 EB530000 		.long	0x53eb
 6995 53db 19       		.uleb128 0x19
 6996 53dc B55F0000 		.long	0x5fb5
GAS LISTING C:\Users\NJLLMR~1\AppData\Local\Temp\cce8JzPW.s 			page 188


 6997 53e0 0E       		.uleb128 0xe
 6998 53e1 A0510000 		.long	0x51a0
 6999 53e5 0E       		.uleb128 0xe
 7000 53e6 AF5F0000 		.long	0x5faf
 7001 53ea 00       		.byte	0
 7002 53eb 51       		.uleb128 0x51
 7003 53ec D1000000 		.secrel32	LASF51
 7004 53f0 05       		.byte	0x5
 7005 53f1 85       		.byte	0x85
 7006 53f2 5F5A4E39 		.ascii "_ZN9__gnu_cxx13new_allocatorIcE7destroyEPc\0"
 7006      5F5F676E 
 7006      755F6378 
 7006      7831336E 
 7006      65775F61 
 7007 541d 01       		.byte	0x1
 7008 541e 26540000 		.long	0x5426
 7009 5422 31540000 		.long	0x5431
 7010 5426 19       		.uleb128 0x19
 7011 5427 B55F0000 		.long	0x5fb5
 7012 542b 0E       		.uleb128 0xe
 7013 542c A0510000 		.long	0x51a0
 7014 5430 00       		.byte	0
 7015 5431 32       		.uleb128 0x32
 7016 5432 5F547000 		.ascii "_Tp\0"
 7017 5436 4A010000 		.long	0x14a
 7018 543a 00       		.byte	0
 7019 543b 0F       		.uleb128 0xf
 7020 543c 78510000 		.long	0x5178
 7021 5440 06       		.uleb128 0x6
 7022 5441 5F5F6E75 		.ascii "__numeric_traits_integer<int>\0"
 7022      6D657269 
 7022      635F7472 
 7022      61697473 
 7022      5F696E74 
 7023 545f 01       		.byte	0x1
 7024 5460 19       		.byte	0x19
 7025 5461 37       		.byte	0x37
 7026 5462 9C540000 		.long	0x549c
 7027 5466 52       		.uleb128 0x52
 7028 5467 01020000 		.secrel32	LASF52
 7029 546b 19       		.byte	0x19
 7030 546c 3A       		.byte	0x3a
 7031 546d D35F0000 		.long	0x5fd3
 7032 5471 52       		.uleb128 0x52
 7033 5472 8D010000 		.secrel32	LASF53
 7034 5476 19       		.byte	0x19
 7035 5477 3B       		.byte	0x3b
 7036 5478 D35F0000 		.long	0x5fd3
 7037 547c 52       		.uleb128 0x52
 7038 547d 9A000000 		.secrel32	LASF54
 7039 5481 19       		.byte	0x19
 7040 5482 3F       		.byte	0x3f
 7041 5483 D85F0000 		.long	0x5fd8
 7042 5487 52       		.uleb128 0x52
 7043 5488 80020000 		.secrel32	LASF55
 7044 548c 19       		.byte	0x19
 7045 548d 40       		.byte	0x40
GAS LISTING C:\Users\NJLLMR~1\AppData\Local\Temp\cce8JzPW.s 			page 189


 7046 548e D35F0000 		.long	0x5fd3
 7047 5492 48       		.uleb128 0x48
 7048 5493 45000000 		.secrel32	LASF56
 7049 5497 7E010000 		.long	0x17e
 7050 549b 00       		.byte	0
 7051 549c 35       		.uleb128 0x35
 7052 549d 5F5F6E6F 		.ascii "__normal_iterator<char*, std::basic_string<char, std::char_traits<char>, std::allocator<ch
 7052      726D616C 
 7052      5F697465 
 7052      7261746F 
 7052      723C6368 
 7053 54ff 35       		.uleb128 0x35
 7054 5500 5F5F6E6F 		.ascii "__normal_iterator<char const*, std::basic_string<char, std::char_traits<char>, std::alloca
 7054      726D616C 
 7054      5F697465 
 7054      7261746F 
 7054      723C6368 
 7055 5568 06       		.uleb128 0x6
 7056 5569 5F5F6E75 		.ascii "__numeric_traits_integer<long unsigned int>\0"
 7056      6D657269 
 7056      635F7472 
 7056      61697473 
 7056      5F696E74 
 7057 5595 01       		.byte	0x1
 7058 5596 19       		.byte	0x19
 7059 5597 37       		.byte	0x37
 7060 5598 D2550000 		.long	0x55d2
 7061 559c 52       		.uleb128 0x52
 7062 559d 01020000 		.secrel32	LASF52
 7063 55a1 19       		.byte	0x19
 7064 55a2 3A       		.byte	0x3a
 7065 55a3 18600000 		.long	0x6018
 7066 55a7 52       		.uleb128 0x52
 7067 55a8 8D010000 		.secrel32	LASF53
 7068 55ac 19       		.byte	0x19
 7069 55ad 3B       		.byte	0x3b
 7070 55ae 18600000 		.long	0x6018
 7071 55b2 52       		.uleb128 0x52
 7072 55b3 9A000000 		.secrel32	LASF54
 7073 55b7 19       		.byte	0x19
 7074 55b8 3F       		.byte	0x3f
 7075 55b9 D85F0000 		.long	0x5fd8
 7076 55bd 52       		.uleb128 0x52
 7077 55be 80020000 		.secrel32	LASF55
 7078 55c2 19       		.byte	0x19
 7079 55c3 40       		.byte	0x40
 7080 55c4 D35F0000 		.long	0x5fd3
 7081 55c8 48       		.uleb128 0x48
 7082 55c9 45000000 		.secrel32	LASF56
 7083 55cd F4020000 		.long	0x2f4
 7084 55d1 00       		.byte	0
 7085 55d2 06       		.uleb128 0x6
 7086 55d3 5F5F6E75 		.ascii "__numeric_traits_integer<char>\0"
 7086      6D657269 
 7086      635F7472 
 7086      61697473 
 7086      5F696E74 
GAS LISTING C:\Users\NJLLMR~1\AppData\Local\Temp\cce8JzPW.s 			page 190


 7087 55f2 01       		.byte	0x1
 7088 55f3 19       		.byte	0x19
 7089 55f4 37       		.byte	0x37
 7090 55f5 2F560000 		.long	0x562f
 7091 55f9 52       		.uleb128 0x52
 7092 55fa 01020000 		.secrel32	LASF52
 7093 55fe 19       		.byte	0x19
 7094 55ff 3A       		.byte	0x3a
 7095 5600 8A4B0000 		.long	0x4b8a
 7096 5604 52       		.uleb128 0x52
 7097 5605 8D010000 		.secrel32	LASF53
 7098 5609 19       		.byte	0x19
 7099 560a 3B       		.byte	0x3b
 7100 560b 8A4B0000 		.long	0x4b8a
 7101 560f 52       		.uleb128 0x52
 7102 5610 9A000000 		.secrel32	LASF54
 7103 5614 19       		.byte	0x19
 7104 5615 3F       		.byte	0x3f
 7105 5616 D85F0000 		.long	0x5fd8
 7106 561a 52       		.uleb128 0x52
 7107 561b 80020000 		.secrel32	LASF55
 7108 561f 19       		.byte	0x19
 7109 5620 40       		.byte	0x40
 7110 5621 D35F0000 		.long	0x5fd3
 7111 5625 48       		.uleb128 0x48
 7112 5626 45000000 		.secrel32	LASF56
 7113 562a 4A010000 		.long	0x14a
 7114 562e 00       		.byte	0
 7115 562f 06       		.uleb128 0x6
 7116 5630 5F5F6E75 		.ascii "__numeric_traits_integer<short int>\0"
 7116      6D657269 
 7116      635F7472 
 7116      61697473 
 7116      5F696E74 
 7117 5654 01       		.byte	0x1
 7118 5655 19       		.byte	0x19
 7119 5656 37       		.byte	0x37
 7120 5657 91560000 		.long	0x5691
 7121 565b 52       		.uleb128 0x52
 7122 565c 01020000 		.secrel32	LASF52
 7123 5660 19       		.byte	0x19
 7124 5661 3A       		.byte	0x3a
 7125 5662 93600000 		.long	0x6093
 7126 5666 52       		.uleb128 0x52
 7127 5667 8D010000 		.secrel32	LASF53
 7128 566b 19       		.byte	0x19
 7129 566c 3B       		.byte	0x3b
 7130 566d 93600000 		.long	0x6093
 7131 5671 52       		.uleb128 0x52
 7132 5672 9A000000 		.secrel32	LASF54
 7133 5676 19       		.byte	0x19
 7134 5677 3F       		.byte	0x3f
 7135 5678 D85F0000 		.long	0x5fd8
 7136 567c 52       		.uleb128 0x52
 7137 567d 80020000 		.secrel32	LASF55
 7138 5681 19       		.byte	0x19
 7139 5682 40       		.byte	0x40
GAS LISTING C:\Users\NJLLMR~1\AppData\Local\Temp\cce8JzPW.s 			page 191


 7140 5683 D35F0000 		.long	0x5fd3
 7141 5687 48       		.uleb128 0x48
 7142 5688 45000000 		.secrel32	LASF56
 7143 568c A2010000 		.long	0x1a2
 7144 5690 00       		.byte	0
 7145 5691 15       		.uleb128 0x15
 7146 5692 6E65775F 		.ascii "new_allocator<Toppings>\0"
 7146      616C6C6F 
 7146      6361746F 
 7146      723C546F 
 7146      7070696E 
 7147 56aa 01       		.byte	0x1
 7148 56ab 05       		.byte	0x5
 7149 56ac 3A       		.byte	0x3a
 7150 56ad 9C590000 		.long	0x599c
 7151 56b1 17       		.uleb128 0x17
 7152 56b2 00000000 		.secrel32	LASF2
 7153 56b6 05       		.byte	0x5
 7154 56b7 3D       		.byte	0x3d
 7155 56b8 BC080000 		.long	0x8bc
 7156 56bc 01       		.byte	0x1
 7157 56bd 17       		.uleb128 0x17
 7158 56be 07020000 		.secrel32	LASF36
 7159 56c2 05       		.byte	0x5
 7160 56c3 3F       		.byte	0x3f
 7161 56c4 9F600000 		.long	0x609f
 7162 56c8 01       		.byte	0x1
 7163 56c9 17       		.uleb128 0x17
 7164 56ca 37010000 		.secrel32	LASF37
 7165 56ce 05       		.byte	0x5
 7166 56cf 40       		.byte	0x40
 7167 56d0 AF600000 		.long	0x60af
 7168 56d4 01       		.byte	0x1
 7169 56d5 17       		.uleb128 0x17
 7170 56d6 F7010000 		.secrel32	LASF3
 7171 56da 05       		.byte	0x5
 7172 56db 41       		.byte	0x41
 7173 56dc BA600000 		.long	0x60ba
 7174 56e0 01       		.byte	0x1
 7175 56e1 17       		.uleb128 0x17
 7176 56e2 C0010000 		.secrel32	LASF4
 7177 56e6 05       		.byte	0x5
 7178 56e7 42       		.byte	0x42
 7179 56e8 C0600000 		.long	0x60c0
 7180 56ec 01       		.byte	0x1
 7181 56ed 18       		.uleb128 0x18
 7182 56ee FB000000 		.secrel32	LASF45
 7183 56f2 05       		.byte	0x5
 7184 56f3 4F       		.byte	0x4f
 7185 56f4 01       		.byte	0x1
 7186 56f5 FD560000 		.long	0x56fd
 7187 56f9 03570000 		.long	0x5703
 7188 56fd 19       		.uleb128 0x19
 7189 56fe C6600000 		.long	0x60c6
 7190 5702 00       		.byte	0
 7191 5703 18       		.uleb128 0x18
 7192 5704 FB000000 		.secrel32	LASF45
GAS LISTING C:\Users\NJLLMR~1\AppData\Local\Temp\cce8JzPW.s 			page 192


 7193 5708 05       		.byte	0x5
 7194 5709 51       		.byte	0x51
 7195 570a 01       		.byte	0x1
 7196 570b 13570000 		.long	0x5713
 7197 570f 1E570000 		.long	0x571e
 7198 5713 19       		.uleb128 0x19
 7199 5714 C6600000 		.long	0x60c6
 7200 5718 0E       		.uleb128 0xe
 7201 5719 CC600000 		.long	0x60cc
 7202 571d 00       		.byte	0
 7203 571e 18       		.uleb128 0x18
 7204 571f 53000000 		.secrel32	LASF46
 7205 5723 05       		.byte	0x5
 7206 5724 56       		.byte	0x56
 7207 5725 01       		.byte	0x1
 7208 5726 2E570000 		.long	0x572e
 7209 572a 39570000 		.long	0x5739
 7210 572e 19       		.uleb128 0x19
 7211 572f C6600000 		.long	0x60c6
 7212 5733 19       		.uleb128 0x19
 7213 5734 7E010000 		.long	0x17e
 7214 5738 00       		.byte	0
 7215 5739 31       		.uleb128 0x31
 7216 573a EC000000 		.secrel32	LASF47
 7217 573e 05       		.byte	0x5
 7218 573f 59       		.byte	0x59
 7219 5740 5F5A4E4B 		.ascii "_ZNK9__gnu_cxx13new_allocatorI8ToppingsE7addressERS1_\0"
 7219      395F5F67 
 7219      6E755F63 
 7219      78783133 
 7219      6E65775F 
 7220 5776 BD560000 		.long	0x56bd
 7221 577a 01       		.byte	0x1
 7222 577b 83570000 		.long	0x5783
 7223 577f 8E570000 		.long	0x578e
 7224 5783 19       		.uleb128 0x19
 7225 5784 D2600000 		.long	0x60d2
 7226 5788 0E       		.uleb128 0xe
 7227 5789 D5560000 		.long	0x56d5
 7228 578d 00       		.byte	0
 7229 578e 31       		.uleb128 0x31
 7230 578f EC000000 		.secrel32	LASF47
 7231 5793 05       		.byte	0x5
 7232 5794 5D       		.byte	0x5d
 7233 5795 5F5A4E4B 		.ascii "_ZNK9__gnu_cxx13new_allocatorI8ToppingsE7addressERKS1_\0"
 7233      395F5F67 
 7233      6E755F63 
 7233      78783133 
 7233      6E65775F 
 7234 57cc C9560000 		.long	0x56c9
 7235 57d0 01       		.byte	0x1
 7236 57d1 D9570000 		.long	0x57d9
 7237 57d5 E4570000 		.long	0x57e4
 7238 57d9 19       		.uleb128 0x19
 7239 57da D2600000 		.long	0x60d2
 7240 57de 0E       		.uleb128 0xe
 7241 57df E1560000 		.long	0x56e1
GAS LISTING C:\Users\NJLLMR~1\AppData\Local\Temp\cce8JzPW.s 			page 193


 7242 57e3 00       		.byte	0
 7243 57e4 31       		.uleb128 0x31
 7244 57e5 2E010000 		.secrel32	LASF48
 7245 57e9 05       		.byte	0x5
 7246 57ea 63       		.byte	0x63
 7247 57eb 5F5A4E39 		.ascii "_ZN9__gnu_cxx13new_allocatorI8ToppingsE8allocateEjPKv\0"
 7247      5F5F676E 
 7247      755F6378 
 7247      7831336E 
 7247      65775F61 
 7248 5821 BD560000 		.long	0x56bd
 7249 5825 01       		.byte	0x1
 7250 5826 2E580000 		.long	0x582e
 7251 582a 3E580000 		.long	0x583e
 7252 582e 19       		.uleb128 0x19
 7253 582f C6600000 		.long	0x60c6
 7254 5833 0E       		.uleb128 0xe
 7255 5834 B1560000 		.long	0x56b1
 7256 5838 0E       		.uleb128 0xe
 7257 5839 A25F0000 		.long	0x5fa2
 7258 583d 00       		.byte	0
 7259 583e 51       		.uleb128 0x51
 7260 583f C6000000 		.secrel32	LASF49
 7261 5843 05       		.byte	0x5
 7262 5844 6D       		.byte	0x6d
 7263 5845 5F5A4E39 		.ascii "_ZN9__gnu_cxx13new_allocatorI8ToppingsE10deallocateEPS1_j\0"
 7263      5F5F676E 
 7263      755F6378 
 7263      7831336E 
 7263      65775F61 
 7264 587f 01       		.byte	0x1
 7265 5880 88580000 		.long	0x5888
 7266 5884 98580000 		.long	0x5898
 7267 5888 19       		.uleb128 0x19
 7268 5889 C6600000 		.long	0x60c6
 7269 588d 0E       		.uleb128 0xe
 7270 588e BD560000 		.long	0x56bd
 7271 5892 0E       		.uleb128 0xe
 7272 5893 B1560000 		.long	0x56b1
 7273 5897 00       		.byte	0
 7274 5898 31       		.uleb128 0x31
 7275 5899 45020000 		.secrel32	LASF19
 7276 589d 05       		.byte	0x5
 7277 589e 71       		.byte	0x71
 7278 589f 5F5A4E4B 		.ascii "_ZNK9__gnu_cxx13new_allocatorI8ToppingsE8max_sizeEv\0"
 7278      395F5F67 
 7278      6E755F63 
 7278      78783133 
 7278      6E65775F 
 7279 58d3 B1560000 		.long	0x56b1
 7280 58d7 01       		.byte	0x1
 7281 58d8 E0580000 		.long	0x58e0
 7282 58dc E6580000 		.long	0x58e6
 7283 58e0 19       		.uleb128 0x19
 7284 58e1 D2600000 		.long	0x60d2
 7285 58e5 00       		.byte	0
 7286 58e6 51       		.uleb128 0x51
GAS LISTING C:\Users\NJLLMR~1\AppData\Local\Temp\cce8JzPW.s 			page 194


 7287 58e7 90000000 		.secrel32	LASF50
 7288 58eb 05       		.byte	0x5
 7289 58ec 81       		.byte	0x81
 7290 58ed 5F5A4E39 		.ascii "_ZN9__gnu_cxx13new_allocatorI8ToppingsE9constructEPS1_RKS1_\0"
 7290      5F5F676E 
 7290      755F6378 
 7290      7831336E 
 7290      65775F61 
 7291 5929 01       		.byte	0x1
 7292 592a 32590000 		.long	0x5932
 7293 592e 42590000 		.long	0x5942
 7294 5932 19       		.uleb128 0x19
 7295 5933 C6600000 		.long	0x60c6
 7296 5937 0E       		.uleb128 0xe
 7297 5938 BD560000 		.long	0x56bd
 7298 593c 0E       		.uleb128 0xe
 7299 593d C0600000 		.long	0x60c0
 7300 5941 00       		.byte	0
 7301 5942 51       		.uleb128 0x51
 7302 5943 D1000000 		.secrel32	LASF51
 7303 5947 05       		.byte	0x5
 7304 5948 85       		.byte	0x85
 7305 5949 5F5A4E39 		.ascii "_ZN9__gnu_cxx13new_allocatorI8ToppingsE7destroyEPS1_\0"
 7305      5F5F676E 
 7305      755F6378 
 7305      7831336E 
 7305      65775F61 
 7306 597e 01       		.byte	0x1
 7307 597f 87590000 		.long	0x5987
 7308 5983 92590000 		.long	0x5992
 7309 5987 19       		.uleb128 0x19
 7310 5988 C6600000 		.long	0x60c6
 7311 598c 0E       		.uleb128 0xe
 7312 598d BD560000 		.long	0x56bd
 7313 5991 00       		.byte	0
 7314 5992 32       		.uleb128 0x32
 7315 5993 5F547000 		.ascii "_Tp\0"
 7316 5997 A5600000 		.long	0x60a5
 7317 599b 00       		.byte	0
 7318 599c 0F       		.uleb128 0xf
 7319 599d 91560000 		.long	0x5691
 7320 59a1 06       		.uleb128 0x6
 7321 59a2 5F5F616C 		.ascii "__alloc_traits<std::allocator<Toppings> >\0"
 7321      6C6F635F 
 7321      74726169 
 7321      74733C73 
 7321      74643A3A 
 7322 59cc 01       		.byte	0x1
 7323 59cd 06       		.byte	0x6
 7324 59ce 5F       		.byte	0x5f
 7325 59cf 575C0000 		.long	0x5c57
 7326 59d3 44       		.uleb128 0x44
 7327 59d4 07020000 		.secrel32	LASF36
 7328 59d8 06       		.byte	0x6
 7329 59d9 AC       		.byte	0xac
 7330 59da 20330000 		.long	0x3320
 7331 59de 44       		.uleb128 0x44
GAS LISTING C:\Users\NJLLMR~1\AppData\Local\Temp\cce8JzPW.s 			page 195


 7332 59df 37010000 		.secrel32	LASF37
 7333 59e3 06       		.byte	0x6
 7334 59e4 AD       		.byte	0xad
 7335 59e5 2C330000 		.long	0x332c
 7336 59e9 44       		.uleb128 0x44
 7337 59ea F7010000 		.secrel32	LASF3
 7338 59ee 06       		.byte	0x6
 7339 59ef AF       		.byte	0xaf
 7340 59f0 38330000 		.long	0x3338
 7341 59f4 44       		.uleb128 0x44
 7342 59f5 C0010000 		.secrel32	LASF4
 7343 59f9 06       		.byte	0x6
 7344 59fa B0       		.byte	0xb0
 7345 59fb 44330000 		.long	0x3344
 7346 59ff 44       		.uleb128 0x44
 7347 5a00 00000000 		.secrel32	LASF2
 7348 5a04 06       		.byte	0x6
 7349 5a05 B1       		.byte	0xb1
 7350 5a06 14330000 		.long	0x3314
 7351 5a0a 53       		.uleb128 0x53
 7352 5a0b 2E010000 		.secrel32	LASF48
 7353 5a0f 06       		.byte	0x6
 7354 5a10 B5       		.byte	0xb5
 7355 5a11 5F5A4E39 		.ascii "_ZN9__gnu_cxx14__alloc_traitsISaI8ToppingsEE8allocateERS2_j\0"
 7355      5F5F676E 
 7355      755F6378 
 7355      7831345F 
 7355      5F616C6C 
 7356 5a4d D3590000 		.long	0x59d3
 7357 5a51 605A0000 		.long	0x5a60
 7358 5a55 0E       		.uleb128 0xe
 7359 5a56 E4600000 		.long	0x60e4
 7360 5a5a 0E       		.uleb128 0xe
 7361 5a5b FF590000 		.long	0x59ff
 7362 5a5f 00       		.byte	0
 7363 5a60 0D       		.uleb128 0xd
 7364 5a61 C6000000 		.secrel32	LASF49
 7365 5a65 06       		.byte	0x6
 7366 5a66 B8       		.byte	0xb8
 7367 5a67 5F5A4E39 		.ascii "_ZN9__gnu_cxx14__alloc_traitsISaI8ToppingsEE10deallocateERS2_PS1_j\0"
 7367      5F5F676E 
 7367      755F6378 
 7367      7831345F 
 7367      5F616C6C 
 7368 5aaa BE5A0000 		.long	0x5abe
 7369 5aae 0E       		.uleb128 0xe
 7370 5aaf E4600000 		.long	0x60e4
 7371 5ab3 0E       		.uleb128 0xe
 7372 5ab4 D3590000 		.long	0x59d3
 7373 5ab8 0E       		.uleb128 0xe
 7374 5ab9 FF590000 		.long	0x59ff
 7375 5abd 00       		.byte	0
 7376 5abe 0D       		.uleb128 0xd
 7377 5abf D1000000 		.secrel32	LASF51
 7378 5ac3 06       		.byte	0x6
 7379 5ac4 BF       		.byte	0xbf
 7380 5ac5 5F5A4E39 		.ascii "_ZN9__gnu_cxx14__alloc_traitsISaI8ToppingsEE7destroyERS2_PS1_\0"
GAS LISTING C:\Users\NJLLMR~1\AppData\Local\Temp\cce8JzPW.s 			page 196


 7380      5F5F676E 
 7380      755F6378 
 7380      7831345F 
 7380      5F616C6C 
 7381 5b03 125B0000 		.long	0x5b12
 7382 5b07 0E       		.uleb128 0xe
 7383 5b08 E4600000 		.long	0x60e4
 7384 5b0c 0E       		.uleb128 0xe
 7385 5b0d D3590000 		.long	0x59d3
 7386 5b11 00       		.byte	0
 7387 5b12 53       		.uleb128 0x53
 7388 5b13 45020000 		.secrel32	LASF19
 7389 5b17 06       		.byte	0x6
 7390 5b18 C2       		.byte	0xc2
 7391 5b19 5F5A4E39 		.ascii "_ZN9__gnu_cxx14__alloc_traitsISaI8ToppingsEE8max_sizeERKS2_\0"
 7391      5F5F676E 
 7391      755F6378 
 7391      7831345F 
 7391      5F616C6C 
 7392 5b55 FF590000 		.long	0x59ff
 7393 5b59 635B0000 		.long	0x5b63
 7394 5b5d 0E       		.uleb128 0xe
 7395 5b5e DE600000 		.long	0x60de
 7396 5b62 00       		.byte	0
 7397 5b63 10       		.uleb128 0x10
 7398 5b64 5F535F73 		.ascii "_S_select_on_copy\0"
 7398      656C6563 
 7398      745F6F6E 
 7398      5F636F70 
 7398      7900
 7399 5b76 06       		.byte	0x6
 7400 5b77 C5       		.byte	0xc5
 7401 5b78 5F5A4E39 		.ascii "_ZN9__gnu_cxx14__alloc_traitsISaI8ToppingsEE17_S_select_on_copyERKS2_\0"
 7401      5F5F676E 
 7401      755F6378 
 7401      7831345F 
 7401      5F616C6C 
 7402 5bbe DE600000 		.long	0x60de
 7403 5bc2 CC5B0000 		.long	0x5bcc
 7404 5bc6 0E       		.uleb128 0xe
 7405 5bc7 DE600000 		.long	0x60de
 7406 5bcb 00       		.byte	0
 7407 5bcc 4B       		.uleb128 0x4b
 7408 5bcd 5F535F6F 		.ascii "_S_on_swap\0"
 7408      6E5F7377 
 7408      617000
 7409 5bd8 06       		.byte	0x6
 7410 5bd9 C7       		.byte	0xc7
 7411 5bda 5F5A4E39 		.ascii "_ZN9__gnu_cxx14__alloc_traitsISaI8ToppingsEE10_S_on_swapERS2_S4_\0"
 7411      5F5F676E 
 7411      755F6378 
 7411      7831345F 
 7411      5F616C6C 
 7412 5c1b 2A5C0000 		.long	0x5c2a
 7413 5c1f 0E       		.uleb128 0xe
 7414 5c20 E4600000 		.long	0x60e4
 7415 5c24 0E       		.uleb128 0xe
GAS LISTING C:\Users\NJLLMR~1\AppData\Local\Temp\cce8JzPW.s 			page 197


 7416 5c25 E4600000 		.long	0x60e4
 7417 5c29 00       		.byte	0
 7418 5c2a 41       		.uleb128 0x41
 7419 5c2b 1D010000 		.secrel32	LASF38
 7420 5c2f 01       		.byte	0x1
 7421 5c30 06       		.byte	0x6
 7422 5c31 CF       		.byte	0xcf
 7423 5c32 4D5C0000 		.long	0x5c4d
 7424 5c36 02       		.uleb128 0x2
 7425 5c37 6F746865 		.ascii "other\0"
 7425      7200
 7426 5c3d 06       		.byte	0x6
 7427 5c3e D0       		.byte	0xd0
 7428 5c3f A5330000 		.long	0x33a5
 7429 5c43 32       		.uleb128 0x32
 7430 5c44 5F547000 		.ascii "_Tp\0"
 7431 5c48 A5600000 		.long	0x60a5
 7432 5c4c 00       		.byte	0
 7433 5c4d 48       		.uleb128 0x48
 7434 5c4e 6D010000 		.secrel32	LASF35
 7435 5c52 F1320000 		.long	0x32f1
 7436 5c56 00       		.byte	0
 7437 5c57 35       		.uleb128 0x35
 7438 5c58 5F5F6E6F 		.ascii "__normal_iterator<Toppings*, std::vector<Toppings, std::allocator<Toppings> > >\0"
 7438      726D616C 
 7438      5F697465 
 7438      7261746F 
 7438      723C546F 
 7439 5ca8 35       		.uleb128 0x35
 7440 5ca9 5F5F6E6F 		.ascii "__normal_iterator<const Toppings*, std::vector<Toppings, std::allocator<Toppings> > >\0"
 7440      726D616C 
 7440      5F697465 
 7440      7261746F 
 7440      723C636F 
 7441 5cff 00       		.byte	0
 7442 5d00 4E       		.uleb128 0x4e
 7443 5d01 77637374 		.ascii "wcstold\0"
 7443      6F6C6400 
 7444 5d09 0B       		.byte	0xb
 7445 5d0a A9       		.byte	0xa9
 7446 5d0b 1E5D0000 		.long	0x5d1e
 7447 5d0f 1E5D0000 		.long	0x5d1e
 7448 5d13 0E       		.uleb128 0xe
 7449 5d14 D34A0000 		.long	0x4ad3
 7450 5d18 0E       		.uleb128 0xe
 7451 5d19 124F0000 		.long	0x4f12
 7452 5d1d 00       		.byte	0
 7453 5d1e 03       		.uleb128 0x3
 7454 5d1f 0C       		.byte	0xc
 7455 5d20 04       		.byte	0x4
 7456 5d21 6C6F6E67 		.ascii "long double\0"
 7456      20646F75 
 7456      626C6500 
 7457 5d2d 4D       		.uleb128 0x4d
 7458 5d2e 77637374 		.ascii "wcstoll\0"
 7458      6F6C6C00 
 7459 5d36 0B       		.byte	0xb
GAS LISTING C:\Users\NJLLMR~1\AppData\Local\Temp\cce8JzPW.s 			page 198


 7460 5d37 4701     		.word	0x147
 7461 5d39 91010000 		.long	0x191
 7462 5d3d 515D0000 		.long	0x5d51
 7463 5d41 0E       		.uleb128 0xe
 7464 5d42 D34A0000 		.long	0x4ad3
 7465 5d46 0E       		.uleb128 0xe
 7466 5d47 124F0000 		.long	0x4f12
 7467 5d4b 0E       		.uleb128 0xe
 7468 5d4c 7E010000 		.long	0x17e
 7469 5d50 00       		.byte	0
 7470 5d51 4D       		.uleb128 0x4d
 7471 5d52 77637374 		.ascii "wcstoull\0"
 7471      6F756C6C 
 7471      00
 7472 5d5b 0B       		.byte	0xb
 7473 5d5c 4901     		.word	0x149
 7474 5d5e 35030000 		.long	0x335
 7475 5d62 765D0000 		.long	0x5d76
 7476 5d66 0E       		.uleb128 0xe
 7477 5d67 D34A0000 		.long	0x4ad3
 7478 5d6b 0E       		.uleb128 0xe
 7479 5d6c 124F0000 		.long	0x4f12
 7480 5d70 0E       		.uleb128 0xe
 7481 5d71 7E010000 		.long	0x17e
 7482 5d75 00       		.byte	0
 7483 5d76 09       		.uleb128 0x9
 7484 5d77 5F5F676E 		.ascii "__gnu_debug\0"
 7484      755F6465 
 7484      62756700 
 7485 5d83 17       		.byte	0x17
 7486 5d84 37       		.byte	0x37
 7487 5d85 915D0000 		.long	0x5d91
 7488 5d89 54       		.uleb128 0x54
 7489 5d8a 17       		.byte	0x17
 7490 5d8b 38       		.byte	0x38
 7491 5d8c FA040000 		.long	0x4fa
 7492 5d90 00       		.byte	0
 7493 5d91 55       		.uleb128 0x55
 7494 5d92 04       		.byte	0x4
 7495 5d93 1F050000 		.long	0x51f
 7496 5d97 55       		.uleb128 0x55
 7497 5d98 04       		.byte	0x4
 7498 5d99 79050000 		.long	0x579
 7499 5d9d 03       		.uleb128 0x3
 7500 5d9e 01       		.byte	0x1
 7501 5d9f 02       		.byte	0x2
 7502 5da0 626F6F6C 		.ascii "bool\0"
 7502      00
 7503 5da5 08       		.uleb128 0x8
 7504 5da6 04       		.byte	0x4
 7505 5da7 79050000 		.long	0x579
 7506 5dab 08       		.uleb128 0x8
 7507 5dac 04       		.byte	0x4
 7508 5dad 1F050000 		.long	0x51f
 7509 5db1 55       		.uleb128 0x55
 7510 5db2 04       		.byte	0x4
 7511 5db3 C4070000 		.long	0x7c4
GAS LISTING C:\Users\NJLLMR~1\AppData\Local\Temp\cce8JzPW.s 			page 199


 7512 5db7 06       		.uleb128 0x6
 7513 5db8 6C636F6E 		.ascii "lconv\0"
 7513      7600
 7514 5dbe 30       		.byte	0x30
 7515 5dbf 1A       		.byte	0x1a
 7516 5dc0 2D       		.byte	0x2d
 7517 5dc1 565F0000 		.long	0x5f56
 7518 5dc5 07       		.uleb128 0x7
 7519 5dc6 64656369 		.ascii "decimal_point\0"
 7519      6D616C5F 
 7519      706F696E 
 7519      7400
 7520 5dd4 1A       		.byte	0x1a
 7521 5dd5 2F       		.byte	0x2f
 7522 5dd6 36020000 		.long	0x236
 7523 5dda 00       		.byte	0
 7524 5ddb 07       		.uleb128 0x7
 7525 5ddc 74686F75 		.ascii "thousands_sep\0"
 7525      73616E64 
 7525      735F7365 
 7525      7000
 7526 5dea 1A       		.byte	0x1a
 7527 5deb 30       		.byte	0x30
 7528 5dec 36020000 		.long	0x236
 7529 5df0 04       		.byte	0x4
 7530 5df1 07       		.uleb128 0x7
 7531 5df2 67726F75 		.ascii "grouping\0"
 7531      70696E67 
 7531      00
 7532 5dfb 1A       		.byte	0x1a
 7533 5dfc 31       		.byte	0x31
 7534 5dfd 36020000 		.long	0x236
 7535 5e01 08       		.byte	0x8
 7536 5e02 07       		.uleb128 0x7
 7537 5e03 696E745F 		.ascii "int_curr_symbol\0"
 7537      63757272 
 7537      5F73796D 
 7537      626F6C00 
 7538 5e13 1A       		.byte	0x1a
 7539 5e14 32       		.byte	0x32
 7540 5e15 36020000 		.long	0x236
 7541 5e19 0C       		.byte	0xc
 7542 5e1a 07       		.uleb128 0x7
 7543 5e1b 63757272 		.ascii "currency_symbol\0"
 7543      656E6379 
 7543      5F73796D 
 7543      626F6C00 
 7544 5e2b 1A       		.byte	0x1a
 7545 5e2c 33       		.byte	0x33
 7546 5e2d 36020000 		.long	0x236
 7547 5e31 10       		.byte	0x10
 7548 5e32 07       		.uleb128 0x7
 7549 5e33 6D6F6E5F 		.ascii "mon_decimal_point\0"
 7549      64656369 
 7549      6D616C5F 
 7549      706F696E 
 7549      7400
GAS LISTING C:\Users\NJLLMR~1\AppData\Local\Temp\cce8JzPW.s 			page 200


 7550 5e45 1A       		.byte	0x1a
 7551 5e46 34       		.byte	0x34
 7552 5e47 36020000 		.long	0x236
 7553 5e4b 14       		.byte	0x14
 7554 5e4c 07       		.uleb128 0x7
 7555 5e4d 6D6F6E5F 		.ascii "mon_thousands_sep\0"
 7555      74686F75 
 7555      73616E64 
 7555      735F7365 
 7555      7000
 7556 5e5f 1A       		.byte	0x1a
 7557 5e60 35       		.byte	0x35
 7558 5e61 36020000 		.long	0x236
 7559 5e65 18       		.byte	0x18
 7560 5e66 07       		.uleb128 0x7
 7561 5e67 6D6F6E5F 		.ascii "mon_grouping\0"
 7561      67726F75 
 7561      70696E67 
 7561      00
 7562 5e74 1A       		.byte	0x1a
 7563 5e75 36       		.byte	0x36
 7564 5e76 36020000 		.long	0x236
 7565 5e7a 1C       		.byte	0x1c
 7566 5e7b 07       		.uleb128 0x7
 7567 5e7c 706F7369 		.ascii "positive_sign\0"
 7567      74697665 
 7567      5F736967 
 7567      6E00
 7568 5e8a 1A       		.byte	0x1a
 7569 5e8b 37       		.byte	0x37
 7570 5e8c 36020000 		.long	0x236
 7571 5e90 20       		.byte	0x20
 7572 5e91 07       		.uleb128 0x7
 7573 5e92 6E656761 		.ascii "negative_sign\0"
 7573      74697665 
 7573      5F736967 
 7573      6E00
 7574 5ea0 1A       		.byte	0x1a
 7575 5ea1 38       		.byte	0x38
 7576 5ea2 36020000 		.long	0x236
 7577 5ea6 24       		.byte	0x24
 7578 5ea7 07       		.uleb128 0x7
 7579 5ea8 696E745F 		.ascii "int_frac_digits\0"
 7579      66726163 
 7579      5F646967 
 7579      69747300 
 7580 5eb8 1A       		.byte	0x1a
 7581 5eb9 39       		.byte	0x39
 7582 5eba 4A010000 		.long	0x14a
 7583 5ebe 28       		.byte	0x28
 7584 5ebf 07       		.uleb128 0x7
 7585 5ec0 66726163 		.ascii "frac_digits\0"
 7585      5F646967 
 7585      69747300 
 7586 5ecc 1A       		.byte	0x1a
 7587 5ecd 3A       		.byte	0x3a
 7588 5ece 4A010000 		.long	0x14a
GAS LISTING C:\Users\NJLLMR~1\AppData\Local\Temp\cce8JzPW.s 			page 201


 7589 5ed2 29       		.byte	0x29
 7590 5ed3 07       		.uleb128 0x7
 7591 5ed4 705F6373 		.ascii "p_cs_precedes\0"
 7591      5F707265 
 7591      63656465 
 7591      7300
 7592 5ee2 1A       		.byte	0x1a
 7593 5ee3 3B       		.byte	0x3b
 7594 5ee4 4A010000 		.long	0x14a
 7595 5ee8 2A       		.byte	0x2a
 7596 5ee9 07       		.uleb128 0x7
 7597 5eea 705F7365 		.ascii "p_sep_by_space\0"
 7597      705F6279 
 7597      5F737061 
 7597      636500
 7598 5ef9 1A       		.byte	0x1a
 7599 5efa 3C       		.byte	0x3c
 7600 5efb 4A010000 		.long	0x14a
 7601 5eff 2B       		.byte	0x2b
 7602 5f00 07       		.uleb128 0x7
 7603 5f01 6E5F6373 		.ascii "n_cs_precedes\0"
 7603      5F707265 
 7603      63656465 
 7603      7300
 7604 5f0f 1A       		.byte	0x1a
 7605 5f10 3D       		.byte	0x3d
 7606 5f11 4A010000 		.long	0x14a
 7607 5f15 2C       		.byte	0x2c
 7608 5f16 07       		.uleb128 0x7
 7609 5f17 6E5F7365 		.ascii "n_sep_by_space\0"
 7609      705F6279 
 7609      5F737061 
 7609      636500
 7610 5f26 1A       		.byte	0x1a
 7611 5f27 3E       		.byte	0x3e
 7612 5f28 4A010000 		.long	0x14a
 7613 5f2c 2D       		.byte	0x2d
 7614 5f2d 07       		.uleb128 0x7
 7615 5f2e 705F7369 		.ascii "p_sign_posn\0"
 7615      676E5F70 
 7615      6F736E00 
 7616 5f3a 1A       		.byte	0x1a
 7617 5f3b 3F       		.byte	0x3f
 7618 5f3c 4A010000 		.long	0x14a
 7619 5f40 2E       		.byte	0x2e
 7620 5f41 07       		.uleb128 0x7
 7621 5f42 6E5F7369 		.ascii "n_sign_posn\0"
 7621      676E5F70 
 7621      6F736E00 
 7622 5f4e 1A       		.byte	0x1a
 7623 5f4f 40       		.byte	0x40
 7624 5f50 4A010000 		.long	0x14a
 7625 5f54 2F       		.byte	0x2f
 7626 5f55 00       		.byte	0
 7627 5f56 4E       		.uleb128 0x4e
 7628 5f57 7365746C 		.ascii "setlocale\0"
 7628      6F63616C 
GAS LISTING C:\Users\NJLLMR~1\AppData\Local\Temp\cce8JzPW.s 			page 202


 7628      6500
 7629 5f61 1A       		.byte	0x1a
 7630 5f62 47       		.byte	0x47
 7631 5f63 36020000 		.long	0x236
 7632 5f67 765F0000 		.long	0x5f76
 7633 5f6b 0E       		.uleb128 0xe
 7634 5f6c 7E010000 		.long	0x17e
 7635 5f70 0E       		.uleb128 0xe
 7636 5f71 844B0000 		.long	0x4b84
 7637 5f75 00       		.byte	0
 7638 5f76 50       		.uleb128 0x50
 7639 5f77 6C6F6361 		.ascii "localeconv\0"
 7639      6C65636F 
 7639      6E7600
 7640 5f82 1A       		.byte	0x1a
 7641 5f83 48       		.byte	0x48
 7642 5f84 885F0000 		.long	0x5f88
 7643 5f88 08       		.uleb128 0x8
 7644 5f89 04       		.byte	0x4
 7645 5f8a B75D0000 		.long	0x5db7
 7646 5f8e 02       		.uleb128 0x2
 7647 5f8f 5F41746F 		.ascii "_Atomic_word\0"
 7647      6D69635F 
 7647      776F7264 
 7647      00
 7648 5f9c 1B       		.byte	0x1b
 7649 5f9d 20       		.byte	0x20
 7650 5f9e 7E010000 		.long	0x17e
 7651 5fa2 08       		.uleb128 0x8
 7652 5fa3 04       		.byte	0x4
 7653 5fa4 A85F0000 		.long	0x5fa8
 7654 5fa8 56       		.uleb128 0x56
 7655 5fa9 55       		.uleb128 0x55
 7656 5faa 04       		.byte	0x4
 7657 5fab 4A010000 		.long	0x14a
 7658 5faf 55       		.uleb128 0x55
 7659 5fb0 04       		.byte	0x4
 7660 5fb1 8A4B0000 		.long	0x4b8a
 7661 5fb5 08       		.uleb128 0x8
 7662 5fb6 04       		.byte	0x4
 7663 5fb7 78510000 		.long	0x5178
 7664 5fbb 55       		.uleb128 0x55
 7665 5fbc 04       		.byte	0x4
 7666 5fbd 3B540000 		.long	0x543b
 7667 5fc1 08       		.uleb128 0x8
 7668 5fc2 04       		.byte	0x4
 7669 5fc3 3B540000 		.long	0x543b
 7670 5fc7 08       		.uleb128 0x8
 7671 5fc8 04       		.byte	0x4
 7672 5fc9 F0080000 		.long	0x8f0
 7673 5fcd 55       		.uleb128 0x55
 7674 5fce 04       		.byte	0x4
 7675 5fcf 7C090000 		.long	0x97c
 7676 5fd3 0F       		.uleb128 0xf
 7677 5fd4 7E010000 		.long	0x17e
 7678 5fd8 0F       		.uleb128 0xf
 7679 5fd9 9D5D0000 		.long	0x5d9d
GAS LISTING C:\Users\NJLLMR~1\AppData\Local\Temp\cce8JzPW.s 			page 203


 7680 5fdd 08       		.uleb128 0x8
 7681 5fde 04       		.byte	0x4
 7682 5fdf CB090000 		.long	0x9cb
 7683 5fe3 08       		.uleb128 0x8
 7684 5fe4 04       		.byte	0x4
 7685 5fe5 8A2D0000 		.long	0x2d8a
 7686 5fe9 08       		.uleb128 0x8
 7687 5fea 04       		.byte	0x4
 7688 5feb 81090000 		.long	0x981
 7689 5fef 08       		.uleb128 0x8
 7690 5ff0 04       		.byte	0x4
 7691 5ff1 DE0A0000 		.long	0xade
 7692 5ff5 55       		.uleb128 0x55
 7693 5ff6 04       		.byte	0x4
 7694 5ff7 DE0A0000 		.long	0xade
 7695 5ffb 55       		.uleb128 0x55
 7696 5ffc 04       		.byte	0x4
 7697 5ffd 8A2D0000 		.long	0x2d8a
 7698 6001 55       		.uleb128 0x55
 7699 6002 04       		.byte	0x4
 7700 6003 81090000 		.long	0x981
 7701 6007 57       		.uleb128 0x57
 7702 6008 FD000000 		.long	0xfd
 7703 600c 12600000 		.long	0x6012
 7704 6010 58       		.uleb128 0x58
 7705 6011 00       		.byte	0
 7706 6012 08       		.uleb128 0x8
 7707 6013 04       		.byte	0x4
 7708 6014 5A2C0000 		.long	0x2c5a
 7709 6018 0F       		.uleb128 0xf
 7710 6019 F4020000 		.long	0x2f4
 7711 601d 08       		.uleb128 0x8
 7712 601e 04       		.byte	0x4
 7713 601f DF2F0000 		.long	0x2fdf
 7714 6023 4E       		.uleb128 0x4e
 7715 6024 69737763 		.ascii "iswctype\0"
 7715      74797065 
 7715      00
 7716 602d 1C       		.byte	0x1c
 7717 602e C4       		.byte	0xc4
 7718 602f 7E010000 		.long	0x17e
 7719 6033 42600000 		.long	0x6042
 7720 6037 0E       		.uleb128 0xe
 7721 6038 0D010000 		.long	0x10d
 7722 603c 0E       		.uleb128 0xe
 7723 603d 52010000 		.long	0x152
 7724 6041 00       		.byte	0
 7725 6042 4E       		.uleb128 0x4e
 7726 6043 746F7763 		.ascii "towctrans\0"
 7726      7472616E 
 7726      7300
 7727 604d 0A       		.byte	0xa
 7728 604e 9D       		.byte	0x9d
 7729 604f 0D010000 		.long	0x10d
 7730 6053 62600000 		.long	0x6062
 7731 6057 0E       		.uleb128 0xe
 7732 6058 0D010000 		.long	0x10d
GAS LISTING C:\Users\NJLLMR~1\AppData\Local\Temp\cce8JzPW.s 			page 204


 7733 605c 0E       		.uleb128 0xe
 7734 605d 6D010000 		.long	0x16d
 7735 6061 00       		.byte	0
 7736 6062 4E       		.uleb128 0x4e
 7737 6063 77637472 		.ascii "wctrans\0"
 7737      616E7300 
 7738 606b 0A       		.byte	0xa
 7739 606c 9E       		.byte	0x9e
 7740 606d 6D010000 		.long	0x16d
 7741 6071 7B600000 		.long	0x607b
 7742 6075 0E       		.uleb128 0xe
 7743 6076 844B0000 		.long	0x4b84
 7744 607a 00       		.byte	0
 7745 607b 4E       		.uleb128 0x4e
 7746 607c 77637479 		.ascii "wctype\0"
 7746      706500
 7747 6083 0A       		.byte	0xa
 7748 6084 9F       		.byte	0x9f
 7749 6085 52010000 		.long	0x152
 7750 6089 93600000 		.long	0x6093
 7751 608d 0E       		.uleb128 0xe
 7752 608e 844B0000 		.long	0x4b84
 7753 6092 00       		.byte	0
 7754 6093 0F       		.uleb128 0xf
 7755 6094 A2010000 		.long	0x1a2
 7756 6098 54       		.uleb128 0x54
 7757 6099 1D       		.byte	0x1d
 7758 609a 08       		.byte	0x8
 7759 609b 4F030000 		.long	0x34f
 7760 609f 08       		.uleb128 0x8
 7761 60a0 04       		.byte	0x4
 7762 60a1 A5600000 		.long	0x60a5
 7763 60a5 35       		.uleb128 0x35
 7764 60a6 546F7070 		.ascii "Toppings\0"
 7764      696E6773 
 7764      00
 7765 60af 08       		.uleb128 0x8
 7766 60b0 04       		.byte	0x4
 7767 60b1 B5600000 		.long	0x60b5
 7768 60b5 0F       		.uleb128 0xf
 7769 60b6 A5600000 		.long	0x60a5
 7770 60ba 55       		.uleb128 0x55
 7771 60bb 04       		.byte	0x4
 7772 60bc A5600000 		.long	0x60a5
 7773 60c0 55       		.uleb128 0x55
 7774 60c1 04       		.byte	0x4
 7775 60c2 B5600000 		.long	0x60b5
 7776 60c6 08       		.uleb128 0x8
 7777 60c7 04       		.byte	0x4
 7778 60c8 91560000 		.long	0x5691
 7779 60cc 55       		.uleb128 0x55
 7780 60cd 04       		.byte	0x4
 7781 60ce 9C590000 		.long	0x599c
 7782 60d2 08       		.uleb128 0x8
 7783 60d3 04       		.byte	0x4
 7784 60d4 9C590000 		.long	0x599c
 7785 60d8 08       		.uleb128 0x8
GAS LISTING C:\Users\NJLLMR~1\AppData\Local\Temp\cce8JzPW.s 			page 205


 7786 60d9 04       		.byte	0x4
 7787 60da F1320000 		.long	0x32f1
 7788 60de 55       		.uleb128 0x55
 7789 60df 04       		.byte	0x4
 7790 60e0 BE330000 		.long	0x33be
 7791 60e4 55       		.uleb128 0x55
 7792 60e5 04       		.byte	0x4
 7793 60e6 F1320000 		.long	0x32f1
 7794 60ea 08       		.uleb128 0x8
 7795 60eb 04       		.byte	0x4
 7796 60ec FD330000 		.long	0x33fd
 7797 60f0 55       		.uleb128 0x55
 7798 60f1 04       		.byte	0x4
 7799 60f2 0F350000 		.long	0x350f
 7800 60f6 55       		.uleb128 0x55
 7801 60f7 04       		.byte	0x4
 7802 60f8 FD330000 		.long	0x33fd
 7803 60fc 55       		.uleb128 0x55
 7804 60fd 04       		.byte	0x4
 7805 60fe 14350000 		.long	0x3514
 7806 6102 08       		.uleb128 0x8
 7807 6103 04       		.byte	0x4
 7808 6104 C3330000 		.long	0x33c3
 7809 6108 08       		.uleb128 0x8
 7810 6109 04       		.byte	0x4
 7811 610a 0A380000 		.long	0x380a
 7812 610e 55       		.uleb128 0x55
 7813 610f 04       		.byte	0x4
 7814 6110 72360000 		.long	0x3672
 7815 6114 08       		.uleb128 0x8
 7816 6115 04       		.byte	0x4
 7817 6116 0F380000 		.long	0x380f
 7818 611a 55       		.uleb128 0x55
 7819 611b 04       		.byte	0x4
 7820 611c 2A390000 		.long	0x392a
 7821 6120 55       		.uleb128 0x55
 7822 6121 04       		.byte	0x4
 7823 6122 55390000 		.long	0x3955
 7824 6126 55       		.uleb128 0x55
 7825 6127 04       		.byte	0x4
 7826 6128 4A480000 		.long	0x484a
 7827 612c 55       		.uleb128 0x55
 7828 612d 04       		.byte	0x4
 7829 612e 0F380000 		.long	0x380f
 7830 6132 08       		.uleb128 0x8
 7831 6133 04       		.byte	0x4
 7832 6134 4A480000 		.long	0x484a
 7833 6138 15       		.uleb128 0x15
 7834 6139 50697A7A 		.ascii "Pizza\0"
 7834      6100
 7835 613f 28       		.byte	0x28
 7836 6140 1E       		.byte	0x1e
 7837 6141 06       		.byte	0x6
 7838 6142 82630000 		.long	0x6382
 7839 6146 07       		.uleb128 0x7
 7840 6147 5F706572 		.ascii "_person\0"
 7840      736F6E00 
GAS LISTING C:\Users\NJLLMR~1\AppData\Local\Temp\cce8JzPW.s 			page 206


 7841 614f 1E       		.byte	0x1e
 7842 6150 14       		.byte	0x14
 7843 6151 8F2D0000 		.long	0x2d8f
 7844 6155 00       		.byte	0
 7845 6156 07       		.uleb128 0x7
 7846 6157 5F707269 		.ascii "_price\0"
 7846      636500
 7847 615e 1E       		.byte	0x1e
 7848 615f 15       		.byte	0x15
 7849 6160 7E010000 		.long	0x17e
 7850 6164 04       		.byte	0x4
 7851 6165 07       		.uleb128 0x7
 7852 6166 5F746F70 		.ascii "_topping\0"
 7852      70696E67 
 7852      00
 7853 616f 1E       		.byte	0x1e
 7854 6170 16       		.byte	0x16
 7855 6171 0F380000 		.long	0x380f
 7856 6175 08       		.byte	0x8
 7857 6176 07       		.uleb128 0x7
 7858 6177 5F73697A 		.ascii "_size\0"
 7858      6500
 7859 617d 1E       		.byte	0x1e
 7860 617e 17       		.byte	0x17
 7861 617f 8F2D0000 		.long	0x2d8f
 7862 6183 14       		.byte	0x14
 7863 6184 07       		.uleb128 0x7
 7864 6185 5F736175 		.ascii "_sauce\0"
 7864      636500
 7865 618c 1E       		.byte	0x1e
 7866 618d 18       		.byte	0x18
 7867 618e 8F2D0000 		.long	0x2d8f
 7868 6192 18       		.byte	0x18
 7869 6193 07       		.uleb128 0x7
 7870 6194 5F636865 		.ascii "_cheese\0"
 7870      65736500 
 7871 619c 1E       		.byte	0x1e
 7872 619d 19       		.byte	0x19
 7873 619e 8F2D0000 		.long	0x2d8f
 7874 61a2 1C       		.byte	0x1c
 7875 61a3 07       		.uleb128 0x7
 7876 61a4 5F637275 		.ascii "_crust\0"
 7876      737400
 7877 61ab 1E       		.byte	0x1e
 7878 61ac 1A       		.byte	0x1a
 7879 61ad 8F2D0000 		.long	0x2d8f
 7880 61b1 20       		.byte	0x20
 7881 61b2 07       		.uleb128 0x7
 7882 61b3 5F737461 		.ascii "_status\0"
 7882      74757300 
 7883 61bb 1E       		.byte	0x1e
 7884 61bc 1B       		.byte	0x1b
 7885 61bd 4A010000 		.long	0x14a
 7886 61c1 24       		.byte	0x24
 7887 61c2 59       		.uleb128 0x59
 7888 61c3 50697A7A 		.ascii "Pizza\0"
 7888      6100
GAS LISTING C:\Users\NJLLMR~1\AppData\Local\Temp\cce8JzPW.s 			page 207


 7889 61c9 1E       		.byte	0x1e
 7890 61ca 09       		.byte	0x9
 7891 61cb 01       		.byte	0x1
 7892 61cc D4610000 		.long	0x61d4
 7893 61d0 DA610000 		.long	0x61da
 7894 61d4 19       		.uleb128 0x19
 7895 61d5 82630000 		.long	0x6382
 7896 61d9 00       		.byte	0
 7897 61da 59       		.uleb128 0x59
 7898 61db 7E50697A 		.ascii "~Pizza\0"
 7898      7A6100
 7899 61e2 1E       		.byte	0x1e
 7900 61e3 0A       		.byte	0xa
 7901 61e4 01       		.byte	0x1
 7902 61e5 ED610000 		.long	0x61ed
 7903 61e9 F8610000 		.long	0x61f8
 7904 61ed 19       		.uleb128 0x19
 7905 61ee 82630000 		.long	0x6382
 7906 61f2 19       		.uleb128 0x19
 7907 61f3 7E010000 		.long	0x17e
 7908 61f7 00       		.byte	0
 7909 61f8 47       		.uleb128 0x47
 7910 61f9 7365745F 		.ascii "set_person\0"
 7910      70657273 
 7910      6F6E00
 7911 6204 1E       		.byte	0x1e
 7912 6205 0B       		.byte	0xb
 7913 6206 5F5A4E35 		.ascii "_ZN5Pizza10set_personESs\0"
 7913      50697A7A 
 7913      61313073 
 7913      65745F70 
 7913      6572736F 
 7914 621f 01       		.byte	0x1
 7915 6220 28620000 		.long	0x6228
 7916 6224 33620000 		.long	0x6233
 7917 6228 19       		.uleb128 0x19
 7918 6229 82630000 		.long	0x6382
 7919 622d 0E       		.uleb128 0xe
 7920 622e 8F2D0000 		.long	0x2d8f
 7921 6232 00       		.byte	0
 7922 6233 47       		.uleb128 0x47
 7923 6234 7365745F 		.ascii "set_price\0"
 7923      70726963 
 7923      6500
 7924 623e 1E       		.byte	0x1e
 7925 623f 0C       		.byte	0xc
 7926 6240 5F5A4E35 		.ascii "_ZN5Pizza9set_priceEi\0"
 7926      50697A7A 
 7926      61397365 
 7926      745F7072 
 7926      69636545 
 7927 6256 01       		.byte	0x1
 7928 6257 5F620000 		.long	0x625f
 7929 625b 6A620000 		.long	0x626a
 7930 625f 19       		.uleb128 0x19
 7931 6260 82630000 		.long	0x6382
 7932 6264 0E       		.uleb128 0xe
GAS LISTING C:\Users\NJLLMR~1\AppData\Local\Temp\cce8JzPW.s 			page 208


 7933 6265 7E010000 		.long	0x17e
 7934 6269 00       		.byte	0
 7935 626a 47       		.uleb128 0x47
 7936 626b 7365745F 		.ascii "set_size\0"
 7936      73697A65 
 7936      00
 7937 6274 1E       		.byte	0x1e
 7938 6275 0D       		.byte	0xd
 7939 6276 5F5A4E35 		.ascii "_ZN5Pizza8set_sizeESs\0"
 7939      50697A7A 
 7939      61387365 
 7939      745F7369 
 7939      7A654553 
 7940 628c 01       		.byte	0x1
 7941 628d 95620000 		.long	0x6295
 7942 6291 A0620000 		.long	0x62a0
 7943 6295 19       		.uleb128 0x19
 7944 6296 82630000 		.long	0x6382
 7945 629a 0E       		.uleb128 0xe
 7946 629b 8F2D0000 		.long	0x2d8f
 7947 629f 00       		.byte	0
 7948 62a0 47       		.uleb128 0x47
 7949 62a1 7365745F 		.ascii "set_sauce\0"
 7949      73617563 
 7949      6500
 7950 62ab 1E       		.byte	0x1e
 7951 62ac 0E       		.byte	0xe
 7952 62ad 5F5A4E35 		.ascii "_ZN5Pizza9set_sauceESs\0"
 7952      50697A7A 
 7952      61397365 
 7952      745F7361 
 7952      75636545 
 7953 62c4 01       		.byte	0x1
 7954 62c5 CD620000 		.long	0x62cd
 7955 62c9 D8620000 		.long	0x62d8
 7956 62cd 19       		.uleb128 0x19
 7957 62ce 82630000 		.long	0x6382
 7958 62d2 0E       		.uleb128 0xe
 7959 62d3 8F2D0000 		.long	0x2d8f
 7960 62d7 00       		.byte	0
 7961 62d8 47       		.uleb128 0x47
 7962 62d9 7365745F 		.ascii "set_cheese\0"
 7962      63686565 
 7962      736500
 7963 62e4 1E       		.byte	0x1e
 7964 62e5 0F       		.byte	0xf
 7965 62e6 5F5A4E35 		.ascii "_ZN5Pizza10set_cheeseESs\0"
 7965      50697A7A 
 7965      61313073 
 7965      65745F63 
 7965      68656573 
 7966 62ff 01       		.byte	0x1
 7967 6300 08630000 		.long	0x6308
 7968 6304 13630000 		.long	0x6313
 7969 6308 19       		.uleb128 0x19
 7970 6309 82630000 		.long	0x6382
 7971 630d 0E       		.uleb128 0xe
GAS LISTING C:\Users\NJLLMR~1\AppData\Local\Temp\cce8JzPW.s 			page 209


 7972 630e 8F2D0000 		.long	0x2d8f
 7973 6312 00       		.byte	0
 7974 6313 47       		.uleb128 0x47
 7975 6314 7365745F 		.ascii "set_crust\0"
 7975      63727573 
 7975      7400
 7976 631e 1E       		.byte	0x1e
 7977 631f 10       		.byte	0x10
 7978 6320 5F5A4E35 		.ascii "_ZN5Pizza9set_crustESs\0"
 7978      50697A7A 
 7978      61397365 
 7978      745F6372 
 7978      75737445 
 7979 6337 01       		.byte	0x1
 7980 6338 40630000 		.long	0x6340
 7981 633c 4B630000 		.long	0x634b
 7982 6340 19       		.uleb128 0x19
 7983 6341 82630000 		.long	0x6382
 7984 6345 0E       		.uleb128 0xe
 7985 6346 8F2D0000 		.long	0x2d8f
 7986 634a 00       		.byte	0
 7987 634b 5A       		.uleb128 0x5a
 7988 634c 7365745F 		.ascii "set_status\0"
 7988      73746174 
 7988      757300
 7989 6357 1E       		.byte	0x1e
 7990 6358 11       		.byte	0x11
 7991 6359 5F5A4E35 		.ascii "_ZN5Pizza10set_statusEc\0"
 7991      50697A7A 
 7991      61313073 
 7991      65745F73 
 7991      74617475 
 7992 6371 01       		.byte	0x1
 7993 6372 76630000 		.long	0x6376
 7994 6376 19       		.uleb128 0x19
 7995 6377 82630000 		.long	0x6382
 7996 637b 0E       		.uleb128 0xe
 7997 637c 4A010000 		.long	0x14a
 7998 6380 00       		.byte	0
 7999 6381 00       		.byte	0
 8000 6382 08       		.uleb128 0x8
 8001 6383 04       		.byte	0x4
 8002 6384 38610000 		.long	0x6138
 8003 6388 5B       		.uleb128 0x5b
 8004 6389 C2610000 		.long	0x61c2
 8005 638d 01       		.byte	0x1
 8006 638e 03       		.byte	0x3
 8007 638f 00       		.byte	0
 8008 6390 98630000 		.long	0x6398
 8009 6394 A2630000 		.long	0x63a2
 8010 6398 5C       		.uleb128 0x5c
 8011 6399 68010000 		.secrel32	LASF57
 8012 639d A2630000 		.long	0x63a2
 8013 63a1 00       		.byte	0
 8014 63a2 0F       		.uleb128 0xf
 8015 63a3 82630000 		.long	0x6382
 8016 63a7 5D       		.uleb128 0x5d
GAS LISTING C:\Users\NJLLMR~1\AppData\Local\Temp\cce8JzPW.s 			page 210


 8017 63a8 88630000 		.long	0x6388
 8018 63ac 5F5A4E35 		.ascii "_ZN5PizzaC2Ev\0"
 8018      50697A7A 
 8018      61433245 
 8018      7600
 8019 63ba 00000000 		.long	LFB1282
 8020 63be 39020000 		.long	LFE1282-LFB1282
 8021 63c2 01       		.uleb128 0x1
 8022 63c3 9C       		.byte	0x9c
 8023 63c4 CC630000 		.long	0x63cc
 8024 63c8 D5630000 		.long	0x63d5
 8025 63cc 5E       		.uleb128 0x5e
 8026 63cd 98630000 		.long	0x6398
 8027 63d1 02       		.uleb128 0x2
 8028 63d2 91       		.byte	0x91
 8029 63d3 5C       		.sleb128 -36
 8030 63d4 00       		.byte	0
 8031 63d5 5B       		.uleb128 0x5b
 8032 63d6 DA610000 		.long	0x61da
 8033 63da 01       		.byte	0x1
 8034 63db 0E       		.byte	0xe
 8035 63dc 00       		.byte	0
 8036 63dd E5630000 		.long	0x63e5
 8037 63e1 F8630000 		.long	0x63f8
 8038 63e5 5C       		.uleb128 0x5c
 8039 63e6 68010000 		.secrel32	LASF57
 8040 63ea A2630000 		.long	0x63a2
 8041 63ee 5C       		.uleb128 0x5c
 8042 63ef 57010000 		.secrel32	LASF58
 8043 63f3 D35F0000 		.long	0x5fd3
 8044 63f7 00       		.byte	0
 8045 63f8 5D       		.uleb128 0x5d
 8046 63f9 D5630000 		.long	0x63d5
 8047 63fd 5F5A4E35 		.ascii "_ZN5PizzaD2Ev\0"
 8047      50697A7A 
 8047      61443245 
 8047      7600
 8048 640b 3A020000 		.long	LFB1285
 8049 640f 99010000 		.long	LFE1285-LFB1285
 8050 6413 01       		.uleb128 0x1
 8051 6414 9C       		.byte	0x9c
 8052 6415 1D640000 		.long	0x641d
 8053 6419 26640000 		.long	0x6426
 8054 641d 5E       		.uleb128 0x5e
 8055 641e E5630000 		.long	0x63e5
 8056 6422 02       		.uleb128 0x2
 8057 6423 91       		.byte	0x91
 8058 6424 5C       		.sleb128 -36
 8059 6425 00       		.byte	0
 8060 6426 5F       		.uleb128 0x5f
 8061 6427 F8610000 		.long	0x61f8
 8062 642b 01       		.byte	0x1
 8063 642c 12       		.byte	0x12
 8064 642d D4030000 		.long	LFB1287
 8065 6431 20000000 		.long	LFE1287-LFB1287
 8066 6435 01       		.uleb128 0x1
 8067 6436 9C       		.byte	0x9c
GAS LISTING C:\Users\NJLLMR~1\AppData\Local\Temp\cce8JzPW.s 			page 211


 8068 6437 3F640000 		.long	0x643f
 8069 643b 5E640000 		.long	0x645e
 8070 643f 60       		.uleb128 0x60
 8071 6440 68010000 		.secrel32	LASF57
 8072 6444 A2630000 		.long	0x63a2
 8073 6448 02       		.uleb128 0x2
 8074 6449 91       		.byte	0x91
 8075 644a 6C       		.sleb128 -20
 8076 644b 61       		.uleb128 0x61
 8077 644c 70657273 		.ascii "person\0"
 8077      6F6E00
 8078 6453 01       		.byte	0x1
 8079 6454 12       		.byte	0x12
 8080 6455 8F2D0000 		.long	0x2d8f
 8081 6459 03       		.uleb128 0x3
 8082 645a 91       		.byte	0x91
 8083 645b 00       		.sleb128 0
 8084 645c 06       		.byte	0x6
 8085 645d 00       		.byte	0
 8086 645e 62       		.uleb128 0x62
 8087 645f 33620000 		.long	0x6233
 8088 6463 01       		.byte	0x1
 8089 6464 16       		.byte	0x16
 8090 6465 F4030000 		.long	LFB1288
 8091 6469 16000000 		.long	LFE1288-LFB1288
 8092 646d 01       		.uleb128 0x1
 8093 646e 9C       		.byte	0x9c
 8094 646f 77640000 		.long	0x6477
 8095 6473 94640000 		.long	0x6494
 8096 6477 60       		.uleb128 0x60
 8097 6478 68010000 		.secrel32	LASF57
 8098 647c A2630000 		.long	0x63a2
 8099 6480 02       		.uleb128 0x2
 8100 6481 91       		.byte	0x91
 8101 6482 74       		.sleb128 -12
 8102 6483 61       		.uleb128 0x61
 8103 6484 70726963 		.ascii "price\0"
 8103      6500
 8104 648a 01       		.byte	0x1
 8105 648b 16       		.byte	0x16
 8106 648c 7E010000 		.long	0x17e
 8107 6490 02       		.uleb128 0x2
 8108 6491 91       		.byte	0x91
 8109 6492 00       		.sleb128 0
 8110 6493 00       		.byte	0
 8111 6494 5F       		.uleb128 0x5f
 8112 6495 6A620000 		.long	0x626a
 8113 6499 01       		.byte	0x1
 8114 649a 1A       		.byte	0x1a
 8115 649b 0A040000 		.long	LFB1289
 8116 649f 23000000 		.long	LFE1289-LFB1289
 8117 64a3 01       		.uleb128 0x1
 8118 64a4 9C       		.byte	0x9c
 8119 64a5 AD640000 		.long	0x64ad
 8120 64a9 CD640000 		.long	0x64cd
 8121 64ad 60       		.uleb128 0x60
 8122 64ae 68010000 		.secrel32	LASF57
GAS LISTING C:\Users\NJLLMR~1\AppData\Local\Temp\cce8JzPW.s 			page 212


 8123 64b2 A2630000 		.long	0x63a2
 8124 64b6 02       		.uleb128 0x2
 8125 64b7 91       		.byte	0x91
 8126 64b8 6C       		.sleb128 -20
 8127 64b9 61       		.uleb128 0x61
 8128 64ba 73697A65 		.ascii "size_of\0"
 8128      5F6F6600 
 8129 64c2 01       		.byte	0x1
 8130 64c3 1A       		.byte	0x1a
 8131 64c4 8F2D0000 		.long	0x2d8f
 8132 64c8 03       		.uleb128 0x3
 8133 64c9 91       		.byte	0x91
 8134 64ca 00       		.sleb128 0
 8135 64cb 06       		.byte	0x6
 8136 64cc 00       		.byte	0
 8137 64cd 5F       		.uleb128 0x5f
 8138 64ce A0620000 		.long	0x62a0
 8139 64d2 01       		.byte	0x1
 8140 64d3 1E       		.byte	0x1e
 8141 64d4 2E040000 		.long	LFB1290
 8142 64d8 23000000 		.long	LFE1290-LFB1290
 8143 64dc 01       		.uleb128 0x1
 8144 64dd 9C       		.byte	0x9c
 8145 64de E6640000 		.long	0x64e6
 8146 64e2 04650000 		.long	0x6504
 8147 64e6 60       		.uleb128 0x60
 8148 64e7 68010000 		.secrel32	LASF57
 8149 64eb A2630000 		.long	0x63a2
 8150 64ef 02       		.uleb128 0x2
 8151 64f0 91       		.byte	0x91
 8152 64f1 6C       		.sleb128 -20
 8153 64f2 61       		.uleb128 0x61
 8154 64f3 73617563 		.ascii "sauce\0"
 8154      6500
 8155 64f9 01       		.byte	0x1
 8156 64fa 1E       		.byte	0x1e
 8157 64fb 8F2D0000 		.long	0x2d8f
 8158 64ff 03       		.uleb128 0x3
 8159 6500 91       		.byte	0x91
 8160 6501 00       		.sleb128 0
 8161 6502 06       		.byte	0x6
 8162 6503 00       		.byte	0
 8163 6504 5F       		.uleb128 0x5f
 8164 6505 D8620000 		.long	0x62d8
 8165 6509 01       		.byte	0x1
 8166 650a 22       		.byte	0x22
 8167 650b 52040000 		.long	LFB1291
 8168 650f 23000000 		.long	LFE1291-LFB1291
 8169 6513 01       		.uleb128 0x1
 8170 6514 9C       		.byte	0x9c
 8171 6515 1D650000 		.long	0x651d
 8172 6519 3C650000 		.long	0x653c
 8173 651d 60       		.uleb128 0x60
 8174 651e 68010000 		.secrel32	LASF57
 8175 6522 A2630000 		.long	0x63a2
 8176 6526 02       		.uleb128 0x2
 8177 6527 91       		.byte	0x91
GAS LISTING C:\Users\NJLLMR~1\AppData\Local\Temp\cce8JzPW.s 			page 213


 8178 6528 6C       		.sleb128 -20
 8179 6529 61       		.uleb128 0x61
 8180 652a 63686565 		.ascii "cheese\0"
 8180      736500
 8181 6531 01       		.byte	0x1
 8182 6532 22       		.byte	0x22
 8183 6533 8F2D0000 		.long	0x2d8f
 8184 6537 03       		.uleb128 0x3
 8185 6538 91       		.byte	0x91
 8186 6539 00       		.sleb128 0
 8187 653a 06       		.byte	0x6
 8188 653b 00       		.byte	0
 8189 653c 5F       		.uleb128 0x5f
 8190 653d 13630000 		.long	0x6313
 8191 6541 01       		.byte	0x1
 8192 6542 26       		.byte	0x26
 8193 6543 76040000 		.long	LFB1292
 8194 6547 23000000 		.long	LFE1292-LFB1292
 8195 654b 01       		.uleb128 0x1
 8196 654c 9C       		.byte	0x9c
 8197 654d 55650000 		.long	0x6555
 8198 6551 73650000 		.long	0x6573
 8199 6555 60       		.uleb128 0x60
 8200 6556 68010000 		.secrel32	LASF57
 8201 655a A2630000 		.long	0x63a2
 8202 655e 02       		.uleb128 0x2
 8203 655f 91       		.byte	0x91
 8204 6560 6C       		.sleb128 -20
 8205 6561 61       		.uleb128 0x61
 8206 6562 63727573 		.ascii "crust\0"
 8206      7400
 8207 6568 01       		.byte	0x1
 8208 6569 26       		.byte	0x26
 8209 656a 8F2D0000 		.long	0x2d8f
 8210 656e 03       		.uleb128 0x3
 8211 656f 91       		.byte	0x91
 8212 6570 00       		.sleb128 0
 8213 6571 06       		.byte	0x6
 8214 6572 00       		.byte	0
 8215 6573 62       		.uleb128 0x62
 8216 6574 4B630000 		.long	0x634b
 8217 6578 01       		.byte	0x1
 8218 6579 2A       		.byte	0x2a
 8219 657a 9A040000 		.long	LFB1293
 8220 657e 1D000000 		.long	LFE1293-LFB1293
 8221 6582 01       		.uleb128 0x1
 8222 6583 9C       		.byte	0x9c
 8223 6584 8C650000 		.long	0x658c
 8224 6588 AA650000 		.long	0x65aa
 8225 658c 60       		.uleb128 0x60
 8226 658d 68010000 		.secrel32	LASF57
 8227 6591 A2630000 		.long	0x63a2
 8228 6595 02       		.uleb128 0x2
 8229 6596 91       		.byte	0x91
 8230 6597 74       		.sleb128 -12
 8231 6598 61       		.uleb128 0x61
 8232 6599 73746174 		.ascii "status\0"
GAS LISTING C:\Users\NJLLMR~1\AppData\Local\Temp\cce8JzPW.s 			page 214


 8232      757300
 8233 65a0 01       		.byte	0x1
 8234 65a1 2A       		.byte	0x2a
 8235 65a2 4A010000 		.long	0x14a
 8236 65a6 02       		.uleb128 0x2
 8237 65a7 91       		.byte	0x91
 8238 65a8 70       		.sleb128 -16
 8239 65a9 00       		.byte	0
 8240 65aa 63       		.uleb128 0x63
 8241 65ab F8380000 		.long	0x38f8
 8242 65af 02       		.byte	0x2
 8243 65b0 B8650000 		.long	0x65b8
 8244 65b4 C2650000 		.long	0x65c2
 8245 65b8 5C       		.uleb128 0x5c
 8246 65b9 68010000 		.secrel32	LASF57
 8247 65bd C2650000 		.long	0x65c2
 8248 65c1 00       		.byte	0
 8249 65c2 0F       		.uleb128 0xf
 8250 65c3 14610000 		.long	0x6114
 8251 65c7 5D       		.uleb128 0x5d
 8252 65c8 AA650000 		.long	0x65aa
 8253 65cc 5F5A4E53 		.ascii "_ZNSt6vectorI8ToppingsSaIS0_EEC1Ev\0"
 8253      74367665 
 8253      63746F72 
 8253      4938546F 
 8253      7070696E 
 8254 65ef 00000000 		.long	LFB1306
 8255 65f3 15000000 		.long	LFE1306-LFB1306
 8256 65f7 01       		.uleb128 0x1
 8257 65f8 9C       		.byte	0x9c
 8258 65f9 01660000 		.long	0x6601
 8259 65fd 0A660000 		.long	0x660a
 8260 6601 5E       		.uleb128 0x5e
 8261 6602 B8650000 		.long	0x65b8
 8262 6606 02       		.uleb128 0x2
 8263 6607 91       		.byte	0x91
 8264 6608 6C       		.sleb128 -20
 8265 6609 00       		.byte	0
 8266 660a 63       		.uleb128 0x63
 8267 660b 76390000 		.long	0x3976
 8268 660f 02       		.byte	0x2
 8269 6610 18660000 		.long	0x6618
 8270 6614 2B660000 		.long	0x662b
 8271 6618 5C       		.uleb128 0x5c
 8272 6619 68010000 		.secrel32	LASF57
 8273 661d C2650000 		.long	0x65c2
 8274 6621 5C       		.uleb128 0x5c
 8275 6622 57010000 		.secrel32	LASF58
 8276 6626 D35F0000 		.long	0x5fd3
 8277 662a 00       		.byte	0
 8278 662b 5D       		.uleb128 0x5d
 8279 662c 0A660000 		.long	0x660a
 8280 6630 5F5A4E53 		.ascii "_ZNSt6vectorI8ToppingsSaIS0_EED1Ev\0"
 8280      74367665 
 8280      63746F72 
 8280      4938546F 
 8280      7070696E 
GAS LISTING C:\Users\NJLLMR~1\AppData\Local\Temp\cce8JzPW.s 			page 215


 8281 6653 00000000 		.long	LFB1309
 8282 6657 B8000000 		.long	LFE1309-LFB1309
 8283 665b 01       		.uleb128 0x1
 8284 665c 9C       		.byte	0x9c
 8285 665d 65660000 		.long	0x6665
 8286 6661 6E660000 		.long	0x666e
 8287 6665 5E       		.uleb128 0x5e
 8288 6666 18660000 		.long	0x6618
 8289 666a 02       		.uleb128 0x2
 8290 666b 91       		.byte	0x91
 8291 666c 5C       		.sleb128 -36
 8292 666d 00       		.byte	0
 8293 666e 64       		.uleb128 0x64
 8294 666f 8C430000 		.long	0x438c
 8295 6673 00000000 		.long	LFB1311
 8296 6677 20000000 		.long	LFE1311-LFB1311
 8297 667b 01       		.uleb128 0x1
 8298 667c 9C       		.byte	0x9c
 8299 667d 85660000 		.long	0x6685
 8300 6681 92660000 		.long	0x6692
 8301 6685 60       		.uleb128 0x60
 8302 6686 68010000 		.secrel32	LASF57
 8303 668a C2650000 		.long	0x65c2
 8304 668e 02       		.uleb128 0x2
 8305 668f 91       		.byte	0x91
 8306 6690 6C       		.sleb128 -20
 8307 6691 00       		.byte	0
 8308 6692 5B       		.uleb128 0x5b
 8309 6693 E5340000 		.long	0x34e5
 8310 6697 02       		.byte	0x2
 8311 6698 4F       		.byte	0x4f
 8312 6699 02       		.byte	0x2
 8313 669a A2660000 		.long	0x66a2
 8314 669e B5660000 		.long	0x66b5
 8315 66a2 5C       		.uleb128 0x5c
 8316 66a3 68010000 		.secrel32	LASF57
 8317 66a7 B5660000 		.long	0x66b5
 8318 66ab 5C       		.uleb128 0x5c
 8319 66ac 57010000 		.secrel32	LASF58
 8320 66b0 D35F0000 		.long	0x5fd3
 8321 66b4 00       		.byte	0
 8322 66b5 0F       		.uleb128 0xf
 8323 66b6 EA600000 		.long	0x60ea
 8324 66ba 5D       		.uleb128 0x5d
 8325 66bb 92660000 		.long	0x6692
 8326 66bf 5F5A4E53 		.ascii "_ZNSt12_Vector_baseI8ToppingsSaIS0_EE12_Vector_implD1Ev\0"
 8326      7431325F 
 8326      56656374 
 8326      6F725F62 
 8326      61736549 
 8327 66f7 00000000 		.long	LFB1330
 8328 66fb 15000000 		.long	LFE1330-LFB1330
 8329 66ff 01       		.uleb128 0x1
 8330 6700 9C       		.byte	0x9c
 8331 6701 09670000 		.long	0x6709
 8332 6705 12670000 		.long	0x6712
 8333 6709 5E       		.uleb128 0x5e
GAS LISTING C:\Users\NJLLMR~1\AppData\Local\Temp\cce8JzPW.s 			page 216


 8334 670a A2660000 		.long	0x66a2
 8335 670e 02       		.uleb128 0x2
 8336 670f 91       		.byte	0x91
 8337 6710 6C       		.sleb128 -20
 8338 6711 00       		.byte	0
 8339 6712 63       		.uleb128 0x63
 8340 6713 43360000 		.long	0x3643
 8341 6717 02       		.byte	0x2
 8342 6718 20670000 		.long	0x6720
 8343 671c 2A670000 		.long	0x672a
 8344 6720 5C       		.uleb128 0x5c
 8345 6721 68010000 		.secrel32	LASF57
 8346 6725 2A670000 		.long	0x672a
 8347 6729 00       		.byte	0
 8348 672a 0F       		.uleb128 0xf
 8349 672b 02610000 		.long	0x6102
 8350 672f 5D       		.uleb128 0x5d
 8351 6730 12670000 		.long	0x6712
 8352 6734 5F5A4E53 		.ascii "_ZNSt12_Vector_baseI8ToppingsSaIS0_EEC2Ev\0"
 8352      7431325F 
 8352      56656374 
 8352      6F725F62 
 8352      61736549 
 8353 675e 00000000 		.long	LFB1331
 8354 6762 15000000 		.long	LFE1331-LFB1331
 8355 6766 01       		.uleb128 0x1
 8356 6767 9C       		.byte	0x9c
 8357 6768 70670000 		.long	0x6770
 8358 676c 79670000 		.long	0x6779
 8359 6770 5E       		.uleb128 0x5e
 8360 6771 20670000 		.long	0x6720
 8361 6775 02       		.uleb128 0x2
 8362 6776 91       		.byte	0x91
 8363 6777 6C       		.sleb128 -20
 8364 6778 00       		.byte	0
 8365 6779 63       		.uleb128 0x63
 8366 677a B0360000 		.long	0x36b0
 8367 677e 02       		.byte	0x2
 8368 677f 87670000 		.long	0x6787
 8369 6783 9A670000 		.long	0x679a
 8370 6787 5C       		.uleb128 0x5c
 8371 6788 68010000 		.secrel32	LASF57
 8372 678c 2A670000 		.long	0x672a
 8373 6790 5C       		.uleb128 0x5c
 8374 6791 57010000 		.secrel32	LASF58
 8375 6795 D35F0000 		.long	0x5fd3
 8376 6799 00       		.byte	0
 8377 679a 5D       		.uleb128 0x5d
 8378 679b 79670000 		.long	0x6779
 8379 679f 5F5A4E53 		.ascii "_ZNSt12_Vector_baseI8ToppingsSaIS0_EED2Ev\0"
 8379      7431325F 
 8379      56656374 
 8379      6F725F62 
 8379      61736549 
 8380 67c9 00000000 		.long	LFB1334
 8381 67cd B8000000 		.long	LFE1334-LFB1334
 8382 67d1 01       		.uleb128 0x1
GAS LISTING C:\Users\NJLLMR~1\AppData\Local\Temp\cce8JzPW.s 			page 217


 8383 67d2 9C       		.byte	0x9c
 8384 67d3 DB670000 		.long	0x67db
 8385 67d7 E4670000 		.long	0x67e4
 8386 67db 5E       		.uleb128 0x5e
 8387 67dc 87670000 		.long	0x6787
 8388 67e0 02       		.uleb128 0x2
 8389 67e1 91       		.byte	0x91
 8390 67e2 5C       		.sleb128 -36
 8391 67e3 00       		.byte	0
 8392 67e4 65       		.uleb128 0x65
 8393 67e5 45350000 		.long	0x3545
 8394 67e9 00000000 		.long	LFB1336
 8395 67ed 0E000000 		.long	LFE1336-LFB1336
 8396 67f1 01       		.uleb128 0x1
 8397 67f2 9C       		.byte	0x9c
 8398 67f3 FB670000 		.long	0x67fb
 8399 67f7 08680000 		.long	0x6808
 8400 67fb 60       		.uleb128 0x60
 8401 67fc 68010000 		.secrel32	LASF57
 8402 6800 2A670000 		.long	0x672a
 8403 6804 02       		.uleb128 0x2
 8404 6805 91       		.byte	0x91
 8405 6806 74       		.sleb128 -12
 8406 6807 00       		.byte	0
 8407 6808 66       		.uleb128 0x66
 8408 6809 CF480000 		.long	0x48cf
 8409 680d 00000000 		.long	LFB1337
 8410 6811 1A000000 		.long	LFE1337-LFB1337
 8411 6815 01       		.uleb128 0x1
 8412 6816 9C       		.byte	0x9c
 8413 6817 52680000 		.long	0x6852
 8414 681b 48       		.uleb128 0x48
 8415 681c 6F020000 		.secrel32	LASF44
 8416 6820 9F600000 		.long	0x609f
 8417 6824 32       		.uleb128 0x32
 8418 6825 5F547000 		.ascii "_Tp\0"
 8419 6829 A5600000 		.long	0x60a5
 8420 682d 67       		.uleb128 0x67
 8421 682e A6000000 		.secrel32	LASF59
 8422 6832 03       		.byte	0x3
 8423 6833 94       		.byte	0x94
 8424 6834 9F600000 		.long	0x609f
 8425 6838 02       		.uleb128 0x2
 8426 6839 91       		.byte	0x91
 8427 683a 00       		.sleb128 0
 8428 683b 67       		.uleb128 0x67
 8429 683c 5B020000 		.secrel32	LASF60
 8430 6840 03       		.byte	0x3
 8431 6841 94       		.byte	0x94
 8432 6842 9F600000 		.long	0x609f
 8433 6846 02       		.uleb128 0x2
 8434 6847 91       		.byte	0x91
 8435 6848 04       		.sleb128 4
 8436 6849 68       		.uleb128 0x68
 8437 684a 52680000 		.long	0x6852
 8438 684e 02       		.uleb128 0x2
 8439 684f 91       		.byte	0x91
GAS LISTING C:\Users\NJLLMR~1\AppData\Local\Temp\cce8JzPW.s 			page 218


 8440 6850 08       		.sleb128 8
 8441 6851 00       		.byte	0
 8442 6852 0F       		.uleb128 0xf
 8443 6853 E4600000 		.long	0x60e4
 8444 6857 64       		.uleb128 0x64
 8445 6858 0E460000 		.long	0x460e
 8446 685c 00000000 		.long	LFB1339
 8447 6860 3B000000 		.long	LFE1339-LFB1339
 8448 6864 01       		.uleb128 0x1
 8449 6865 9C       		.byte	0x9c
 8450 6866 6E680000 		.long	0x686e
 8451 686a 8C680000 		.long	0x688c
 8452 686e 60       		.uleb128 0x60
 8453 686f 68010000 		.secrel32	LASF57
 8454 6873 C2650000 		.long	0x65c2
 8455 6877 02       		.uleb128 0x2
 8456 6878 91       		.byte	0x91
 8457 6879 6C       		.sleb128 -20
 8458 687a 69       		.uleb128 0x69
 8459 687b 5F5F706F 		.ascii "__pos\0"
 8459      7300
 8460 6881 02       		.byte	0x2
 8461 6882 9C05     		.word	0x59c
 8462 6884 80380000 		.long	0x3880
 8463 6888 02       		.uleb128 0x2
 8464 6889 91       		.byte	0x91
 8465 688a 00       		.sleb128 0
 8466 688b 00       		.byte	0
 8467 688c 63       		.uleb128 0x63
 8468 688d 4C340000 		.long	0x344c
 8469 6891 02       		.byte	0x2
 8470 6892 9A680000 		.long	0x689a
 8471 6896 A4680000 		.long	0x68a4
 8472 689a 5C       		.uleb128 0x5c
 8473 689b 68010000 		.secrel32	LASF57
 8474 689f B5660000 		.long	0x66b5
 8475 68a3 00       		.byte	0
 8476 68a4 5D       		.uleb128 0x5d
 8477 68a5 8C680000 		.long	0x688c
 8478 68a9 5F5A4E53 		.ascii "_ZNSt12_Vector_baseI8ToppingsSaIS0_EE12_Vector_implC1Ev\0"
 8478      7431325F 
 8478      56656374 
 8478      6F725F62 
 8478      61736549 
 8479 68e1 00000000 		.long	LFB1353
 8480 68e5 32000000 		.long	LFE1353-LFB1353
 8481 68e9 01       		.uleb128 0x1
 8482 68ea 9C       		.byte	0x9c
 8483 68eb F3680000 		.long	0x68f3
 8484 68ef FC680000 		.long	0x68fc
 8485 68f3 5E       		.uleb128 0x5e
 8486 68f4 9A680000 		.long	0x689a
 8487 68f8 02       		.uleb128 0x2
 8488 68f9 91       		.byte	0x91
 8489 68fa 6C       		.sleb128 -20
 8490 68fb 00       		.byte	0
 8491 68fc 63       		.uleb128 0x63
GAS LISTING C:\Users\NJLLMR~1\AppData\Local\Temp\cce8JzPW.s 			page 219


 8492 68fd 81330000 		.long	0x3381
 8493 6901 02       		.byte	0x2
 8494 6902 0A690000 		.long	0x690a
 8495 6906 1D690000 		.long	0x691d
 8496 690a 5C       		.uleb128 0x5c
 8497 690b 68010000 		.secrel32	LASF57
 8498 690f 1D690000 		.long	0x691d
 8499 6913 5C       		.uleb128 0x5c
 8500 6914 57010000 		.secrel32	LASF58
 8501 6918 D35F0000 		.long	0x5fd3
 8502 691c 00       		.byte	0
 8503 691d 0F       		.uleb128 0xf
 8504 691e D8600000 		.long	0x60d8
 8505 6922 5D       		.uleb128 0x5d
 8506 6923 FC680000 		.long	0x68fc
 8507 6927 5F5A4E53 		.ascii "_ZNSaI8ToppingsED2Ev\0"
 8507      61493854 
 8507      6F707069 
 8507      6E677345 
 8507      44324576 
 8508 693c 00000000 		.long	LFB1355
 8509 6940 15000000 		.long	LFE1355-LFB1355
 8510 6944 01       		.uleb128 0x1
 8511 6945 9C       		.byte	0x9c
 8512 6946 4E690000 		.long	0x694e
 8513 694a 57690000 		.long	0x6957
 8514 694e 5E       		.uleb128 0x5e
 8515 694f 0A690000 		.long	0x690a
 8516 6953 02       		.uleb128 0x2
 8517 6954 91       		.byte	0x91
 8518 6955 6C       		.sleb128 -20
 8519 6956 00       		.byte	0
 8520 6957 64       		.uleb128 0x64
 8521 6958 2F370000 		.long	0x372f
 8522 695c 00000000 		.long	LFB1357
 8523 6960 2C000000 		.long	LFE1357-LFB1357
 8524 6964 01       		.uleb128 0x1
 8525 6965 9C       		.byte	0x9c
 8526 6966 6E690000 		.long	0x696e
 8527 696a A0690000 		.long	0x69a0
 8528 696e 60       		.uleb128 0x60
 8529 696f 68010000 		.secrel32	LASF57
 8530 6973 2A670000 		.long	0x672a
 8531 6977 02       		.uleb128 0x2
 8532 6978 91       		.byte	0x91
 8533 6979 6C       		.sleb128 -20
 8534 697a 61       		.uleb128 0x61
 8535 697b 5F5F7000 		.ascii "__p\0"
 8536 697f 02       		.byte	0x2
 8537 6980 AE       		.byte	0xae
 8538 6981 04350000 		.long	0x3504
 8539 6985 02       		.uleb128 0x2
 8540 6986 91       		.byte	0x91
 8541 6987 00       		.sleb128 0
 8542 6988 61       		.uleb128 0x61
 8543 6989 5F5F6E00 		.ascii "__n\0"
 8544 698d 02       		.byte	0x2
GAS LISTING C:\Users\NJLLMR~1\AppData\Local\Temp\cce8JzPW.s 			page 220


 8545 698e AE       		.byte	0xae
 8546 698f BC080000 		.long	0x8bc
 8547 6993 02       		.uleb128 0x2
 8548 6994 91       		.byte	0x91
 8549 6995 04       		.sleb128 4
 8550 6996 6A       		.uleb128 0x6a
 8551 6997 09000000 		.long	LBB11
 8552 699b 1F000000 		.long	LBE11-LBB11
 8553 699f 00       		.byte	0
 8554 69a0 66       		.uleb128 0x66
 8555 69a1 41490000 		.long	0x4941
 8556 69a5 00000000 		.long	LFB1358
 8557 69a9 1A000000 		.long	LFE1358-LFB1358
 8558 69ad 01       		.uleb128 0x1
 8559 69ae 9C       		.byte	0x9c
 8560 69af E2690000 		.long	0x69e2
 8561 69b3 48       		.uleb128 0x48
 8562 69b4 6F020000 		.secrel32	LASF44
 8563 69b8 9F600000 		.long	0x609f
 8564 69bc 67       		.uleb128 0x67
 8565 69bd A6000000 		.secrel32	LASF59
 8566 69c1 03       		.byte	0x3
 8567 69c2 7A       		.byte	0x7a
 8568 69c3 9F600000 		.long	0x609f
 8569 69c7 02       		.uleb128 0x2
 8570 69c8 91       		.byte	0x91
 8571 69c9 00       		.sleb128 0
 8572 69ca 67       		.uleb128 0x67
 8573 69cb 5B020000 		.secrel32	LASF60
 8574 69cf 03       		.byte	0x3
 8575 69d0 7A       		.byte	0x7a
 8576 69d1 9F600000 		.long	0x609f
 8577 69d5 02       		.uleb128 0x2
 8578 69d6 91       		.byte	0x91
 8579 69d7 04       		.sleb128 4
 8580 69d8 6A       		.uleb128 0x6a
 8581 69d9 06000000 		.long	LBB12
 8582 69dd 12000000 		.long	LBE12-LBB12
 8583 69e1 00       		.byte	0
 8584 69e2 63       		.uleb128 0x63
 8585 69e3 50330000 		.long	0x3350
 8586 69e7 02       		.byte	0x2
 8587 69e8 F0690000 		.long	0x69f0
 8588 69ec FA690000 		.long	0x69fa
 8589 69f0 5C       		.uleb128 0x5c
 8590 69f1 68010000 		.secrel32	LASF57
 8591 69f5 1D690000 		.long	0x691d
 8592 69f9 00       		.byte	0
 8593 69fa 5D       		.uleb128 0x5d
 8594 69fb E2690000 		.long	0x69e2
 8595 69ff 5F5A4E53 		.ascii "_ZNSaI8ToppingsEC2Ev\0"
 8595      61493854 
 8595      6F707069 
 8595      6E677345 
 8595      43324576 
 8596 6a14 00000000 		.long	LFB1363
 8597 6a18 15000000 		.long	LFE1363-LFB1363
GAS LISTING C:\Users\NJLLMR~1\AppData\Local\Temp\cce8JzPW.s 			page 221


 8598 6a1c 01       		.uleb128 0x1
 8599 6a1d 9C       		.byte	0x9c
 8600 6a1e 266A0000 		.long	0x6a26
 8601 6a22 2F6A0000 		.long	0x6a2f
 8602 6a26 5E       		.uleb128 0x5e
 8603 6a27 F0690000 		.long	0x69f0
 8604 6a2b 02       		.uleb128 0x2
 8605 6a2c 91       		.byte	0x91
 8606 6a2d 6C       		.sleb128 -20
 8607 6a2e 00       		.byte	0
 8608 6a2f 63       		.uleb128 0x63
 8609 6a30 1E570000 		.long	0x571e
 8610 6a34 02       		.byte	0x2
 8611 6a35 3D6A0000 		.long	0x6a3d
 8612 6a39 506A0000 		.long	0x6a50
 8613 6a3d 5C       		.uleb128 0x5c
 8614 6a3e 68010000 		.secrel32	LASF57
 8615 6a42 506A0000 		.long	0x6a50
 8616 6a46 5C       		.uleb128 0x5c
 8617 6a47 57010000 		.secrel32	LASF58
 8618 6a4b D35F0000 		.long	0x5fd3
 8619 6a4f 00       		.byte	0
 8620 6a50 0F       		.uleb128 0xf
 8621 6a51 C6600000 		.long	0x60c6
 8622 6a55 6B       		.uleb128 0x6b
 8623 6a56 2F6A0000 		.long	0x6a2f
 8624 6a5a 5F5A4E39 		.ascii "_ZN9__gnu_cxx13new_allocatorI8ToppingsED2Ev\0"
 8624      5F5F676E 
 8624      755F6378 
 8624      7831336E 
 8624      65775F61 
 8625 6a86 00000000 		.long	LFB1366
 8626 6a8a 0B000000 		.long	LFE1366-LFB1366
 8627 6a8e 01       		.uleb128 0x1
 8628 6a8f 9C       		.byte	0x9c
 8629 6a90 986A0000 		.long	0x6a98
 8630 6a94 A16A0000 		.long	0x6aa1
 8631 6a98 5E       		.uleb128 0x5e
 8632 6a99 3D6A0000 		.long	0x6a3d
 8633 6a9d 02       		.uleb128 0x2
 8634 6a9e 91       		.byte	0x91
 8635 6a9f 74       		.sleb128 -12
 8636 6aa0 00       		.byte	0
 8637 6aa1 66       		.uleb128 0x66
 8638 6aa2 605A0000 		.long	0x5a60
 8639 6aa6 00000000 		.long	LFB1368
 8640 6aaa 20000000 		.long	LFE1368-LFB1368
 8641 6aae 01       		.uleb128 0x1
 8642 6aaf 9C       		.byte	0x9c
 8643 6ab0 DF6A0000 		.long	0x6adf
 8644 6ab4 61       		.uleb128 0x61
 8645 6ab5 5F5F6100 		.ascii "__a\0"
 8646 6ab9 06       		.byte	0x6
 8647 6aba B8       		.byte	0xb8
 8648 6abb DF6A0000 		.long	0x6adf
 8649 6abf 02       		.uleb128 0x2
 8650 6ac0 91       		.byte	0x91
GAS LISTING C:\Users\NJLLMR~1\AppData\Local\Temp\cce8JzPW.s 			page 222


 8651 6ac1 00       		.sleb128 0
 8652 6ac2 61       		.uleb128 0x61
 8653 6ac3 5F5F7000 		.ascii "__p\0"
 8654 6ac7 06       		.byte	0x6
 8655 6ac8 B8       		.byte	0xb8
 8656 6ac9 D3590000 		.long	0x59d3
 8657 6acd 02       		.uleb128 0x2
 8658 6ace 91       		.byte	0x91
 8659 6acf 04       		.sleb128 4
 8660 6ad0 61       		.uleb128 0x61
 8661 6ad1 5F5F6E00 		.ascii "__n\0"
 8662 6ad5 06       		.byte	0x6
 8663 6ad6 B8       		.byte	0xb8
 8664 6ad7 FF590000 		.long	0x59ff
 8665 6adb 02       		.uleb128 0x2
 8666 6adc 91       		.byte	0x91
 8667 6add 08       		.sleb128 8
 8668 6ade 00       		.byte	0
 8669 6adf 0F       		.uleb128 0xf
 8670 6ae0 E4600000 		.long	0x60e4
 8671 6ae4 66       		.uleb128 0x66
 8672 6ae5 6B480000 		.long	0x486b
 8673 6ae9 00000000 		.long	LFB1369
 8674 6aed 29000000 		.long	LFE1369-LFB1369
 8675 6af1 01       		.uleb128 0x1
 8676 6af2 9C       		.byte	0x9c
 8677 6af3 1D6B0000 		.long	0x6b1d
 8678 6af7 48       		.uleb128 0x48
 8679 6af8 6F020000 		.secrel32	LASF44
 8680 6afc 9F600000 		.long	0x609f
 8681 6b00 67       		.uleb128 0x67
 8682 6b01 A6000000 		.secrel32	LASF59
 8683 6b05 03       		.byte	0x3
 8684 6b06 64       		.byte	0x64
 8685 6b07 9F600000 		.long	0x609f
 8686 6b0b 02       		.uleb128 0x2
 8687 6b0c 91       		.byte	0x91
 8688 6b0d 00       		.sleb128 0
 8689 6b0e 67       		.uleb128 0x67
 8690 6b0f 5B020000 		.secrel32	LASF60
 8691 6b13 03       		.byte	0x3
 8692 6b14 64       		.byte	0x64
 8693 6b15 9F600000 		.long	0x609f
 8694 6b19 02       		.uleb128 0x2
 8695 6b1a 91       		.byte	0x91
 8696 6b1b 04       		.sleb128 4
 8697 6b1c 00       		.byte	0
 8698 6b1d 63       		.uleb128 0x63
 8699 6b1e ED560000 		.long	0x56ed
 8700 6b22 02       		.byte	0x2
 8701 6b23 2B6B0000 		.long	0x6b2b
 8702 6b27 356B0000 		.long	0x6b35
 8703 6b2b 5C       		.uleb128 0x5c
 8704 6b2c 68010000 		.secrel32	LASF57
 8705 6b30 506A0000 		.long	0x6a50
 8706 6b34 00       		.byte	0
 8707 6b35 6B       		.uleb128 0x6b
GAS LISTING C:\Users\NJLLMR~1\AppData\Local\Temp\cce8JzPW.s 			page 223


 8708 6b36 1D6B0000 		.long	0x6b1d
 8709 6b3a 5F5A4E39 		.ascii "_ZN9__gnu_cxx13new_allocatorI8ToppingsEC2Ev\0"
 8709      5F5F676E 
 8709      755F6378 
 8709      7831336E 
 8709      65775F61 
 8710 6b66 00000000 		.long	LFB1371
 8711 6b6a 0B000000 		.long	LFE1371-LFB1371
 8712 6b6e 01       		.uleb128 0x1
 8713 6b6f 9C       		.byte	0x9c
 8714 6b70 786B0000 		.long	0x6b78
 8715 6b74 816B0000 		.long	0x6b81
 8716 6b78 5E       		.uleb128 0x5e
 8717 6b79 2B6B0000 		.long	0x6b2b
 8718 6b7d 02       		.uleb128 0x2
 8719 6b7e 91       		.byte	0x91
 8720 6b7f 74       		.sleb128 -12
 8721 6b80 00       		.byte	0
 8722 6b81 64       		.uleb128 0x64
 8723 6b82 3E580000 		.long	0x583e
 8724 6b86 00000000 		.long	LFB1373
 8725 6b8a 18000000 		.long	LFE1373-LFB1373
 8726 6b8e 01       		.uleb128 0x1
 8727 6b8f 9C       		.byte	0x9c
 8728 6b90 986B0000 		.long	0x6b98
 8729 6b94 BB6B0000 		.long	0x6bbb
 8730 6b98 60       		.uleb128 0x60
 8731 6b99 68010000 		.secrel32	LASF57
 8732 6b9d 506A0000 		.long	0x6a50
 8733 6ba1 02       		.uleb128 0x2
 8734 6ba2 91       		.byte	0x91
 8735 6ba3 6C       		.sleb128 -20
 8736 6ba4 61       		.uleb128 0x61
 8737 6ba5 5F5F7000 		.ascii "__p\0"
 8738 6ba9 05       		.byte	0x5
 8739 6baa 6D       		.byte	0x6d
 8740 6bab BD560000 		.long	0x56bd
 8741 6baf 02       		.uleb128 0x2
 8742 6bb0 91       		.byte	0x91
 8743 6bb1 00       		.sleb128 0
 8744 6bb2 68       		.uleb128 0x68
 8745 6bb3 B1560000 		.long	0x56b1
 8746 6bb7 02       		.uleb128 0x2
 8747 6bb8 91       		.byte	0x91
 8748 6bb9 04       		.sleb128 4
 8749 6bba 00       		.byte	0
 8750 6bbb 6C       		.uleb128 0x6c
 8751 6bbc 90490000 		.long	0x4990
 8752 6bc0 00000000 		.long	LFB1374
 8753 6bc4 08000000 		.long	LFE1374-LFB1374
 8754 6bc8 01       		.uleb128 0x1
 8755 6bc9 9C       		.byte	0x9c
 8756 6bca E66B0000 		.long	0x6be6
 8757 6bce 32       		.uleb128 0x32
 8758 6bcf 5F547000 		.ascii "_Tp\0"
 8759 6bd3 A5600000 		.long	0x60a5
 8760 6bd7 61       		.uleb128 0x61
GAS LISTING C:\Users\NJLLMR~1\AppData\Local\Temp\cce8JzPW.s 			page 224


 8761 6bd8 5F5F7200 		.ascii "__r\0"
 8762 6bdc 07       		.byte	0x7
 8763 6bdd 2F       		.byte	0x2f
 8764 6bde E66B0000 		.long	0x6be6
 8765 6be2 02       		.uleb128 0x2
 8766 6be3 91       		.byte	0x91
 8767 6be4 00       		.sleb128 0
 8768 6be5 00       		.byte	0
 8769 6be6 0F       		.uleb128 0xf
 8770 6be7 BA600000 		.long	0x60ba
 8771 6beb 66       		.uleb128 0x66
 8772 6bec E4490000 		.long	0x49e4
 8773 6bf0 00000000 		.long	LFB1375
 8774 6bf4 14000000 		.long	LFE1375-LFB1375
 8775 6bf8 01       		.uleb128 0x1
 8776 6bf9 9C       		.byte	0x9c
 8777 6bfa 1C6C0000 		.long	0x6c1c
 8778 6bfe 32       		.uleb128 0x32
 8779 6bff 5F547000 		.ascii "_Tp\0"
 8780 6c03 A5600000 		.long	0x60a5
 8781 6c07 61       		.uleb128 0x61
 8782 6c08 5F5F706F 		.ascii "__pointer\0"
 8782      696E7465 
 8782      7200
 8783 6c12 03       		.byte	0x3
 8784 6c13 5C       		.byte	0x5c
 8785 6c14 9F600000 		.long	0x609f
 8786 6c18 02       		.uleb128 0x2
 8787 6c19 91       		.byte	0x91
 8788 6c1a 00       		.sleb128 0
 8789 6c1b 00       		.byte	0
 8790 6c1c 6D       		.uleb128 0x6d
 8791 6c1d 5F5F7463 		.ascii "__tcf_0\0"
 8791      665F3000 
 8792 6c25 B7040000 		.long	LFB1377
 8793 6c29 12000000 		.long	LFE1377-LFB1377
 8794 6c2d 01       		.uleb128 0x1
 8795 6c2e 9C       		.byte	0x9c
 8796 6c2f 6E       		.uleb128 0x6e
 8797 6c30 5F5F7374 		.ascii "__static_initialization_and_destruction_0\0"
 8797      61746963 
 8797      5F696E69 
 8797      7469616C 
 8797      697A6174 
 8798 6c5a C9040000 		.long	LFB1376
 8799 6c5e 2D000000 		.long	LFE1376-LFB1376
 8800 6c62 01       		.uleb128 0x1
 8801 6c63 9C       		.byte	0x9c
 8802 6c64 976C0000 		.long	0x6c97
 8803 6c68 61       		.uleb128 0x61
 8804 6c69 5F5F696E 		.ascii "__initialize_p\0"
 8804      69746961 
 8804      6C697A65 
 8804      5F7000
 8805 6c78 01       		.byte	0x1
 8806 6c79 2C       		.byte	0x2c
 8807 6c7a 7E010000 		.long	0x17e
GAS LISTING C:\Users\NJLLMR~1\AppData\Local\Temp\cce8JzPW.s 			page 225


 8808 6c7e 02       		.uleb128 0x2
 8809 6c7f 91       		.byte	0x91
 8810 6c80 00       		.sleb128 0
 8811 6c81 61       		.uleb128 0x61
 8812 6c82 5F5F7072 		.ascii "__priority\0"
 8812      696F7269 
 8812      747900
 8813 6c8d 01       		.byte	0x1
 8814 6c8e 2C       		.byte	0x2c
 8815 6c8f 7E010000 		.long	0x17e
 8816 6c93 02       		.uleb128 0x2
 8817 6c94 91       		.byte	0x91
 8818 6c95 04       		.sleb128 4
 8819 6c96 00       		.byte	0
 8820 6c97 6D       		.uleb128 0x6d
 8821 6c98 5F474C4F 		.ascii "_GLOBAL__sub_I__ZN5PizzaC2Ev\0"
 8821      42414C5F 
 8821      5F737562 
 8821      5F495F5F 
 8821      5A4E3550 
 8822 6cb5 F6040000 		.long	LFB1378
 8823 6cb9 1C000000 		.long	LFE1378-LFB1378
 8824 6cbd 01       		.uleb128 0x1
 8825 6cbe 9C       		.byte	0x9c
 8826 6cbf 6F       		.uleb128 0x6f
 8827 6cc0 2A4A0000 		.long	0x4a2a
 8828 6cc4 05       		.uleb128 0x5
 8829 6cc5 03       		.byte	0x3
 8830 6cc6 00000000 		.long	__ZStL8__ioinit
 8831 6cca 70       		.uleb128 0x70
 8832 6ccb 66540000 		.long	0x5466
 8833 6ccf 5F5A4E39 		.ascii "_ZN9__gnu_cxx24__numeric_traits_integerIiE5__minE\0"
 8833      5F5F676E 
 8833      755F6378 
 8833      7832345F 
 8833      5F6E756D 
 8834 6d01 80808080 		.sleb128 -2147483648
 8834      78
 8835 6d06 71       		.uleb128 0x71
 8836 6d07 71540000 		.long	0x5471
 8837 6d0b 5F5A4E39 		.ascii "_ZN9__gnu_cxx24__numeric_traits_integerIiE5__maxE\0"
 8837      5F5F676E 
 8837      755F6378 
 8837      7832345F 
 8837      5F6E756D 
 8838 6d3d FFFFFF7F 		.long	0x7fffffff
 8839 6d41 72       		.uleb128 0x72
 8840 6d42 BD550000 		.long	0x55bd
 8841 6d46 5F5A4E39 		.ascii "_ZN9__gnu_cxx24__numeric_traits_integerImE8__digitsE\0"
 8841      5F5F676E 
 8841      755F6378 
 8841      7832345F 
 8841      5F6E756D 
 8842 6d7b 20       		.byte	0x20
 8843 6d7c 72       		.uleb128 0x72
 8844 6d7d 04560000 		.long	0x5604
 8845 6d81 5F5A4E39 		.ascii "_ZN9__gnu_cxx24__numeric_traits_integerIcE5__maxE\0"
GAS LISTING C:\Users\NJLLMR~1\AppData\Local\Temp\cce8JzPW.s 			page 226


 8845      5F5F676E 
 8845      755F6378 
 8845      7832345F 
 8845      5F6E756D 
 8846 6db3 7F       		.byte	0x7f
 8847 6db4 70       		.uleb128 0x70
 8848 6db5 5B560000 		.long	0x565b
 8849 6db9 5F5A4E39 		.ascii "_ZN9__gnu_cxx24__numeric_traits_integerIsE5__minE\0"
 8849      5F5F676E 
 8849      755F6378 
 8849      7832345F 
 8849      5F6E756D 
 8850 6deb 80807E   		.sleb128 -32768
 8851 6dee 73       		.uleb128 0x73
 8852 6def 66560000 		.long	0x5666
 8853 6df3 5F5A4E39 		.ascii "_ZN9__gnu_cxx24__numeric_traits_integerIsE5__maxE\0"
 8853      5F5F676E 
 8853      755F6378 
 8853      7832345F 
 8853      5F6E756D 
 8854 6e25 FF7F     		.word	0x7fff
 8855 6e27 00       		.byte	0
 8856              		.section	.debug_abbrev,"dr"
 8857              	Ldebug_abbrev0:
 8858 0000 01       		.uleb128 0x1
 8859 0001 11       		.uleb128 0x11
 8860 0002 01       		.byte	0x1
 8861 0003 25       		.uleb128 0x25
 8862 0004 08       		.uleb128 0x8
 8863 0005 13       		.uleb128 0x13
 8864 0006 0B       		.uleb128 0xb
 8865 0007 03       		.uleb128 0x3
 8866 0008 08       		.uleb128 0x8
 8867 0009 1B       		.uleb128 0x1b
 8868 000a 08       		.uleb128 0x8
 8869 000b 55       		.uleb128 0x55
 8870 000c 17       		.uleb128 0x17
 8871 000d 11       		.uleb128 0x11
 8872 000e 01       		.uleb128 0x1
 8873 000f 10       		.uleb128 0x10
 8874 0010 17       		.uleb128 0x17
 8875 0011 00       		.byte	0
 8876 0012 00       		.byte	0
 8877 0013 02       		.uleb128 0x2
 8878 0014 16       		.uleb128 0x16
 8879 0015 00       		.byte	0
 8880 0016 03       		.uleb128 0x3
 8881 0017 08       		.uleb128 0x8
 8882 0018 3A       		.uleb128 0x3a
 8883 0019 0B       		.uleb128 0xb
 8884 001a 3B       		.uleb128 0x3b
 8885 001b 0B       		.uleb128 0xb
 8886 001c 49       		.uleb128 0x49
 8887 001d 13       		.uleb128 0x13
 8888 001e 00       		.byte	0
 8889 001f 00       		.byte	0
 8890 0020 03       		.uleb128 0x3
GAS LISTING C:\Users\NJLLMR~1\AppData\Local\Temp\cce8JzPW.s 			page 227


 8891 0021 24       		.uleb128 0x24
 8892 0022 00       		.byte	0
 8893 0023 0B       		.uleb128 0xb
 8894 0024 0B       		.uleb128 0xb
 8895 0025 3E       		.uleb128 0x3e
 8896 0026 0B       		.uleb128 0xb
 8897 0027 03       		.uleb128 0x3
 8898 0028 08       		.uleb128 0x8
 8899 0029 00       		.byte	0
 8900 002a 00       		.byte	0
 8901 002b 04       		.uleb128 0x4
 8902 002c 16       		.uleb128 0x16
 8903 002d 00       		.byte	0
 8904 002e 03       		.uleb128 0x3
 8905 002f 08       		.uleb128 0x8
 8906 0030 3A       		.uleb128 0x3a
 8907 0031 0B       		.uleb128 0xb
 8908 0032 3B       		.uleb128 0x3b
 8909 0033 05       		.uleb128 0x5
 8910 0034 49       		.uleb128 0x49
 8911 0035 13       		.uleb128 0x13
 8912 0036 00       		.byte	0
 8913 0037 00       		.byte	0
 8914 0038 05       		.uleb128 0x5
 8915 0039 0F       		.uleb128 0xf
 8916 003a 00       		.byte	0
 8917 003b 0B       		.uleb128 0xb
 8918 003c 0B       		.uleb128 0xb
 8919 003d 03       		.uleb128 0x3
 8920 003e 08       		.uleb128 0x8
 8921 003f 49       		.uleb128 0x49
 8922 0040 13       		.uleb128 0x13
 8923 0041 00       		.byte	0
 8924 0042 00       		.byte	0
 8925 0043 06       		.uleb128 0x6
 8926 0044 13       		.uleb128 0x13
 8927 0045 01       		.byte	0x1
 8928 0046 03       		.uleb128 0x3
 8929 0047 08       		.uleb128 0x8
 8930 0048 0B       		.uleb128 0xb
 8931 0049 0B       		.uleb128 0xb
 8932 004a 3A       		.uleb128 0x3a
 8933 004b 0B       		.uleb128 0xb
 8934 004c 3B       		.uleb128 0x3b
 8935 004d 0B       		.uleb128 0xb
 8936 004e 01       		.uleb128 0x1
 8937 004f 13       		.uleb128 0x13
 8938 0050 00       		.byte	0
 8939 0051 00       		.byte	0
 8940 0052 07       		.uleb128 0x7
 8941 0053 0D       		.uleb128 0xd
 8942 0054 00       		.byte	0
 8943 0055 03       		.uleb128 0x3
 8944 0056 08       		.uleb128 0x8
 8945 0057 3A       		.uleb128 0x3a
 8946 0058 0B       		.uleb128 0xb
 8947 0059 3B       		.uleb128 0x3b
GAS LISTING C:\Users\NJLLMR~1\AppData\Local\Temp\cce8JzPW.s 			page 228


 8948 005a 0B       		.uleb128 0xb
 8949 005b 49       		.uleb128 0x49
 8950 005c 13       		.uleb128 0x13
 8951 005d 38       		.uleb128 0x38
 8952 005e 0B       		.uleb128 0xb
 8953 005f 00       		.byte	0
 8954 0060 00       		.byte	0
 8955 0061 08       		.uleb128 0x8
 8956 0062 0F       		.uleb128 0xf
 8957 0063 00       		.byte	0
 8958 0064 0B       		.uleb128 0xb
 8959 0065 0B       		.uleb128 0xb
 8960 0066 49       		.uleb128 0x49
 8961 0067 13       		.uleb128 0x13
 8962 0068 00       		.byte	0
 8963 0069 00       		.byte	0
 8964 006a 09       		.uleb128 0x9
 8965 006b 39       		.uleb128 0x39
 8966 006c 01       		.byte	0x1
 8967 006d 03       		.uleb128 0x3
 8968 006e 08       		.uleb128 0x8
 8969 006f 3A       		.uleb128 0x3a
 8970 0070 0B       		.uleb128 0xb
 8971 0071 3B       		.uleb128 0x3b
 8972 0072 0B       		.uleb128 0xb
 8973 0073 01       		.uleb128 0x1
 8974 0074 13       		.uleb128 0x13
 8975 0075 00       		.byte	0
 8976 0076 00       		.byte	0
 8977 0077 0A       		.uleb128 0xa
 8978 0078 08       		.uleb128 0x8
 8979 0079 00       		.byte	0
 8980 007a 3A       		.uleb128 0x3a
 8981 007b 0B       		.uleb128 0xb
 8982 007c 3B       		.uleb128 0x3b
 8983 007d 0B       		.uleb128 0xb
 8984 007e 18       		.uleb128 0x18
 8985 007f 13       		.uleb128 0x13
 8986 0080 00       		.byte	0
 8987 0081 00       		.byte	0
 8988 0082 0B       		.uleb128 0xb
 8989 0083 08       		.uleb128 0x8
 8990 0084 00       		.byte	0
 8991 0085 3A       		.uleb128 0x3a
 8992 0086 0B       		.uleb128 0xb
 8993 0087 3B       		.uleb128 0x3b
 8994 0088 05       		.uleb128 0x5
 8995 0089 18       		.uleb128 0x18
 8996 008a 13       		.uleb128 0x13
 8997 008b 00       		.byte	0
 8998 008c 00       		.byte	0
 8999 008d 0C       		.uleb128 0xc
 9000 008e 39       		.uleb128 0x39
 9001 008f 00       		.byte	0
 9002 0090 03       		.uleb128 0x3
 9003 0091 08       		.uleb128 0x8
 9004 0092 3A       		.uleb128 0x3a
GAS LISTING C:\Users\NJLLMR~1\AppData\Local\Temp\cce8JzPW.s 			page 229


 9005 0093 0B       		.uleb128 0xb
 9006 0094 3B       		.uleb128 0x3b
 9007 0095 0B       		.uleb128 0xb
 9008 0096 00       		.byte	0
 9009 0097 00       		.byte	0
 9010 0098 0D       		.uleb128 0xd
 9011 0099 2E       		.uleb128 0x2e
 9012 009a 01       		.byte	0x1
 9013 009b 3F       		.uleb128 0x3f
 9014 009c 19       		.uleb128 0x19
 9015 009d 03       		.uleb128 0x3
 9016 009e 0E       		.uleb128 0xe
 9017 009f 3A       		.uleb128 0x3a
 9018 00a0 0B       		.uleb128 0xb
 9019 00a1 3B       		.uleb128 0x3b
 9020 00a2 0B       		.uleb128 0xb
 9021 00a3 6E       		.uleb128 0x6e
 9022 00a4 08       		.uleb128 0x8
 9023 00a5 3C       		.uleb128 0x3c
 9024 00a6 19       		.uleb128 0x19
 9025 00a7 01       		.uleb128 0x1
 9026 00a8 13       		.uleb128 0x13
 9027 00a9 00       		.byte	0
 9028 00aa 00       		.byte	0
 9029 00ab 0E       		.uleb128 0xe
 9030 00ac 05       		.uleb128 0x5
 9031 00ad 00       		.byte	0
 9032 00ae 49       		.uleb128 0x49
 9033 00af 13       		.uleb128 0x13
 9034 00b0 00       		.byte	0
 9035 00b1 00       		.byte	0
 9036 00b2 0F       		.uleb128 0xf
 9037 00b3 26       		.uleb128 0x26
 9038 00b4 00       		.byte	0
 9039 00b5 49       		.uleb128 0x49
 9040 00b6 13       		.uleb128 0x13
 9041 00b7 00       		.byte	0
 9042 00b8 00       		.byte	0
 9043 00b9 10       		.uleb128 0x10
 9044 00ba 2E       		.uleb128 0x2e
 9045 00bb 01       		.byte	0x1
 9046 00bc 3F       		.uleb128 0x3f
 9047 00bd 19       		.uleb128 0x19
 9048 00be 03       		.uleb128 0x3
 9049 00bf 08       		.uleb128 0x8
 9050 00c0 3A       		.uleb128 0x3a
 9051 00c1 0B       		.uleb128 0xb
 9052 00c2 3B       		.uleb128 0x3b
 9053 00c3 0B       		.uleb128 0xb
 9054 00c4 6E       		.uleb128 0x6e
 9055 00c5 08       		.uleb128 0x8
 9056 00c6 49       		.uleb128 0x49
 9057 00c7 13       		.uleb128 0x13
 9058 00c8 3C       		.uleb128 0x3c
 9059 00c9 19       		.uleb128 0x19
 9060 00ca 01       		.uleb128 0x1
 9061 00cb 13       		.uleb128 0x13
GAS LISTING C:\Users\NJLLMR~1\AppData\Local\Temp\cce8JzPW.s 			page 230


 9062 00cc 00       		.byte	0
 9063 00cd 00       		.byte	0
 9064 00ce 11       		.uleb128 0x11
 9065 00cf 2E       		.uleb128 0x2e
 9066 00d0 01       		.byte	0x1
 9067 00d1 3F       		.uleb128 0x3f
 9068 00d2 19       		.uleb128 0x19
 9069 00d3 03       		.uleb128 0x3
 9070 00d4 0E       		.uleb128 0xe
 9071 00d5 3A       		.uleb128 0x3a
 9072 00d6 0B       		.uleb128 0xb
 9073 00d7 3B       		.uleb128 0x3b
 9074 00d8 05       		.uleb128 0x5
 9075 00d9 6E       		.uleb128 0x6e
 9076 00da 08       		.uleb128 0x8
 9077 00db 49       		.uleb128 0x49
 9078 00dc 13       		.uleb128 0x13
 9079 00dd 3C       		.uleb128 0x3c
 9080 00de 19       		.uleb128 0x19
 9081 00df 01       		.uleb128 0x1
 9082 00e0 13       		.uleb128 0x13
 9083 00e1 00       		.byte	0
 9084 00e2 00       		.byte	0
 9085 00e3 12       		.uleb128 0x12
 9086 00e4 2E       		.uleb128 0x2e
 9087 00e5 01       		.byte	0x1
 9088 00e6 3F       		.uleb128 0x3f
 9089 00e7 19       		.uleb128 0x19
 9090 00e8 03       		.uleb128 0x3
 9091 00e9 08       		.uleb128 0x8
 9092 00ea 3A       		.uleb128 0x3a
 9093 00eb 0B       		.uleb128 0xb
 9094 00ec 3B       		.uleb128 0x3b
 9095 00ed 05       		.uleb128 0x5
 9096 00ee 6E       		.uleb128 0x6e
 9097 00ef 08       		.uleb128 0x8
 9098 00f0 49       		.uleb128 0x49
 9099 00f1 13       		.uleb128 0x13
 9100 00f2 3C       		.uleb128 0x3c
 9101 00f3 19       		.uleb128 0x19
 9102 00f4 01       		.uleb128 0x1
 9103 00f5 13       		.uleb128 0x13
 9104 00f6 00       		.byte	0
 9105 00f7 00       		.byte	0
 9106 00f8 13       		.uleb128 0x13
 9107 00f9 2E       		.uleb128 0x2e
 9108 00fa 00       		.byte	0
 9109 00fb 3F       		.uleb128 0x3f
 9110 00fc 19       		.uleb128 0x19
 9111 00fd 03       		.uleb128 0x3
 9112 00fe 08       		.uleb128 0x8
 9113 00ff 3A       		.uleb128 0x3a
 9114 0100 0B       		.uleb128 0xb
 9115 0101 3B       		.uleb128 0x3b
 9116 0102 05       		.uleb128 0x5
 9117 0103 6E       		.uleb128 0x6e
 9118 0104 08       		.uleb128 0x8
GAS LISTING C:\Users\NJLLMR~1\AppData\Local\Temp\cce8JzPW.s 			page 231


 9119 0105 49       		.uleb128 0x49
 9120 0106 13       		.uleb128 0x13
 9121 0107 3C       		.uleb128 0x3c
 9122 0108 19       		.uleb128 0x19
 9123 0109 00       		.byte	0
 9124 010a 00       		.byte	0
 9125 010b 14       		.uleb128 0x14
 9126 010c 2E       		.uleb128 0x2e
 9127 010d 01       		.byte	0x1
 9128 010e 3F       		.uleb128 0x3f
 9129 010f 19       		.uleb128 0x19
 9130 0110 03       		.uleb128 0x3
 9131 0111 08       		.uleb128 0x8
 9132 0112 3A       		.uleb128 0x3a
 9133 0113 0B       		.uleb128 0xb
 9134 0114 3B       		.uleb128 0x3b
 9135 0115 05       		.uleb128 0x5
 9136 0116 6E       		.uleb128 0x6e
 9137 0117 08       		.uleb128 0x8
 9138 0118 49       		.uleb128 0x49
 9139 0119 13       		.uleb128 0x13
 9140 011a 3C       		.uleb128 0x3c
 9141 011b 19       		.uleb128 0x19
 9142 011c 00       		.byte	0
 9143 011d 00       		.byte	0
 9144 011e 15       		.uleb128 0x15
 9145 011f 02       		.uleb128 0x2
 9146 0120 01       		.byte	0x1
 9147 0121 03       		.uleb128 0x3
 9148 0122 08       		.uleb128 0x8
 9149 0123 0B       		.uleb128 0xb
 9150 0124 0B       		.uleb128 0xb
 9151 0125 3A       		.uleb128 0x3a
 9152 0126 0B       		.uleb128 0xb
 9153 0127 3B       		.uleb128 0x3b
 9154 0128 0B       		.uleb128 0xb
 9155 0129 01       		.uleb128 0x1
 9156 012a 13       		.uleb128 0x13
 9157 012b 00       		.byte	0
 9158 012c 00       		.byte	0
 9159 012d 16       		.uleb128 0x16
 9160 012e 1C       		.uleb128 0x1c
 9161 012f 00       		.byte	0
 9162 0130 49       		.uleb128 0x49
 9163 0131 13       		.uleb128 0x13
 9164 0132 38       		.uleb128 0x38
 9165 0133 0B       		.uleb128 0xb
 9166 0134 32       		.uleb128 0x32
 9167 0135 0B       		.uleb128 0xb
 9168 0136 00       		.byte	0
 9169 0137 00       		.byte	0
 9170 0138 17       		.uleb128 0x17
 9171 0139 16       		.uleb128 0x16
 9172 013a 00       		.byte	0
 9173 013b 03       		.uleb128 0x3
 9174 013c 0E       		.uleb128 0xe
 9175 013d 3A       		.uleb128 0x3a
GAS LISTING C:\Users\NJLLMR~1\AppData\Local\Temp\cce8JzPW.s 			page 232


 9176 013e 0B       		.uleb128 0xb
 9177 013f 3B       		.uleb128 0x3b
 9178 0140 0B       		.uleb128 0xb
 9179 0141 49       		.uleb128 0x49
 9180 0142 13       		.uleb128 0x13
 9181 0143 32       		.uleb128 0x32
 9182 0144 0B       		.uleb128 0xb
 9183 0145 00       		.byte	0
 9184 0146 00       		.byte	0
 9185 0147 18       		.uleb128 0x18
 9186 0148 2E       		.uleb128 0x2e
 9187 0149 01       		.byte	0x1
 9188 014a 3F       		.uleb128 0x3f
 9189 014b 19       		.uleb128 0x19
 9190 014c 03       		.uleb128 0x3
 9191 014d 0E       		.uleb128 0xe
 9192 014e 3A       		.uleb128 0x3a
 9193 014f 0B       		.uleb128 0xb
 9194 0150 3B       		.uleb128 0x3b
 9195 0151 0B       		.uleb128 0xb
 9196 0152 32       		.uleb128 0x32
 9197 0153 0B       		.uleb128 0xb
 9198 0154 3C       		.uleb128 0x3c
 9199 0155 19       		.uleb128 0x19
 9200 0156 64       		.uleb128 0x64
 9201 0157 13       		.uleb128 0x13
 9202 0158 01       		.uleb128 0x1
 9203 0159 13       		.uleb128 0x13
 9204 015a 00       		.byte	0
 9205 015b 00       		.byte	0
 9206 015c 19       		.uleb128 0x19
 9207 015d 05       		.uleb128 0x5
 9208 015e 00       		.byte	0
 9209 015f 49       		.uleb128 0x49
 9210 0160 13       		.uleb128 0x13
 9211 0161 34       		.uleb128 0x34
 9212 0162 19       		.uleb128 0x19
 9213 0163 00       		.byte	0
 9214 0164 00       		.byte	0
 9215 0165 1A       		.uleb128 0x1a
 9216 0166 2E       		.uleb128 0x2e
 9217 0167 01       		.byte	0x1
 9218 0168 3F       		.uleb128 0x3f
 9219 0169 19       		.uleb128 0x19
 9220 016a 03       		.uleb128 0x3
 9221 016b 0E       		.uleb128 0xe
 9222 016c 3A       		.uleb128 0x3a
 9223 016d 0B       		.uleb128 0xb
 9224 016e 3B       		.uleb128 0x3b
 9225 016f 0B       		.uleb128 0xb
 9226 0170 32       		.uleb128 0x32
 9227 0171 0B       		.uleb128 0xb
 9228 0172 3C       		.uleb128 0x3c
 9229 0173 19       		.uleb128 0x19
 9230 0174 64       		.uleb128 0x64
 9231 0175 13       		.uleb128 0x13
 9232 0176 00       		.byte	0
GAS LISTING C:\Users\NJLLMR~1\AppData\Local\Temp\cce8JzPW.s 			page 233


 9233 0177 00       		.byte	0
 9234 0178 1B       		.uleb128 0x1b
 9235 0179 13       		.uleb128 0x13
 9236 017a 01       		.byte	0x1
 9237 017b 03       		.uleb128 0x3
 9238 017c 0E       		.uleb128 0xe
 9239 017d 0B       		.uleb128 0xb
 9240 017e 0B       		.uleb128 0xb
 9241 017f 3A       		.uleb128 0x3a
 9242 0180 0B       		.uleb128 0xb
 9243 0181 3B       		.uleb128 0x3b
 9244 0182 05       		.uleb128 0x5
 9245 0183 01       		.uleb128 0x1
 9246 0184 13       		.uleb128 0x13
 9247 0185 00       		.byte	0
 9248 0186 00       		.byte	0
 9249 0187 1C       		.uleb128 0x1c
 9250 0188 1C       		.uleb128 0x1c
 9251 0189 00       		.byte	0
 9252 018a 49       		.uleb128 0x49
 9253 018b 13       		.uleb128 0x13
 9254 018c 38       		.uleb128 0x38
 9255 018d 0B       		.uleb128 0xb
 9256 018e 00       		.byte	0
 9257 018f 00       		.byte	0
 9258 0190 1D       		.uleb128 0x1d
 9259 0191 0D       		.uleb128 0xd
 9260 0192 00       		.byte	0
 9261 0193 03       		.uleb128 0x3
 9262 0194 08       		.uleb128 0x8
 9263 0195 3A       		.uleb128 0x3a
 9264 0196 0B       		.uleb128 0xb
 9265 0197 3B       		.uleb128 0x3b
 9266 0198 05       		.uleb128 0x5
 9267 0199 49       		.uleb128 0x49
 9268 019a 13       		.uleb128 0x13
 9269 019b 38       		.uleb128 0x38
 9270 019c 0B       		.uleb128 0xb
 9271 019d 00       		.byte	0
 9272 019e 00       		.byte	0
 9273 019f 1E       		.uleb128 0x1e
 9274 01a0 2E       		.uleb128 0x2e
 9275 01a1 01       		.byte	0x1
 9276 01a2 3F       		.uleb128 0x3f
 9277 01a3 19       		.uleb128 0x19
 9278 01a4 03       		.uleb128 0x3
 9279 01a5 0E       		.uleb128 0xe
 9280 01a6 3A       		.uleb128 0x3a
 9281 01a7 0B       		.uleb128 0xb
 9282 01a8 3B       		.uleb128 0x3b
 9283 01a9 05       		.uleb128 0x5
 9284 01aa 3C       		.uleb128 0x3c
 9285 01ab 19       		.uleb128 0x19
 9286 01ac 64       		.uleb128 0x64
 9287 01ad 13       		.uleb128 0x13
 9288 01ae 00       		.byte	0
 9289 01af 00       		.byte	0
GAS LISTING C:\Users\NJLLMR~1\AppData\Local\Temp\cce8JzPW.s 			page 234


 9290 01b0 1F       		.uleb128 0x1f
 9291 01b1 0D       		.uleb128 0xd
 9292 01b2 00       		.byte	0
 9293 01b3 03       		.uleb128 0x3
 9294 01b4 08       		.uleb128 0x8
 9295 01b5 3A       		.uleb128 0x3a
 9296 01b6 0B       		.uleb128 0xb
 9297 01b7 3B       		.uleb128 0x3b
 9298 01b8 05       		.uleb128 0x5
 9299 01b9 49       		.uleb128 0x49
 9300 01ba 13       		.uleb128 0x13
 9301 01bb 3F       		.uleb128 0x3f
 9302 01bc 19       		.uleb128 0x19
 9303 01bd 32       		.uleb128 0x32
 9304 01be 0B       		.uleb128 0xb
 9305 01bf 3C       		.uleb128 0x3c
 9306 01c0 19       		.uleb128 0x19
 9307 01c1 00       		.byte	0
 9308 01c2 00       		.byte	0
 9309 01c3 20       		.uleb128 0x20
 9310 01c4 0D       		.uleb128 0xd
 9311 01c5 00       		.byte	0
 9312 01c6 03       		.uleb128 0x3
 9313 01c7 08       		.uleb128 0x8
 9314 01c8 3A       		.uleb128 0x3a
 9315 01c9 0B       		.uleb128 0xb
 9316 01ca 3B       		.uleb128 0x3b
 9317 01cb 0B       		.uleb128 0xb
 9318 01cc 49       		.uleb128 0x49
 9319 01cd 13       		.uleb128 0x13
 9320 01ce 3F       		.uleb128 0x3f
 9321 01cf 19       		.uleb128 0x19
 9322 01d0 3C       		.uleb128 0x3c
 9323 01d1 19       		.uleb128 0x19
 9324 01d2 00       		.byte	0
 9325 01d3 00       		.byte	0
 9326 01d4 21       		.uleb128 0x21
 9327 01d5 2E       		.uleb128 0x2e
 9328 01d6 00       		.byte	0
 9329 01d7 3F       		.uleb128 0x3f
 9330 01d8 19       		.uleb128 0x19
 9331 01d9 03       		.uleb128 0x3
 9332 01da 0E       		.uleb128 0xe
 9333 01db 3A       		.uleb128 0x3a
 9334 01dc 0B       		.uleb128 0xb
 9335 01dd 3B       		.uleb128 0x3b
 9336 01de 0B       		.uleb128 0xb
 9337 01df 6E       		.uleb128 0x6e
 9338 01e0 08       		.uleb128 0x8
 9339 01e1 49       		.uleb128 0x49
 9340 01e2 13       		.uleb128 0x13
 9341 01e3 3C       		.uleb128 0x3c
 9342 01e4 19       		.uleb128 0x19
 9343 01e5 00       		.byte	0
 9344 01e6 00       		.byte	0
 9345 01e7 22       		.uleb128 0x22
 9346 01e8 2E       		.uleb128 0x2e
GAS LISTING C:\Users\NJLLMR~1\AppData\Local\Temp\cce8JzPW.s 			page 235


 9347 01e9 01       		.byte	0x1
 9348 01ea 3F       		.uleb128 0x3f
 9349 01eb 19       		.uleb128 0x19
 9350 01ec 03       		.uleb128 0x3
 9351 01ed 08       		.uleb128 0x8
 9352 01ee 3A       		.uleb128 0x3a
 9353 01ef 0B       		.uleb128 0xb
 9354 01f0 3B       		.uleb128 0x3b
 9355 01f1 0B       		.uleb128 0xb
 9356 01f2 6E       		.uleb128 0x6e
 9357 01f3 08       		.uleb128 0x8
 9358 01f4 49       		.uleb128 0x49
 9359 01f5 13       		.uleb128 0x13
 9360 01f6 3C       		.uleb128 0x3c
 9361 01f7 19       		.uleb128 0x19
 9362 01f8 64       		.uleb128 0x64
 9363 01f9 13       		.uleb128 0x13
 9364 01fa 01       		.uleb128 0x1
 9365 01fb 13       		.uleb128 0x13
 9366 01fc 00       		.byte	0
 9367 01fd 00       		.byte	0
 9368 01fe 23       		.uleb128 0x23
 9369 01ff 2E       		.uleb128 0x2e
 9370 0200 01       		.byte	0x1
 9371 0201 3F       		.uleb128 0x3f
 9372 0202 19       		.uleb128 0x19
 9373 0203 03       		.uleb128 0x3
 9374 0204 08       		.uleb128 0x8
 9375 0205 3A       		.uleb128 0x3a
 9376 0206 0B       		.uleb128 0xb
 9377 0207 3B       		.uleb128 0x3b
 9378 0208 0B       		.uleb128 0xb
 9379 0209 6E       		.uleb128 0x6e
 9380 020a 08       		.uleb128 0x8
 9381 020b 3C       		.uleb128 0x3c
 9382 020c 19       		.uleb128 0x19
 9383 020d 64       		.uleb128 0x64
 9384 020e 13       		.uleb128 0x13
 9385 020f 01       		.uleb128 0x1
 9386 0210 13       		.uleb128 0x13
 9387 0211 00       		.byte	0
 9388 0212 00       		.byte	0
 9389 0213 24       		.uleb128 0x24
 9390 0214 2E       		.uleb128 0x2e
 9391 0215 01       		.byte	0x1
 9392 0216 3F       		.uleb128 0x3f
 9393 0217 19       		.uleb128 0x19
 9394 0218 03       		.uleb128 0x3
 9395 0219 08       		.uleb128 0x8
 9396 021a 3A       		.uleb128 0x3a
 9397 021b 0B       		.uleb128 0xb
 9398 021c 3B       		.uleb128 0x3b
 9399 021d 05       		.uleb128 0x5
 9400 021e 6E       		.uleb128 0x6e
 9401 021f 08       		.uleb128 0x8
 9402 0220 3C       		.uleb128 0x3c
 9403 0221 19       		.uleb128 0x19
GAS LISTING C:\Users\NJLLMR~1\AppData\Local\Temp\cce8JzPW.s 			page 236


 9404 0222 64       		.uleb128 0x64
 9405 0223 13       		.uleb128 0x13
 9406 0224 01       		.uleb128 0x1
 9407 0225 13       		.uleb128 0x13
 9408 0226 00       		.byte	0
 9409 0227 00       		.byte	0
 9410 0228 25       		.uleb128 0x25
 9411 0229 2E       		.uleb128 0x2e
 9412 022a 01       		.byte	0x1
 9413 022b 3F       		.uleb128 0x3f
 9414 022c 19       		.uleb128 0x19
 9415 022d 03       		.uleb128 0x3
 9416 022e 08       		.uleb128 0x8
 9417 022f 3A       		.uleb128 0x3a
 9418 0230 0B       		.uleb128 0xb
 9419 0231 3B       		.uleb128 0x3b
 9420 0232 05       		.uleb128 0x5
 9421 0233 6E       		.uleb128 0x6e
 9422 0234 08       		.uleb128 0x8
 9423 0235 49       		.uleb128 0x49
 9424 0236 13       		.uleb128 0x13
 9425 0237 3C       		.uleb128 0x3c
 9426 0238 19       		.uleb128 0x19
 9427 0239 64       		.uleb128 0x64
 9428 023a 13       		.uleb128 0x13
 9429 023b 01       		.uleb128 0x1
 9430 023c 13       		.uleb128 0x13
 9431 023d 00       		.byte	0
 9432 023e 00       		.byte	0
 9433 023f 26       		.uleb128 0x26
 9434 0240 2E       		.uleb128 0x2e
 9435 0241 01       		.byte	0x1
 9436 0242 3F       		.uleb128 0x3f
 9437 0243 19       		.uleb128 0x19
 9438 0244 03       		.uleb128 0x3
 9439 0245 08       		.uleb128 0x8
 9440 0246 3A       		.uleb128 0x3a
 9441 0247 0B       		.uleb128 0xb
 9442 0248 3B       		.uleb128 0x3b
 9443 0249 05       		.uleb128 0x5
 9444 024a 6E       		.uleb128 0x6e
 9445 024b 08       		.uleb128 0x8
 9446 024c 49       		.uleb128 0x49
 9447 024d 13       		.uleb128 0x13
 9448 024e 3C       		.uleb128 0x3c
 9449 024f 19       		.uleb128 0x19
 9450 0250 64       		.uleb128 0x64
 9451 0251 13       		.uleb128 0x13
 9452 0252 00       		.byte	0
 9453 0253 00       		.byte	0
 9454 0254 27       		.uleb128 0x27
 9455 0255 2E       		.uleb128 0x2e
 9456 0256 01       		.byte	0x1
 9457 0257 3F       		.uleb128 0x3f
 9458 0258 19       		.uleb128 0x19
 9459 0259 03       		.uleb128 0x3
 9460 025a 08       		.uleb128 0x8
GAS LISTING C:\Users\NJLLMR~1\AppData\Local\Temp\cce8JzPW.s 			page 237


 9461 025b 3A       		.uleb128 0x3a
 9462 025c 0B       		.uleb128 0xb
 9463 025d 3B       		.uleb128 0x3b
 9464 025e 05       		.uleb128 0x5
 9465 025f 6E       		.uleb128 0x6e
 9466 0260 08       		.uleb128 0x8
 9467 0261 3C       		.uleb128 0x3c
 9468 0262 19       		.uleb128 0x19
 9469 0263 01       		.uleb128 0x1
 9470 0264 13       		.uleb128 0x13
 9471 0265 00       		.byte	0
 9472 0266 00       		.byte	0
 9473 0267 28       		.uleb128 0x28
 9474 0268 2E       		.uleb128 0x2e
 9475 0269 01       		.byte	0x1
 9476 026a 3F       		.uleb128 0x3f
 9477 026b 19       		.uleb128 0x19
 9478 026c 03       		.uleb128 0x3
 9479 026d 0E       		.uleb128 0xe
 9480 026e 3A       		.uleb128 0x3a
 9481 026f 0B       		.uleb128 0xb
 9482 0270 3B       		.uleb128 0x3b
 9483 0271 05       		.uleb128 0x5
 9484 0272 6E       		.uleb128 0x6e
 9485 0273 08       		.uleb128 0x8
 9486 0274 3C       		.uleb128 0x3c
 9487 0275 19       		.uleb128 0x19
 9488 0276 01       		.uleb128 0x1
 9489 0277 13       		.uleb128 0x13
 9490 0278 00       		.byte	0
 9491 0279 00       		.byte	0
 9492 027a 29       		.uleb128 0x29
 9493 027b 2E       		.uleb128 0x2e
 9494 027c 00       		.byte	0
 9495 027d 3F       		.uleb128 0x3f
 9496 027e 19       		.uleb128 0x19
 9497 027f 03       		.uleb128 0x3
 9498 0280 0E       		.uleb128 0xe
 9499 0281 3A       		.uleb128 0x3a
 9500 0282 0B       		.uleb128 0xb
 9501 0283 3B       		.uleb128 0x3b
 9502 0284 05       		.uleb128 0x5
 9503 0285 6E       		.uleb128 0x6e
 9504 0286 08       		.uleb128 0x8
 9505 0287 49       		.uleb128 0x49
 9506 0288 13       		.uleb128 0x13
 9507 0289 3C       		.uleb128 0x3c
 9508 028a 19       		.uleb128 0x19
 9509 028b 00       		.byte	0
 9510 028c 00       		.byte	0
 9511 028d 2A       		.uleb128 0x2a
 9512 028e 2E       		.uleb128 0x2e
 9513 028f 01       		.byte	0x1
 9514 0290 3F       		.uleb128 0x3f
 9515 0291 19       		.uleb128 0x19
 9516 0292 03       		.uleb128 0x3
 9517 0293 0E       		.uleb128 0xe
GAS LISTING C:\Users\NJLLMR~1\AppData\Local\Temp\cce8JzPW.s 			page 238


 9518 0294 3A       		.uleb128 0x3a
 9519 0295 0B       		.uleb128 0xb
 9520 0296 3B       		.uleb128 0x3b
 9521 0297 05       		.uleb128 0x5
 9522 0298 32       		.uleb128 0x32
 9523 0299 0B       		.uleb128 0xb
 9524 029a 3C       		.uleb128 0x3c
 9525 029b 19       		.uleb128 0x19
 9526 029c 64       		.uleb128 0x64
 9527 029d 13       		.uleb128 0x13
 9528 029e 01       		.uleb128 0x1
 9529 029f 13       		.uleb128 0x13
 9530 02a0 00       		.byte	0
 9531 02a1 00       		.byte	0
 9532 02a2 2B       		.uleb128 0x2b
 9533 02a3 2E       		.uleb128 0x2e
 9534 02a4 01       		.byte	0x1
 9535 02a5 3F       		.uleb128 0x3f
 9536 02a6 19       		.uleb128 0x19
 9537 02a7 03       		.uleb128 0x3
 9538 02a8 0E       		.uleb128 0xe
 9539 02a9 3A       		.uleb128 0x3a
 9540 02aa 0B       		.uleb128 0xb
 9541 02ab 3B       		.uleb128 0x3b
 9542 02ac 0B       		.uleb128 0xb
 9543 02ad 32       		.uleb128 0x32
 9544 02ae 0B       		.uleb128 0xb
 9545 02af 3C       		.uleb128 0x3c
 9546 02b0 19       		.uleb128 0x19
 9547 02b1 63       		.uleb128 0x63
 9548 02b2 19       		.uleb128 0x19
 9549 02b3 64       		.uleb128 0x64
 9550 02b4 13       		.uleb128 0x13
 9551 02b5 01       		.uleb128 0x1
 9552 02b6 13       		.uleb128 0x13
 9553 02b7 00       		.byte	0
 9554 02b8 00       		.byte	0
 9555 02b9 2C       		.uleb128 0x2c
 9556 02ba 2E       		.uleb128 0x2e
 9557 02bb 01       		.byte	0x1
 9558 02bc 3F       		.uleb128 0x3f
 9559 02bd 19       		.uleb128 0x19
 9560 02be 03       		.uleb128 0x3
 9561 02bf 08       		.uleb128 0x8
 9562 02c0 3A       		.uleb128 0x3a
 9563 02c1 0B       		.uleb128 0xb
 9564 02c2 3B       		.uleb128 0x3b
 9565 02c3 05       		.uleb128 0x5
 9566 02c4 32       		.uleb128 0x32
 9567 02c5 0B       		.uleb128 0xb
 9568 02c6 3C       		.uleb128 0x3c
 9569 02c7 19       		.uleb128 0x19
 9570 02c8 64       		.uleb128 0x64
 9571 02c9 13       		.uleb128 0x13
 9572 02ca 01       		.uleb128 0x1
 9573 02cb 13       		.uleb128 0x13
 9574 02cc 00       		.byte	0
GAS LISTING C:\Users\NJLLMR~1\AppData\Local\Temp\cce8JzPW.s 			page 239


 9575 02cd 00       		.byte	0
 9576 02ce 2D       		.uleb128 0x2d
 9577 02cf 2E       		.uleb128 0x2e
 9578 02d0 01       		.byte	0x1
 9579 02d1 3F       		.uleb128 0x3f
 9580 02d2 19       		.uleb128 0x19
 9581 02d3 03       		.uleb128 0x3
 9582 02d4 0E       		.uleb128 0xe
 9583 02d5 3A       		.uleb128 0x3a
 9584 02d6 0B       		.uleb128 0xb
 9585 02d7 3B       		.uleb128 0x3b
 9586 02d8 05       		.uleb128 0x5
 9587 02d9 6E       		.uleb128 0x6e
 9588 02da 08       		.uleb128 0x8
 9589 02db 49       		.uleb128 0x49
 9590 02dc 13       		.uleb128 0x13
 9591 02dd 32       		.uleb128 0x32
 9592 02de 0B       		.uleb128 0xb
 9593 02df 3C       		.uleb128 0x3c
 9594 02e0 19       		.uleb128 0x19
 9595 02e1 64       		.uleb128 0x64
 9596 02e2 13       		.uleb128 0x13
 9597 02e3 01       		.uleb128 0x1
 9598 02e4 13       		.uleb128 0x13
 9599 02e5 00       		.byte	0
 9600 02e6 00       		.byte	0
 9601 02e7 2E       		.uleb128 0x2e
 9602 02e8 2E       		.uleb128 0x2e
 9603 02e9 01       		.byte	0x1
 9604 02ea 3F       		.uleb128 0x3f
 9605 02eb 19       		.uleb128 0x19
 9606 02ec 03       		.uleb128 0x3
 9607 02ed 08       		.uleb128 0x8
 9608 02ee 3A       		.uleb128 0x3a
 9609 02ef 0B       		.uleb128 0xb
 9610 02f0 3B       		.uleb128 0x3b
 9611 02f1 05       		.uleb128 0x5
 9612 02f2 6E       		.uleb128 0x6e
 9613 02f3 08       		.uleb128 0x8
 9614 02f4 49       		.uleb128 0x49
 9615 02f5 13       		.uleb128 0x13
 9616 02f6 32       		.uleb128 0x32
 9617 02f7 0B       		.uleb128 0xb
 9618 02f8 3C       		.uleb128 0x3c
 9619 02f9 19       		.uleb128 0x19
 9620 02fa 64       		.uleb128 0x64
 9621 02fb 13       		.uleb128 0x13
 9622 02fc 01       		.uleb128 0x1
 9623 02fd 13       		.uleb128 0x13
 9624 02fe 00       		.byte	0
 9625 02ff 00       		.byte	0
 9626 0300 2F       		.uleb128 0x2f
 9627 0301 2E       		.uleb128 0x2e
 9628 0302 01       		.byte	0x1
 9629 0303 3F       		.uleb128 0x3f
 9630 0304 19       		.uleb128 0x19
 9631 0305 03       		.uleb128 0x3
GAS LISTING C:\Users\NJLLMR~1\AppData\Local\Temp\cce8JzPW.s 			page 240


 9632 0306 0E       		.uleb128 0xe
 9633 0307 3A       		.uleb128 0x3a
 9634 0308 0B       		.uleb128 0xb
 9635 0309 3B       		.uleb128 0x3b
 9636 030a 05       		.uleb128 0x5
 9637 030b 6E       		.uleb128 0x6e
 9638 030c 08       		.uleb128 0x8
 9639 030d 32       		.uleb128 0x32
 9640 030e 0B       		.uleb128 0xb
 9641 030f 3C       		.uleb128 0x3c
 9642 0310 19       		.uleb128 0x19
 9643 0311 64       		.uleb128 0x64
 9644 0312 13       		.uleb128 0x13
 9645 0313 01       		.uleb128 0x1
 9646 0314 13       		.uleb128 0x13
 9647 0315 00       		.byte	0
 9648 0316 00       		.byte	0
 9649 0317 30       		.uleb128 0x30
 9650 0318 2E       		.uleb128 0x2e
 9651 0319 01       		.byte	0x1
 9652 031a 3F       		.uleb128 0x3f
 9653 031b 19       		.uleb128 0x19
 9654 031c 03       		.uleb128 0x3
 9655 031d 08       		.uleb128 0x8
 9656 031e 3A       		.uleb128 0x3a
 9657 031f 0B       		.uleb128 0xb
 9658 0320 3B       		.uleb128 0x3b
 9659 0321 05       		.uleb128 0x5
 9660 0322 6E       		.uleb128 0x6e
 9661 0323 08       		.uleb128 0x8
 9662 0324 32       		.uleb128 0x32
 9663 0325 0B       		.uleb128 0xb
 9664 0326 3C       		.uleb128 0x3c
 9665 0327 19       		.uleb128 0x19
 9666 0328 64       		.uleb128 0x64
 9667 0329 13       		.uleb128 0x13
 9668 032a 01       		.uleb128 0x1
 9669 032b 13       		.uleb128 0x13
 9670 032c 00       		.byte	0
 9671 032d 00       		.byte	0
 9672 032e 31       		.uleb128 0x31
 9673 032f 2E       		.uleb128 0x2e
 9674 0330 01       		.byte	0x1
 9675 0331 3F       		.uleb128 0x3f
 9676 0332 19       		.uleb128 0x19
 9677 0333 03       		.uleb128 0x3
 9678 0334 0E       		.uleb128 0xe
 9679 0335 3A       		.uleb128 0x3a
 9680 0336 0B       		.uleb128 0xb
 9681 0337 3B       		.uleb128 0x3b
 9682 0338 0B       		.uleb128 0xb
 9683 0339 6E       		.uleb128 0x6e
 9684 033a 08       		.uleb128 0x8
 9685 033b 49       		.uleb128 0x49
 9686 033c 13       		.uleb128 0x13
 9687 033d 32       		.uleb128 0x32
 9688 033e 0B       		.uleb128 0xb
GAS LISTING C:\Users\NJLLMR~1\AppData\Local\Temp\cce8JzPW.s 			page 241


 9689 033f 3C       		.uleb128 0x3c
 9690 0340 19       		.uleb128 0x19
 9691 0341 64       		.uleb128 0x64
 9692 0342 13       		.uleb128 0x13
 9693 0343 01       		.uleb128 0x1
 9694 0344 13       		.uleb128 0x13
 9695 0345 00       		.byte	0
 9696 0346 00       		.byte	0
 9697 0347 32       		.uleb128 0x32
 9698 0348 2F       		.uleb128 0x2f
 9699 0349 00       		.byte	0
 9700 034a 03       		.uleb128 0x3
 9701 034b 08       		.uleb128 0x8
 9702 034c 49       		.uleb128 0x49
 9703 034d 13       		.uleb128 0x13
 9704 034e 00       		.byte	0
 9705 034f 00       		.byte	0
 9706 0350 33       		.uleb128 0x33
 9707 0351 2F       		.uleb128 0x2f
 9708 0352 00       		.byte	0
 9709 0353 03       		.uleb128 0x3
 9710 0354 08       		.uleb128 0x8
 9711 0355 49       		.uleb128 0x49
 9712 0356 13       		.uleb128 0x13
 9713 0357 1E       		.uleb128 0x1e
 9714 0358 19       		.uleb128 0x19
 9715 0359 00       		.byte	0
 9716 035a 00       		.byte	0
 9717 035b 34       		.uleb128 0x34
 9718 035c 2F       		.uleb128 0x2f
 9719 035d 00       		.byte	0
 9720 035e 03       		.uleb128 0x3
 9721 035f 0E       		.uleb128 0xe
 9722 0360 49       		.uleb128 0x49
 9723 0361 13       		.uleb128 0x13
 9724 0362 1E       		.uleb128 0x1e
 9725 0363 19       		.uleb128 0x19
 9726 0364 00       		.byte	0
 9727 0365 00       		.byte	0
 9728 0366 35       		.uleb128 0x35
 9729 0367 02       		.uleb128 0x2
 9730 0368 00       		.byte	0
 9731 0369 03       		.uleb128 0x3
 9732 036a 08       		.uleb128 0x8
 9733 036b 3C       		.uleb128 0x3c
 9734 036c 19       		.uleb128 0x19
 9735 036d 00       		.byte	0
 9736 036e 00       		.byte	0
 9737 036f 36       		.uleb128 0x36
 9738 0370 04       		.uleb128 0x4
 9739 0371 01       		.byte	0x1
 9740 0372 03       		.uleb128 0x3
 9741 0373 08       		.uleb128 0x8
 9742 0374 0B       		.uleb128 0xb
 9743 0375 0B       		.uleb128 0xb
 9744 0376 3A       		.uleb128 0x3a
 9745 0377 0B       		.uleb128 0xb
GAS LISTING C:\Users\NJLLMR~1\AppData\Local\Temp\cce8JzPW.s 			page 242


 9746 0378 3B       		.uleb128 0x3b
 9747 0379 0B       		.uleb128 0xb
 9748 037a 01       		.uleb128 0x1
 9749 037b 13       		.uleb128 0x13
 9750 037c 00       		.byte	0
 9751 037d 00       		.byte	0
 9752 037e 37       		.uleb128 0x37
 9753 037f 28       		.uleb128 0x28
 9754 0380 00       		.byte	0
 9755 0381 03       		.uleb128 0x3
 9756 0382 08       		.uleb128 0x8
 9757 0383 1C       		.uleb128 0x1c
 9758 0384 0D       		.uleb128 0xd
 9759 0385 00       		.byte	0
 9760 0386 00       		.byte	0
 9761 0387 38       		.uleb128 0x38
 9762 0388 02       		.uleb128 0x2
 9763 0389 01       		.byte	0x1
 9764 038a 03       		.uleb128 0x3
 9765 038b 08       		.uleb128 0x8
 9766 038c 3C       		.uleb128 0x3c
 9767 038d 19       		.uleb128 0x19
 9768 038e 01       		.uleb128 0x1
 9769 038f 13       		.uleb128 0x13
 9770 0390 00       		.byte	0
 9771 0391 00       		.byte	0
 9772 0392 39       		.uleb128 0x39
 9773 0393 02       		.uleb128 0x2
 9774 0394 01       		.byte	0x1
 9775 0395 03       		.uleb128 0x3
 9776 0396 08       		.uleb128 0x8
 9777 0397 0B       		.uleb128 0xb
 9778 0398 0B       		.uleb128 0xb
 9779 0399 3A       		.uleb128 0x3a
 9780 039a 0B       		.uleb128 0xb
 9781 039b 3B       		.uleb128 0x3b
 9782 039c 05       		.uleb128 0x5
 9783 039d 32       		.uleb128 0x32
 9784 039e 0B       		.uleb128 0xb
 9785 039f 01       		.uleb128 0x1
 9786 03a0 13       		.uleb128 0x13
 9787 03a1 00       		.byte	0
 9788 03a2 00       		.byte	0
 9789 03a3 3A       		.uleb128 0x3a
 9790 03a4 0D       		.uleb128 0xd
 9791 03a5 00       		.byte	0
 9792 03a6 03       		.uleb128 0x3
 9793 03a7 08       		.uleb128 0x8
 9794 03a8 3A       		.uleb128 0x3a
 9795 03a9 0B       		.uleb128 0xb
 9796 03aa 3B       		.uleb128 0x3b
 9797 03ab 05       		.uleb128 0x5
 9798 03ac 49       		.uleb128 0x49
 9799 03ad 13       		.uleb128 0x13
 9800 03ae 3F       		.uleb128 0x3f
 9801 03af 19       		.uleb128 0x19
 9802 03b0 3C       		.uleb128 0x3c
GAS LISTING C:\Users\NJLLMR~1\AppData\Local\Temp\cce8JzPW.s 			page 243


 9803 03b1 19       		.uleb128 0x19
 9804 03b2 00       		.byte	0
 9805 03b3 00       		.byte	0
 9806 03b4 3B       		.uleb128 0x3b
 9807 03b5 2E       		.uleb128 0x2e
 9808 03b6 01       		.byte	0x1
 9809 03b7 3F       		.uleb128 0x3f
 9810 03b8 19       		.uleb128 0x19
 9811 03b9 03       		.uleb128 0x3
 9812 03ba 08       		.uleb128 0x8
 9813 03bb 3A       		.uleb128 0x3a
 9814 03bc 0B       		.uleb128 0xb
 9815 03bd 3B       		.uleb128 0x3b
 9816 03be 05       		.uleb128 0x5
 9817 03bf 32       		.uleb128 0x32
 9818 03c0 0B       		.uleb128 0xb
 9819 03c1 3C       		.uleb128 0x3c
 9820 03c2 19       		.uleb128 0x19
 9821 03c3 64       		.uleb128 0x64
 9822 03c4 13       		.uleb128 0x13
 9823 03c5 00       		.byte	0
 9824 03c6 00       		.byte	0
 9825 03c7 3C       		.uleb128 0x3c
 9826 03c8 16       		.uleb128 0x16
 9827 03c9 00       		.byte	0
 9828 03ca 03       		.uleb128 0x3
 9829 03cb 08       		.uleb128 0x8
 9830 03cc 3A       		.uleb128 0x3a
 9831 03cd 0B       		.uleb128 0xb
 9832 03ce 3B       		.uleb128 0x3b
 9833 03cf 0B       		.uleb128 0xb
 9834 03d0 49       		.uleb128 0x49
 9835 03d1 13       		.uleb128 0x13
 9836 03d2 32       		.uleb128 0x32
 9837 03d3 0B       		.uleb128 0xb
 9838 03d4 00       		.byte	0
 9839 03d5 00       		.byte	0
 9840 03d6 3D       		.uleb128 0x3d
 9841 03d7 0D       		.uleb128 0xd
 9842 03d8 00       		.byte	0
 9843 03d9 03       		.uleb128 0x3
 9844 03da 08       		.uleb128 0x8
 9845 03db 3A       		.uleb128 0x3a
 9846 03dc 0B       		.uleb128 0xb
 9847 03dd 3B       		.uleb128 0x3b
 9848 03de 05       		.uleb128 0x5
 9849 03df 49       		.uleb128 0x49
 9850 03e0 13       		.uleb128 0x13
 9851 03e1 3F       		.uleb128 0x3f
 9852 03e2 19       		.uleb128 0x19
 9853 03e3 32       		.uleb128 0x32
 9854 03e4 0B       		.uleb128 0xb
 9855 03e5 3C       		.uleb128 0x3c
 9856 03e6 19       		.uleb128 0x19
 9857 03e7 1C       		.uleb128 0x1c
 9858 03e8 0B       		.uleb128 0xb
 9859 03e9 00       		.byte	0
GAS LISTING C:\Users\NJLLMR~1\AppData\Local\Temp\cce8JzPW.s 			page 244


 9860 03ea 00       		.byte	0
 9861 03eb 3E       		.uleb128 0x3e
 9862 03ec 0D       		.uleb128 0xd
 9863 03ed 00       		.byte	0
 9864 03ee 03       		.uleb128 0x3
 9865 03ef 08       		.uleb128 0x8
 9866 03f0 3A       		.uleb128 0x3a
 9867 03f1 0B       		.uleb128 0xb
 9868 03f2 3B       		.uleb128 0x3b
 9869 03f3 05       		.uleb128 0x5
 9870 03f4 49       		.uleb128 0x49
 9871 03f5 13       		.uleb128 0x13
 9872 03f6 3F       		.uleb128 0x3f
 9873 03f7 19       		.uleb128 0x19
 9874 03f8 32       		.uleb128 0x32
 9875 03f9 0B       		.uleb128 0xb
 9876 03fa 3C       		.uleb128 0x3c
 9877 03fb 19       		.uleb128 0x19
 9878 03fc 1C       		.uleb128 0x1c
 9879 03fd 05       		.uleb128 0x5
 9880 03fe 00       		.byte	0
 9881 03ff 00       		.byte	0
 9882 0400 3F       		.uleb128 0x3f
 9883 0401 16       		.uleb128 0x16
 9884 0402 00       		.byte	0
 9885 0403 03       		.uleb128 0x3
 9886 0404 08       		.uleb128 0x8
 9887 0405 3A       		.uleb128 0x3a
 9888 0406 0B       		.uleb128 0xb
 9889 0407 3B       		.uleb128 0x3b
 9890 0408 05       		.uleb128 0x5
 9891 0409 49       		.uleb128 0x49
 9892 040a 13       		.uleb128 0x13
 9893 040b 32       		.uleb128 0x32
 9894 040c 0B       		.uleb128 0xb
 9895 040d 00       		.byte	0
 9896 040e 00       		.byte	0
 9897 040f 40       		.uleb128 0x40
 9898 0410 13       		.uleb128 0x13
 9899 0411 01       		.byte	0x1
 9900 0412 03       		.uleb128 0x3
 9901 0413 0E       		.uleb128 0xe
 9902 0414 0B       		.uleb128 0xb
 9903 0415 0B       		.uleb128 0xb
 9904 0416 3A       		.uleb128 0x3a
 9905 0417 0B       		.uleb128 0xb
 9906 0418 3B       		.uleb128 0x3b
 9907 0419 0B       		.uleb128 0xb
 9908 041a 32       		.uleb128 0x32
 9909 041b 0B       		.uleb128 0xb
 9910 041c 00       		.byte	0
 9911 041d 00       		.byte	0
 9912 041e 41       		.uleb128 0x41
 9913 041f 13       		.uleb128 0x13
 9914 0420 01       		.byte	0x1
 9915 0421 03       		.uleb128 0x3
 9916 0422 0E       		.uleb128 0xe
GAS LISTING C:\Users\NJLLMR~1\AppData\Local\Temp\cce8JzPW.s 			page 245


 9917 0423 0B       		.uleb128 0xb
 9918 0424 0B       		.uleb128 0xb
 9919 0425 3A       		.uleb128 0x3a
 9920 0426 0B       		.uleb128 0xb
 9921 0427 3B       		.uleb128 0x3b
 9922 0428 0B       		.uleb128 0xb
 9923 0429 01       		.uleb128 0x1
 9924 042a 13       		.uleb128 0x13
 9925 042b 00       		.byte	0
 9926 042c 00       		.byte	0
 9927 042d 42       		.uleb128 0x42
 9928 042e 2E       		.uleb128 0x2e
 9929 042f 01       		.byte	0x1
 9930 0430 3F       		.uleb128 0x3f
 9931 0431 19       		.uleb128 0x19
 9932 0432 03       		.uleb128 0x3
 9933 0433 0E       		.uleb128 0xe
 9934 0434 3A       		.uleb128 0x3a
 9935 0435 0B       		.uleb128 0xb
 9936 0436 3B       		.uleb128 0x3b
 9937 0437 0B       		.uleb128 0xb
 9938 0438 3C       		.uleb128 0x3c
 9939 0439 19       		.uleb128 0x19
 9940 043a 64       		.uleb128 0x64
 9941 043b 13       		.uleb128 0x13
 9942 043c 01       		.uleb128 0x1
 9943 043d 13       		.uleb128 0x13
 9944 043e 00       		.byte	0
 9945 043f 00       		.byte	0
 9946 0440 43       		.uleb128 0x43
 9947 0441 2E       		.uleb128 0x2e
 9948 0442 01       		.byte	0x1
 9949 0443 3F       		.uleb128 0x3f
 9950 0444 19       		.uleb128 0x19
 9951 0445 03       		.uleb128 0x3
 9952 0446 08       		.uleb128 0x8
 9953 0447 34       		.uleb128 0x34
 9954 0448 19       		.uleb128 0x19
 9955 0449 3C       		.uleb128 0x3c
 9956 044a 19       		.uleb128 0x19
 9957 044b 64       		.uleb128 0x64
 9958 044c 13       		.uleb128 0x13
 9959 044d 00       		.byte	0
 9960 044e 00       		.byte	0
 9961 044f 44       		.uleb128 0x44
 9962 0450 16       		.uleb128 0x16
 9963 0451 00       		.byte	0
 9964 0452 03       		.uleb128 0x3
 9965 0453 0E       		.uleb128 0xe
 9966 0454 3A       		.uleb128 0x3a
 9967 0455 0B       		.uleb128 0xb
 9968 0456 3B       		.uleb128 0x3b
 9969 0457 0B       		.uleb128 0xb
 9970 0458 49       		.uleb128 0x49
 9971 0459 13       		.uleb128 0x13
 9972 045a 00       		.byte	0
 9973 045b 00       		.byte	0
GAS LISTING C:\Users\NJLLMR~1\AppData\Local\Temp\cce8JzPW.s 			page 246


 9974 045c 45       		.uleb128 0x45
 9975 045d 2E       		.uleb128 0x2e
 9976 045e 01       		.byte	0x1
 9977 045f 3F       		.uleb128 0x3f
 9978 0460 19       		.uleb128 0x19
 9979 0461 03       		.uleb128 0x3
 9980 0462 0E       		.uleb128 0xe
 9981 0463 3A       		.uleb128 0x3a
 9982 0464 0B       		.uleb128 0xb
 9983 0465 3B       		.uleb128 0x3b
 9984 0466 0B       		.uleb128 0xb
 9985 0467 6E       		.uleb128 0x6e
 9986 0468 08       		.uleb128 0x8
 9987 0469 49       		.uleb128 0x49
 9988 046a 13       		.uleb128 0x13
 9989 046b 3C       		.uleb128 0x3c
 9990 046c 19       		.uleb128 0x19
 9991 046d 64       		.uleb128 0x64
 9992 046e 13       		.uleb128 0x13
 9993 046f 01       		.uleb128 0x1
 9994 0470 13       		.uleb128 0x13
 9995 0471 00       		.byte	0
 9996 0472 00       		.byte	0
 9997 0473 46       		.uleb128 0x46
 9998 0474 2E       		.uleb128 0x2e
 9999 0475 01       		.byte	0x1
 10000 0476 3F       		.uleb128 0x3f
 10001 0477 19       		.uleb128 0x19
 10002 0478 03       		.uleb128 0x3
 10003 0479 08       		.uleb128 0x8
 10004 047a 3A       		.uleb128 0x3a
 10005 047b 0B       		.uleb128 0xb
 10006 047c 3B       		.uleb128 0x3b
 10007 047d 0B       		.uleb128 0xb
 10008 047e 3C       		.uleb128 0x3c
 10009 047f 19       		.uleb128 0x19
 10010 0480 64       		.uleb128 0x64
 10011 0481 13       		.uleb128 0x13
 10012 0482 01       		.uleb128 0x1
 10013 0483 13       		.uleb128 0x13
 10014 0484 00       		.byte	0
 10015 0485 00       		.byte	0
 10016 0486 47       		.uleb128 0x47
 10017 0487 2E       		.uleb128 0x2e
 10018 0488 01       		.byte	0x1
 10019 0489 3F       		.uleb128 0x3f
 10020 048a 19       		.uleb128 0x19
 10021 048b 03       		.uleb128 0x3
 10022 048c 08       		.uleb128 0x8
 10023 048d 3A       		.uleb128 0x3a
 10024 048e 0B       		.uleb128 0xb
 10025 048f 3B       		.uleb128 0x3b
 10026 0490 0B       		.uleb128 0xb
 10027 0491 6E       		.uleb128 0x6e
 10028 0492 08       		.uleb128 0x8
 10029 0493 32       		.uleb128 0x32
 10030 0494 0B       		.uleb128 0xb
GAS LISTING C:\Users\NJLLMR~1\AppData\Local\Temp\cce8JzPW.s 			page 247


 10031 0495 3C       		.uleb128 0x3c
 10032 0496 19       		.uleb128 0x19
 10033 0497 64       		.uleb128 0x64
 10034 0498 13       		.uleb128 0x13
 10035 0499 01       		.uleb128 0x1
 10036 049a 13       		.uleb128 0x13
 10037 049b 00       		.byte	0
 10038 049c 00       		.byte	0
 10039 049d 48       		.uleb128 0x48
 10040 049e 2F       		.uleb128 0x2f
 10041 049f 00       		.byte	0
 10042 04a0 03       		.uleb128 0x3
 10043 04a1 0E       		.uleb128 0xe
 10044 04a2 49       		.uleb128 0x49
 10045 04a3 13       		.uleb128 0x13
 10046 04a4 00       		.byte	0
 10047 04a5 00       		.byte	0
 10048 04a6 49       		.uleb128 0x49
 10049 04a7 2E       		.uleb128 0x2e
 10050 04a8 01       		.byte	0x1
 10051 04a9 3F       		.uleb128 0x3f
 10052 04aa 19       		.uleb128 0x19
 10053 04ab 03       		.uleb128 0x3
 10054 04ac 0E       		.uleb128 0xe
 10055 04ad 3A       		.uleb128 0x3a
 10056 04ae 0B       		.uleb128 0xb
 10057 04af 3B       		.uleb128 0x3b
 10058 04b0 05       		.uleb128 0x5
 10059 04b1 32       		.uleb128 0x32
 10060 04b2 0B       		.uleb128 0xb
 10061 04b3 3C       		.uleb128 0x3c
 10062 04b4 19       		.uleb128 0x19
 10063 04b5 63       		.uleb128 0x63
 10064 04b6 19       		.uleb128 0x19
 10065 04b7 64       		.uleb128 0x64
 10066 04b8 13       		.uleb128 0x13
 10067 04b9 01       		.uleb128 0x1
 10068 04ba 13       		.uleb128 0x13
 10069 04bb 00       		.byte	0
 10070 04bc 00       		.byte	0
 10071 04bd 4A       		.uleb128 0x4a
 10072 04be 2E       		.uleb128 0x2e
 10073 04bf 01       		.byte	0x1
 10074 04c0 3F       		.uleb128 0x3f
 10075 04c1 19       		.uleb128 0x19
 10076 04c2 03       		.uleb128 0x3
 10077 04c3 08       		.uleb128 0x8
 10078 04c4 3A       		.uleb128 0x3a
 10079 04c5 0B       		.uleb128 0xb
 10080 04c6 3B       		.uleb128 0x3b
 10081 04c7 0B       		.uleb128 0xb
 10082 04c8 6E       		.uleb128 0x6e
 10083 04c9 08       		.uleb128 0x8
 10084 04ca 3C       		.uleb128 0x3c
 10085 04cb 19       		.uleb128 0x19
 10086 04cc 00       		.byte	0
 10087 04cd 00       		.byte	0
GAS LISTING C:\Users\NJLLMR~1\AppData\Local\Temp\cce8JzPW.s 			page 248


 10088 04ce 4B       		.uleb128 0x4b
 10089 04cf 2E       		.uleb128 0x2e
 10090 04d0 01       		.byte	0x1
 10091 04d1 3F       		.uleb128 0x3f
 10092 04d2 19       		.uleb128 0x19
 10093 04d3 03       		.uleb128 0x3
 10094 04d4 08       		.uleb128 0x8
 10095 04d5 3A       		.uleb128 0x3a
 10096 04d6 0B       		.uleb128 0xb
 10097 04d7 3B       		.uleb128 0x3b
 10098 04d8 0B       		.uleb128 0xb
 10099 04d9 6E       		.uleb128 0x6e
 10100 04da 08       		.uleb128 0x8
 10101 04db 3C       		.uleb128 0x3c
 10102 04dc 19       		.uleb128 0x19
 10103 04dd 01       		.uleb128 0x1
 10104 04de 13       		.uleb128 0x13
 10105 04df 00       		.byte	0
 10106 04e0 00       		.byte	0
 10107 04e1 4C       		.uleb128 0x4c
 10108 04e2 34       		.uleb128 0x34
 10109 04e3 00       		.byte	0
 10110 04e4 03       		.uleb128 0x3
 10111 04e5 08       		.uleb128 0x8
 10112 04e6 3A       		.uleb128 0x3a
 10113 04e7 0B       		.uleb128 0xb
 10114 04e8 3B       		.uleb128 0x3b
 10115 04e9 0B       		.uleb128 0xb
 10116 04ea 49       		.uleb128 0x49
 10117 04eb 13       		.uleb128 0x13
 10118 04ec 3C       		.uleb128 0x3c
 10119 04ed 19       		.uleb128 0x19
 10120 04ee 00       		.byte	0
 10121 04ef 00       		.byte	0
 10122 04f0 4D       		.uleb128 0x4d
 10123 04f1 2E       		.uleb128 0x2e
 10124 04f2 01       		.byte	0x1
 10125 04f3 3F       		.uleb128 0x3f
 10126 04f4 19       		.uleb128 0x19
 10127 04f5 03       		.uleb128 0x3
 10128 04f6 08       		.uleb128 0x8
 10129 04f7 3A       		.uleb128 0x3a
 10130 04f8 0B       		.uleb128 0xb
 10131 04f9 3B       		.uleb128 0x3b
 10132 04fa 05       		.uleb128 0x5
 10133 04fb 49       		.uleb128 0x49
 10134 04fc 13       		.uleb128 0x13
 10135 04fd 3C       		.uleb128 0x3c
 10136 04fe 19       		.uleb128 0x19
 10137 04ff 01       		.uleb128 0x1
 10138 0500 13       		.uleb128 0x13
 10139 0501 00       		.byte	0
 10140 0502 00       		.byte	0
 10141 0503 4E       		.uleb128 0x4e
 10142 0504 2E       		.uleb128 0x2e
 10143 0505 01       		.byte	0x1
 10144 0506 3F       		.uleb128 0x3f
GAS LISTING C:\Users\NJLLMR~1\AppData\Local\Temp\cce8JzPW.s 			page 249


 10145 0507 19       		.uleb128 0x19
 10146 0508 03       		.uleb128 0x3
 10147 0509 08       		.uleb128 0x8
 10148 050a 3A       		.uleb128 0x3a
 10149 050b 0B       		.uleb128 0xb
 10150 050c 3B       		.uleb128 0x3b
 10151 050d 0B       		.uleb128 0xb
 10152 050e 49       		.uleb128 0x49
 10153 050f 13       		.uleb128 0x13
 10154 0510 3C       		.uleb128 0x3c
 10155 0511 19       		.uleb128 0x19
 10156 0512 01       		.uleb128 0x1
 10157 0513 13       		.uleb128 0x13
 10158 0514 00       		.byte	0
 10159 0515 00       		.byte	0
 10160 0516 4F       		.uleb128 0x4f
 10161 0517 18       		.uleb128 0x18
 10162 0518 00       		.byte	0
 10163 0519 00       		.byte	0
 10164 051a 00       		.byte	0
 10165 051b 50       		.uleb128 0x50
 10166 051c 2E       		.uleb128 0x2e
 10167 051d 00       		.byte	0
 10168 051e 3F       		.uleb128 0x3f
 10169 051f 19       		.uleb128 0x19
 10170 0520 03       		.uleb128 0x3
 10171 0521 08       		.uleb128 0x8
 10172 0522 3A       		.uleb128 0x3a
 10173 0523 0B       		.uleb128 0xb
 10174 0524 3B       		.uleb128 0x3b
 10175 0525 0B       		.uleb128 0xb
 10176 0526 49       		.uleb128 0x49
 10177 0527 13       		.uleb128 0x13
 10178 0528 3C       		.uleb128 0x3c
 10179 0529 19       		.uleb128 0x19
 10180 052a 00       		.byte	0
 10181 052b 00       		.byte	0
 10182 052c 51       		.uleb128 0x51
 10183 052d 2E       		.uleb128 0x2e
 10184 052e 01       		.byte	0x1
 10185 052f 3F       		.uleb128 0x3f
 10186 0530 19       		.uleb128 0x19
 10187 0531 03       		.uleb128 0x3
 10188 0532 0E       		.uleb128 0xe
 10189 0533 3A       		.uleb128 0x3a
 10190 0534 0B       		.uleb128 0xb
 10191 0535 3B       		.uleb128 0x3b
 10192 0536 0B       		.uleb128 0xb
 10193 0537 6E       		.uleb128 0x6e
 10194 0538 08       		.uleb128 0x8
 10195 0539 32       		.uleb128 0x32
 10196 053a 0B       		.uleb128 0xb
 10197 053b 3C       		.uleb128 0x3c
 10198 053c 19       		.uleb128 0x19
 10199 053d 64       		.uleb128 0x64
 10200 053e 13       		.uleb128 0x13
 10201 053f 01       		.uleb128 0x1
GAS LISTING C:\Users\NJLLMR~1\AppData\Local\Temp\cce8JzPW.s 			page 250


 10202 0540 13       		.uleb128 0x13
 10203 0541 00       		.byte	0
 10204 0542 00       		.byte	0
 10205 0543 52       		.uleb128 0x52
 10206 0544 0D       		.uleb128 0xd
 10207 0545 00       		.byte	0
 10208 0546 03       		.uleb128 0x3
 10209 0547 0E       		.uleb128 0xe
 10210 0548 3A       		.uleb128 0x3a
 10211 0549 0B       		.uleb128 0xb
 10212 054a 3B       		.uleb128 0x3b
 10213 054b 0B       		.uleb128 0xb
 10214 054c 49       		.uleb128 0x49
 10215 054d 13       		.uleb128 0x13
 10216 054e 3F       		.uleb128 0x3f
 10217 054f 19       		.uleb128 0x19
 10218 0550 3C       		.uleb128 0x3c
 10219 0551 19       		.uleb128 0x19
 10220 0552 00       		.byte	0
 10221 0553 00       		.byte	0
 10222 0554 53       		.uleb128 0x53
 10223 0555 2E       		.uleb128 0x2e
 10224 0556 01       		.byte	0x1
 10225 0557 3F       		.uleb128 0x3f
 10226 0558 19       		.uleb128 0x19
 10227 0559 03       		.uleb128 0x3
 10228 055a 0E       		.uleb128 0xe
 10229 055b 3A       		.uleb128 0x3a
 10230 055c 0B       		.uleb128 0xb
 10231 055d 3B       		.uleb128 0x3b
 10232 055e 0B       		.uleb128 0xb
 10233 055f 6E       		.uleb128 0x6e
 10234 0560 08       		.uleb128 0x8
 10235 0561 49       		.uleb128 0x49
 10236 0562 13       		.uleb128 0x13
 10237 0563 3C       		.uleb128 0x3c
 10238 0564 19       		.uleb128 0x19
 10239 0565 01       		.uleb128 0x1
 10240 0566 13       		.uleb128 0x13
 10241 0567 00       		.byte	0
 10242 0568 00       		.byte	0
 10243 0569 54       		.uleb128 0x54
 10244 056a 3A       		.uleb128 0x3a
 10245 056b 00       		.byte	0
 10246 056c 3A       		.uleb128 0x3a
 10247 056d 0B       		.uleb128 0xb
 10248 056e 3B       		.uleb128 0x3b
 10249 056f 0B       		.uleb128 0xb
 10250 0570 18       		.uleb128 0x18
 10251 0571 13       		.uleb128 0x13
 10252 0572 00       		.byte	0
 10253 0573 00       		.byte	0
 10254 0574 55       		.uleb128 0x55
 10255 0575 10       		.uleb128 0x10
 10256 0576 00       		.byte	0
 10257 0577 0B       		.uleb128 0xb
 10258 0578 0B       		.uleb128 0xb
GAS LISTING C:\Users\NJLLMR~1\AppData\Local\Temp\cce8JzPW.s 			page 251


 10259 0579 49       		.uleb128 0x49
 10260 057a 13       		.uleb128 0x13
 10261 057b 00       		.byte	0
 10262 057c 00       		.byte	0
 10263 057d 56       		.uleb128 0x56
 10264 057e 26       		.uleb128 0x26
 10265 057f 00       		.byte	0
 10266 0580 00       		.byte	0
 10267 0581 00       		.byte	0
 10268 0582 57       		.uleb128 0x57
 10269 0583 01       		.uleb128 0x1
 10270 0584 01       		.byte	0x1
 10271 0585 49       		.uleb128 0x49
 10272 0586 13       		.uleb128 0x13
 10273 0587 01       		.uleb128 0x1
 10274 0588 13       		.uleb128 0x13
 10275 0589 00       		.byte	0
 10276 058a 00       		.byte	0
 10277 058b 58       		.uleb128 0x58
 10278 058c 21       		.uleb128 0x21
 10279 058d 00       		.byte	0
 10280 058e 00       		.byte	0
 10281 058f 00       		.byte	0
 10282 0590 59       		.uleb128 0x59
 10283 0591 2E       		.uleb128 0x2e
 10284 0592 01       		.byte	0x1
 10285 0593 3F       		.uleb128 0x3f
 10286 0594 19       		.uleb128 0x19
 10287 0595 03       		.uleb128 0x3
 10288 0596 08       		.uleb128 0x8
 10289 0597 3A       		.uleb128 0x3a
 10290 0598 0B       		.uleb128 0xb
 10291 0599 3B       		.uleb128 0x3b
 10292 059a 0B       		.uleb128 0xb
 10293 059b 32       		.uleb128 0x32
 10294 059c 0B       		.uleb128 0xb
 10295 059d 3C       		.uleb128 0x3c
 10296 059e 19       		.uleb128 0x19
 10297 059f 64       		.uleb128 0x64
 10298 05a0 13       		.uleb128 0x13
 10299 05a1 01       		.uleb128 0x1
 10300 05a2 13       		.uleb128 0x13
 10301 05a3 00       		.byte	0
 10302 05a4 00       		.byte	0
 10303 05a5 5A       		.uleb128 0x5a
 10304 05a6 2E       		.uleb128 0x2e
 10305 05a7 01       		.byte	0x1
 10306 05a8 3F       		.uleb128 0x3f
 10307 05a9 19       		.uleb128 0x19
 10308 05aa 03       		.uleb128 0x3
 10309 05ab 08       		.uleb128 0x8
 10310 05ac 3A       		.uleb128 0x3a
 10311 05ad 0B       		.uleb128 0xb
 10312 05ae 3B       		.uleb128 0x3b
 10313 05af 0B       		.uleb128 0xb
 10314 05b0 6E       		.uleb128 0x6e
 10315 05b1 08       		.uleb128 0x8
GAS LISTING C:\Users\NJLLMR~1\AppData\Local\Temp\cce8JzPW.s 			page 252


 10316 05b2 32       		.uleb128 0x32
 10317 05b3 0B       		.uleb128 0xb
 10318 05b4 3C       		.uleb128 0x3c
 10319 05b5 19       		.uleb128 0x19
 10320 05b6 64       		.uleb128 0x64
 10321 05b7 13       		.uleb128 0x13
 10322 05b8 00       		.byte	0
 10323 05b9 00       		.byte	0
 10324 05ba 5B       		.uleb128 0x5b
 10325 05bb 2E       		.uleb128 0x2e
 10326 05bc 01       		.byte	0x1
 10327 05bd 47       		.uleb128 0x47
 10328 05be 13       		.uleb128 0x13
 10329 05bf 3A       		.uleb128 0x3a
 10330 05c0 0B       		.uleb128 0xb
 10331 05c1 3B       		.uleb128 0x3b
 10332 05c2 0B       		.uleb128 0xb
 10333 05c3 20       		.uleb128 0x20
 10334 05c4 0B       		.uleb128 0xb
 10335 05c5 64       		.uleb128 0x64
 10336 05c6 13       		.uleb128 0x13
 10337 05c7 01       		.uleb128 0x1
 10338 05c8 13       		.uleb128 0x13
 10339 05c9 00       		.byte	0
 10340 05ca 00       		.byte	0
 10341 05cb 5C       		.uleb128 0x5c
 10342 05cc 05       		.uleb128 0x5
 10343 05cd 00       		.byte	0
 10344 05ce 03       		.uleb128 0x3
 10345 05cf 0E       		.uleb128 0xe
 10346 05d0 49       		.uleb128 0x49
 10347 05d1 13       		.uleb128 0x13
 10348 05d2 34       		.uleb128 0x34
 10349 05d3 19       		.uleb128 0x19
 10350 05d4 00       		.byte	0
 10351 05d5 00       		.byte	0
 10352 05d6 5D       		.uleb128 0x5d
 10353 05d7 2E       		.uleb128 0x2e
 10354 05d8 01       		.byte	0x1
 10355 05d9 31       		.uleb128 0x31
 10356 05da 13       		.uleb128 0x13
 10357 05db 6E       		.uleb128 0x6e
 10358 05dc 08       		.uleb128 0x8
 10359 05dd 11       		.uleb128 0x11
 10360 05de 01       		.uleb128 0x1
 10361 05df 12       		.uleb128 0x12
 10362 05e0 06       		.uleb128 0x6
 10363 05e1 40       		.uleb128 0x40
 10364 05e2 18       		.uleb128 0x18
 10365 05e3 64       		.uleb128 0x64
 10366 05e4 13       		.uleb128 0x13
 10367 05e5 9642     		.uleb128 0x2116
 10368 05e7 19       		.uleb128 0x19
 10369 05e8 01       		.uleb128 0x1
 10370 05e9 13       		.uleb128 0x13
 10371 05ea 00       		.byte	0
 10372 05eb 00       		.byte	0
GAS LISTING C:\Users\NJLLMR~1\AppData\Local\Temp\cce8JzPW.s 			page 253


 10373 05ec 5E       		.uleb128 0x5e
 10374 05ed 05       		.uleb128 0x5
 10375 05ee 00       		.byte	0
 10376 05ef 31       		.uleb128 0x31
 10377 05f0 13       		.uleb128 0x13
 10378 05f1 02       		.uleb128 0x2
 10379 05f2 18       		.uleb128 0x18
 10380 05f3 00       		.byte	0
 10381 05f4 00       		.byte	0
 10382 05f5 5F       		.uleb128 0x5f
 10383 05f6 2E       		.uleb128 0x2e
 10384 05f7 01       		.byte	0x1
 10385 05f8 47       		.uleb128 0x47
 10386 05f9 13       		.uleb128 0x13
 10387 05fa 3A       		.uleb128 0x3a
 10388 05fb 0B       		.uleb128 0xb
 10389 05fc 3B       		.uleb128 0x3b
 10390 05fd 0B       		.uleb128 0xb
 10391 05fe 11       		.uleb128 0x11
 10392 05ff 01       		.uleb128 0x1
 10393 0600 12       		.uleb128 0x12
 10394 0601 06       		.uleb128 0x6
 10395 0602 40       		.uleb128 0x40
 10396 0603 18       		.uleb128 0x18
 10397 0604 64       		.uleb128 0x64
 10398 0605 13       		.uleb128 0x13
 10399 0606 9642     		.uleb128 0x2116
 10400 0608 19       		.uleb128 0x19
 10401 0609 01       		.uleb128 0x1
 10402 060a 13       		.uleb128 0x13
 10403 060b 00       		.byte	0
 10404 060c 00       		.byte	0
 10405 060d 60       		.uleb128 0x60
 10406 060e 05       		.uleb128 0x5
 10407 060f 00       		.byte	0
 10408 0610 03       		.uleb128 0x3
 10409 0611 0E       		.uleb128 0xe
 10410 0612 49       		.uleb128 0x49
 10411 0613 13       		.uleb128 0x13
 10412 0614 34       		.uleb128 0x34
 10413 0615 19       		.uleb128 0x19
 10414 0616 02       		.uleb128 0x2
 10415 0617 18       		.uleb128 0x18
 10416 0618 00       		.byte	0
 10417 0619 00       		.byte	0
 10418 061a 61       		.uleb128 0x61
 10419 061b 05       		.uleb128 0x5
 10420 061c 00       		.byte	0
 10421 061d 03       		.uleb128 0x3
 10422 061e 08       		.uleb128 0x8
 10423 061f 3A       		.uleb128 0x3a
 10424 0620 0B       		.uleb128 0xb
 10425 0621 3B       		.uleb128 0x3b
 10426 0622 0B       		.uleb128 0xb
 10427 0623 49       		.uleb128 0x49
 10428 0624 13       		.uleb128 0x13
 10429 0625 02       		.uleb128 0x2
GAS LISTING C:\Users\NJLLMR~1\AppData\Local\Temp\cce8JzPW.s 			page 254


 10430 0626 18       		.uleb128 0x18
 10431 0627 00       		.byte	0
 10432 0628 00       		.byte	0
 10433 0629 62       		.uleb128 0x62
 10434 062a 2E       		.uleb128 0x2e
 10435 062b 01       		.byte	0x1
 10436 062c 47       		.uleb128 0x47
 10437 062d 13       		.uleb128 0x13
 10438 062e 3A       		.uleb128 0x3a
 10439 062f 0B       		.uleb128 0xb
 10440 0630 3B       		.uleb128 0x3b
 10441 0631 0B       		.uleb128 0xb
 10442 0632 11       		.uleb128 0x11
 10443 0633 01       		.uleb128 0x1
 10444 0634 12       		.uleb128 0x12
 10445 0635 06       		.uleb128 0x6
 10446 0636 40       		.uleb128 0x40
 10447 0637 18       		.uleb128 0x18
 10448 0638 64       		.uleb128 0x64
 10449 0639 13       		.uleb128 0x13
 10450 063a 9742     		.uleb128 0x2117
 10451 063c 19       		.uleb128 0x19
 10452 063d 01       		.uleb128 0x1
 10453 063e 13       		.uleb128 0x13
 10454 063f 00       		.byte	0
 10455 0640 00       		.byte	0
 10456 0641 63       		.uleb128 0x63
 10457 0642 2E       		.uleb128 0x2e
 10458 0643 01       		.byte	0x1
 10459 0644 47       		.uleb128 0x47
 10460 0645 13       		.uleb128 0x13
 10461 0646 20       		.uleb128 0x20
 10462 0647 0B       		.uleb128 0xb
 10463 0648 64       		.uleb128 0x64
 10464 0649 13       		.uleb128 0x13
 10465 064a 01       		.uleb128 0x1
 10466 064b 13       		.uleb128 0x13
 10467 064c 00       		.byte	0
 10468 064d 00       		.byte	0
 10469 064e 64       		.uleb128 0x64
 10470 064f 2E       		.uleb128 0x2e
 10471 0650 01       		.byte	0x1
 10472 0651 47       		.uleb128 0x47
 10473 0652 13       		.uleb128 0x13
 10474 0653 11       		.uleb128 0x11
 10475 0654 01       		.uleb128 0x1
 10476 0655 12       		.uleb128 0x12
 10477 0656 06       		.uleb128 0x6
 10478 0657 40       		.uleb128 0x40
 10479 0658 18       		.uleb128 0x18
 10480 0659 64       		.uleb128 0x64
 10481 065a 13       		.uleb128 0x13
 10482 065b 9642     		.uleb128 0x2116
 10483 065d 19       		.uleb128 0x19
 10484 065e 01       		.uleb128 0x1
 10485 065f 13       		.uleb128 0x13
 10486 0660 00       		.byte	0
GAS LISTING C:\Users\NJLLMR~1\AppData\Local\Temp\cce8JzPW.s 			page 255


 10487 0661 00       		.byte	0
 10488 0662 65       		.uleb128 0x65
 10489 0663 2E       		.uleb128 0x2e
 10490 0664 01       		.byte	0x1
 10491 0665 47       		.uleb128 0x47
 10492 0666 13       		.uleb128 0x13
 10493 0667 11       		.uleb128 0x11
 10494 0668 01       		.uleb128 0x1
 10495 0669 12       		.uleb128 0x12
 10496 066a 06       		.uleb128 0x6
 10497 066b 40       		.uleb128 0x40
 10498 066c 18       		.uleb128 0x18
 10499 066d 64       		.uleb128 0x64
 10500 066e 13       		.uleb128 0x13
 10501 066f 9742     		.uleb128 0x2117
 10502 0671 19       		.uleb128 0x19
 10503 0672 01       		.uleb128 0x1
 10504 0673 13       		.uleb128 0x13
 10505 0674 00       		.byte	0
 10506 0675 00       		.byte	0
 10507 0676 66       		.uleb128 0x66
 10508 0677 2E       		.uleb128 0x2e
 10509 0678 01       		.byte	0x1
 10510 0679 47       		.uleb128 0x47
 10511 067a 13       		.uleb128 0x13
 10512 067b 11       		.uleb128 0x11
 10513 067c 01       		.uleb128 0x1
 10514 067d 12       		.uleb128 0x12
 10515 067e 06       		.uleb128 0x6
 10516 067f 40       		.uleb128 0x40
 10517 0680 18       		.uleb128 0x18
 10518 0681 9642     		.uleb128 0x2116
 10519 0683 19       		.uleb128 0x19
 10520 0684 01       		.uleb128 0x1
 10521 0685 13       		.uleb128 0x13
 10522 0686 00       		.byte	0
 10523 0687 00       		.byte	0
 10524 0688 67       		.uleb128 0x67
 10525 0689 05       		.uleb128 0x5
 10526 068a 00       		.byte	0
 10527 068b 03       		.uleb128 0x3
 10528 068c 0E       		.uleb128 0xe
 10529 068d 3A       		.uleb128 0x3a
 10530 068e 0B       		.uleb128 0xb
 10531 068f 3B       		.uleb128 0x3b
 10532 0690 0B       		.uleb128 0xb
 10533 0691 49       		.uleb128 0x49
 10534 0692 13       		.uleb128 0x13
 10535 0693 02       		.uleb128 0x2
 10536 0694 18       		.uleb128 0x18
 10537 0695 00       		.byte	0
 10538 0696 00       		.byte	0
 10539 0697 68       		.uleb128 0x68
 10540 0698 05       		.uleb128 0x5
 10541 0699 00       		.byte	0
 10542 069a 49       		.uleb128 0x49
 10543 069b 13       		.uleb128 0x13
GAS LISTING C:\Users\NJLLMR~1\AppData\Local\Temp\cce8JzPW.s 			page 256


 10544 069c 02       		.uleb128 0x2
 10545 069d 18       		.uleb128 0x18
 10546 069e 00       		.byte	0
 10547 069f 00       		.byte	0
 10548 06a0 69       		.uleb128 0x69
 10549 06a1 05       		.uleb128 0x5
 10550 06a2 00       		.byte	0
 10551 06a3 03       		.uleb128 0x3
 10552 06a4 08       		.uleb128 0x8
 10553 06a5 3A       		.uleb128 0x3a
 10554 06a6 0B       		.uleb128 0xb
 10555 06a7 3B       		.uleb128 0x3b
 10556 06a8 05       		.uleb128 0x5
 10557 06a9 49       		.uleb128 0x49
 10558 06aa 13       		.uleb128 0x13
 10559 06ab 02       		.uleb128 0x2
 10560 06ac 18       		.uleb128 0x18
 10561 06ad 00       		.byte	0
 10562 06ae 00       		.byte	0
 10563 06af 6A       		.uleb128 0x6a
 10564 06b0 0B       		.uleb128 0xb
 10565 06b1 00       		.byte	0
 10566 06b2 11       		.uleb128 0x11
 10567 06b3 01       		.uleb128 0x1
 10568 06b4 12       		.uleb128 0x12
 10569 06b5 06       		.uleb128 0x6
 10570 06b6 00       		.byte	0
 10571 06b7 00       		.byte	0
 10572 06b8 6B       		.uleb128 0x6b
 10573 06b9 2E       		.uleb128 0x2e
 10574 06ba 01       		.byte	0x1
 10575 06bb 31       		.uleb128 0x31
 10576 06bc 13       		.uleb128 0x13
 10577 06bd 6E       		.uleb128 0x6e
 10578 06be 08       		.uleb128 0x8
 10579 06bf 11       		.uleb128 0x11
 10580 06c0 01       		.uleb128 0x1
 10581 06c1 12       		.uleb128 0x12
 10582 06c2 06       		.uleb128 0x6
 10583 06c3 40       		.uleb128 0x40
 10584 06c4 18       		.uleb128 0x18
 10585 06c5 64       		.uleb128 0x64
 10586 06c6 13       		.uleb128 0x13
 10587 06c7 9742     		.uleb128 0x2117
 10588 06c9 19       		.uleb128 0x19
 10589 06ca 01       		.uleb128 0x1
 10590 06cb 13       		.uleb128 0x13
 10591 06cc 00       		.byte	0
 10592 06cd 00       		.byte	0
 10593 06ce 6C       		.uleb128 0x6c
 10594 06cf 2E       		.uleb128 0x2e
 10595 06d0 01       		.byte	0x1
 10596 06d1 47       		.uleb128 0x47
 10597 06d2 13       		.uleb128 0x13
 10598 06d3 11       		.uleb128 0x11
 10599 06d4 01       		.uleb128 0x1
 10600 06d5 12       		.uleb128 0x12
GAS LISTING C:\Users\NJLLMR~1\AppData\Local\Temp\cce8JzPW.s 			page 257


 10601 06d6 06       		.uleb128 0x6
 10602 06d7 40       		.uleb128 0x40
 10603 06d8 18       		.uleb128 0x18
 10604 06d9 9742     		.uleb128 0x2117
 10605 06db 19       		.uleb128 0x19
 10606 06dc 01       		.uleb128 0x1
 10607 06dd 13       		.uleb128 0x13
 10608 06de 00       		.byte	0
 10609 06df 00       		.byte	0
 10610 06e0 6D       		.uleb128 0x6d
 10611 06e1 2E       		.uleb128 0x2e
 10612 06e2 00       		.byte	0
 10613 06e3 03       		.uleb128 0x3
 10614 06e4 08       		.uleb128 0x8
 10615 06e5 34       		.uleb128 0x34
 10616 06e6 19       		.uleb128 0x19
 10617 06e7 11       		.uleb128 0x11
 10618 06e8 01       		.uleb128 0x1
 10619 06e9 12       		.uleb128 0x12
 10620 06ea 06       		.uleb128 0x6
 10621 06eb 40       		.uleb128 0x40
 10622 06ec 18       		.uleb128 0x18
 10623 06ed 9642     		.uleb128 0x2116
 10624 06ef 19       		.uleb128 0x19
 10625 06f0 00       		.byte	0
 10626 06f1 00       		.byte	0
 10627 06f2 6E       		.uleb128 0x6e
 10628 06f3 2E       		.uleb128 0x2e
 10629 06f4 01       		.byte	0x1
 10630 06f5 03       		.uleb128 0x3
 10631 06f6 08       		.uleb128 0x8
 10632 06f7 34       		.uleb128 0x34
 10633 06f8 19       		.uleb128 0x19
 10634 06f9 11       		.uleb128 0x11
 10635 06fa 01       		.uleb128 0x1
 10636 06fb 12       		.uleb128 0x12
 10637 06fc 06       		.uleb128 0x6
 10638 06fd 40       		.uleb128 0x40
 10639 06fe 18       		.uleb128 0x18
 10640 06ff 9642     		.uleb128 0x2116
 10641 0701 19       		.uleb128 0x19
 10642 0702 01       		.uleb128 0x1
 10643 0703 13       		.uleb128 0x13
 10644 0704 00       		.byte	0
 10645 0705 00       		.byte	0
 10646 0706 6F       		.uleb128 0x6f
 10647 0707 34       		.uleb128 0x34
 10648 0708 00       		.byte	0
 10649 0709 47       		.uleb128 0x47
 10650 070a 13       		.uleb128 0x13
 10651 070b 02       		.uleb128 0x2
 10652 070c 18       		.uleb128 0x18
 10653 070d 00       		.byte	0
 10654 070e 00       		.byte	0
 10655 070f 70       		.uleb128 0x70
 10656 0710 34       		.uleb128 0x34
 10657 0711 00       		.byte	0
GAS LISTING C:\Users\NJLLMR~1\AppData\Local\Temp\cce8JzPW.s 			page 258


 10658 0712 47       		.uleb128 0x47
 10659 0713 13       		.uleb128 0x13
 10660 0714 6E       		.uleb128 0x6e
 10661 0715 08       		.uleb128 0x8
 10662 0716 1C       		.uleb128 0x1c
 10663 0717 0D       		.uleb128 0xd
 10664 0718 00       		.byte	0
 10665 0719 00       		.byte	0
 10666 071a 71       		.uleb128 0x71
 10667 071b 34       		.uleb128 0x34
 10668 071c 00       		.byte	0
 10669 071d 47       		.uleb128 0x47
 10670 071e 13       		.uleb128 0x13
 10671 071f 6E       		.uleb128 0x6e
 10672 0720 08       		.uleb128 0x8
 10673 0721 1C       		.uleb128 0x1c
 10674 0722 06       		.uleb128 0x6
 10675 0723 00       		.byte	0
 10676 0724 00       		.byte	0
 10677 0725 72       		.uleb128 0x72
 10678 0726 34       		.uleb128 0x34
 10679 0727 00       		.byte	0
 10680 0728 47       		.uleb128 0x47
 10681 0729 13       		.uleb128 0x13
 10682 072a 6E       		.uleb128 0x6e
 10683 072b 08       		.uleb128 0x8
 10684 072c 1C       		.uleb128 0x1c
 10685 072d 0B       		.uleb128 0xb
 10686 072e 00       		.byte	0
 10687 072f 00       		.byte	0
 10688 0730 73       		.uleb128 0x73
 10689 0731 34       		.uleb128 0x34
 10690 0732 00       		.byte	0
 10691 0733 47       		.uleb128 0x47
 10692 0734 13       		.uleb128 0x13
 10693 0735 6E       		.uleb128 0x6e
 10694 0736 08       		.uleb128 0x8
 10695 0737 1C       		.uleb128 0x1c
 10696 0738 05       		.uleb128 0x5
 10697 0739 00       		.byte	0
 10698 073a 00       		.byte	0
 10699 073b 00       		.byte	0
 10700              		.section	.debug_aranges,"dr"
 10701 0000 C4000000 		.long	0xc4
 10702 0004 0200     		.word	0x2
 10703 0006 00000000 		.secrel32	Ldebug_info0
 10704 000a 04       		.byte	0x4
 10705 000b 00       		.byte	0
 10706 000c 0000     		.word	0
 10707 000e 0000     		.word	0
 10708 0010 00000000 		.long	Ltext0
 10709 0014 12050000 		.long	Letext0-Ltext0
 10710 0018 00000000 		.long	LFB1306
 10711 001c 15000000 		.long	LFE1306-LFB1306
 10712 0020 00000000 		.long	LFB1309
 10713 0024 B8000000 		.long	LFE1309-LFB1309
 10714 0028 00000000 		.long	LFB1311
GAS LISTING C:\Users\NJLLMR~1\AppData\Local\Temp\cce8JzPW.s 			page 259


 10715 002c 20000000 		.long	LFE1311-LFB1311
 10716 0030 00000000 		.long	LFB1330
 10717 0034 15000000 		.long	LFE1330-LFB1330
 10718 0038 00000000 		.long	LFB1331
 10719 003c 15000000 		.long	LFE1331-LFB1331
 10720 0040 00000000 		.long	LFB1334
 10721 0044 B8000000 		.long	LFE1334-LFB1334
 10722 0048 00000000 		.long	LFB1336
 10723 004c 0E000000 		.long	LFE1336-LFB1336
 10724 0050 00000000 		.long	LFB1337
 10725 0054 1A000000 		.long	LFE1337-LFB1337
 10726 0058 00000000 		.long	LFB1339
 10727 005c 3B000000 		.long	LFE1339-LFB1339
 10728 0060 00000000 		.long	LFB1353
 10729 0064 32000000 		.long	LFE1353-LFB1353
 10730 0068 00000000 		.long	LFB1355
 10731 006c 15000000 		.long	LFE1355-LFB1355
 10732 0070 00000000 		.long	LFB1357
 10733 0074 2C000000 		.long	LFE1357-LFB1357
 10734 0078 00000000 		.long	LFB1358
 10735 007c 1A000000 		.long	LFE1358-LFB1358
 10736 0080 00000000 		.long	LFB1363
 10737 0084 15000000 		.long	LFE1363-LFB1363
 10738 0088 00000000 		.long	LFB1366
 10739 008c 0B000000 		.long	LFE1366-LFB1366
 10740 0090 00000000 		.long	LFB1368
 10741 0094 20000000 		.long	LFE1368-LFB1368
 10742 0098 00000000 		.long	LFB1369
 10743 009c 29000000 		.long	LFE1369-LFB1369
 10744 00a0 00000000 		.long	LFB1371
 10745 00a4 0B000000 		.long	LFE1371-LFB1371
 10746 00a8 00000000 		.long	LFB1373
 10747 00ac 18000000 		.long	LFE1373-LFB1373
 10748 00b0 00000000 		.long	LFB1374
 10749 00b4 08000000 		.long	LFE1374-LFB1374
 10750 00b8 00000000 		.long	LFB1375
 10751 00bc 14000000 		.long	LFE1375-LFB1375
 10752 00c0 00000000 		.long	0
 10753 00c4 00000000 		.long	0
 10754              		.section	.debug_ranges,"dr"
 10755              	Ldebug_ranges0:
 10756 0000 00000000 		.long	Ltext0
 10757 0004 12050000 		.long	Letext0
 10758 0008 00000000 		.long	LFB1306
 10759 000c 15000000 		.long	LFE1306
 10760 0010 00000000 		.long	LFB1309
 10761 0014 B8000000 		.long	LFE1309
 10762 0018 00000000 		.long	LFB1311
 10763 001c 20000000 		.long	LFE1311
 10764 0020 00000000 		.long	LFB1330
 10765 0024 15000000 		.long	LFE1330
 10766 0028 00000000 		.long	LFB1331
 10767 002c 15000000 		.long	LFE1331
 10768 0030 00000000 		.long	LFB1334
 10769 0034 B8000000 		.long	LFE1334
 10770 0038 00000000 		.long	LFB1336
 10771 003c 0E000000 		.long	LFE1336
GAS LISTING C:\Users\NJLLMR~1\AppData\Local\Temp\cce8JzPW.s 			page 260


 10772 0040 00000000 		.long	LFB1337
 10773 0044 1A000000 		.long	LFE1337
 10774 0048 00000000 		.long	LFB1339
 10775 004c 3B000000 		.long	LFE1339
 10776 0050 00000000 		.long	LFB1353
 10777 0054 32000000 		.long	LFE1353
 10778 0058 00000000 		.long	LFB1355
 10779 005c 15000000 		.long	LFE1355
 10780 0060 00000000 		.long	LFB1357
 10781 0064 2C000000 		.long	LFE1357
 10782 0068 00000000 		.long	LFB1358
 10783 006c 1A000000 		.long	LFE1358
 10784 0070 00000000 		.long	LFB1363
 10785 0074 15000000 		.long	LFE1363
 10786 0078 00000000 		.long	LFB1366
 10787 007c 0B000000 		.long	LFE1366
 10788 0080 00000000 		.long	LFB1368
 10789 0084 20000000 		.long	LFE1368
 10790 0088 00000000 		.long	LFB1369
 10791 008c 29000000 		.long	LFE1369
 10792 0090 00000000 		.long	LFB1371
 10793 0094 0B000000 		.long	LFE1371
 10794 0098 00000000 		.long	LFB1373
 10795 009c 18000000 		.long	LFE1373
 10796 00a0 00000000 		.long	LFB1374
 10797 00a4 08000000 		.long	LFE1374
 10798 00a8 00000000 		.long	LFB1375
 10799 00ac 14000000 		.long	LFE1375
 10800 00b0 00000000 		.long	0
 10801 00b4 00000000 		.long	0
 10802              		.section	.debug_line,"dr"
 10803              	Ldebug_line0:
 10804 0000 C2060000 		.section	.debug_str,"dr"
 10804      02002204 
 10804      00000101 
 10804      FB0E0D00 
 10804      01010101 
 10805              	LASF2:
 10806 0000 73697A65 		.ascii "size_type\0"
 10806      5F747970 
 10806      6500
 10807              	LASF13:
 10808 000a 5F535F65 		.ascii "_S_empty_rep\0"
 10808      6D707479 
 10808      5F726570 
 10808      00
 10809              	LASF28:
 10810 0017 7265706C 		.ascii "replace\0"
 10810      61636500 
 10811              	LASF10:
 10812 001f 636F6E73 		.ascii "const_iterator\0"
 10812      745F6974 
 10812      65726174 
 10812      6F7200
 10813              	LASF5:
 10814 002e 616C6C6F 		.ascii "allocator\0"
 10814      6361746F 
GAS LISTING C:\Users\NJLLMR~1\AppData\Local\Temp\cce8JzPW.s 			page 261


 10814      7200
 10815              	LASF20:
 10816 0038 72657369 		.ascii "resize\0"
 10816      7A6500
 10817              	LASF27:
 10818 003f 65726173 		.ascii "erase\0"
 10818      6500
 10819              	LASF56:
 10820 0045 5F56616C 		.ascii "_Value\0"
 10820      756500
 10821              	LASF18:
 10822 004c 72626567 		.ascii "rbegin\0"
 10822      696E00
 10823              	LASF46:
 10824 0053 7E6E6577 		.ascii "~new_allocator\0"
 10824      5F616C6C 
 10824      6F636174 
 10824      6F7200
 10825              	LASF34:
 10826 0062 66696E64 		.ascii "find_last_not_of\0"
 10826      5F6C6173 
 10826      745F6E6F 
 10826      745F6F66 
 10826      00
 10827              	LASF41:
 10828 0073 5F566563 		.ascii "_Vector_base\0"
 10828      746F725F 
 10828      62617365 
 10828      00
 10829              	LASF42:
 10830 0080 76656374 		.ascii "vector\0"
 10830      6F7200
 10831              	LASF43:
 10832 0087 5F4D5F65 		.ascii "_M_erase\0"
 10832      72617365 
 10832      00
 10833              	LASF50:
 10834 0090 636F6E73 		.ascii "construct\0"
 10834      74727563 
 10834      7400
 10835              	LASF54:
 10836 009a 5F5F6973 		.ascii "__is_signed\0"
 10836      5F736967 
 10836      6E656400 
 10837              	LASF59:
 10838 00a6 5F5F6669 		.ascii "__first\0"
 10838      72737400 
 10839              	LASF29:
 10840 00ae 6765745F 		.ascii "get_allocator\0"
 10840      616C6C6F 
 10840      6361746F 
 10840      7200
 10841              	LASF25:
 10842 00bc 70757368 		.ascii "push_back\0"
 10842      5F626163 
 10842      6B00
 10843              	LASF49:
GAS LISTING C:\Users\NJLLMR~1\AppData\Local\Temp\cce8JzPW.s 			page 262


 10844 00c6 6465616C 		.ascii "deallocate\0"
 10844      6C6F6361 
 10844      746500
 10845              	LASF51:
 10846 00d1 64657374 		.ascii "destroy\0"
 10846      726F7900 
 10847              	LASF16:
 10848 00d9 6F706572 		.ascii "operator=\0"
 10848      61746F72 
 10848      3D00
 10849              	LASF21:
 10850 00e3 63617061 		.ascii "capacity\0"
 10850      63697479 
 10850      00
 10851              	LASF47:
 10852 00ec 61646472 		.ascii "address\0"
 10852      65737300 
 10853              	LASF1:
 10854 00f4 61737369 		.ascii "assign\0"
 10854      676E00
 10855              	LASF45:
 10856 00fb 6E65775F 		.ascii "new_allocator\0"
 10856      616C6C6F 
 10856      6361746F 
 10856      7200
 10857              	LASF31:
 10858 0109 66696E64 		.ascii "find_first_of\0"
 10858      5F666972 
 10858      73745F6F 
 10858      6600
 10859              	LASF30:
 10860 0117 7266696E 		.ascii "rfind\0"
 10860      6400
 10861              	LASF38:
 10862 011d 72656269 		.ascii "rebind<Toppings>\0"
 10862      6E643C54 
 10862      6F707069 
 10862      6E67733E 
 10862      00
 10863              	LASF48:
 10864 012e 616C6C6F 		.ascii "allocate\0"
 10864      63617465 
 10864      00
 10865              	LASF37:
 10866 0137 636F6E73 		.ascii "const_pointer\0"
 10866      745F706F 
 10866      696E7465 
 10866      7200
 10867              	LASF22:
 10868 0145 6F706572 		.ascii "operator[]\0"
 10868      61746F72 
 10868      5B5D00
 10869              	LASF24:
 10870 0150 61707065 		.ascii "append\0"
 10870      6E6400
 10871              	LASF58:
 10872 0157 5F5F696E 		.ascii "__in_chrg\0"
GAS LISTING C:\Users\NJLLMR~1\AppData\Local\Temp\cce8JzPW.s 			page 263


 10872      5F636872 
 10872      6700
 10873              	LASF26:
 10874 0161 696E7365 		.ascii "insert\0"
 10874      727400
 10875              	LASF57:
 10876 0168 74686973 		.ascii "this\0"
 10876      00
 10877              	LASF35:
 10878 016d 5F416C6C 		.ascii "_Alloc\0"
 10878      6F6300
 10879              	LASF23:
 10880 0174 6F706572 		.ascii "operator+=\0"
 10880      61746F72 
 10880      2B3D00
 10881              	LASF14:
 10882 017f 5F535F63 		.ascii "_S_copy_chars\0"
 10882      6F70795F 
 10882      63686172 
 10882      7300
 10883              	LASF53:
 10884 018d 5F5F6D61 		.ascii "__max\0"
 10884      7800
 10885              	LASF7:
 10886 0193 5F416C6C 		.ascii "_Alloc_hider\0"
 10886      6F635F68 
 10886      69646572 
 10886      00
 10887              	LASF12:
 10888 01a0 72657665 		.ascii "reverse_iterator\0"
 10888      7273655F 
 10888      69746572 
 10888      61746F72 
 10888      00
 10889              	LASF17:
 10890 01b1 62656769 		.ascii "begin\0"
 10890      6E00
 10891              	LASF9:
 10892 01b7 69746572 		.ascii "iterator\0"
 10892      61746F72 
 10892      00
 10893              	LASF4:
 10894 01c0 636F6E73 		.ascii "const_reference\0"
 10894      745F7265 
 10894      66657265 
 10894      6E636500 
 10895              	LASF6:
 10896 01d0 7E616C6C 		.ascii "~allocator\0"
 10896      6F636174 
 10896      6F7200
 10897              	LASF40:
 10898 01db 5F4D5F67 		.ascii "_M_get_Tp_allocator\0"
 10898      65745F54 
 10898      705F616C 
 10898      6C6F6361 
 10898      746F7200 
 10899              	LASF0:
GAS LISTING C:\Users\NJLLMR~1\AppData\Local\Temp\cce8JzPW.s 			page 264


 10900 01ef 636F6D70 		.ascii "compare\0"
 10900      61726500 
 10901              	LASF3:
 10902 01f7 72656665 		.ascii "reference\0"
 10902      72656E63 
 10902      6500
 10903              	LASF52:
 10904 0201 5F5F6D69 		.ascii "__min\0"
 10904      6E00
 10905              	LASF36:
 10906 0207 706F696E 		.ascii "pointer\0"
 10906      74657200 
 10907              	LASF15:
 10908 020f 62617369 		.ascii "basic_string\0"
 10908      635F7374 
 10908      72696E67 
 10908      00
 10909              	LASF33:
 10910 021c 66696E64 		.ascii "find_first_not_of\0"
 10910      5F666972 
 10910      73745F6E 
 10910      6F745F6F 
 10910      6600
 10911              	LASF11:
 10912 022e 636F6E73 		.ascii "const_reverse_iterator\0"
 10912      745F7265 
 10912      76657273 
 10912      655F6974 
 10912      65726174 
 10913              	LASF19:
 10914 0245 6D61785F 		.ascii "max_size\0"
 10914      73697A65 
 10914      00
 10915              	LASF39:
 10916 024e 5F566563 		.ascii "_Vector_impl\0"
 10916      746F725F 
 10916      696D706C 
 10916      00
 10917              	LASF60:
 10918 025b 5F5F6C61 		.ascii "__last\0"
 10918      737400
 10919              	LASF32:
 10920 0262 66696E64 		.ascii "find_last_of\0"
 10920      5F6C6173 
 10920      745F6F66 
 10920      00
 10921              	LASF44:
 10922 026f 5F466F72 		.ascii "_ForwardIterator\0"
 10922      77617264 
 10922      49746572 
 10922      61746F72 
 10922      00
 10923              	LASF55:
 10924 0280 5F5F6469 		.ascii "__digits\0"
 10924      67697473 
 10924      00
 10925              	LASF8:
GAS LISTING C:\Users\NJLLMR~1\AppData\Local\Temp\cce8JzPW.s 			page 265


 10926 0289 616C6C6F 		.ascii "allocator_type\0"
 10926      6361746F 
 10926      725F7479 
 10926      706500
 10927              		.ident	"GCC: (tdm-1) 4.9.2"
GAS LISTING C:\Users\NJLLMR~1\AppData\Local\Temp\cce8JzPW.s 			page 266


DEFINED SYMBOLS
                            *ABS*:00000000 Pizza.cpp
                             .bss:00000000 __ZStL8__ioinit
C:\Users\NJLLMR~1\AppData\Local\Temp\cce8JzPW.s:16     .text:00000000 __ZN5PizzaC2Ev
C:\Users\NJLLMR~1\AppData\Local\Temp\cce8JzPW.s:16     .text:00000000 __ZN5PizzaC1Ev
C:\Users\NJLLMR~1\AppData\Local\Temp\cce8JzPW.s:268    .text:0000023a __ZN5PizzaD2Ev
C:\Users\NJLLMR~1\AppData\Local\Temp\cce8JzPW.s:268    .text:0000023a __ZN5PizzaD1Ev
C:\Users\NJLLMR~1\AppData\Local\Temp\cce8JzPW.s:458    .text:000003d4 __ZN5Pizza10set_personESs
C:\Users\NJLLMR~1\AppData\Local\Temp\cce8JzPW.s:486    .text:000003f4 __ZN5Pizza9set_priceEi
C:\Users\NJLLMR~1\AppData\Local\Temp\cce8JzPW.s:511    .text:0000040a __ZN5Pizza8set_sizeESs
C:\Users\NJLLMR~1\AppData\Local\Temp\cce8JzPW.s:540    .text:0000042e __ZN5Pizza9set_sauceESs
C:\Users\NJLLMR~1\AppData\Local\Temp\cce8JzPW.s:569    .text:00000452 __ZN5Pizza10set_cheeseESs
C:\Users\NJLLMR~1\AppData\Local\Temp\cce8JzPW.s:598    .text:00000476 __ZN5Pizza9set_crustESs
C:\Users\NJLLMR~1\AppData\Local\Temp\cce8JzPW.s:627    .text:0000049a __ZN5Pizza10set_statusEc
C:\Users\NJLLMR~1\AppData\Local\Temp\cce8JzPW.s:656    .text$_ZNSt6vectorI8ToppingsSaIS0_EEC1Ev:00000000 __ZNSt6vectorI8ToppingsSaIS0_EEC1Ev
C:\Users\NJLLMR~1\AppData\Local\Temp\cce8JzPW.s:685    .text$_ZNSt6vectorI8ToppingsSaIS0_EED1Ev:00000000 __ZNSt6vectorI8ToppingsSaIS0_EED1Ev
C:\Users\NJLLMR~1\AppData\Local\Temp\cce8JzPW.s:784    .text$_ZNSt6vectorI8ToppingsSaIS0_EE5clearEv:00000000 __ZNSt6vectorI8ToppingsSaIS0_EE5clearEv
C:\Users\NJLLMR~1\AppData\Local\Temp\cce8JzPW.s:814    .text$_ZNSt12_Vector_baseI8ToppingsSaIS0_EE12_Vector_implD1Ev:00000000 __ZNSt12_Vector_baseI8ToppingsSaIS0_EE12_Vector_implD1Ev
C:\Users\NJLLMR~1\AppData\Local\Temp\cce8JzPW.s:842    .text$_ZNSt12_Vector_baseI8ToppingsSaIS0_EEC2Ev:00000000 __ZNSt12_Vector_baseI8ToppingsSaIS0_EEC2Ev
C:\Users\NJLLMR~1\AppData\Local\Temp\cce8JzPW.s:870    .text$_ZNSt12_Vector_baseI8ToppingsSaIS0_EED2Ev:00000000 __ZNSt12_Vector_baseI8ToppingsSaIS0_EED2Ev
C:\Users\NJLLMR~1\AppData\Local\Temp\cce8JzPW.s:973    .text$_ZNSt12_Vector_baseI8ToppingsSaIS0_EE19_M_get_Tp_allocatorEv:00000000 __ZNSt12_Vector_baseI8ToppingsSaIS0_EE19_M_get_Tp_allocatorEv
C:\Users\NJLLMR~1\AppData\Local\Temp\cce8JzPW.s:996    .text$_ZSt8_DestroyIP8ToppingsS0_EvT_S2_RSaIT0_E:00000000 __ZSt8_DestroyIP8ToppingsS0_EvT_S2_RSaIT0_E
C:\Users\NJLLMR~1\AppData\Local\Temp\cce8JzPW.s:1025   .text$_ZNSt6vectorI8ToppingsSaIS0_EE15_M_erase_at_endEPS0_:00000000 __ZNSt6vectorI8ToppingsSaIS0_EE15_M_erase_at_endEPS0_
C:\Users\NJLLMR~1\AppData\Local\Temp\cce8JzPW.s:1064   .text$_ZNSt12_Vector_baseI8ToppingsSaIS0_EE12_Vector_implC1Ev:00000000 __ZNSt12_Vector_baseI8ToppingsSaIS0_EE12_Vector_implC1Ev
C:\Users\NJLLMR~1\AppData\Local\Temp\cce8JzPW.s:1099   .text$_ZNSaI8ToppingsED2Ev:00000000 __ZNSaI8ToppingsED2Ev
C:\Users\NJLLMR~1\AppData\Local\Temp\cce8JzPW.s:1128   .text$_ZNSt12_Vector_baseI8ToppingsSaIS0_EE13_M_deallocateEPS0_j:00000000 __ZNSt12_Vector_baseI8ToppingsSaIS0_EE13_M_deallocateEPS0_j
C:\Users\NJLLMR~1\AppData\Local\Temp\cce8JzPW.s:1164   .text$_ZSt8_DestroyIP8ToppingsEvT_S2_:00000000 __ZSt8_DestroyIP8ToppingsEvT_S2_
C:\Users\NJLLMR~1\AppData\Local\Temp\cce8JzPW.s:1194   .text$_ZNSaI8ToppingsEC2Ev:00000000 __ZNSaI8ToppingsEC2Ev
C:\Users\NJLLMR~1\AppData\Local\Temp\cce8JzPW.s:1222   .text$_ZN9__gnu_cxx13new_allocatorI8ToppingsED2Ev:00000000 __ZN9__gnu_cxx13new_allocatorI8ToppingsED2Ev
C:\Users\NJLLMR~1\AppData\Local\Temp\cce8JzPW.s:1245   .text$_ZN9__gnu_cxx14__alloc_traitsISaI8ToppingsEE10deallocateERS2_PS1_j:00000000 __ZN9__gnu_cxx14__alloc_traitsISaI8ToppingsEE10deallocateERS2_PS1_j
C:\Users\NJLLMR~1\AppData\Local\Temp\cce8JzPW.s:1274   .text$_ZNSt12_Destroy_auxILb0EE9__destroyIP8ToppingsEEvT_S4_:00000000 __ZNSt12_Destroy_auxILb0EE9__destroyIP8ToppingsEEvT_S4_
C:\Users\NJLLMR~1\AppData\Local\Temp\cce8JzPW.s:1312   .text$_ZN9__gnu_cxx13new_allocatorI8ToppingsEC2Ev:00000000 __ZN9__gnu_cxx13new_allocatorI8ToppingsEC2Ev
C:\Users\NJLLMR~1\AppData\Local\Temp\cce8JzPW.s:1335   .text$_ZN9__gnu_cxx13new_allocatorI8ToppingsE10deallocateEPS1_j:00000000 __ZN9__gnu_cxx13new_allocatorI8ToppingsE10deallocateEPS1_j
C:\Users\NJLLMR~1\AppData\Local\Temp\cce8JzPW.s:1360   .text$_ZSt11__addressofI8ToppingsEPT_RS1_:00000000 __ZSt11__addressofI8ToppingsEPT_RS1_
C:\Users\NJLLMR~1\AppData\Local\Temp\cce8JzPW.s:1383   .text$_ZSt8_DestroyI8ToppingsEvPT_:00000000 __ZSt8_DestroyI8ToppingsEvPT_
C:\Users\NJLLMR~1\AppData\Local\Temp\cce8JzPW.s:1407   .text:000004b7 ___tcf_0
C:\Users\NJLLMR~1\AppData\Local\Temp\cce8JzPW.s:1428   .text:000004c9 __Z41__static_initialization_and_destruction_0ii
C:\Users\NJLLMR~1\AppData\Local\Temp\cce8JzPW.s:1458   .text:000004f6 __GLOBAL__sub_I__ZN5PizzaC2Ev

UNDEFINED SYMBOLS
___gxx_personality_sj0
__Unwind_SjLj_Register
__Unwind_SjLj_Unregister
__ZNSsC1Ev
__ZNSsaSEPKc
__ZNSsD1Ev
__Unwind_SjLj_Resume
__ZNSsaSERKSs
__ZdlPv
__ZNSt8ios_base4InitD1Ev
__ZNSt8ios_base4InitC1Ev
_atexit
