GAS LISTING C:\Users\NJLLMR~1\AppData\Local\Temp\ccqhcbG2.s 			page 1


   1              		.file	"Delivery.cpp"
   2              		.text
   3              	Ltext0:
   4              		.cfi_sections	.debug_frame
   5              		.align 2
   6              		.globl	__ZN8DeliveryC2Ev
   8              	__ZN8DeliveryC2Ev:
   9              	LFB1:
  10              		.file 1 "C:/Users/Nj\341ll M\375rdal/3viknanamskeid/LitidVerk1/Pizza/3vikuverk/src/Delivery.cpp"
   1:C:/Users/Njáll Mýrdal/3viknanamskeid/LitidVerk1/Pizza/3vikuverk/src\Delivery.cpp **** #include "Delivery.h"
   2:C:/Users/Njáll Mýrdal/3viknanamskeid/LitidVerk1/Pizza/3vikuverk/src\Delivery.cpp **** 
   3:C:/Users/Njáll Mýrdal/3viknanamskeid/LitidVerk1/Pizza/3vikuverk/src\Delivery.cpp **** Delivery::Delivery()
  11              		.loc 1 3 0
  12              		.cfi_startproc
  13 0000 55       		pushl	%ebp
  14              		.cfi_def_cfa_offset 8
  15              		.cfi_offset 5, -8
  16 0001 89E5     		movl	%esp, %ebp
  17              		.cfi_def_cfa_register 5
  18 0003 83EC04   		subl	$4, %esp
  19 0006 894DFC   		movl	%ecx, -4(%ebp)
  20              	LBB2:
  21              		.loc 1 3 0
  22 0009 8B45FC   		movl	-4(%ebp), %eax
  23 000c C7000800 		movl	$__ZTV8Delivery+8, (%eax)
  23      0000
  24              	LBE2:
   4:C:/Users/Njáll Mýrdal/3viknanamskeid/LitidVerk1/Pizza/3vikuverk/src\Delivery.cpp **** {
   5:C:/Users/Njáll Mýrdal/3viknanamskeid/LitidVerk1/Pizza/3vikuverk/src\Delivery.cpp ****     //ctor
   6:C:/Users/Njáll Mýrdal/3viknanamskeid/LitidVerk1/Pizza/3vikuverk/src\Delivery.cpp **** }
  25              		.loc 1 6 0
  26 0012 C9       		leave
  27              		.cfi_restore 5
  28              		.cfi_def_cfa 4, 4
  29 0013 C3       		ret
  30              		.cfi_endproc
  31              	LFE1:
  32              		.globl	__ZN8DeliveryC1Ev
  34              		.set	__ZN8DeliveryC1Ev,__ZN8DeliveryC2Ev
  35              		.align 2
  36              		.globl	__ZN8DeliveryD2Ev
  38              	__ZN8DeliveryD2Ev:
  39              	LFB4:
   7:C:/Users/Njáll Mýrdal/3viknanamskeid/LitidVerk1/Pizza/3vikuverk/src\Delivery.cpp **** 
   8:C:/Users/Njáll Mýrdal/3viknanamskeid/LitidVerk1/Pizza/3vikuverk/src\Delivery.cpp **** Delivery::~Delivery()
  40              		.loc 1 8 0
  41              		.cfi_startproc
  42 0014 55       		pushl	%ebp
  43              		.cfi_def_cfa_offset 8
  44              		.cfi_offset 5, -8
  45 0015 89E5     		movl	%esp, %ebp
  46              		.cfi_def_cfa_register 5
  47 0017 83EC28   		subl	$40, %esp
  48 001a 894DF4   		movl	%ecx, -12(%ebp)
  49              	LBB3:
  50              		.loc 1 8 0
  51 001d 8B45F4   		movl	-12(%ebp), %eax
GAS LISTING C:\Users\NJLLMR~1\AppData\Local\Temp\ccqhcbG2.s 			page 2


  52 0020 C7000800 		movl	$__ZTV8Delivery+8, (%eax)
  52      0000
  53              	LBE3:
   9:C:/Users/Njáll Mýrdal/3viknanamskeid/LitidVerk1/Pizza/3vikuverk/src\Delivery.cpp **** {
  10:C:/Users/Njáll Mýrdal/3viknanamskeid/LitidVerk1/Pizza/3vikuverk/src\Delivery.cpp ****     //dtor
  11:C:/Users/Njáll Mýrdal/3viknanamskeid/LitidVerk1/Pizza/3vikuverk/src\Delivery.cpp **** }
  54              		.loc 1 11 0
  55 0026 B8000000 		movl	$0, %eax
  55      00
  56 002b 85C0     		testl	%eax, %eax
  57 002d 740B     		je	L2
  58              		.loc 1 11 0 is_stmt 0 discriminator 2
  59 002f 8B45F4   		movl	-12(%ebp), %eax
  60 0032 890424   		movl	%eax, (%esp)
  61 0035 E8000000 		call	__ZdlPv
  61      00
  62              	L2:
  63              		.loc 1 11 0
  64 003a C9       		leave
  65              		.cfi_restore 5
  66              		.cfi_def_cfa 4, 4
  67 003b C3       		ret
  68              		.cfi_endproc
  69              	LFE4:
  70              		.globl	__ZN8DeliveryD1Ev
  72              		.set	__ZN8DeliveryD1Ev,__ZN8DeliveryD2Ev
  73              		.align 2
  74              		.globl	__ZN8DeliveryD0Ev
  76              	__ZN8DeliveryD0Ev:
  77              	LFB6:
   8:C:/Users/Njáll Mýrdal/3viknanamskeid/LitidVerk1/Pizza/3vikuverk/src\Delivery.cpp **** {
  78              		.loc 1 8 0 is_stmt 1
  79              		.cfi_startproc
  80 003c 55       		pushl	%ebp
  81              		.cfi_def_cfa_offset 8
  82              		.cfi_offset 5, -8
  83 003d 89E5     		movl	%esp, %ebp
  84              		.cfi_def_cfa_register 5
  85 003f 83EC28   		subl	$40, %esp
  86 0042 894DF4   		movl	%ecx, -12(%ebp)
  87              		.loc 1 11 0
  88 0045 8B45F4   		movl	-12(%ebp), %eax
  89 0048 89C1     		movl	%eax, %ecx
  90 004a E8C5FFFF 		call	__ZN8DeliveryD2Ev
  90      FF
  91 004f 8B45F4   		movl	-12(%ebp), %eax
  92 0052 890424   		movl	%eax, (%esp)
  93 0055 E8000000 		call	__ZdlPv
  93      00
  94 005a C9       		leave
  95              		.cfi_restore 5
  96              		.cfi_def_cfa 4, 4
  97 005b C3       		ret
  98              		.cfi_endproc
  99              	LFE6:
 100              		.globl	__ZTV8Delivery
 101              		.section	.rdata$_ZTV8Delivery,"dr"
GAS LISTING C:\Users\NJLLMR~1\AppData\Local\Temp\ccqhcbG2.s 			page 3


 102              		.linkonce same_size
 103              		.align 8
 104              	__ZTV8Delivery:
 105 0000 00000000 		.long	0
 106 0004 00000000 		.long	__ZTI8Delivery
 107 0008 14000000 		.long	__ZN8DeliveryD1Ev
 108 000c 3C000000 		.long	__ZN8DeliveryD0Ev
 109              		.globl	__ZTI8Delivery
 110              		.section	.rdata$_ZTI8Delivery,"dr"
 111              		.linkonce same_size
 112              		.align 4
 113              	__ZTI8Delivery:
 114 0000 08000000 		.long	__ZTVN10__cxxabiv117__class_type_infoE+8
 115 0004 00000000 		.long	__ZTS8Delivery
 116              		.globl	__ZTS8Delivery
 117              		.section	.rdata$_ZTS8Delivery,"dr"
 118              		.linkonce same_size
 119              	__ZTS8Delivery:
 120 0000 3844656C 		.ascii "8Delivery\0"
 120      69766572 
 120      7900
 121 000a 0000     		.text
 122              	Letext0:
 123              		.file 2 "include/Delivery.h"
 124              		.section	.debug_info,"dr"
 125              	Ldebug_info0:
 126 0000 77020000 		.long	0x277
 127 0004 0400     		.word	0x4
 128 0006 00000000 		.secrel32	Ldebug_abbrev0
 129 000a 04       		.byte	0x4
 130 000b 01       		.uleb128 0x1
 131 000c 474E5520 		.ascii "GNU C++ 4.9.2 -mtune=generic -march=pentiumpro -g -fexceptions\0"
 131      432B2B20 
 131      342E392E 
 131      32202D6D 
 131      74756E65 
 132 004b 04       		.byte	0x4
 133 004c 433A5C55 		.ascii "C:\\Users\\Nj\341ll M\375rdal\\3viknanamskeid\\LitidVerk1\\Pizza\\3vikuverk\\src\\Delivery
 133      73657273 
 133      5C4E6AE1 
 133      6C6C204D 
 133      FD726461 
 134 009d 433A5C55 		.ascii "C:\\Users\\Nj\341ll M\375rdal\\3viknanamskeid\\LitidVerk1\\Pizza\\3vikuverk\0"
 134      73657273 
 134      5C4E6AE1 
 134      6C6C204D 
 134      FD726461 
 135 00dd 00000000 		.long	Ltext0
 136 00e1 5C000000 		.long	Letext0-Ltext0
 137 00e5 00000000 		.secrel32	Ldebug_line0
 138 00e9 02       		.uleb128 0x2
 139 00ea 00000000 		.secrel32	LASF0
 140 00ee 04       		.byte	0x4
 141 00ef 02       		.byte	0x2
 142 00f0 05       		.byte	0x5
 143 00f1 E9000000 		.long	0xe9
 144 00f5 61010000 		.long	0x161
GAS LISTING C:\Users\NJLLMR~1\AppData\Local\Temp\ccqhcbG2.s 			page 4


 145 00f9 03       		.uleb128 0x3
 146 00fa 5F767074 		.ascii "_vptr.Delivery\0"
 146      722E4465 
 146      6C697665 
 146      727900
 147 0109 73010000 		.long	0x173
 148 010d 00       		.byte	0
 149 010e 01       		.byte	0x1
 150 010f 04       		.uleb128 0x4
 151 0110 00000000 		.secrel32	LASF0
 152 0114 01       		.byte	0x1
 153 0115 1D010000 		.long	0x11d
 154 0119 28010000 		.long	0x128
 155 011d 05       		.uleb128 0x5
 156 011e 8F010000 		.long	0x18f
 157 0122 06       		.uleb128 0x6
 158 0123 95010000 		.long	0x195
 159 0127 00       		.byte	0
 160 0128 07       		.uleb128 0x7
 161 0129 00000000 		.secrel32	LASF0
 162 012d 01       		.byte	0x1
 163 012e 03       		.byte	0x3
 164 012f 01       		.byte	0x1
 165 0130 38010000 		.long	0x138
 166 0134 3E010000 		.long	0x13e
 167 0138 05       		.uleb128 0x5
 168 0139 8F010000 		.long	0x18f
 169 013d 00       		.byte	0
 170 013e 08       		.uleb128 0x8
 171 013f 7E44656C 		.ascii "~Delivery\0"
 171      69766572 
 171      7900
 172 0149 01       		.byte	0x1
 173 014a 08       		.byte	0x8
 174 014b 01       		.byte	0x1
 175 014c E9000000 		.long	0xe9
 176 0150 01       		.byte	0x1
 177 0151 55010000 		.long	0x155
 178 0155 05       		.uleb128 0x5
 179 0156 8F010000 		.long	0x18f
 180 015a 05       		.uleb128 0x5
 181 015b 6C010000 		.long	0x16c
 182 015f 00       		.byte	0
 183 0160 00       		.byte	0
 184 0161 09       		.uleb128 0x9
 185 0162 6C010000 		.long	0x16c
 186 0166 6C010000 		.long	0x16c
 187 016a 0A       		.uleb128 0xa
 188 016b 00       		.byte	0
 189 016c 0B       		.uleb128 0xb
 190 016d 04       		.byte	0x4
 191 016e 05       		.byte	0x5
 192 016f 696E7400 		.ascii "int\0"
 193 0173 0C       		.uleb128 0xc
 194 0174 04       		.byte	0x4
 195 0175 79010000 		.long	0x179
 196 0179 0D       		.uleb128 0xd
GAS LISTING C:\Users\NJLLMR~1\AppData\Local\Temp\ccqhcbG2.s 			page 5


 197 017a 04       		.byte	0x4
 198 017b 5F5F7674 		.ascii "__vtbl_ptr_type\0"
 198      626C5F70 
 198      74725F74 
 198      79706500 
 199 018b 61010000 		.long	0x161
 200 018f 0C       		.uleb128 0xc
 201 0190 04       		.byte	0x4
 202 0191 E9000000 		.long	0xe9
 203 0195 0E       		.uleb128 0xe
 204 0196 04       		.byte	0x4
 205 0197 9B010000 		.long	0x19b
 206 019b 0F       		.uleb128 0xf
 207 019c E9000000 		.long	0xe9
 208 01a0 10       		.uleb128 0x10
 209 01a1 28010000 		.long	0x128
 210 01a5 00       		.byte	0
 211 01a6 AE010000 		.long	0x1ae
 212 01aa B9010000 		.long	0x1b9
 213 01ae 11       		.uleb128 0x11
 214 01af 74686973 		.ascii "this\0"
 214      00
 215 01b4 B9010000 		.long	0x1b9
 216 01b8 00       		.byte	0
 217 01b9 0F       		.uleb128 0xf
 218 01ba 8F010000 		.long	0x18f
 219 01be 12       		.uleb128 0x12
 220 01bf A0010000 		.long	0x1a0
 221 01c3 5F5A4E38 		.ascii "_ZN8DeliveryC2Ev\0"
 221      44656C69 
 221      76657279 
 221      43324576 
 221      00
 222 01d4 00000000 		.long	LFB1
 223 01d8 14000000 		.long	LFE1-LFB1
 224 01dc 01       		.uleb128 0x1
 225 01dd 9C       		.byte	0x9c
 226 01de E6010000 		.long	0x1e6
 227 01e2 EF010000 		.long	0x1ef
 228 01e6 13       		.uleb128 0x13
 229 01e7 AE010000 		.long	0x1ae
 230 01eb 02       		.uleb128 0x2
 231 01ec 91       		.byte	0x91
 232 01ed 74       		.sleb128 -12
 233 01ee 00       		.byte	0
 234 01ef 10       		.uleb128 0x10
 235 01f0 3E010000 		.long	0x13e
 236 01f4 00       		.byte	0
 237 01f5 FD010000 		.long	0x1fd
 238 01f9 17020000 		.long	0x217
 239 01fd 11       		.uleb128 0x11
 240 01fe 74686973 		.ascii "this\0"
 240      00
 241 0203 B9010000 		.long	0x1b9
 242 0207 11       		.uleb128 0x11
 243 0208 5F5F696E 		.ascii "__in_chrg\0"
 243      5F636872 
GAS LISTING C:\Users\NJLLMR~1\AppData\Local\Temp\ccqhcbG2.s 			page 6


 243      6700
 244 0212 17020000 		.long	0x217
 245 0216 00       		.byte	0
 246 0217 0F       		.uleb128 0xf
 247 0218 6C010000 		.long	0x16c
 248 021c 14       		.uleb128 0x14
 249 021d EF010000 		.long	0x1ef
 250 0221 5F5A4E38 		.ascii "_ZN8DeliveryD2Ev\0"
 250      44656C69 
 250      76657279 
 250      44324576 
 250      00
 251 0232 14000000 		.long	LFB4
 252 0236 28000000 		.long	LFE4-LFB4
 253 023a 01       		.uleb128 0x1
 254 023b 9C       		.byte	0x9c
 255 023c 44020000 		.long	0x244
 256 0240 4D020000 		.long	0x24d
 257 0244 13       		.uleb128 0x13
 258 0245 FD010000 		.long	0x1fd
 259 0249 02       		.uleb128 0x2
 260 024a 91       		.byte	0x91
 261 024b 6C       		.sleb128 -20
 262 024c 00       		.byte	0
 263 024d 15       		.uleb128 0x15
 264 024e EF010000 		.long	0x1ef
 265 0252 5F5A4E38 		.ascii "_ZN8DeliveryD0Ev\0"
 265      44656C69 
 265      76657279 
 265      44304576 
 265      00
 266 0263 3C000000 		.long	LFB6
 267 0267 20000000 		.long	LFE6-LFB6
 268 026b 01       		.uleb128 0x1
 269 026c 9C       		.byte	0x9c
 270 026d 71020000 		.long	0x271
 271 0271 13       		.uleb128 0x13
 272 0272 FD010000 		.long	0x1fd
 273 0276 02       		.uleb128 0x2
 274 0277 91       		.byte	0x91
 275 0278 6C       		.sleb128 -20
 276 0279 00       		.byte	0
 277 027a 00       		.byte	0
 278              		.section	.debug_abbrev,"dr"
 279              	Ldebug_abbrev0:
 280 0000 01       		.uleb128 0x1
 281 0001 11       		.uleb128 0x11
 282 0002 01       		.byte	0x1
 283 0003 25       		.uleb128 0x25
 284 0004 08       		.uleb128 0x8
 285 0005 13       		.uleb128 0x13
 286 0006 0B       		.uleb128 0xb
 287 0007 03       		.uleb128 0x3
 288 0008 08       		.uleb128 0x8
 289 0009 1B       		.uleb128 0x1b
 290 000a 08       		.uleb128 0x8
 291 000b 11       		.uleb128 0x11
GAS LISTING C:\Users\NJLLMR~1\AppData\Local\Temp\ccqhcbG2.s 			page 7


 292 000c 01       		.uleb128 0x1
 293 000d 12       		.uleb128 0x12
 294 000e 06       		.uleb128 0x6
 295 000f 10       		.uleb128 0x10
 296 0010 17       		.uleb128 0x17
 297 0011 00       		.byte	0
 298 0012 00       		.byte	0
 299 0013 02       		.uleb128 0x2
 300 0014 02       		.uleb128 0x2
 301 0015 01       		.byte	0x1
 302 0016 03       		.uleb128 0x3
 303 0017 0E       		.uleb128 0xe
 304 0018 0B       		.uleb128 0xb
 305 0019 0B       		.uleb128 0xb
 306 001a 3A       		.uleb128 0x3a
 307 001b 0B       		.uleb128 0xb
 308 001c 3B       		.uleb128 0x3b
 309 001d 0B       		.uleb128 0xb
 310 001e 1D       		.uleb128 0x1d
 311 001f 13       		.uleb128 0x13
 312 0020 01       		.uleb128 0x1
 313 0021 13       		.uleb128 0x13
 314 0022 00       		.byte	0
 315 0023 00       		.byte	0
 316 0024 03       		.uleb128 0x3
 317 0025 0D       		.uleb128 0xd
 318 0026 00       		.byte	0
 319 0027 03       		.uleb128 0x3
 320 0028 08       		.uleb128 0x8
 321 0029 49       		.uleb128 0x49
 322 002a 13       		.uleb128 0x13
 323 002b 38       		.uleb128 0x38
 324 002c 0B       		.uleb128 0xb
 325 002d 34       		.uleb128 0x34
 326 002e 19       		.uleb128 0x19
 327 002f 32       		.uleb128 0x32
 328 0030 0B       		.uleb128 0xb
 329 0031 00       		.byte	0
 330 0032 00       		.byte	0
 331 0033 04       		.uleb128 0x4
 332 0034 2E       		.uleb128 0x2e
 333 0035 01       		.byte	0x1
 334 0036 3F       		.uleb128 0x3f
 335 0037 19       		.uleb128 0x19
 336 0038 03       		.uleb128 0x3
 337 0039 0E       		.uleb128 0xe
 338 003a 34       		.uleb128 0x34
 339 003b 19       		.uleb128 0x19
 340 003c 32       		.uleb128 0x32
 341 003d 0B       		.uleb128 0xb
 342 003e 3C       		.uleb128 0x3c
 343 003f 19       		.uleb128 0x19
 344 0040 64       		.uleb128 0x64
 345 0041 13       		.uleb128 0x13
 346 0042 01       		.uleb128 0x1
 347 0043 13       		.uleb128 0x13
 348 0044 00       		.byte	0
GAS LISTING C:\Users\NJLLMR~1\AppData\Local\Temp\ccqhcbG2.s 			page 8


 349 0045 00       		.byte	0
 350 0046 05       		.uleb128 0x5
 351 0047 05       		.uleb128 0x5
 352 0048 00       		.byte	0
 353 0049 49       		.uleb128 0x49
 354 004a 13       		.uleb128 0x13
 355 004b 34       		.uleb128 0x34
 356 004c 19       		.uleb128 0x19
 357 004d 00       		.byte	0
 358 004e 00       		.byte	0
 359 004f 06       		.uleb128 0x6
 360 0050 05       		.uleb128 0x5
 361 0051 00       		.byte	0
 362 0052 49       		.uleb128 0x49
 363 0053 13       		.uleb128 0x13
 364 0054 00       		.byte	0
 365 0055 00       		.byte	0
 366 0056 07       		.uleb128 0x7
 367 0057 2E       		.uleb128 0x2e
 368 0058 01       		.byte	0x1
 369 0059 3F       		.uleb128 0x3f
 370 005a 19       		.uleb128 0x19
 371 005b 03       		.uleb128 0x3
 372 005c 0E       		.uleb128 0xe
 373 005d 3A       		.uleb128 0x3a
 374 005e 0B       		.uleb128 0xb
 375 005f 3B       		.uleb128 0x3b
 376 0060 0B       		.uleb128 0xb
 377 0061 32       		.uleb128 0x32
 378 0062 0B       		.uleb128 0xb
 379 0063 3C       		.uleb128 0x3c
 380 0064 19       		.uleb128 0x19
 381 0065 64       		.uleb128 0x64
 382 0066 13       		.uleb128 0x13
 383 0067 01       		.uleb128 0x1
 384 0068 13       		.uleb128 0x13
 385 0069 00       		.byte	0
 386 006a 00       		.byte	0
 387 006b 08       		.uleb128 0x8
 388 006c 2E       		.uleb128 0x2e
 389 006d 01       		.byte	0x1
 390 006e 3F       		.uleb128 0x3f
 391 006f 19       		.uleb128 0x19
 392 0070 03       		.uleb128 0x3
 393 0071 08       		.uleb128 0x8
 394 0072 3A       		.uleb128 0x3a
 395 0073 0B       		.uleb128 0xb
 396 0074 3B       		.uleb128 0x3b
 397 0075 0B       		.uleb128 0xb
 398 0076 4C       		.uleb128 0x4c
 399 0077 0B       		.uleb128 0xb
 400 0078 1D       		.uleb128 0x1d
 401 0079 13       		.uleb128 0x13
 402 007a 32       		.uleb128 0x32
 403 007b 0B       		.uleb128 0xb
 404 007c 3C       		.uleb128 0x3c
 405 007d 19       		.uleb128 0x19
GAS LISTING C:\Users\NJLLMR~1\AppData\Local\Temp\ccqhcbG2.s 			page 9


 406 007e 64       		.uleb128 0x64
 407 007f 13       		.uleb128 0x13
 408 0080 00       		.byte	0
 409 0081 00       		.byte	0
 410 0082 09       		.uleb128 0x9
 411 0083 15       		.uleb128 0x15
 412 0084 01       		.byte	0x1
 413 0085 49       		.uleb128 0x49
 414 0086 13       		.uleb128 0x13
 415 0087 01       		.uleb128 0x1
 416 0088 13       		.uleb128 0x13
 417 0089 00       		.byte	0
 418 008a 00       		.byte	0
 419 008b 0A       		.uleb128 0xa
 420 008c 18       		.uleb128 0x18
 421 008d 00       		.byte	0
 422 008e 00       		.byte	0
 423 008f 00       		.byte	0
 424 0090 0B       		.uleb128 0xb
 425 0091 24       		.uleb128 0x24
 426 0092 00       		.byte	0
 427 0093 0B       		.uleb128 0xb
 428 0094 0B       		.uleb128 0xb
 429 0095 3E       		.uleb128 0x3e
 430 0096 0B       		.uleb128 0xb
 431 0097 03       		.uleb128 0x3
 432 0098 08       		.uleb128 0x8
 433 0099 00       		.byte	0
 434 009a 00       		.byte	0
 435 009b 0C       		.uleb128 0xc
 436 009c 0F       		.uleb128 0xf
 437 009d 00       		.byte	0
 438 009e 0B       		.uleb128 0xb
 439 009f 0B       		.uleb128 0xb
 440 00a0 49       		.uleb128 0x49
 441 00a1 13       		.uleb128 0x13
 442 00a2 00       		.byte	0
 443 00a3 00       		.byte	0
 444 00a4 0D       		.uleb128 0xd
 445 00a5 0F       		.uleb128 0xf
 446 00a6 00       		.byte	0
 447 00a7 0B       		.uleb128 0xb
 448 00a8 0B       		.uleb128 0xb
 449 00a9 03       		.uleb128 0x3
 450 00aa 08       		.uleb128 0x8
 451 00ab 49       		.uleb128 0x49
 452 00ac 13       		.uleb128 0x13
 453 00ad 00       		.byte	0
 454 00ae 00       		.byte	0
 455 00af 0E       		.uleb128 0xe
 456 00b0 10       		.uleb128 0x10
 457 00b1 00       		.byte	0
 458 00b2 0B       		.uleb128 0xb
 459 00b3 0B       		.uleb128 0xb
 460 00b4 49       		.uleb128 0x49
 461 00b5 13       		.uleb128 0x13
 462 00b6 00       		.byte	0
GAS LISTING C:\Users\NJLLMR~1\AppData\Local\Temp\ccqhcbG2.s 			page 10


 463 00b7 00       		.byte	0
 464 00b8 0F       		.uleb128 0xf
 465 00b9 26       		.uleb128 0x26
 466 00ba 00       		.byte	0
 467 00bb 49       		.uleb128 0x49
 468 00bc 13       		.uleb128 0x13
 469 00bd 00       		.byte	0
 470 00be 00       		.byte	0
 471 00bf 10       		.uleb128 0x10
 472 00c0 2E       		.uleb128 0x2e
 473 00c1 01       		.byte	0x1
 474 00c2 47       		.uleb128 0x47
 475 00c3 13       		.uleb128 0x13
 476 00c4 20       		.uleb128 0x20
 477 00c5 0B       		.uleb128 0xb
 478 00c6 64       		.uleb128 0x64
 479 00c7 13       		.uleb128 0x13
 480 00c8 01       		.uleb128 0x1
 481 00c9 13       		.uleb128 0x13
 482 00ca 00       		.byte	0
 483 00cb 00       		.byte	0
 484 00cc 11       		.uleb128 0x11
 485 00cd 05       		.uleb128 0x5
 486 00ce 00       		.byte	0
 487 00cf 03       		.uleb128 0x3
 488 00d0 08       		.uleb128 0x8
 489 00d1 49       		.uleb128 0x49
 490 00d2 13       		.uleb128 0x13
 491 00d3 34       		.uleb128 0x34
 492 00d4 19       		.uleb128 0x19
 493 00d5 00       		.byte	0
 494 00d6 00       		.byte	0
 495 00d7 12       		.uleb128 0x12
 496 00d8 2E       		.uleb128 0x2e
 497 00d9 01       		.byte	0x1
 498 00da 31       		.uleb128 0x31
 499 00db 13       		.uleb128 0x13
 500 00dc 6E       		.uleb128 0x6e
 501 00dd 08       		.uleb128 0x8
 502 00de 11       		.uleb128 0x11
 503 00df 01       		.uleb128 0x1
 504 00e0 12       		.uleb128 0x12
 505 00e1 06       		.uleb128 0x6
 506 00e2 40       		.uleb128 0x40
 507 00e3 18       		.uleb128 0x18
 508 00e4 64       		.uleb128 0x64
 509 00e5 13       		.uleb128 0x13
 510 00e6 9742     		.uleb128 0x2117
 511 00e8 19       		.uleb128 0x19
 512 00e9 01       		.uleb128 0x1
 513 00ea 13       		.uleb128 0x13
 514 00eb 00       		.byte	0
 515 00ec 00       		.byte	0
 516 00ed 13       		.uleb128 0x13
 517 00ee 05       		.uleb128 0x5
 518 00ef 00       		.byte	0
 519 00f0 31       		.uleb128 0x31
GAS LISTING C:\Users\NJLLMR~1\AppData\Local\Temp\ccqhcbG2.s 			page 11


 520 00f1 13       		.uleb128 0x13
 521 00f2 02       		.uleb128 0x2
 522 00f3 18       		.uleb128 0x18
 523 00f4 00       		.byte	0
 524 00f5 00       		.byte	0
 525 00f6 14       		.uleb128 0x14
 526 00f7 2E       		.uleb128 0x2e
 527 00f8 01       		.byte	0x1
 528 00f9 31       		.uleb128 0x31
 529 00fa 13       		.uleb128 0x13
 530 00fb 6E       		.uleb128 0x6e
 531 00fc 08       		.uleb128 0x8
 532 00fd 11       		.uleb128 0x11
 533 00fe 01       		.uleb128 0x1
 534 00ff 12       		.uleb128 0x12
 535 0100 06       		.uleb128 0x6
 536 0101 40       		.uleb128 0x40
 537 0102 18       		.uleb128 0x18
 538 0103 64       		.uleb128 0x64
 539 0104 13       		.uleb128 0x13
 540 0105 9642     		.uleb128 0x2116
 541 0107 19       		.uleb128 0x19
 542 0108 01       		.uleb128 0x1
 543 0109 13       		.uleb128 0x13
 544 010a 00       		.byte	0
 545 010b 00       		.byte	0
 546 010c 15       		.uleb128 0x15
 547 010d 2E       		.uleb128 0x2e
 548 010e 01       		.byte	0x1
 549 010f 31       		.uleb128 0x31
 550 0110 13       		.uleb128 0x13
 551 0111 6E       		.uleb128 0x6e
 552 0112 08       		.uleb128 0x8
 553 0113 11       		.uleb128 0x11
 554 0114 01       		.uleb128 0x1
 555 0115 12       		.uleb128 0x12
 556 0116 06       		.uleb128 0x6
 557 0117 40       		.uleb128 0x40
 558 0118 18       		.uleb128 0x18
 559 0119 64       		.uleb128 0x64
 560 011a 13       		.uleb128 0x13
 561 011b 9642     		.uleb128 0x2116
 562 011d 19       		.uleb128 0x19
 563 011e 00       		.byte	0
 564 011f 00       		.byte	0
 565 0120 00       		.byte	0
 566              		.section	.debug_aranges,"dr"
 567 0000 1C000000 		.long	0x1c
 568 0004 0200     		.word	0x2
 569 0006 00000000 		.secrel32	Ldebug_info0
 570 000a 04       		.byte	0x4
 571 000b 00       		.byte	0
 572 000c 0000     		.word	0
 573 000e 0000     		.word	0
 574 0010 00000000 		.long	Ltext0
 575 0014 5C000000 		.long	Letext0-Ltext0
 576 0018 00000000 		.long	0
GAS LISTING C:\Users\NJLLMR~1\AppData\Local\Temp\ccqhcbG2.s 			page 12


 577 001c 00000000 		.long	0
 578              		.section	.debug_line,"dr"
 579              	Ldebug_line0:
 580 0000 9F000000 		.section	.debug_str,"dr"
 580      02007D00 
 580      00000101 
 580      FB0E0D00 
 580      01010101 
 581              	LASF0:
 582 0000 44656C69 		.ascii "Delivery\0"
 582      76657279 
 582      00
 583              		.ident	"GCC: (tdm-1) 4.9.2"
GAS LISTING C:\Users\NJLLMR~1\AppData\Local\Temp\ccqhcbG2.s 			page 13


DEFINED SYMBOLS
                            *ABS*:00000000 Delivery.cpp
C:\Users\NJLLMR~1\AppData\Local\Temp\ccqhcbG2.s:8      .text:00000000 __ZN8DeliveryC2Ev
C:\Users\NJLLMR~1\AppData\Local\Temp\ccqhcbG2.s:104    .rdata$_ZTV8Delivery:00000000 __ZTV8Delivery
C:\Users\NJLLMR~1\AppData\Local\Temp\ccqhcbG2.s:8      .text:00000000 __ZN8DeliveryC1Ev
C:\Users\NJLLMR~1\AppData\Local\Temp\ccqhcbG2.s:38     .text:00000014 __ZN8DeliveryD2Ev
C:\Users\NJLLMR~1\AppData\Local\Temp\ccqhcbG2.s:38     .text:00000014 __ZN8DeliveryD1Ev
C:\Users\NJLLMR~1\AppData\Local\Temp\ccqhcbG2.s:76     .text:0000003c __ZN8DeliveryD0Ev
C:\Users\NJLLMR~1\AppData\Local\Temp\ccqhcbG2.s:113    .rdata$_ZTI8Delivery:00000000 __ZTI8Delivery
C:\Users\NJLLMR~1\AppData\Local\Temp\ccqhcbG2.s:119    .rdata$_ZTS8Delivery:00000000 __ZTS8Delivery

UNDEFINED SYMBOLS
__ZTVN10__cxxabiv117__class_type_infoE
__ZdlPv
